ARM GAS  C:\Users\anmh1\AppData\Local\Temp\ccBPLcM2.s 			page 1


   1              		.cpu cortex-m4
   2              		.eabi_attribute 27, 1
   3              		.eabi_attribute 28, 1
   4              		.eabi_attribute 20, 1
   5              		.eabi_attribute 21, 1
   6              		.eabi_attribute 23, 3
   7              		.eabi_attribute 24, 1
   8              		.eabi_attribute 25, 1
   9              		.eabi_attribute 26, 1
  10              		.eabi_attribute 30, 1
  11              		.eabi_attribute 34, 1
  12              		.eabi_attribute 18, 4
  13              		.file	"vl53l0x_api.c"
  14              		.text
  15              	.Ltext0:
  16              		.cfi_sections	.debug_frame
  17              		.section	.text.VL53L0X_GetVersion,"ax",%progbits
  18              		.align	1
  19              		.global	VL53L0X_GetVersion
  20              		.arch armv7e-m
  21              		.syntax unified
  22              		.thumb
  23              		.thumb_func
  24              		.fpu fpv4-sp-d16
  26              	VL53L0X_GetVersion:
  27              	.LVL0:
  28              	.LFB133:
  29              		.file 1 "Core/Src/vl53l0x_api.c"
   1:Core/Src/vl53l0x_api.c **** /*******************************************************************************
   2:Core/Src/vl53l0x_api.c ****  Copyright © 2016, STMicroelectronics International N.V.
   3:Core/Src/vl53l0x_api.c ****  All rights reserved.
   4:Core/Src/vl53l0x_api.c **** 
   5:Core/Src/vl53l0x_api.c ****  Redistribution and use in source and binary forms, with or without
   6:Core/Src/vl53l0x_api.c ****  modification, are permitted provided that the following conditions are met:
   7:Core/Src/vl53l0x_api.c ****  * Redistributions of source code must retain the above copyright
   8:Core/Src/vl53l0x_api.c ****  notice, this list of conditions and the following disclaimer.
   9:Core/Src/vl53l0x_api.c ****  * Redistributions in binary form must reproduce the above copyright
  10:Core/Src/vl53l0x_api.c ****  notice, this list of conditions and the following disclaimer in the
  11:Core/Src/vl53l0x_api.c ****  documentation and/or other materials provided with the distribution.
  12:Core/Src/vl53l0x_api.c ****  * Neither the name of STMicroelectronics nor the
  13:Core/Src/vl53l0x_api.c ****  names of its contributors may be used to endorse or promote products
  14:Core/Src/vl53l0x_api.c ****  derived from this software without specific prior written permission.
  15:Core/Src/vl53l0x_api.c **** 
  16:Core/Src/vl53l0x_api.c ****  THIS SOFTWARE IS PROVIDED BY THE COPYRIGHT HOLDERS AND CONTRIBUTORS "AS IS" AND
  17:Core/Src/vl53l0x_api.c ****  ANY EXPRESS OR IMPLIED WARRANTIES, INCLUDING, BUT NOT LIMITED TO, THE IMPLIED
  18:Core/Src/vl53l0x_api.c ****  WARRANTIES OF MERCHANTABILITY, FITNESS FOR A PARTICULAR PURPOSE, AND
  19:Core/Src/vl53l0x_api.c ****  NON-INFRINGEMENT OF INTELLECTUAL PROPERTY RIGHTS ARE DISCLAIMED.
  20:Core/Src/vl53l0x_api.c ****  IN NO EVENT SHALL STMICROELECTRONICS INTERNATIONAL N.V. BE LIABLE FOR ANY
  21:Core/Src/vl53l0x_api.c ****  DIRECT, INDIRECT, INCIDENTAL, SPECIAL, EXEMPLARY, OR CONSEQUENTIAL DAMAGES
  22:Core/Src/vl53l0x_api.c ****  (INCLUDING, BUT NOT LIMITED TO, PROCUREMENT OF SUBSTITUTE GOODS OR SERVICES;
  23:Core/Src/vl53l0x_api.c ****  LOSS OF USE, DATA, OR PROFITS; OR BUSINESS INTERRUPTION) HOWEVER CAUSED AND
  24:Core/Src/vl53l0x_api.c ****  ON ANY THEORY OF LIABILITY, WHETHER IN CONTRACT, STRICT LIABILITY, OR TORT
  25:Core/Src/vl53l0x_api.c ****  (INCLUDING NEGLIGENCE OR OTHERWISE) ARISING IN ANY WAY OUT OF THE USE OF THIS
  26:Core/Src/vl53l0x_api.c ****  SOFTWARE, EVEN IF ADVISED OF THE POSSIBILITY OF SUCH DAMAGE.
  27:Core/Src/vl53l0x_api.c ****  ******************************************************************************/
  28:Core/Src/vl53l0x_api.c **** 
  29:Core/Src/vl53l0x_api.c **** #include "vl53l0x_api.h"
ARM GAS  C:\Users\anmh1\AppData\Local\Temp\ccBPLcM2.s 			page 2


  30:Core/Src/vl53l0x_api.c **** #include "vl53l0x_tuning.h"
  31:Core/Src/vl53l0x_api.c **** #include "vl53l0x_interrupt_threshold_settings.h"
  32:Core/Src/vl53l0x_api.c **** #include "vl53l0x_api_core.h"
  33:Core/Src/vl53l0x_api.c **** #include "vl53l0x_api_calibration.h"
  34:Core/Src/vl53l0x_api.c **** #include "vl53l0x_api_strings.h"
  35:Core/Src/vl53l0x_api.c **** 
  36:Core/Src/vl53l0x_api.c **** #ifndef __KERNEL__
  37:Core/Src/vl53l0x_api.c **** #include <stdlib.h>
  38:Core/Src/vl53l0x_api.c **** #endif
  39:Core/Src/vl53l0x_api.c **** #define LOG_FUNCTION_START(fmt, ...) \
  40:Core/Src/vl53l0x_api.c **** 	_LOG_FUNCTION_START(TRACE_MODULE_API, fmt, ##__VA_ARGS__)
  41:Core/Src/vl53l0x_api.c **** #define LOG_FUNCTION_END(status, ...) \
  42:Core/Src/vl53l0x_api.c **** 	_LOG_FUNCTION_END(TRACE_MODULE_API, status, ##__VA_ARGS__)
  43:Core/Src/vl53l0x_api.c **** #define LOG_FUNCTION_END_FMT(status, fmt, ...) \
  44:Core/Src/vl53l0x_api.c **** 	_LOG_FUNCTION_END_FMT(TRACE_MODULE_API, status, fmt, ##__VA_ARGS__)
  45:Core/Src/vl53l0x_api.c **** 
  46:Core/Src/vl53l0x_api.c **** #ifdef VL53L0X_LOG_ENABLE
  47:Core/Src/vl53l0x_api.c **** #define trace_print(level, ...) trace_print_module_function(TRACE_MODULE_API, \
  48:Core/Src/vl53l0x_api.c **** 	level, TRACE_FUNCTION_NONE, ##__VA_ARGS__)
  49:Core/Src/vl53l0x_api.c **** #endif
  50:Core/Src/vl53l0x_api.c **** 
  51:Core/Src/vl53l0x_api.c **** /* Group PAL General Functions */
  52:Core/Src/vl53l0x_api.c **** 
  53:Core/Src/vl53l0x_api.c **** VL53L0X_Error VL53L0X_GetVersion(VL53L0X_Version_t *pVersion)
  54:Core/Src/vl53l0x_api.c **** {
  30              		.loc 1 54 1 view -0
  31              		.cfi_startproc
  32              		@ args = 0, pretend = 0, frame = 0
  33              		@ frame_needed = 0, uses_anonymous_args = 0
  34              		@ link register save eliminated.
  35              		.loc 1 54 1 is_stmt 0 view .LVU1
  36 0000 0346     		mov	r3, r0
  55:Core/Src/vl53l0x_api.c **** 	VL53L0X_Error Status = VL53L0X_ERROR_NONE;
  37              		.loc 1 55 2 is_stmt 1 view .LVU2
  38              	.LVL1:
  56:Core/Src/vl53l0x_api.c **** 	LOG_FUNCTION_START("");
  39              		.loc 1 56 2 view .LVU3
  57:Core/Src/vl53l0x_api.c **** 
  58:Core/Src/vl53l0x_api.c **** 	pVersion->major = VL53L0X_IMPLEMENTATION_VER_MAJOR;
  40              		.loc 1 58 2 view .LVU4
  41              		.loc 1 58 18 is_stmt 0 view .LVU5
  42 0002 0122     		movs	r2, #1
  43 0004 0271     		strb	r2, [r0, #4]
  59:Core/Src/vl53l0x_api.c **** 	pVersion->minor = VL53L0X_IMPLEMENTATION_VER_MINOR;
  44              		.loc 1 59 2 is_stmt 1 view .LVU6
  45              		.loc 1 59 18 is_stmt 0 view .LVU7
  46 0006 0020     		movs	r0, #0
  47              	.LVL2:
  48              		.loc 1 59 18 view .LVU8
  49 0008 5871     		strb	r0, [r3, #5]
  60:Core/Src/vl53l0x_api.c **** 	pVersion->build = VL53L0X_IMPLEMENTATION_VER_SUB;
  50              		.loc 1 60 2 is_stmt 1 view .LVU9
  51              		.loc 1 60 18 is_stmt 0 view .LVU10
  52 000a 0222     		movs	r2, #2
  53 000c 9A71     		strb	r2, [r3, #6]
  61:Core/Src/vl53l0x_api.c **** 
  62:Core/Src/vl53l0x_api.c **** 	pVersion->revision = VL53L0X_IMPLEMENTATION_VER_REVISION;
ARM GAS  C:\Users\anmh1\AppData\Local\Temp\ccBPLcM2.s 			page 3


  54              		.loc 1 62 2 is_stmt 1 view .LVU11
  55              		.loc 1 62 21 is_stmt 0 view .LVU12
  56 000e 41F2D722 		movw	r2, #4823
  57 0012 1A60     		str	r2, [r3]
  63:Core/Src/vl53l0x_api.c **** 
  64:Core/Src/vl53l0x_api.c **** 	LOG_FUNCTION_END(Status);
  58              		.loc 1 64 2 is_stmt 1 view .LVU13
  65:Core/Src/vl53l0x_api.c **** 	return Status;
  59              		.loc 1 65 2 view .LVU14
  66:Core/Src/vl53l0x_api.c **** }
  60              		.loc 1 66 1 is_stmt 0 view .LVU15
  61 0014 7047     		bx	lr
  62              		.cfi_endproc
  63              	.LFE133:
  65              		.section	.text.VL53L0X_GetPalSpecVersion,"ax",%progbits
  66              		.align	1
  67              		.global	VL53L0X_GetPalSpecVersion
  68              		.syntax unified
  69              		.thumb
  70              		.thumb_func
  71              		.fpu fpv4-sp-d16
  73              	VL53L0X_GetPalSpecVersion:
  74              	.LVL3:
  75              	.LFB134:
  67:Core/Src/vl53l0x_api.c **** 
  68:Core/Src/vl53l0x_api.c **** VL53L0X_Error VL53L0X_GetPalSpecVersion(VL53L0X_Version_t *pPalSpecVersion)
  69:Core/Src/vl53l0x_api.c **** {
  76              		.loc 1 69 1 is_stmt 1 view -0
  77              		.cfi_startproc
  78              		@ args = 0, pretend = 0, frame = 0
  79              		@ frame_needed = 0, uses_anonymous_args = 0
  80              		@ link register save eliminated.
  70:Core/Src/vl53l0x_api.c **** 	VL53L0X_Error Status = VL53L0X_ERROR_NONE;
  81              		.loc 1 70 2 view .LVU17
  71:Core/Src/vl53l0x_api.c **** 
  72:Core/Src/vl53l0x_api.c **** 	LOG_FUNCTION_START("");
  82              		.loc 1 72 2 view .LVU18
  73:Core/Src/vl53l0x_api.c **** 
  74:Core/Src/vl53l0x_api.c **** 	pPalSpecVersion->major = VL53L0X_SPECIFICATION_VER_MAJOR;
  83              		.loc 1 74 2 view .LVU19
  84              		.loc 1 74 25 is_stmt 0 view .LVU20
  85 0000 0123     		movs	r3, #1
  86 0002 0371     		strb	r3, [r0, #4]
  75:Core/Src/vl53l0x_api.c **** 	pPalSpecVersion->minor = VL53L0X_SPECIFICATION_VER_MINOR;
  87              		.loc 1 75 2 is_stmt 1 view .LVU21
  88              		.loc 1 75 25 is_stmt 0 view .LVU22
  89 0004 0223     		movs	r3, #2
  90 0006 4371     		strb	r3, [r0, #5]
  76:Core/Src/vl53l0x_api.c **** 	pPalSpecVersion->build = VL53L0X_SPECIFICATION_VER_SUB;
  91              		.loc 1 76 2 is_stmt 1 view .LVU23
  92              		.loc 1 76 25 is_stmt 0 view .LVU24
  93 0008 0723     		movs	r3, #7
  94 000a 8371     		strb	r3, [r0, #6]
  77:Core/Src/vl53l0x_api.c **** 
  78:Core/Src/vl53l0x_api.c **** 	pPalSpecVersion->revision = VL53L0X_SPECIFICATION_VER_REVISION;
  95              		.loc 1 78 2 is_stmt 1 view .LVU25
  96              		.loc 1 78 28 is_stmt 0 view .LVU26
ARM GAS  C:\Users\anmh1\AppData\Local\Temp\ccBPLcM2.s 			page 4


  97 000c 4FF4B463 		mov	r3, #1440
  98 0010 0360     		str	r3, [r0]
  79:Core/Src/vl53l0x_api.c **** 
  80:Core/Src/vl53l0x_api.c **** 	LOG_FUNCTION_END(Status);
  99              		.loc 1 80 2 is_stmt 1 view .LVU27
  81:Core/Src/vl53l0x_api.c **** 	return Status;
 100              		.loc 1 81 2 view .LVU28
  82:Core/Src/vl53l0x_api.c **** }
 101              		.loc 1 82 1 is_stmt 0 view .LVU29
 102 0012 0020     		movs	r0, #0
 103              	.LVL4:
 104              		.loc 1 82 1 view .LVU30
 105 0014 7047     		bx	lr
 106              		.cfi_endproc
 107              	.LFE134:
 109              		.section	.text.VL53L0X_GetProductRevision,"ax",%progbits
 110              		.align	1
 111              		.global	VL53L0X_GetProductRevision
 112              		.syntax unified
 113              		.thumb
 114              		.thumb_func
 115              		.fpu fpv4-sp-d16
 117              	VL53L0X_GetProductRevision:
 118              	.LVL5:
 119              	.LFB135:
  83:Core/Src/vl53l0x_api.c **** 
  84:Core/Src/vl53l0x_api.c **** VL53L0X_Error VL53L0X_GetProductRevision(VL53L0X_DEV Dev,
  85:Core/Src/vl53l0x_api.c **** 	uint8_t *pProductRevisionMajor, uint8_t *pProductRevisionMinor)
  86:Core/Src/vl53l0x_api.c **** {
 120              		.loc 1 86 1 is_stmt 1 view -0
 121              		.cfi_startproc
 122              		@ args = 0, pretend = 0, frame = 8
 123              		@ frame_needed = 0, uses_anonymous_args = 0
 124              		.loc 1 86 1 is_stmt 0 view .LVU32
 125 0000 30B5     		push	{r4, r5, lr}
 126              		.cfi_def_cfa_offset 12
 127              		.cfi_offset 4, -12
 128              		.cfi_offset 5, -8
 129              		.cfi_offset 14, -4
 130 0002 83B0     		sub	sp, sp, #12
 131              		.cfi_def_cfa_offset 24
 132 0004 0D46     		mov	r5, r1
 133 0006 1446     		mov	r4, r2
  87:Core/Src/vl53l0x_api.c **** 	VL53L0X_Error Status = VL53L0X_ERROR_NONE;
 134              		.loc 1 87 2 is_stmt 1 view .LVU33
 135              	.LVL6:
  88:Core/Src/vl53l0x_api.c **** 	uint8_t revision_id;
 136              		.loc 1 88 2 view .LVU34
  89:Core/Src/vl53l0x_api.c **** 
  90:Core/Src/vl53l0x_api.c **** 	LOG_FUNCTION_START("");
 137              		.loc 1 90 2 view .LVU35
  91:Core/Src/vl53l0x_api.c **** 
  92:Core/Src/vl53l0x_api.c **** 	Status = VL53L0X_RdByte(Dev, VL53L0X_REG_IDENTIFICATION_REVISION_ID,
 138              		.loc 1 92 2 view .LVU36
 139              		.loc 1 92 11 is_stmt 0 view .LVU37
 140 0008 0DF10702 		add	r2, sp, #7
 141              	.LVL7:
ARM GAS  C:\Users\anmh1\AppData\Local\Temp\ccBPLcM2.s 			page 5


 142              		.loc 1 92 11 view .LVU38
 143 000c C221     		movs	r1, #194
 144              	.LVL8:
 145              		.loc 1 92 11 view .LVU39
 146 000e FFF7FEFF 		bl	VL53L0X_RdByte
 147              	.LVL9:
  93:Core/Src/vl53l0x_api.c **** 		&revision_id);
  94:Core/Src/vl53l0x_api.c **** 	*pProductRevisionMajor = 1;
 148              		.loc 1 94 2 is_stmt 1 view .LVU40
 149              		.loc 1 94 25 is_stmt 0 view .LVU41
 150 0012 0123     		movs	r3, #1
 151 0014 2B70     		strb	r3, [r5]
  95:Core/Src/vl53l0x_api.c **** 	*pProductRevisionMinor = (revision_id & 0xF0) >> 4;
 152              		.loc 1 95 2 is_stmt 1 view .LVU42
 153              		.loc 1 95 48 is_stmt 0 view .LVU43
 154 0016 9DF80730 		ldrb	r3, [sp, #7]	@ zero_extendqisi2
 155 001a 1B09     		lsrs	r3, r3, #4
 156              		.loc 1 95 25 view .LVU44
 157 001c 2370     		strb	r3, [r4]
  96:Core/Src/vl53l0x_api.c **** 
  97:Core/Src/vl53l0x_api.c **** 	LOG_FUNCTION_END(Status);
 158              		.loc 1 97 2 is_stmt 1 view .LVU45
  98:Core/Src/vl53l0x_api.c **** 	return Status;
 159              		.loc 1 98 2 view .LVU46
  99:Core/Src/vl53l0x_api.c **** 
 100:Core/Src/vl53l0x_api.c **** }
 160              		.loc 1 100 1 is_stmt 0 view .LVU47
 161 001e 03B0     		add	sp, sp, #12
 162              		.cfi_def_cfa_offset 12
 163              		@ sp needed
 164 0020 30BD     		pop	{r4, r5, pc}
 165              		.loc 1 100 1 view .LVU48
 166              		.cfi_endproc
 167              	.LFE135:
 169              		.section	.text.VL53L0X_GetDeviceInfo,"ax",%progbits
 170              		.align	1
 171              		.global	VL53L0X_GetDeviceInfo
 172              		.syntax unified
 173              		.thumb
 174              		.thumb_func
 175              		.fpu fpv4-sp-d16
 177              	VL53L0X_GetDeviceInfo:
 178              	.LVL10:
 179              	.LFB136:
 101:Core/Src/vl53l0x_api.c **** 
 102:Core/Src/vl53l0x_api.c **** VL53L0X_Error VL53L0X_GetDeviceInfo(VL53L0X_DEV Dev,
 103:Core/Src/vl53l0x_api.c **** 	VL53L0X_DeviceInfo_t *pVL53L0X_DeviceInfo)
 104:Core/Src/vl53l0x_api.c **** {
 180              		.loc 1 104 1 is_stmt 1 view -0
 181              		.cfi_startproc
 182              		@ args = 0, pretend = 0, frame = 0
 183              		@ frame_needed = 0, uses_anonymous_args = 0
 184              		.loc 1 104 1 is_stmt 0 view .LVU50
 185 0000 08B5     		push	{r3, lr}
 186              		.cfi_def_cfa_offset 8
 187              		.cfi_offset 3, -8
 188              		.cfi_offset 14, -4
ARM GAS  C:\Users\anmh1\AppData\Local\Temp\ccBPLcM2.s 			page 6


 105:Core/Src/vl53l0x_api.c **** 	VL53L0X_Error Status = VL53L0X_ERROR_NONE;
 189              		.loc 1 105 2 is_stmt 1 view .LVU51
 190              	.LVL11:
 106:Core/Src/vl53l0x_api.c **** 	LOG_FUNCTION_START("");
 191              		.loc 1 106 2 view .LVU52
 107:Core/Src/vl53l0x_api.c **** 
 108:Core/Src/vl53l0x_api.c **** 	Status = VL53L0X_get_device_info(Dev, pVL53L0X_DeviceInfo);
 192              		.loc 1 108 2 view .LVU53
 193              		.loc 1 108 11 is_stmt 0 view .LVU54
 194 0002 FFF7FEFF 		bl	VL53L0X_get_device_info
 195              	.LVL12:
 109:Core/Src/vl53l0x_api.c **** 
 110:Core/Src/vl53l0x_api.c **** 	LOG_FUNCTION_END(Status);
 196              		.loc 1 110 2 is_stmt 1 view .LVU55
 111:Core/Src/vl53l0x_api.c **** 	return Status;
 197              		.loc 1 111 2 view .LVU56
 112:Core/Src/vl53l0x_api.c **** }
 198              		.loc 1 112 1 is_stmt 0 view .LVU57
 199 0006 08BD     		pop	{r3, pc}
 200              		.cfi_endproc
 201              	.LFE136:
 203              		.section	.text.VL53L0X_GetDeviceErrorStatus,"ax",%progbits
 204              		.align	1
 205              		.global	VL53L0X_GetDeviceErrorStatus
 206              		.syntax unified
 207              		.thumb
 208              		.thumb_func
 209              		.fpu fpv4-sp-d16
 211              	VL53L0X_GetDeviceErrorStatus:
 212              	.LVL13:
 213              	.LFB137:
 113:Core/Src/vl53l0x_api.c **** 
 114:Core/Src/vl53l0x_api.c **** VL53L0X_Error VL53L0X_GetDeviceErrorStatus(VL53L0X_DEV Dev,
 115:Core/Src/vl53l0x_api.c **** 	VL53L0X_DeviceError *pDeviceErrorStatus)
 116:Core/Src/vl53l0x_api.c **** {
 214              		.loc 1 116 1 is_stmt 1 view -0
 215              		.cfi_startproc
 216              		@ args = 0, pretend = 0, frame = 8
 217              		@ frame_needed = 0, uses_anonymous_args = 0
 218              		.loc 1 116 1 is_stmt 0 view .LVU59
 219 0000 10B5     		push	{r4, lr}
 220              		.cfi_def_cfa_offset 8
 221              		.cfi_offset 4, -8
 222              		.cfi_offset 14, -4
 223 0002 82B0     		sub	sp, sp, #8
 224              		.cfi_def_cfa_offset 16
 225 0004 0C46     		mov	r4, r1
 117:Core/Src/vl53l0x_api.c **** 	VL53L0X_Error Status = VL53L0X_ERROR_NONE;
 226              		.loc 1 117 2 is_stmt 1 view .LVU60
 227              	.LVL14:
 118:Core/Src/vl53l0x_api.c **** 	uint8_t RangeStatus;
 228              		.loc 1 118 2 view .LVU61
 119:Core/Src/vl53l0x_api.c **** 
 120:Core/Src/vl53l0x_api.c **** 	LOG_FUNCTION_START("");
 229              		.loc 1 120 2 view .LVU62
 121:Core/Src/vl53l0x_api.c **** 
 122:Core/Src/vl53l0x_api.c **** 	Status = VL53L0X_RdByte(Dev, VL53L0X_REG_RESULT_RANGE_STATUS,
ARM GAS  C:\Users\anmh1\AppData\Local\Temp\ccBPLcM2.s 			page 7


 230              		.loc 1 122 2 view .LVU63
 231              		.loc 1 122 11 is_stmt 0 view .LVU64
 232 0006 0DF10702 		add	r2, sp, #7
 233 000a 1421     		movs	r1, #20
 234              	.LVL15:
 235              		.loc 1 122 11 view .LVU65
 236 000c FFF7FEFF 		bl	VL53L0X_RdByte
 237              	.LVL16:
 123:Core/Src/vl53l0x_api.c **** 		&RangeStatus);
 124:Core/Src/vl53l0x_api.c **** 
 125:Core/Src/vl53l0x_api.c **** 	*pDeviceErrorStatus = (VL53L0X_DeviceError)((RangeStatus & 0x78) >> 3);
 238              		.loc 1 125 2 is_stmt 1 view .LVU66
 239              		.loc 1 125 67 is_stmt 0 view .LVU67
 240 0010 9DF80730 		ldrb	r3, [sp, #7]	@ zero_extendqisi2
 241              		.loc 1 125 24 view .LVU68
 242 0014 C3F3C303 		ubfx	r3, r3, #3, #4
 243              		.loc 1 125 22 view .LVU69
 244 0018 2370     		strb	r3, [r4]
 126:Core/Src/vl53l0x_api.c **** 
 127:Core/Src/vl53l0x_api.c **** 	LOG_FUNCTION_END(Status);
 245              		.loc 1 127 2 is_stmt 1 view .LVU70
 128:Core/Src/vl53l0x_api.c **** 	return Status;
 246              		.loc 1 128 2 view .LVU71
 129:Core/Src/vl53l0x_api.c **** }
 247              		.loc 1 129 1 is_stmt 0 view .LVU72
 248 001a 02B0     		add	sp, sp, #8
 249              		.cfi_def_cfa_offset 8
 250              		@ sp needed
 251 001c 10BD     		pop	{r4, pc}
 252              		.loc 1 129 1 view .LVU73
 253              		.cfi_endproc
 254              	.LFE137:
 256              		.section	.text.VL53L0X_GetDeviceErrorString,"ax",%progbits
 257              		.align	1
 258              		.global	VL53L0X_GetDeviceErrorString
 259              		.syntax unified
 260              		.thumb
 261              		.thumb_func
 262              		.fpu fpv4-sp-d16
 264              	VL53L0X_GetDeviceErrorString:
 265              	.LVL17:
 266              	.LFB138:
 130:Core/Src/vl53l0x_api.c **** 
 131:Core/Src/vl53l0x_api.c **** 
 132:Core/Src/vl53l0x_api.c **** VL53L0X_Error VL53L0X_GetDeviceErrorString(VL53L0X_DeviceError ErrorCode,
 133:Core/Src/vl53l0x_api.c **** 	char *pDeviceErrorString)
 134:Core/Src/vl53l0x_api.c **** {
 267              		.loc 1 134 1 is_stmt 1 view -0
 268              		.cfi_startproc
 269              		@ args = 0, pretend = 0, frame = 0
 270              		@ frame_needed = 0, uses_anonymous_args = 0
 271              		.loc 1 134 1 is_stmt 0 view .LVU75
 272 0000 08B5     		push	{r3, lr}
 273              		.cfi_def_cfa_offset 8
 274              		.cfi_offset 3, -8
 275              		.cfi_offset 14, -4
 135:Core/Src/vl53l0x_api.c **** 	VL53L0X_Error Status = VL53L0X_ERROR_NONE;
ARM GAS  C:\Users\anmh1\AppData\Local\Temp\ccBPLcM2.s 			page 8


 276              		.loc 1 135 2 is_stmt 1 view .LVU76
 277              	.LVL18:
 136:Core/Src/vl53l0x_api.c **** 
 137:Core/Src/vl53l0x_api.c **** 	LOG_FUNCTION_START("");
 278              		.loc 1 137 2 view .LVU77
 138:Core/Src/vl53l0x_api.c **** 
 139:Core/Src/vl53l0x_api.c **** 	Status = VL53L0X_get_device_error_string(ErrorCode, pDeviceErrorString);
 279              		.loc 1 139 2 view .LVU78
 280              		.loc 1 139 11 is_stmt 0 view .LVU79
 281 0002 FFF7FEFF 		bl	VL53L0X_get_device_error_string
 282              	.LVL19:
 140:Core/Src/vl53l0x_api.c **** 
 141:Core/Src/vl53l0x_api.c **** 	LOG_FUNCTION_END(Status);
 283              		.loc 1 141 2 is_stmt 1 view .LVU80
 142:Core/Src/vl53l0x_api.c **** 	return Status;
 284              		.loc 1 142 2 view .LVU81
 143:Core/Src/vl53l0x_api.c **** }
 285              		.loc 1 143 1 is_stmt 0 view .LVU82
 286 0006 08BD     		pop	{r3, pc}
 287              		.cfi_endproc
 288              	.LFE138:
 290              		.section	.text.VL53L0X_GetRangeStatusString,"ax",%progbits
 291              		.align	1
 292              		.global	VL53L0X_GetRangeStatusString
 293              		.syntax unified
 294              		.thumb
 295              		.thumb_func
 296              		.fpu fpv4-sp-d16
 298              	VL53L0X_GetRangeStatusString:
 299              	.LVL20:
 300              	.LFB139:
 144:Core/Src/vl53l0x_api.c **** 
 145:Core/Src/vl53l0x_api.c **** VL53L0X_Error VL53L0X_GetRangeStatusString(uint8_t RangeStatus,
 146:Core/Src/vl53l0x_api.c **** 	char *pRangeStatusString)
 147:Core/Src/vl53l0x_api.c **** {
 301              		.loc 1 147 1 is_stmt 1 view -0
 302              		.cfi_startproc
 303              		@ args = 0, pretend = 0, frame = 0
 304              		@ frame_needed = 0, uses_anonymous_args = 0
 305              		.loc 1 147 1 is_stmt 0 view .LVU84
 306 0000 08B5     		push	{r3, lr}
 307              		.cfi_def_cfa_offset 8
 308              		.cfi_offset 3, -8
 309              		.cfi_offset 14, -4
 148:Core/Src/vl53l0x_api.c **** 	VL53L0X_Error Status = VL53L0X_ERROR_NONE;
 310              		.loc 1 148 2 is_stmt 1 view .LVU85
 311              	.LVL21:
 149:Core/Src/vl53l0x_api.c **** 	LOG_FUNCTION_START("");
 312              		.loc 1 149 2 view .LVU86
 150:Core/Src/vl53l0x_api.c **** 
 151:Core/Src/vl53l0x_api.c **** 	Status = VL53L0X_get_range_status_string(RangeStatus,
 313              		.loc 1 151 2 view .LVU87
 314              		.loc 1 151 11 is_stmt 0 view .LVU88
 315 0002 FFF7FEFF 		bl	VL53L0X_get_range_status_string
 316              	.LVL22:
 152:Core/Src/vl53l0x_api.c **** 		pRangeStatusString);
 153:Core/Src/vl53l0x_api.c **** 
ARM GAS  C:\Users\anmh1\AppData\Local\Temp\ccBPLcM2.s 			page 9


 154:Core/Src/vl53l0x_api.c **** 	LOG_FUNCTION_END(Status);
 317              		.loc 1 154 2 is_stmt 1 view .LVU89
 155:Core/Src/vl53l0x_api.c **** 	return Status;
 318              		.loc 1 155 2 view .LVU90
 156:Core/Src/vl53l0x_api.c **** }
 319              		.loc 1 156 1 is_stmt 0 view .LVU91
 320 0006 08BD     		pop	{r3, pc}
 321              		.cfi_endproc
 322              	.LFE139:
 324              		.section	.text.VL53L0X_GetPalErrorString,"ax",%progbits
 325              		.align	1
 326              		.global	VL53L0X_GetPalErrorString
 327              		.syntax unified
 328              		.thumb
 329              		.thumb_func
 330              		.fpu fpv4-sp-d16
 332              	VL53L0X_GetPalErrorString:
 333              	.LVL23:
 334              	.LFB140:
 157:Core/Src/vl53l0x_api.c **** 
 158:Core/Src/vl53l0x_api.c **** VL53L0X_Error VL53L0X_GetPalErrorString(VL53L0X_Error PalErrorCode,
 159:Core/Src/vl53l0x_api.c **** 	char *pPalErrorString)
 160:Core/Src/vl53l0x_api.c **** {
 335              		.loc 1 160 1 is_stmt 1 view -0
 336              		.cfi_startproc
 337              		@ args = 0, pretend = 0, frame = 0
 338              		@ frame_needed = 0, uses_anonymous_args = 0
 339              		.loc 1 160 1 is_stmt 0 view .LVU93
 340 0000 08B5     		push	{r3, lr}
 341              		.cfi_def_cfa_offset 8
 342              		.cfi_offset 3, -8
 343              		.cfi_offset 14, -4
 161:Core/Src/vl53l0x_api.c **** 	VL53L0X_Error Status = VL53L0X_ERROR_NONE;
 344              		.loc 1 161 2 is_stmt 1 view .LVU94
 345              	.LVL24:
 162:Core/Src/vl53l0x_api.c **** 	LOG_FUNCTION_START("");
 346              		.loc 1 162 2 view .LVU95
 163:Core/Src/vl53l0x_api.c **** 
 164:Core/Src/vl53l0x_api.c **** 	Status = VL53L0X_get_pal_error_string(PalErrorCode, pPalErrorString);
 347              		.loc 1 164 2 view .LVU96
 348              		.loc 1 164 11 is_stmt 0 view .LVU97
 349 0002 FFF7FEFF 		bl	VL53L0X_get_pal_error_string
 350              	.LVL25:
 165:Core/Src/vl53l0x_api.c **** 
 166:Core/Src/vl53l0x_api.c **** 	LOG_FUNCTION_END(Status);
 351              		.loc 1 166 2 is_stmt 1 view .LVU98
 167:Core/Src/vl53l0x_api.c **** 	return Status;
 352              		.loc 1 167 2 view .LVU99
 168:Core/Src/vl53l0x_api.c **** }
 353              		.loc 1 168 1 is_stmt 0 view .LVU100
 354 0006 08BD     		pop	{r3, pc}
 355              		.cfi_endproc
 356              	.LFE140:
 358              		.section	.text.VL53L0X_GetPalStateString,"ax",%progbits
 359              		.align	1
 360              		.global	VL53L0X_GetPalStateString
 361              		.syntax unified
ARM GAS  C:\Users\anmh1\AppData\Local\Temp\ccBPLcM2.s 			page 10


 362              		.thumb
 363              		.thumb_func
 364              		.fpu fpv4-sp-d16
 366              	VL53L0X_GetPalStateString:
 367              	.LVL26:
 368              	.LFB141:
 169:Core/Src/vl53l0x_api.c **** 
 170:Core/Src/vl53l0x_api.c **** VL53L0X_Error VL53L0X_GetPalStateString(VL53L0X_State PalStateCode,
 171:Core/Src/vl53l0x_api.c **** 	char *pPalStateString)
 172:Core/Src/vl53l0x_api.c **** {
 369              		.loc 1 172 1 is_stmt 1 view -0
 370              		.cfi_startproc
 371              		@ args = 0, pretend = 0, frame = 0
 372              		@ frame_needed = 0, uses_anonymous_args = 0
 373              		.loc 1 172 1 is_stmt 0 view .LVU102
 374 0000 08B5     		push	{r3, lr}
 375              		.cfi_def_cfa_offset 8
 376              		.cfi_offset 3, -8
 377              		.cfi_offset 14, -4
 173:Core/Src/vl53l0x_api.c **** 	VL53L0X_Error Status = VL53L0X_ERROR_NONE;
 378              		.loc 1 173 2 is_stmt 1 view .LVU103
 379              	.LVL27:
 174:Core/Src/vl53l0x_api.c **** 	LOG_FUNCTION_START("");
 380              		.loc 1 174 2 view .LVU104
 175:Core/Src/vl53l0x_api.c **** 
 176:Core/Src/vl53l0x_api.c **** 	Status = VL53L0X_get_pal_state_string(PalStateCode, pPalStateString);
 381              		.loc 1 176 2 view .LVU105
 382              		.loc 1 176 11 is_stmt 0 view .LVU106
 383 0002 FFF7FEFF 		bl	VL53L0X_get_pal_state_string
 384              	.LVL28:
 177:Core/Src/vl53l0x_api.c **** 
 178:Core/Src/vl53l0x_api.c **** 	LOG_FUNCTION_END(Status);
 385              		.loc 1 178 2 is_stmt 1 view .LVU107
 179:Core/Src/vl53l0x_api.c **** 	return Status;
 386              		.loc 1 179 2 view .LVU108
 180:Core/Src/vl53l0x_api.c **** }
 387              		.loc 1 180 1 is_stmt 0 view .LVU109
 388 0006 08BD     		pop	{r3, pc}
 389              		.cfi_endproc
 390              	.LFE141:
 392              		.section	.text.VL53L0X_GetPalState,"ax",%progbits
 393              		.align	1
 394              		.global	VL53L0X_GetPalState
 395              		.syntax unified
 396              		.thumb
 397              		.thumb_func
 398              		.fpu fpv4-sp-d16
 400              	VL53L0X_GetPalState:
 401              	.LVL29:
 402              	.LFB142:
 181:Core/Src/vl53l0x_api.c **** 
 182:Core/Src/vl53l0x_api.c **** VL53L0X_Error VL53L0X_GetPalState(VL53L0X_DEV Dev, VL53L0X_State *pPalState)
 183:Core/Src/vl53l0x_api.c **** {
 403              		.loc 1 183 1 is_stmt 1 view -0
 404              		.cfi_startproc
 405              		@ args = 0, pretend = 0, frame = 0
 406              		@ frame_needed = 0, uses_anonymous_args = 0
ARM GAS  C:\Users\anmh1\AppData\Local\Temp\ccBPLcM2.s 			page 11


 407              		@ link register save eliminated.
 184:Core/Src/vl53l0x_api.c **** 	VL53L0X_Error Status = VL53L0X_ERROR_NONE;
 408              		.loc 1 184 2 view .LVU111
 185:Core/Src/vl53l0x_api.c **** 	LOG_FUNCTION_START("");
 409              		.loc 1 185 2 view .LVU112
 186:Core/Src/vl53l0x_api.c **** 
 187:Core/Src/vl53l0x_api.c **** 	*pPalState = PALDevDataGet(Dev, PalState);
 410              		.loc 1 187 2 view .LVU113
 411              		.loc 1 187 15 is_stmt 0 view .LVU114
 412 0000 90F83231 		ldrb	r3, [r0, #306]	@ zero_extendqisi2
 413              		.loc 1 187 13 view .LVU115
 414 0004 0B70     		strb	r3, [r1]
 188:Core/Src/vl53l0x_api.c **** 
 189:Core/Src/vl53l0x_api.c **** 	LOG_FUNCTION_END(Status);
 415              		.loc 1 189 2 is_stmt 1 view .LVU116
 190:Core/Src/vl53l0x_api.c **** 	return Status;
 416              		.loc 1 190 2 view .LVU117
 191:Core/Src/vl53l0x_api.c **** }
 417              		.loc 1 191 1 is_stmt 0 view .LVU118
 418 0006 0020     		movs	r0, #0
 419              	.LVL30:
 420              		.loc 1 191 1 view .LVU119
 421 0008 7047     		bx	lr
 422              		.cfi_endproc
 423              	.LFE142:
 425              		.section	.text.VL53L0X_GetPowerMode,"ax",%progbits
 426              		.align	1
 427              		.global	VL53L0X_GetPowerMode
 428              		.syntax unified
 429              		.thumb
 430              		.thumb_func
 431              		.fpu fpv4-sp-d16
 433              	VL53L0X_GetPowerMode:
 434              	.LVL31:
 435              	.LFB144:
 192:Core/Src/vl53l0x_api.c **** 
 193:Core/Src/vl53l0x_api.c **** VL53L0X_Error VL53L0X_SetPowerMode(VL53L0X_DEV Dev, VL53L0X_PowerModes PowerMode)
 194:Core/Src/vl53l0x_api.c **** {
 195:Core/Src/vl53l0x_api.c **** 	VL53L0X_Error Status = VL53L0X_ERROR_NONE;
 196:Core/Src/vl53l0x_api.c **** 	LOG_FUNCTION_START("");
 197:Core/Src/vl53l0x_api.c **** 
 198:Core/Src/vl53l0x_api.c **** 	/* Only level1 of Power mode exists */
 199:Core/Src/vl53l0x_api.c **** 	if ((PowerMode != VL53L0X_POWERMODE_STANDBY_LEVEL1)
 200:Core/Src/vl53l0x_api.c **** 		&& (PowerMode != VL53L0X_POWERMODE_IDLE_LEVEL1)) {
 201:Core/Src/vl53l0x_api.c **** 		Status = VL53L0X_ERROR_MODE_NOT_SUPPORTED;
 202:Core/Src/vl53l0x_api.c **** 	} else if (PowerMode == VL53L0X_POWERMODE_STANDBY_LEVEL1) {
 203:Core/Src/vl53l0x_api.c **** 		/* set the standby level1 of power mode */
 204:Core/Src/vl53l0x_api.c **** 		Status = VL53L0X_WrByte(Dev, 0x80, 0x00);
 205:Core/Src/vl53l0x_api.c **** 		if (Status == VL53L0X_ERROR_NONE) {
 206:Core/Src/vl53l0x_api.c **** 			/* Set PAL State to standby */
 207:Core/Src/vl53l0x_api.c **** 			PALDevDataSet(Dev, PalState, VL53L0X_STATE_STANDBY);
 208:Core/Src/vl53l0x_api.c **** 			PALDevDataSet(Dev, PowerMode,
 209:Core/Src/vl53l0x_api.c **** 				VL53L0X_POWERMODE_STANDBY_LEVEL1);
 210:Core/Src/vl53l0x_api.c **** 		}
 211:Core/Src/vl53l0x_api.c **** 
 212:Core/Src/vl53l0x_api.c **** 	} else {
 213:Core/Src/vl53l0x_api.c **** 		/* VL53L0X_POWERMODE_IDLE_LEVEL1 */
ARM GAS  C:\Users\anmh1\AppData\Local\Temp\ccBPLcM2.s 			page 12


 214:Core/Src/vl53l0x_api.c **** 		Status = VL53L0X_WrByte(Dev, 0x80, 0x00);
 215:Core/Src/vl53l0x_api.c **** 		if (Status == VL53L0X_ERROR_NONE)
 216:Core/Src/vl53l0x_api.c **** 			Status = VL53L0X_StaticInit(Dev);
 217:Core/Src/vl53l0x_api.c **** 
 218:Core/Src/vl53l0x_api.c **** 		if (Status == VL53L0X_ERROR_NONE)
 219:Core/Src/vl53l0x_api.c **** 			PALDevDataSet(Dev, PowerMode,
 220:Core/Src/vl53l0x_api.c **** 				VL53L0X_POWERMODE_IDLE_LEVEL1);
 221:Core/Src/vl53l0x_api.c **** 
 222:Core/Src/vl53l0x_api.c **** 	}
 223:Core/Src/vl53l0x_api.c **** 
 224:Core/Src/vl53l0x_api.c **** 	LOG_FUNCTION_END(Status);
 225:Core/Src/vl53l0x_api.c **** 	return Status;
 226:Core/Src/vl53l0x_api.c **** }
 227:Core/Src/vl53l0x_api.c **** 
 228:Core/Src/vl53l0x_api.c **** VL53L0X_Error VL53L0X_GetPowerMode(VL53L0X_DEV Dev, VL53L0X_PowerModes *pPowerMode)
 229:Core/Src/vl53l0x_api.c **** {
 436              		.loc 1 229 1 is_stmt 1 view -0
 437              		.cfi_startproc
 438              		@ args = 0, pretend = 0, frame = 8
 439              		@ frame_needed = 0, uses_anonymous_args = 0
 440              		.loc 1 229 1 is_stmt 0 view .LVU121
 441 0000 10B5     		push	{r4, lr}
 442              		.cfi_def_cfa_offset 8
 443              		.cfi_offset 4, -8
 444              		.cfi_offset 14, -4
 445 0002 82B0     		sub	sp, sp, #8
 446              		.cfi_def_cfa_offset 16
 447 0004 0446     		mov	r4, r0
 230:Core/Src/vl53l0x_api.c **** 	VL53L0X_Error Status = VL53L0X_ERROR_NONE;
 448              		.loc 1 230 2 is_stmt 1 view .LVU122
 449              	.LVL32:
 231:Core/Src/vl53l0x_api.c **** 	uint8_t Byte;
 450              		.loc 1 231 2 view .LVU123
 232:Core/Src/vl53l0x_api.c **** 	LOG_FUNCTION_START("");
 451              		.loc 1 232 2 view .LVU124
 233:Core/Src/vl53l0x_api.c **** 
 234:Core/Src/vl53l0x_api.c **** 	/* Only level1 of Power mode exists */
 235:Core/Src/vl53l0x_api.c **** 	Status = VL53L0X_RdByte(Dev, 0x80, &Byte);
 452              		.loc 1 235 2 view .LVU125
 453              		.loc 1 235 11 is_stmt 0 view .LVU126
 454 0006 0DF10702 		add	r2, sp, #7
 455 000a 8021     		movs	r1, #128
 456              	.LVL33:
 457              		.loc 1 235 11 view .LVU127
 458 000c FFF7FEFF 		bl	VL53L0X_RdByte
 459              	.LVL34:
 236:Core/Src/vl53l0x_api.c **** 
 237:Core/Src/vl53l0x_api.c **** 	if (Status == VL53L0X_ERROR_NONE) {
 460              		.loc 1 237 2 is_stmt 1 view .LVU128
 461              		.loc 1 237 5 is_stmt 0 view .LVU129
 462 0010 30B9     		cbnz	r0, .L19
 238:Core/Src/vl53l0x_api.c **** 		if (Byte == 1) {
 463              		.loc 1 238 3 is_stmt 1 view .LVU130
 464              		.loc 1 238 12 is_stmt 0 view .LVU131
 465 0012 9DF80730 		ldrb	r3, [sp, #7]	@ zero_extendqisi2
 466              		.loc 1 238 6 view .LVU132
 467 0016 012B     		cmp	r3, #1
ARM GAS  C:\Users\anmh1\AppData\Local\Temp\ccBPLcM2.s 			page 13


 468 0018 04D0     		beq	.L22
 239:Core/Src/vl53l0x_api.c **** 			PALDevDataSet(Dev, PowerMode,
 240:Core/Src/vl53l0x_api.c **** 				VL53L0X_POWERMODE_IDLE_LEVEL1);
 241:Core/Src/vl53l0x_api.c **** 		} else {
 242:Core/Src/vl53l0x_api.c **** 			PALDevDataSet(Dev, PowerMode,
 469              		.loc 1 242 4 is_stmt 1 view .LVU133
 470 001a 0023     		movs	r3, #0
 471 001c 84F83331 		strb	r3, [r4, #307]
 472              	.L19:
 243:Core/Src/vl53l0x_api.c **** 				VL53L0X_POWERMODE_STANDBY_LEVEL1);
 244:Core/Src/vl53l0x_api.c **** 		}
 245:Core/Src/vl53l0x_api.c **** 	}
 246:Core/Src/vl53l0x_api.c **** 
 247:Core/Src/vl53l0x_api.c **** 	LOG_FUNCTION_END(Status);
 473              		.loc 1 247 2 view .LVU134
 248:Core/Src/vl53l0x_api.c **** 	return Status;
 474              		.loc 1 248 2 view .LVU135
 249:Core/Src/vl53l0x_api.c **** }
 475              		.loc 1 249 1 is_stmt 0 view .LVU136
 476 0020 02B0     		add	sp, sp, #8
 477              		.cfi_remember_state
 478              		.cfi_def_cfa_offset 8
 479              		@ sp needed
 480 0022 10BD     		pop	{r4, pc}
 481              	.LVL35:
 482              	.L22:
 483              		.cfi_restore_state
 239:Core/Src/vl53l0x_api.c **** 				VL53L0X_POWERMODE_IDLE_LEVEL1);
 484              		.loc 1 239 4 is_stmt 1 view .LVU137
 485 0024 0223     		movs	r3, #2
 486 0026 84F83331 		strb	r3, [r4, #307]
 487 002a F9E7     		b	.L19
 488              		.cfi_endproc
 489              	.LFE144:
 491              		.section	.text.VL53L0X_SetOffsetCalibrationDataMicroMeter,"ax",%progbits
 492              		.align	1
 493              		.global	VL53L0X_SetOffsetCalibrationDataMicroMeter
 494              		.syntax unified
 495              		.thumb
 496              		.thumb_func
 497              		.fpu fpv4-sp-d16
 499              	VL53L0X_SetOffsetCalibrationDataMicroMeter:
 500              	.LVL36:
 501              	.LFB145:
 250:Core/Src/vl53l0x_api.c **** 
 251:Core/Src/vl53l0x_api.c **** VL53L0X_Error VL53L0X_SetOffsetCalibrationDataMicroMeter(VL53L0X_DEV Dev,
 252:Core/Src/vl53l0x_api.c **** 	int32_t OffsetCalibrationDataMicroMeter)
 253:Core/Src/vl53l0x_api.c **** {
 502              		.loc 1 253 1 view -0
 503              		.cfi_startproc
 504              		@ args = 0, pretend = 0, frame = 0
 505              		@ frame_needed = 0, uses_anonymous_args = 0
 506              		.loc 1 253 1 is_stmt 0 view .LVU139
 507 0000 08B5     		push	{r3, lr}
 508              		.cfi_def_cfa_offset 8
 509              		.cfi_offset 3, -8
 510              		.cfi_offset 14, -4
ARM GAS  C:\Users\anmh1\AppData\Local\Temp\ccBPLcM2.s 			page 14


 254:Core/Src/vl53l0x_api.c **** 	VL53L0X_Error Status = VL53L0X_ERROR_NONE;
 511              		.loc 1 254 2 is_stmt 1 view .LVU140
 512              	.LVL37:
 255:Core/Src/vl53l0x_api.c **** 	LOG_FUNCTION_START("");
 513              		.loc 1 255 2 view .LVU141
 256:Core/Src/vl53l0x_api.c **** 
 257:Core/Src/vl53l0x_api.c **** 	Status = VL53L0X_set_offset_calibration_data_micro_meter(Dev,
 514              		.loc 1 257 2 view .LVU142
 515              		.loc 1 257 11 is_stmt 0 view .LVU143
 516 0002 FFF7FEFF 		bl	VL53L0X_set_offset_calibration_data_micro_meter
 517              	.LVL38:
 258:Core/Src/vl53l0x_api.c **** 		OffsetCalibrationDataMicroMeter);
 259:Core/Src/vl53l0x_api.c **** 
 260:Core/Src/vl53l0x_api.c **** 	LOG_FUNCTION_END(Status);
 518              		.loc 1 260 2 is_stmt 1 view .LVU144
 261:Core/Src/vl53l0x_api.c **** 	return Status;
 519              		.loc 1 261 2 view .LVU145
 262:Core/Src/vl53l0x_api.c **** }
 520              		.loc 1 262 1 is_stmt 0 view .LVU146
 521 0006 08BD     		pop	{r3, pc}
 522              		.cfi_endproc
 523              	.LFE145:
 525              		.section	.text.VL53L0X_GetOffsetCalibrationDataMicroMeter,"ax",%progbits
 526              		.align	1
 527              		.global	VL53L0X_GetOffsetCalibrationDataMicroMeter
 528              		.syntax unified
 529              		.thumb
 530              		.thumb_func
 531              		.fpu fpv4-sp-d16
 533              	VL53L0X_GetOffsetCalibrationDataMicroMeter:
 534              	.LVL39:
 535              	.LFB146:
 263:Core/Src/vl53l0x_api.c **** 
 264:Core/Src/vl53l0x_api.c **** VL53L0X_Error VL53L0X_GetOffsetCalibrationDataMicroMeter(VL53L0X_DEV Dev,
 265:Core/Src/vl53l0x_api.c **** 	int32_t *pOffsetCalibrationDataMicroMeter)
 266:Core/Src/vl53l0x_api.c **** {
 536              		.loc 1 266 1 is_stmt 1 view -0
 537              		.cfi_startproc
 538              		@ args = 0, pretend = 0, frame = 0
 539              		@ frame_needed = 0, uses_anonymous_args = 0
 540              		.loc 1 266 1 is_stmt 0 view .LVU148
 541 0000 08B5     		push	{r3, lr}
 542              		.cfi_def_cfa_offset 8
 543              		.cfi_offset 3, -8
 544              		.cfi_offset 14, -4
 267:Core/Src/vl53l0x_api.c **** 	VL53L0X_Error Status = VL53L0X_ERROR_NONE;
 545              		.loc 1 267 2 is_stmt 1 view .LVU149
 546              	.LVL40:
 268:Core/Src/vl53l0x_api.c **** 	LOG_FUNCTION_START("");
 547              		.loc 1 268 2 view .LVU150
 269:Core/Src/vl53l0x_api.c **** 
 270:Core/Src/vl53l0x_api.c **** 	Status = VL53L0X_get_offset_calibration_data_micro_meter(Dev,
 548              		.loc 1 270 2 view .LVU151
 549              		.loc 1 270 11 is_stmt 0 view .LVU152
 550 0002 FFF7FEFF 		bl	VL53L0X_get_offset_calibration_data_micro_meter
 551              	.LVL41:
 271:Core/Src/vl53l0x_api.c **** 		pOffsetCalibrationDataMicroMeter);
ARM GAS  C:\Users\anmh1\AppData\Local\Temp\ccBPLcM2.s 			page 15


 272:Core/Src/vl53l0x_api.c **** 
 273:Core/Src/vl53l0x_api.c **** 	LOG_FUNCTION_END(Status);
 552              		.loc 1 273 2 is_stmt 1 view .LVU153
 274:Core/Src/vl53l0x_api.c **** 	return Status;
 553              		.loc 1 274 2 view .LVU154
 275:Core/Src/vl53l0x_api.c **** }
 554              		.loc 1 275 1 is_stmt 0 view .LVU155
 555 0006 08BD     		pop	{r3, pc}
 556              		.cfi_endproc
 557              	.LFE146:
 559              		.section	.text.VL53L0X_SetLinearityCorrectiveGain,"ax",%progbits
 560              		.align	1
 561              		.global	VL53L0X_SetLinearityCorrectiveGain
 562              		.syntax unified
 563              		.thumb
 564              		.thumb_func
 565              		.fpu fpv4-sp-d16
 567              	VL53L0X_SetLinearityCorrectiveGain:
 568              	.LVL42:
 569              	.LFB147:
 276:Core/Src/vl53l0x_api.c **** 
 277:Core/Src/vl53l0x_api.c **** VL53L0X_Error VL53L0X_SetLinearityCorrectiveGain(VL53L0X_DEV Dev,
 278:Core/Src/vl53l0x_api.c **** 	int16_t LinearityCorrectiveGain)
 279:Core/Src/vl53l0x_api.c **** {
 570              		.loc 1 279 1 is_stmt 1 view -0
 571              		.cfi_startproc
 572              		@ args = 0, pretend = 0, frame = 0
 573              		@ frame_needed = 0, uses_anonymous_args = 0
 574              		.loc 1 279 1 is_stmt 0 view .LVU157
 575 0000 08B5     		push	{r3, lr}
 576              		.cfi_def_cfa_offset 8
 577              		.cfi_offset 3, -8
 578              		.cfi_offset 14, -4
 280:Core/Src/vl53l0x_api.c **** 	VL53L0X_Error Status = VL53L0X_ERROR_NONE;
 579              		.loc 1 280 2 is_stmt 1 view .LVU158
 580              	.LVL43:
 281:Core/Src/vl53l0x_api.c **** 	LOG_FUNCTION_START("");
 581              		.loc 1 281 2 view .LVU159
 282:Core/Src/vl53l0x_api.c **** 
 283:Core/Src/vl53l0x_api.c **** 	if ((LinearityCorrectiveGain < 0) || (LinearityCorrectiveGain > 1000))
 582              		.loc 1 283 2 view .LVU160
 583              		.loc 1 283 36 is_stmt 0 view .LVU161
 584 0002 8BB2     		uxth	r3, r1
 585              		.loc 1 283 5 view .LVU162
 586 0004 B3F57A7F 		cmp	r3, #1000
 587 0008 0BD8     		bhi	.L29
 284:Core/Src/vl53l0x_api.c **** 		Status = VL53L0X_ERROR_INVALID_PARAMS;
 285:Core/Src/vl53l0x_api.c **** 	else {
 286:Core/Src/vl53l0x_api.c **** 		PALDevDataSet(Dev, LinearityCorrectiveGain,
 588              		.loc 1 286 3 is_stmt 1 view .LVU163
 589 000a A0F85231 		strh	r3, [r0, #338]	@ movhi
 287:Core/Src/vl53l0x_api.c **** 			LinearityCorrectiveGain);
 288:Core/Src/vl53l0x_api.c **** 
 289:Core/Src/vl53l0x_api.c **** 		if (LinearityCorrectiveGain != 1000) {
 590              		.loc 1 289 3 view .LVU164
 591              		.loc 1 289 6 is_stmt 0 view .LVU165
 592 000e B1F57A7F 		cmp	r1, #1000
ARM GAS  C:\Users\anmh1\AppData\Local\Temp\ccBPLcM2.s 			page 16


 593 0012 01D1     		bne	.L32
 280:Core/Src/vl53l0x_api.c **** 	LOG_FUNCTION_START("");
 594              		.loc 1 280 16 view .LVU166
 595 0014 0020     		movs	r0, #0
 596              	.LVL44:
 597              	.L28:
 290:Core/Src/vl53l0x_api.c **** 			/* Disable FW Xtalk */
 291:Core/Src/vl53l0x_api.c **** 			Status = VL53L0X_WrWord(Dev,
 292:Core/Src/vl53l0x_api.c **** 			VL53L0X_REG_CROSSTALK_COMPENSATION_PEAK_RATE_MCPS, 0);
 293:Core/Src/vl53l0x_api.c **** 		}
 294:Core/Src/vl53l0x_api.c **** 	}
 295:Core/Src/vl53l0x_api.c **** 
 296:Core/Src/vl53l0x_api.c **** 	LOG_FUNCTION_END(Status);
 598              		.loc 1 296 2 is_stmt 1 view .LVU167
 297:Core/Src/vl53l0x_api.c **** 	return Status;
 599              		.loc 1 297 2 view .LVU168
 298:Core/Src/vl53l0x_api.c **** }
 600              		.loc 1 298 1 is_stmt 0 view .LVU169
 601 0016 08BD     		pop	{r3, pc}
 602              	.LVL45:
 603              	.L32:
 291:Core/Src/vl53l0x_api.c **** 			VL53L0X_REG_CROSSTALK_COMPENSATION_PEAK_RATE_MCPS, 0);
 604              		.loc 1 291 4 is_stmt 1 view .LVU170
 291:Core/Src/vl53l0x_api.c **** 			VL53L0X_REG_CROSSTALK_COMPENSATION_PEAK_RATE_MCPS, 0);
 605              		.loc 1 291 13 is_stmt 0 view .LVU171
 606 0018 0022     		movs	r2, #0
 607 001a 2021     		movs	r1, #32
 608              	.LVL46:
 291:Core/Src/vl53l0x_api.c **** 			VL53L0X_REG_CROSSTALK_COMPENSATION_PEAK_RATE_MCPS, 0);
 609              		.loc 1 291 13 view .LVU172
 610 001c FFF7FEFF 		bl	VL53L0X_WrWord
 611              	.LVL47:
 291:Core/Src/vl53l0x_api.c **** 			VL53L0X_REG_CROSSTALK_COMPENSATION_PEAK_RATE_MCPS, 0);
 612              		.loc 1 291 13 view .LVU173
 613 0020 F9E7     		b	.L28
 614              	.LVL48:
 615              	.L29:
 284:Core/Src/vl53l0x_api.c **** 	else {
 616              		.loc 1 284 10 view .LVU174
 617 0022 6FF00300 		mvn	r0, #3
 618              	.LVL49:
 284:Core/Src/vl53l0x_api.c **** 	else {
 619              		.loc 1 284 10 view .LVU175
 620 0026 F6E7     		b	.L28
 621              		.cfi_endproc
 622              	.LFE147:
 624              		.section	.text.VL53L0X_GetLinearityCorrectiveGain,"ax",%progbits
 625              		.align	1
 626              		.global	VL53L0X_GetLinearityCorrectiveGain
 627              		.syntax unified
 628              		.thumb
 629              		.thumb_func
 630              		.fpu fpv4-sp-d16
 632              	VL53L0X_GetLinearityCorrectiveGain:
 633              	.LVL50:
 634              	.LFB148:
 299:Core/Src/vl53l0x_api.c **** 
ARM GAS  C:\Users\anmh1\AppData\Local\Temp\ccBPLcM2.s 			page 17


 300:Core/Src/vl53l0x_api.c **** VL53L0X_Error VL53L0X_GetLinearityCorrectiveGain(VL53L0X_DEV Dev,
 301:Core/Src/vl53l0x_api.c **** 	uint16_t *pLinearityCorrectiveGain)
 302:Core/Src/vl53l0x_api.c **** {
 635              		.loc 1 302 1 is_stmt 1 view -0
 636              		.cfi_startproc
 637              		@ args = 0, pretend = 0, frame = 0
 638              		@ frame_needed = 0, uses_anonymous_args = 0
 639              		@ link register save eliminated.
 303:Core/Src/vl53l0x_api.c **** 	VL53L0X_Error Status = VL53L0X_ERROR_NONE;
 640              		.loc 1 303 2 view .LVU177
 304:Core/Src/vl53l0x_api.c **** 	LOG_FUNCTION_START("");
 641              		.loc 1 304 2 view .LVU178
 305:Core/Src/vl53l0x_api.c **** 
 306:Core/Src/vl53l0x_api.c **** 	*pLinearityCorrectiveGain = PALDevDataGet(Dev, LinearityCorrectiveGain);
 642              		.loc 1 306 2 view .LVU179
 643              		.loc 1 306 30 is_stmt 0 view .LVU180
 644 0000 B0F85231 		ldrh	r3, [r0, #338]
 645              		.loc 1 306 28 view .LVU181
 646 0004 0B80     		strh	r3, [r1]	@ movhi
 307:Core/Src/vl53l0x_api.c **** 
 308:Core/Src/vl53l0x_api.c **** 	LOG_FUNCTION_END(Status);
 647              		.loc 1 308 2 is_stmt 1 view .LVU182
 309:Core/Src/vl53l0x_api.c **** 	return Status;
 648              		.loc 1 309 2 view .LVU183
 310:Core/Src/vl53l0x_api.c **** }
 649              		.loc 1 310 1 is_stmt 0 view .LVU184
 650 0006 0020     		movs	r0, #0
 651              	.LVL51:
 652              		.loc 1 310 1 view .LVU185
 653 0008 7047     		bx	lr
 654              		.cfi_endproc
 655              	.LFE148:
 657              		.section	.text.VL53L0X_SetGroupParamHold,"ax",%progbits
 658              		.align	1
 659              		.global	VL53L0X_SetGroupParamHold
 660              		.syntax unified
 661              		.thumb
 662              		.thumb_func
 663              		.fpu fpv4-sp-d16
 665              	VL53L0X_SetGroupParamHold:
 666              	.LVL52:
 667              	.LFB149:
 311:Core/Src/vl53l0x_api.c **** 
 312:Core/Src/vl53l0x_api.c **** VL53L0X_Error VL53L0X_SetGroupParamHold(VL53L0X_DEV Dev, uint8_t GroupParamHold)
 313:Core/Src/vl53l0x_api.c **** {
 668              		.loc 1 313 1 is_stmt 1 view -0
 669              		.cfi_startproc
 670              		@ args = 0, pretend = 0, frame = 0
 671              		@ frame_needed = 0, uses_anonymous_args = 0
 672              		@ link register save eliminated.
 314:Core/Src/vl53l0x_api.c **** 	VL53L0X_Error Status = VL53L0X_ERROR_NOT_IMPLEMENTED;
 673              		.loc 1 314 2 view .LVU187
 315:Core/Src/vl53l0x_api.c **** 	LOG_FUNCTION_START("");
 674              		.loc 1 315 2 view .LVU188
 316:Core/Src/vl53l0x_api.c **** 
 317:Core/Src/vl53l0x_api.c **** 	/* not implemented on VL53L0X */
 318:Core/Src/vl53l0x_api.c **** 
ARM GAS  C:\Users\anmh1\AppData\Local\Temp\ccBPLcM2.s 			page 18


 319:Core/Src/vl53l0x_api.c **** 	LOG_FUNCTION_END(Status);
 675              		.loc 1 319 2 view .LVU189
 320:Core/Src/vl53l0x_api.c **** 	return Status;
 676              		.loc 1 320 2 view .LVU190
 321:Core/Src/vl53l0x_api.c **** }
 677              		.loc 1 321 1 is_stmt 0 view .LVU191
 678 0000 6FF06200 		mvn	r0, #98
 679              	.LVL53:
 680              		.loc 1 321 1 view .LVU192
 681 0004 7047     		bx	lr
 682              		.cfi_endproc
 683              	.LFE149:
 685              		.section	.text.VL53L0X_GetUpperLimitMilliMeter,"ax",%progbits
 686              		.align	1
 687              		.global	VL53L0X_GetUpperLimitMilliMeter
 688              		.syntax unified
 689              		.thumb
 690              		.thumb_func
 691              		.fpu fpv4-sp-d16
 693              	VL53L0X_GetUpperLimitMilliMeter:
 694              	.LVL54:
 695              	.LFB150:
 322:Core/Src/vl53l0x_api.c **** 
 323:Core/Src/vl53l0x_api.c **** VL53L0X_Error VL53L0X_GetUpperLimitMilliMeter(VL53L0X_DEV Dev,
 324:Core/Src/vl53l0x_api.c **** 	uint16_t *pUpperLimitMilliMeter)
 325:Core/Src/vl53l0x_api.c **** {
 696              		.loc 1 325 1 is_stmt 1 view -0
 697              		.cfi_startproc
 698              		@ args = 0, pretend = 0, frame = 0
 699              		@ frame_needed = 0, uses_anonymous_args = 0
 700              		@ link register save eliminated.
 326:Core/Src/vl53l0x_api.c **** 	VL53L0X_Error Status = VL53L0X_ERROR_NOT_IMPLEMENTED;
 701              		.loc 1 326 2 view .LVU194
 327:Core/Src/vl53l0x_api.c **** 	LOG_FUNCTION_START("");
 702              		.loc 1 327 2 view .LVU195
 328:Core/Src/vl53l0x_api.c **** 
 329:Core/Src/vl53l0x_api.c **** 	/* not implemented on VL53L0X */
 330:Core/Src/vl53l0x_api.c **** 
 331:Core/Src/vl53l0x_api.c **** 	LOG_FUNCTION_END(Status);
 703              		.loc 1 331 2 view .LVU196
 332:Core/Src/vl53l0x_api.c **** 	return Status;
 704              		.loc 1 332 2 view .LVU197
 333:Core/Src/vl53l0x_api.c **** }
 705              		.loc 1 333 1 is_stmt 0 view .LVU198
 706 0000 6FF06200 		mvn	r0, #98
 707              	.LVL55:
 708              		.loc 1 333 1 view .LVU199
 709 0004 7047     		bx	lr
 710              		.cfi_endproc
 711              	.LFE150:
 713              		.section	.text.VL53L0X_GetTotalSignalRate,"ax",%progbits
 714              		.align	1
 715              		.global	VL53L0X_GetTotalSignalRate
 716              		.syntax unified
 717              		.thumb
 718              		.thumb_func
 719              		.fpu fpv4-sp-d16
ARM GAS  C:\Users\anmh1\AppData\Local\Temp\ccBPLcM2.s 			page 19


 721              	VL53L0X_GetTotalSignalRate:
 722              	.LVL56:
 723              	.LFB151:
 334:Core/Src/vl53l0x_api.c **** 
 335:Core/Src/vl53l0x_api.c **** VL53L0X_Error VL53L0X_GetTotalSignalRate(VL53L0X_DEV Dev,
 336:Core/Src/vl53l0x_api.c **** 	FixPoint1616_t *pTotalSignalRate)
 337:Core/Src/vl53l0x_api.c **** {
 724              		.loc 1 337 1 is_stmt 1 view -0
 725              		.cfi_startproc
 726              		@ args = 0, pretend = 0, frame = 32
 727              		@ frame_needed = 0, uses_anonymous_args = 0
 728              		.loc 1 337 1 is_stmt 0 view .LVU201
 729 0000 F0B5     		push	{r4, r5, r6, r7, lr}
 730              		.cfi_def_cfa_offset 20
 731              		.cfi_offset 4, -20
 732              		.cfi_offset 5, -16
 733              		.cfi_offset 6, -12
 734              		.cfi_offset 7, -8
 735              		.cfi_offset 14, -4
 736 0002 89B0     		sub	sp, sp, #36
 737              		.cfi_def_cfa_offset 56
 738 0004 0646     		mov	r6, r0
 739 0006 0F46     		mov	r7, r1
 338:Core/Src/vl53l0x_api.c **** 	VL53L0X_Error Status = VL53L0X_ERROR_NONE;
 740              		.loc 1 338 2 is_stmt 1 view .LVU202
 741              	.LVL57:
 339:Core/Src/vl53l0x_api.c **** 	VL53L0X_RangingMeasurementData_t LastRangeDataBuffer;
 742              		.loc 1 339 2 view .LVU203
 340:Core/Src/vl53l0x_api.c **** 
 341:Core/Src/vl53l0x_api.c **** 	LOG_FUNCTION_START("");
 743              		.loc 1 341 2 view .LVU204
 342:Core/Src/vl53l0x_api.c **** 
 343:Core/Src/vl53l0x_api.c **** 	LastRangeDataBuffer = PALDevDataGet(Dev, LastRangeMeasure);
 744              		.loc 1 343 2 view .LVU205
 745              		.loc 1 343 22 is_stmt 0 view .LVU206
 746 0008 01AC     		add	r4, sp, #4
 747 000a 00F15005 		add	r5, r0, #80
 748 000e 0FCD     		ldmia	r5!, {r0, r1, r2, r3}
 749              	.LVL58:
 750              		.loc 1 343 22 view .LVU207
 751 0010 0FC4     		stmia	r4!, {r0, r1, r2, r3}
 752 0012 95E80700 		ldm	r5, {r0, r1, r2}
 753 0016 84E80700 		stm	r4, {r0, r1, r2}
 344:Core/Src/vl53l0x_api.c **** 
 345:Core/Src/vl53l0x_api.c **** 	Status = VL53L0X_get_total_signal_rate(
 754              		.loc 1 345 2 is_stmt 1 view .LVU208
 755              		.loc 1 345 11 is_stmt 0 view .LVU209
 756 001a 3A46     		mov	r2, r7
 757 001c 01A9     		add	r1, sp, #4
 758 001e 3046     		mov	r0, r6
 759 0020 FFF7FEFF 		bl	VL53L0X_get_total_signal_rate
 760              	.LVL59:
 346:Core/Src/vl53l0x_api.c **** 		Dev, &LastRangeDataBuffer, pTotalSignalRate);
 347:Core/Src/vl53l0x_api.c **** 
 348:Core/Src/vl53l0x_api.c **** 	LOG_FUNCTION_END(Status);
 761              		.loc 1 348 2 is_stmt 1 view .LVU210
 349:Core/Src/vl53l0x_api.c **** 	return Status;
ARM GAS  C:\Users\anmh1\AppData\Local\Temp\ccBPLcM2.s 			page 20


 762              		.loc 1 349 2 view .LVU211
 350:Core/Src/vl53l0x_api.c **** }
 763              		.loc 1 350 1 is_stmt 0 view .LVU212
 764 0024 09B0     		add	sp, sp, #36
 765              		.cfi_def_cfa_offset 20
 766              		@ sp needed
 767 0026 F0BD     		pop	{r4, r5, r6, r7, pc}
 768              		.loc 1 350 1 view .LVU213
 769              		.cfi_endproc
 770              	.LFE151:
 772              		.section	.text.VL53L0X_SetDeviceAddress,"ax",%progbits
 773              		.align	1
 774              		.global	VL53L0X_SetDeviceAddress
 775              		.syntax unified
 776              		.thumb
 777              		.thumb_func
 778              		.fpu fpv4-sp-d16
 780              	VL53L0X_SetDeviceAddress:
 781              	.LVL60:
 782              	.LFB152:
 351:Core/Src/vl53l0x_api.c **** 
 352:Core/Src/vl53l0x_api.c **** /* End Group PAL General Functions */
 353:Core/Src/vl53l0x_api.c **** 
 354:Core/Src/vl53l0x_api.c **** /* Group PAL Init Functions */
 355:Core/Src/vl53l0x_api.c **** VL53L0X_Error VL53L0X_SetDeviceAddress(VL53L0X_DEV Dev, uint8_t DeviceAddress)
 356:Core/Src/vl53l0x_api.c **** {
 783              		.loc 1 356 1 is_stmt 1 view -0
 784              		.cfi_startproc
 785              		@ args = 0, pretend = 0, frame = 0
 786              		@ frame_needed = 0, uses_anonymous_args = 0
 787              		.loc 1 356 1 is_stmt 0 view .LVU215
 788 0000 08B5     		push	{r3, lr}
 789              		.cfi_def_cfa_offset 8
 790              		.cfi_offset 3, -8
 791              		.cfi_offset 14, -4
 357:Core/Src/vl53l0x_api.c **** 	VL53L0X_Error Status = VL53L0X_ERROR_NONE;
 792              		.loc 1 357 2 is_stmt 1 view .LVU216
 793              	.LVL61:
 358:Core/Src/vl53l0x_api.c **** 	LOG_FUNCTION_START("");
 794              		.loc 1 358 2 view .LVU217
 359:Core/Src/vl53l0x_api.c **** 
 360:Core/Src/vl53l0x_api.c **** 	Status = VL53L0X_WrByte(Dev, VL53L0X_REG_I2C_SLAVE_DEVICE_ADDRESS,
 795              		.loc 1 360 2 view .LVU218
 796              		.loc 1 360 11 is_stmt 0 view .LVU219
 797 0002 4A08     		lsrs	r2, r1, #1
 798 0004 8A21     		movs	r1, #138
 799              	.LVL62:
 800              		.loc 1 360 11 view .LVU220
 801 0006 FFF7FEFF 		bl	VL53L0X_WrByte
 802              	.LVL63:
 361:Core/Src/vl53l0x_api.c **** 		DeviceAddress / 2);
 362:Core/Src/vl53l0x_api.c **** 
 363:Core/Src/vl53l0x_api.c **** 	LOG_FUNCTION_END(Status);
 803              		.loc 1 363 2 is_stmt 1 view .LVU221
 364:Core/Src/vl53l0x_api.c **** 	return Status;
 804              		.loc 1 364 2 view .LVU222
 365:Core/Src/vl53l0x_api.c **** }
ARM GAS  C:\Users\anmh1\AppData\Local\Temp\ccBPLcM2.s 			page 21


 805              		.loc 1 365 1 is_stmt 0 view .LVU223
 806 000a 08BD     		pop	{r3, pc}
 807              		.cfi_endproc
 808              	.LFE152:
 810              		.section	.text.VL53L0X_SetTuningSettingBuffer,"ax",%progbits
 811              		.align	1
 812              		.global	VL53L0X_SetTuningSettingBuffer
 813              		.syntax unified
 814              		.thumb
 815              		.thumb_func
 816              		.fpu fpv4-sp-d16
 818              	VL53L0X_SetTuningSettingBuffer:
 819              	.LVL64:
 820              	.LFB154:
 366:Core/Src/vl53l0x_api.c **** 
 367:Core/Src/vl53l0x_api.c **** VL53L0X_Error VL53L0X_DataInit(VL53L0X_DEV Dev)
 368:Core/Src/vl53l0x_api.c **** {
 369:Core/Src/vl53l0x_api.c **** 	VL53L0X_Error Status = VL53L0X_ERROR_NONE;
 370:Core/Src/vl53l0x_api.c **** 	VL53L0X_DeviceParameters_t CurrentParameters;
 371:Core/Src/vl53l0x_api.c **** 	int i;
 372:Core/Src/vl53l0x_api.c **** 	uint8_t StopVariable;
 373:Core/Src/vl53l0x_api.c **** 
 374:Core/Src/vl53l0x_api.c **** 	LOG_FUNCTION_START("");
 375:Core/Src/vl53l0x_api.c **** 
 376:Core/Src/vl53l0x_api.c **** 	/* by default the I2C is running at 1V8 if you want to change it you
 377:Core/Src/vl53l0x_api.c **** 	 * need to include this define at compilation level. */
 378:Core/Src/vl53l0x_api.c **** #ifdef USE_I2C_2V8
 379:Core/Src/vl53l0x_api.c **** 	Status = VL53L0X_UpdateByte(Dev,
 380:Core/Src/vl53l0x_api.c **** 		VL53L0X_REG_VHV_CONFIG_PAD_SCL_SDA__EXTSUP_HV,
 381:Core/Src/vl53l0x_api.c **** 		0xFE,
 382:Core/Src/vl53l0x_api.c **** 		0x01);
 383:Core/Src/vl53l0x_api.c **** #endif
 384:Core/Src/vl53l0x_api.c **** 
 385:Core/Src/vl53l0x_api.c **** 	/* Set I2C standard mode */
 386:Core/Src/vl53l0x_api.c **** 	if (Status == VL53L0X_ERROR_NONE)
 387:Core/Src/vl53l0x_api.c **** 		Status = VL53L0X_WrByte(Dev, 0x88, 0x00);
 388:Core/Src/vl53l0x_api.c **** 
 389:Core/Src/vl53l0x_api.c **** 	VL53L0X_SETDEVICESPECIFICPARAMETER(Dev, ReadDataFromDeviceDone, 0);
 390:Core/Src/vl53l0x_api.c **** 
 391:Core/Src/vl53l0x_api.c **** #ifdef USE_IQC_STATION
 392:Core/Src/vl53l0x_api.c **** 	if (Status == VL53L0X_ERROR_NONE)
 393:Core/Src/vl53l0x_api.c **** 		Status = VL53L0X_apply_offset_adjustment(Dev);
 394:Core/Src/vl53l0x_api.c **** #endif
 395:Core/Src/vl53l0x_api.c **** 
 396:Core/Src/vl53l0x_api.c **** 	/* Default value is 1000 for Linearity Corrective Gain */
 397:Core/Src/vl53l0x_api.c **** 	PALDevDataSet(Dev, LinearityCorrectiveGain, 1000);
 398:Core/Src/vl53l0x_api.c **** 
 399:Core/Src/vl53l0x_api.c **** 	/* Dmax default Parameter */
 400:Core/Src/vl53l0x_api.c **** 	PALDevDataSet(Dev, DmaxCalRangeMilliMeter, 400);
 401:Core/Src/vl53l0x_api.c **** 	PALDevDataSet(Dev, DmaxCalSignalRateRtnMegaCps,
 402:Core/Src/vl53l0x_api.c **** 		(FixPoint1616_t)((0x00016B85))); /* 1.42 No Cover Glass*/
 403:Core/Src/vl53l0x_api.c **** 
 404:Core/Src/vl53l0x_api.c **** 	/* Set Default static parameters
 405:Core/Src/vl53l0x_api.c **** 	 *set first temporary values 9.44MHz * 65536 = 618660 */
 406:Core/Src/vl53l0x_api.c **** 	VL53L0X_SETDEVICESPECIFICPARAMETER(Dev, OscFrequencyMHz, 618660);
 407:Core/Src/vl53l0x_api.c **** 
 408:Core/Src/vl53l0x_api.c **** 	/* Set Default XTalkCompensationRateMegaCps to 0  */
ARM GAS  C:\Users\anmh1\AppData\Local\Temp\ccBPLcM2.s 			page 22


 409:Core/Src/vl53l0x_api.c **** 	VL53L0X_SETPARAMETERFIELD(Dev, XTalkCompensationRateMegaCps, 0);
 410:Core/Src/vl53l0x_api.c **** 
 411:Core/Src/vl53l0x_api.c **** 	/* Get default parameters */
 412:Core/Src/vl53l0x_api.c **** 	Status = VL53L0X_GetDeviceParameters(Dev, &CurrentParameters);
 413:Core/Src/vl53l0x_api.c **** 	if (Status == VL53L0X_ERROR_NONE) {
 414:Core/Src/vl53l0x_api.c **** 		/* initialize PAL values */
 415:Core/Src/vl53l0x_api.c **** 		CurrentParameters.DeviceMode = VL53L0X_DEVICEMODE_SINGLE_RANGING;
 416:Core/Src/vl53l0x_api.c **** 		CurrentParameters.HistogramMode = VL53L0X_HISTOGRAMMODE_DISABLED;
 417:Core/Src/vl53l0x_api.c **** 		PALDevDataSet(Dev, CurrentParameters, CurrentParameters);
 418:Core/Src/vl53l0x_api.c **** 	}
 419:Core/Src/vl53l0x_api.c **** 
 420:Core/Src/vl53l0x_api.c **** 	/* Sigma estimator variable */
 421:Core/Src/vl53l0x_api.c **** 	PALDevDataSet(Dev, SigmaEstRefArray, 100);
 422:Core/Src/vl53l0x_api.c **** 	PALDevDataSet(Dev, SigmaEstEffPulseWidth, 900);
 423:Core/Src/vl53l0x_api.c **** 	PALDevDataSet(Dev, SigmaEstEffAmbWidth, 500);
 424:Core/Src/vl53l0x_api.c **** 	PALDevDataSet(Dev, targetRefRate, 0x0A00); /* 20 MCPS in 9:7 format */
 425:Core/Src/vl53l0x_api.c **** 
 426:Core/Src/vl53l0x_api.c **** 	/* Use internal default settings */
 427:Core/Src/vl53l0x_api.c **** 	PALDevDataSet(Dev, UseInternalTuningSettings, 1);
 428:Core/Src/vl53l0x_api.c **** 
 429:Core/Src/vl53l0x_api.c **** 	Status |= VL53L0X_WrByte(Dev, 0x80, 0x01);
 430:Core/Src/vl53l0x_api.c **** 	Status |= VL53L0X_WrByte(Dev, 0xFF, 0x01);
 431:Core/Src/vl53l0x_api.c **** 	Status |= VL53L0X_WrByte(Dev, 0x00, 0x00);
 432:Core/Src/vl53l0x_api.c **** 	Status |= VL53L0X_RdByte(Dev, 0x91, &StopVariable);
 433:Core/Src/vl53l0x_api.c **** 	PALDevDataSet(Dev, StopVariable, StopVariable);
 434:Core/Src/vl53l0x_api.c **** 	Status |= VL53L0X_WrByte(Dev, 0x00, 0x01);
 435:Core/Src/vl53l0x_api.c **** 	Status |= VL53L0X_WrByte(Dev, 0xFF, 0x00);
 436:Core/Src/vl53l0x_api.c **** 	Status |= VL53L0X_WrByte(Dev, 0x80, 0x00);
 437:Core/Src/vl53l0x_api.c **** 
 438:Core/Src/vl53l0x_api.c **** 	/* Enable all check */
 439:Core/Src/vl53l0x_api.c **** 	for (i = 0; i < VL53L0X_CHECKENABLE_NUMBER_OF_CHECKS; i++) {
 440:Core/Src/vl53l0x_api.c **** 		if (Status == VL53L0X_ERROR_NONE)
 441:Core/Src/vl53l0x_api.c **** 			Status |= VL53L0X_SetLimitCheckEnable(Dev, i, 1);
 442:Core/Src/vl53l0x_api.c **** 		else
 443:Core/Src/vl53l0x_api.c **** 			break;
 444:Core/Src/vl53l0x_api.c **** 
 445:Core/Src/vl53l0x_api.c **** 	}
 446:Core/Src/vl53l0x_api.c **** 
 447:Core/Src/vl53l0x_api.c **** 	/* Disable the following checks */
 448:Core/Src/vl53l0x_api.c **** 	if (Status == VL53L0X_ERROR_NONE)
 449:Core/Src/vl53l0x_api.c **** 		Status = VL53L0X_SetLimitCheckEnable(Dev,
 450:Core/Src/vl53l0x_api.c **** 			VL53L0X_CHECKENABLE_SIGNAL_REF_CLIP, 0);
 451:Core/Src/vl53l0x_api.c **** 
 452:Core/Src/vl53l0x_api.c **** 	if (Status == VL53L0X_ERROR_NONE)
 453:Core/Src/vl53l0x_api.c **** 		Status = VL53L0X_SetLimitCheckEnable(Dev,
 454:Core/Src/vl53l0x_api.c **** 			VL53L0X_CHECKENABLE_RANGE_IGNORE_THRESHOLD, 0);
 455:Core/Src/vl53l0x_api.c **** 
 456:Core/Src/vl53l0x_api.c **** 	if (Status == VL53L0X_ERROR_NONE)
 457:Core/Src/vl53l0x_api.c **** 		Status = VL53L0X_SetLimitCheckEnable(Dev,
 458:Core/Src/vl53l0x_api.c **** 			VL53L0X_CHECKENABLE_SIGNAL_RATE_MSRC, 0);
 459:Core/Src/vl53l0x_api.c **** 
 460:Core/Src/vl53l0x_api.c **** 	if (Status == VL53L0X_ERROR_NONE)
 461:Core/Src/vl53l0x_api.c **** 		Status = VL53L0X_SetLimitCheckEnable(Dev,
 462:Core/Src/vl53l0x_api.c **** 			VL53L0X_CHECKENABLE_SIGNAL_RATE_PRE_RANGE, 0);
 463:Core/Src/vl53l0x_api.c **** 
 464:Core/Src/vl53l0x_api.c **** 	/* Limit default values */
 465:Core/Src/vl53l0x_api.c **** 	if (Status == VL53L0X_ERROR_NONE) {
ARM GAS  C:\Users\anmh1\AppData\Local\Temp\ccBPLcM2.s 			page 23


 466:Core/Src/vl53l0x_api.c **** 		Status = VL53L0X_SetLimitCheckValue(Dev,
 467:Core/Src/vl53l0x_api.c **** 			VL53L0X_CHECKENABLE_SIGMA_FINAL_RANGE,
 468:Core/Src/vl53l0x_api.c **** 				(FixPoint1616_t)(18 * 65536));
 469:Core/Src/vl53l0x_api.c **** 	}
 470:Core/Src/vl53l0x_api.c **** 	if (Status == VL53L0X_ERROR_NONE) {
 471:Core/Src/vl53l0x_api.c **** 		Status = VL53L0X_SetLimitCheckValue(Dev,
 472:Core/Src/vl53l0x_api.c **** 			VL53L0X_CHECKENABLE_SIGNAL_RATE_FINAL_RANGE,
 473:Core/Src/vl53l0x_api.c **** 				(FixPoint1616_t)(25 * 65536 / 100));
 474:Core/Src/vl53l0x_api.c **** 				/* 0.25 * 65536 */
 475:Core/Src/vl53l0x_api.c **** 	}
 476:Core/Src/vl53l0x_api.c **** 
 477:Core/Src/vl53l0x_api.c **** 	if (Status == VL53L0X_ERROR_NONE) {
 478:Core/Src/vl53l0x_api.c **** 		Status = VL53L0X_SetLimitCheckValue(Dev,
 479:Core/Src/vl53l0x_api.c **** 			VL53L0X_CHECKENABLE_SIGNAL_REF_CLIP,
 480:Core/Src/vl53l0x_api.c **** 				(FixPoint1616_t)(35 * 65536));
 481:Core/Src/vl53l0x_api.c **** 	}
 482:Core/Src/vl53l0x_api.c **** 
 483:Core/Src/vl53l0x_api.c **** 	if (Status == VL53L0X_ERROR_NONE) {
 484:Core/Src/vl53l0x_api.c **** 		Status = VL53L0X_SetLimitCheckValue(Dev,
 485:Core/Src/vl53l0x_api.c **** 			VL53L0X_CHECKENABLE_RANGE_IGNORE_THRESHOLD,
 486:Core/Src/vl53l0x_api.c **** 				(FixPoint1616_t)(0 * 65536));
 487:Core/Src/vl53l0x_api.c **** 	}
 488:Core/Src/vl53l0x_api.c **** 
 489:Core/Src/vl53l0x_api.c **** 	if (Status == VL53L0X_ERROR_NONE) {
 490:Core/Src/vl53l0x_api.c **** 
 491:Core/Src/vl53l0x_api.c **** 		PALDevDataSet(Dev, SequenceConfig, 0xFF);
 492:Core/Src/vl53l0x_api.c **** 		Status = VL53L0X_WrByte(Dev, VL53L0X_REG_SYSTEM_SEQUENCE_CONFIG,
 493:Core/Src/vl53l0x_api.c **** 			0xFF);
 494:Core/Src/vl53l0x_api.c **** 
 495:Core/Src/vl53l0x_api.c **** 		/* Set PAL state to tell that we are waiting for call to
 496:Core/Src/vl53l0x_api.c **** 		 * VL53L0X_StaticInit */
 497:Core/Src/vl53l0x_api.c **** 		PALDevDataSet(Dev, PalState, VL53L0X_STATE_WAIT_STATICINIT);
 498:Core/Src/vl53l0x_api.c **** 	}
 499:Core/Src/vl53l0x_api.c **** 
 500:Core/Src/vl53l0x_api.c **** 	if (Status == VL53L0X_ERROR_NONE)
 501:Core/Src/vl53l0x_api.c **** 		VL53L0X_SETDEVICESPECIFICPARAMETER(Dev, RefSpadsInitialised, 0);
 502:Core/Src/vl53l0x_api.c **** 
 503:Core/Src/vl53l0x_api.c **** 
 504:Core/Src/vl53l0x_api.c **** 	LOG_FUNCTION_END(Status);
 505:Core/Src/vl53l0x_api.c **** 	return Status;
 506:Core/Src/vl53l0x_api.c **** }
 507:Core/Src/vl53l0x_api.c **** 
 508:Core/Src/vl53l0x_api.c **** VL53L0X_Error VL53L0X_SetTuningSettingBuffer(VL53L0X_DEV Dev,
 509:Core/Src/vl53l0x_api.c **** 	uint8_t *pTuningSettingBuffer, uint8_t UseInternalTuningSettings)
 510:Core/Src/vl53l0x_api.c **** {
 821              		.loc 1 510 1 is_stmt 1 view -0
 822              		.cfi_startproc
 823              		@ args = 0, pretend = 0, frame = 0
 824              		@ frame_needed = 0, uses_anonymous_args = 0
 825              		@ link register save eliminated.
 511:Core/Src/vl53l0x_api.c **** 	VL53L0X_Error Status = VL53L0X_ERROR_NONE;
 826              		.loc 1 511 2 view .LVU225
 512:Core/Src/vl53l0x_api.c **** 
 513:Core/Src/vl53l0x_api.c **** 	LOG_FUNCTION_START("");
 827              		.loc 1 513 2 view .LVU226
 514:Core/Src/vl53l0x_api.c **** 
 515:Core/Src/vl53l0x_api.c **** 	if (UseInternalTuningSettings == 1) {
ARM GAS  C:\Users\anmh1\AppData\Local\Temp\ccBPLcM2.s 			page 24


 828              		.loc 1 515 2 view .LVU227
 829              		.loc 1 515 5 is_stmt 0 view .LVU228
 830 0000 012A     		cmp	r2, #1
 831 0002 08D0     		beq	.L44
 516:Core/Src/vl53l0x_api.c **** 		/* Force use internal settings */
 517:Core/Src/vl53l0x_api.c **** 		PALDevDataSet(Dev, UseInternalTuningSettings, 1);
 518:Core/Src/vl53l0x_api.c **** 	} else {
 519:Core/Src/vl53l0x_api.c **** 
 520:Core/Src/vl53l0x_api.c **** 		/* check that the first byte is not 0 */
 521:Core/Src/vl53l0x_api.c **** 		if (*pTuningSettingBuffer != 0) {
 832              		.loc 1 521 3 is_stmt 1 view .LVU229
 833              		.loc 1 521 7 is_stmt 0 view .LVU230
 834 0004 0B78     		ldrb	r3, [r1]	@ zero_extendqisi2
 835              		.loc 1 521 6 view .LVU231
 836 0006 5BB1     		cbz	r3, .L43
 522:Core/Src/vl53l0x_api.c **** 			PALDevDataSet(Dev, pTuningSettingsPointer,
 837              		.loc 1 522 4 is_stmt 1 view .LVU232
 838 0008 C0F84C11 		str	r1, [r0, #332]
 523:Core/Src/vl53l0x_api.c **** 				pTuningSettingBuffer);
 524:Core/Src/vl53l0x_api.c **** 			PALDevDataSet(Dev, UseInternalTuningSettings, 0);
 839              		.loc 1 524 4 view .LVU233
 840 000c 0023     		movs	r3, #0
 841 000e 80F85031 		strb	r3, [r0, #336]
 511:Core/Src/vl53l0x_api.c **** 
 842              		.loc 1 511 16 is_stmt 0 view .LVU234
 843 0012 1846     		mov	r0, r3
 844              	.LVL65:
 511:Core/Src/vl53l0x_api.c **** 
 845              		.loc 1 511 16 view .LVU235
 846 0014 7047     		bx	lr
 847              	.LVL66:
 848              	.L44:
 517:Core/Src/vl53l0x_api.c **** 	} else {
 849              		.loc 1 517 3 is_stmt 1 view .LVU236
 850 0016 0123     		movs	r3, #1
 851 0018 80F85031 		strb	r3, [r0, #336]
 511:Core/Src/vl53l0x_api.c **** 
 852              		.loc 1 511 16 is_stmt 0 view .LVU237
 853 001c 0020     		movs	r0, #0
 854              	.LVL67:
 511:Core/Src/vl53l0x_api.c **** 
 855              		.loc 1 511 16 view .LVU238
 856 001e 7047     		bx	lr
 857              	.LVL68:
 858              	.L43:
 525:Core/Src/vl53l0x_api.c **** 
 526:Core/Src/vl53l0x_api.c **** 		} else {
 527:Core/Src/vl53l0x_api.c **** 			Status = VL53L0X_ERROR_INVALID_PARAMS;
 859              		.loc 1 527 11 view .LVU239
 860 0020 6FF00300 		mvn	r0, #3
 861              	.LVL69:
 528:Core/Src/vl53l0x_api.c **** 		}
 529:Core/Src/vl53l0x_api.c **** 	}
 530:Core/Src/vl53l0x_api.c **** 
 531:Core/Src/vl53l0x_api.c **** 	LOG_FUNCTION_END(Status);
 862              		.loc 1 531 2 is_stmt 1 view .LVU240
 532:Core/Src/vl53l0x_api.c **** 	return Status;
ARM GAS  C:\Users\anmh1\AppData\Local\Temp\ccBPLcM2.s 			page 25


 863              		.loc 1 532 2 view .LVU241
 533:Core/Src/vl53l0x_api.c **** }
 864              		.loc 1 533 1 is_stmt 0 view .LVU242
 865 0024 7047     		bx	lr
 866              		.cfi_endproc
 867              	.LFE154:
 869              		.section	.text.VL53L0X_GetTuningSettingBuffer,"ax",%progbits
 870              		.align	1
 871              		.global	VL53L0X_GetTuningSettingBuffer
 872              		.syntax unified
 873              		.thumb
 874              		.thumb_func
 875              		.fpu fpv4-sp-d16
 877              	VL53L0X_GetTuningSettingBuffer:
 878              	.LVL70:
 879              	.LFB155:
 534:Core/Src/vl53l0x_api.c **** 
 535:Core/Src/vl53l0x_api.c **** VL53L0X_Error VL53L0X_GetTuningSettingBuffer(VL53L0X_DEV Dev,
 536:Core/Src/vl53l0x_api.c **** 	uint8_t **ppTuningSettingBuffer, uint8_t *pUseInternalTuningSettings)
 537:Core/Src/vl53l0x_api.c **** {
 880              		.loc 1 537 1 is_stmt 1 view -0
 881              		.cfi_startproc
 882              		@ args = 0, pretend = 0, frame = 0
 883              		@ frame_needed = 0, uses_anonymous_args = 0
 884              		@ link register save eliminated.
 538:Core/Src/vl53l0x_api.c **** 	VL53L0X_Error Status = VL53L0X_ERROR_NONE;
 885              		.loc 1 538 2 view .LVU244
 539:Core/Src/vl53l0x_api.c **** 
 540:Core/Src/vl53l0x_api.c **** 	LOG_FUNCTION_START("");
 886              		.loc 1 540 2 view .LVU245
 541:Core/Src/vl53l0x_api.c **** 
 542:Core/Src/vl53l0x_api.c **** 	*ppTuningSettingBuffer = PALDevDataGet(Dev, pTuningSettingsPointer);
 887              		.loc 1 542 2 view .LVU246
 888              		.loc 1 542 27 is_stmt 0 view .LVU247
 889 0000 D0F84C31 		ldr	r3, [r0, #332]
 890              		.loc 1 542 25 view .LVU248
 891 0004 0B60     		str	r3, [r1]
 543:Core/Src/vl53l0x_api.c **** 	*pUseInternalTuningSettings = PALDevDataGet(Dev,
 892              		.loc 1 543 2 is_stmt 1 view .LVU249
 893              		.loc 1 543 32 is_stmt 0 view .LVU250
 894 0006 90F85031 		ldrb	r3, [r0, #336]	@ zero_extendqisi2
 895              		.loc 1 543 30 view .LVU251
 896 000a 1370     		strb	r3, [r2]
 544:Core/Src/vl53l0x_api.c **** 		UseInternalTuningSettings);
 545:Core/Src/vl53l0x_api.c **** 
 546:Core/Src/vl53l0x_api.c **** 	LOG_FUNCTION_END(Status);
 897              		.loc 1 546 2 is_stmt 1 view .LVU252
 547:Core/Src/vl53l0x_api.c **** 	return Status;
 898              		.loc 1 547 2 view .LVU253
 548:Core/Src/vl53l0x_api.c **** }
 899              		.loc 1 548 1 is_stmt 0 view .LVU254
 900 000c 0020     		movs	r0, #0
 901              	.LVL71:
 902              		.loc 1 548 1 view .LVU255
 903 000e 7047     		bx	lr
 904              		.cfi_endproc
 905              	.LFE155:
ARM GAS  C:\Users\anmh1\AppData\Local\Temp\ccBPLcM2.s 			page 26


 907              		.section	.text.VL53L0X_WaitDeviceBooted,"ax",%progbits
 908              		.align	1
 909              		.global	VL53L0X_WaitDeviceBooted
 910              		.syntax unified
 911              		.thumb
 912              		.thumb_func
 913              		.fpu fpv4-sp-d16
 915              	VL53L0X_WaitDeviceBooted:
 916              	.LVL72:
 917              	.LFB157:
 549:Core/Src/vl53l0x_api.c **** 
 550:Core/Src/vl53l0x_api.c **** VL53L0X_Error VL53L0X_StaticInit(VL53L0X_DEV Dev)
 551:Core/Src/vl53l0x_api.c **** {
 552:Core/Src/vl53l0x_api.c **** 	VL53L0X_Error Status = VL53L0X_ERROR_NONE;
 553:Core/Src/vl53l0x_api.c **** 	VL53L0X_DeviceParameters_t CurrentParameters = {0};
 554:Core/Src/vl53l0x_api.c **** 	uint8_t *pTuningSettingBuffer;
 555:Core/Src/vl53l0x_api.c **** 	uint16_t tempword = 0;
 556:Core/Src/vl53l0x_api.c **** 	uint8_t tempbyte = 0;
 557:Core/Src/vl53l0x_api.c **** 	uint8_t UseInternalTuningSettings = 0;
 558:Core/Src/vl53l0x_api.c **** 	uint32_t count = 0;
 559:Core/Src/vl53l0x_api.c **** 	uint8_t isApertureSpads = 0;
 560:Core/Src/vl53l0x_api.c **** 	uint32_t refSpadCount = 0;
 561:Core/Src/vl53l0x_api.c **** 	uint8_t ApertureSpads = 0;
 562:Core/Src/vl53l0x_api.c **** 	uint8_t vcselPulsePeriodPCLK;
 563:Core/Src/vl53l0x_api.c **** 	uint32_t seqTimeoutMicroSecs;
 564:Core/Src/vl53l0x_api.c **** 
 565:Core/Src/vl53l0x_api.c **** 	LOG_FUNCTION_START("");
 566:Core/Src/vl53l0x_api.c **** 
 567:Core/Src/vl53l0x_api.c **** 	Status = VL53L0X_get_info_from_device(Dev, 1);
 568:Core/Src/vl53l0x_api.c **** 
 569:Core/Src/vl53l0x_api.c **** 	/* set the ref spad from NVM */
 570:Core/Src/vl53l0x_api.c **** 	count	= (uint32_t)VL53L0X_GETDEVICESPECIFICPARAMETER(Dev,
 571:Core/Src/vl53l0x_api.c **** 		ReferenceSpadCount);
 572:Core/Src/vl53l0x_api.c **** 	ApertureSpads = VL53L0X_GETDEVICESPECIFICPARAMETER(Dev,
 573:Core/Src/vl53l0x_api.c **** 		ReferenceSpadType);
 574:Core/Src/vl53l0x_api.c **** 
 575:Core/Src/vl53l0x_api.c **** 	/* NVM value invalid */
 576:Core/Src/vl53l0x_api.c **** 	if ((ApertureSpads > 1) ||
 577:Core/Src/vl53l0x_api.c **** 		((ApertureSpads == 1) && (count > 32)) ||
 578:Core/Src/vl53l0x_api.c **** 		((ApertureSpads == 0) && (count > 12)))
 579:Core/Src/vl53l0x_api.c **** 		Status = VL53L0X_perform_ref_spad_management(Dev, &refSpadCount,
 580:Core/Src/vl53l0x_api.c **** 			&isApertureSpads);
 581:Core/Src/vl53l0x_api.c **** 	else
 582:Core/Src/vl53l0x_api.c **** 		Status = VL53L0X_set_reference_spads(Dev, count, ApertureSpads);
 583:Core/Src/vl53l0x_api.c **** 
 584:Core/Src/vl53l0x_api.c **** 
 585:Core/Src/vl53l0x_api.c **** 	/* Initialize tuning settings buffer to prevent compiler warning. */
 586:Core/Src/vl53l0x_api.c **** 	pTuningSettingBuffer = DefaultTuningSettings;
 587:Core/Src/vl53l0x_api.c **** 
 588:Core/Src/vl53l0x_api.c **** 	if (Status == VL53L0X_ERROR_NONE) {
 589:Core/Src/vl53l0x_api.c **** 		UseInternalTuningSettings = PALDevDataGet(Dev,
 590:Core/Src/vl53l0x_api.c **** 			UseInternalTuningSettings);
 591:Core/Src/vl53l0x_api.c **** 
 592:Core/Src/vl53l0x_api.c **** 		if (UseInternalTuningSettings == 0)
 593:Core/Src/vl53l0x_api.c **** 			pTuningSettingBuffer = PALDevDataGet(Dev,
 594:Core/Src/vl53l0x_api.c **** 				pTuningSettingsPointer);
 595:Core/Src/vl53l0x_api.c **** 		else
ARM GAS  C:\Users\anmh1\AppData\Local\Temp\ccBPLcM2.s 			page 27


 596:Core/Src/vl53l0x_api.c **** 			pTuningSettingBuffer = DefaultTuningSettings;
 597:Core/Src/vl53l0x_api.c **** 
 598:Core/Src/vl53l0x_api.c **** 	}
 599:Core/Src/vl53l0x_api.c **** 
 600:Core/Src/vl53l0x_api.c **** 	if (Status == VL53L0X_ERROR_NONE)
 601:Core/Src/vl53l0x_api.c **** 		Status = VL53L0X_load_tuning_settings(Dev, pTuningSettingBuffer);
 602:Core/Src/vl53l0x_api.c **** 
 603:Core/Src/vl53l0x_api.c **** 
 604:Core/Src/vl53l0x_api.c **** 	/* Set interrupt config to new sample ready */
 605:Core/Src/vl53l0x_api.c **** 	if (Status == VL53L0X_ERROR_NONE) {
 606:Core/Src/vl53l0x_api.c **** 		Status = VL53L0X_SetGpioConfig(Dev, 0, 0,
 607:Core/Src/vl53l0x_api.c **** 		VL53L0X_REG_SYSTEM_INTERRUPT_GPIO_NEW_SAMPLE_READY,
 608:Core/Src/vl53l0x_api.c **** 		VL53L0X_INTERRUPTPOLARITY_LOW);
 609:Core/Src/vl53l0x_api.c **** 	}
 610:Core/Src/vl53l0x_api.c **** 
 611:Core/Src/vl53l0x_api.c **** 	if (Status == VL53L0X_ERROR_NONE) {
 612:Core/Src/vl53l0x_api.c **** 		Status = VL53L0X_WrByte(Dev, 0xFF, 0x01);
 613:Core/Src/vl53l0x_api.c **** 		Status |= VL53L0X_RdWord(Dev, 0x84, &tempword);
 614:Core/Src/vl53l0x_api.c **** 		Status |= VL53L0X_WrByte(Dev, 0xFF, 0x00);
 615:Core/Src/vl53l0x_api.c **** 	}
 616:Core/Src/vl53l0x_api.c **** 
 617:Core/Src/vl53l0x_api.c **** 	if (Status == VL53L0X_ERROR_NONE) {
 618:Core/Src/vl53l0x_api.c **** 		VL53L0X_SETDEVICESPECIFICPARAMETER(Dev, OscFrequencyMHz,
 619:Core/Src/vl53l0x_api.c **** 			VL53L0X_FIXPOINT412TOFIXPOINT1616(tempword));
 620:Core/Src/vl53l0x_api.c **** 	}
 621:Core/Src/vl53l0x_api.c **** 
 622:Core/Src/vl53l0x_api.c **** 	/* After static init, some device parameters may be changed,
 623:Core/Src/vl53l0x_api.c **** 	 * so update them */
 624:Core/Src/vl53l0x_api.c **** 	if (Status == VL53L0X_ERROR_NONE)
 625:Core/Src/vl53l0x_api.c **** 		Status = VL53L0X_GetDeviceParameters(Dev, &CurrentParameters);
 626:Core/Src/vl53l0x_api.c **** 
 627:Core/Src/vl53l0x_api.c **** 
 628:Core/Src/vl53l0x_api.c **** 	if (Status == VL53L0X_ERROR_NONE) {
 629:Core/Src/vl53l0x_api.c **** 		Status = VL53L0X_GetFractionEnable(Dev, &tempbyte);
 630:Core/Src/vl53l0x_api.c **** 		if (Status == VL53L0X_ERROR_NONE)
 631:Core/Src/vl53l0x_api.c **** 			PALDevDataSet(Dev, RangeFractionalEnable, tempbyte);
 632:Core/Src/vl53l0x_api.c **** 
 633:Core/Src/vl53l0x_api.c **** 	}
 634:Core/Src/vl53l0x_api.c **** 
 635:Core/Src/vl53l0x_api.c **** 	if (Status == VL53L0X_ERROR_NONE)
 636:Core/Src/vl53l0x_api.c **** 		PALDevDataSet(Dev, CurrentParameters, CurrentParameters);
 637:Core/Src/vl53l0x_api.c **** 
 638:Core/Src/vl53l0x_api.c **** 
 639:Core/Src/vl53l0x_api.c **** 	/* read the sequence config and save it */
 640:Core/Src/vl53l0x_api.c **** 	if (Status == VL53L0X_ERROR_NONE) {
 641:Core/Src/vl53l0x_api.c **** 		Status = VL53L0X_RdByte(Dev,
 642:Core/Src/vl53l0x_api.c **** 		VL53L0X_REG_SYSTEM_SEQUENCE_CONFIG, &tempbyte);
 643:Core/Src/vl53l0x_api.c **** 		if (Status == VL53L0X_ERROR_NONE)
 644:Core/Src/vl53l0x_api.c **** 			PALDevDataSet(Dev, SequenceConfig, tempbyte);
 645:Core/Src/vl53l0x_api.c **** 
 646:Core/Src/vl53l0x_api.c **** 	}
 647:Core/Src/vl53l0x_api.c **** 
 648:Core/Src/vl53l0x_api.c **** 	/* Disable MSRC and TCC by default */
 649:Core/Src/vl53l0x_api.c **** 	if (Status == VL53L0X_ERROR_NONE)
 650:Core/Src/vl53l0x_api.c **** 		Status = VL53L0X_SetSequenceStepEnable(Dev,
 651:Core/Src/vl53l0x_api.c **** 					VL53L0X_SEQUENCESTEP_TCC, 0);
 652:Core/Src/vl53l0x_api.c **** 
ARM GAS  C:\Users\anmh1\AppData\Local\Temp\ccBPLcM2.s 			page 28


 653:Core/Src/vl53l0x_api.c **** 
 654:Core/Src/vl53l0x_api.c **** 	if (Status == VL53L0X_ERROR_NONE)
 655:Core/Src/vl53l0x_api.c **** 		Status = VL53L0X_SetSequenceStepEnable(Dev,
 656:Core/Src/vl53l0x_api.c **** 		VL53L0X_SEQUENCESTEP_MSRC, 0);
 657:Core/Src/vl53l0x_api.c **** 
 658:Core/Src/vl53l0x_api.c **** 
 659:Core/Src/vl53l0x_api.c **** 	/* Set PAL State to standby */
 660:Core/Src/vl53l0x_api.c **** 	if (Status == VL53L0X_ERROR_NONE)
 661:Core/Src/vl53l0x_api.c **** 		PALDevDataSet(Dev, PalState, VL53L0X_STATE_IDLE);
 662:Core/Src/vl53l0x_api.c **** 
 663:Core/Src/vl53l0x_api.c **** 
 664:Core/Src/vl53l0x_api.c **** 
 665:Core/Src/vl53l0x_api.c **** 	/* Store pre-range vcsel period */
 666:Core/Src/vl53l0x_api.c **** 	if (Status == VL53L0X_ERROR_NONE) {
 667:Core/Src/vl53l0x_api.c **** 		Status = VL53L0X_GetVcselPulsePeriod(
 668:Core/Src/vl53l0x_api.c **** 			Dev,
 669:Core/Src/vl53l0x_api.c **** 			VL53L0X_VCSEL_PERIOD_PRE_RANGE,
 670:Core/Src/vl53l0x_api.c **** 			&vcselPulsePeriodPCLK);
 671:Core/Src/vl53l0x_api.c **** 	}
 672:Core/Src/vl53l0x_api.c **** 
 673:Core/Src/vl53l0x_api.c **** 	if (Status == VL53L0X_ERROR_NONE) {
 674:Core/Src/vl53l0x_api.c **** 			VL53L0X_SETDEVICESPECIFICPARAMETER(
 675:Core/Src/vl53l0x_api.c **** 				Dev,
 676:Core/Src/vl53l0x_api.c **** 				PreRangeVcselPulsePeriod,
 677:Core/Src/vl53l0x_api.c **** 				vcselPulsePeriodPCLK);
 678:Core/Src/vl53l0x_api.c **** 	}
 679:Core/Src/vl53l0x_api.c **** 
 680:Core/Src/vl53l0x_api.c **** 	/* Store final-range vcsel period */
 681:Core/Src/vl53l0x_api.c **** 	if (Status == VL53L0X_ERROR_NONE) {
 682:Core/Src/vl53l0x_api.c **** 		Status = VL53L0X_GetVcselPulsePeriod(
 683:Core/Src/vl53l0x_api.c **** 			Dev,
 684:Core/Src/vl53l0x_api.c **** 			VL53L0X_VCSEL_PERIOD_FINAL_RANGE,
 685:Core/Src/vl53l0x_api.c **** 			&vcselPulsePeriodPCLK);
 686:Core/Src/vl53l0x_api.c **** 	}
 687:Core/Src/vl53l0x_api.c **** 
 688:Core/Src/vl53l0x_api.c **** 	if (Status == VL53L0X_ERROR_NONE) {
 689:Core/Src/vl53l0x_api.c **** 			VL53L0X_SETDEVICESPECIFICPARAMETER(
 690:Core/Src/vl53l0x_api.c **** 				Dev,
 691:Core/Src/vl53l0x_api.c **** 				FinalRangeVcselPulsePeriod,
 692:Core/Src/vl53l0x_api.c **** 				vcselPulsePeriodPCLK);
 693:Core/Src/vl53l0x_api.c **** 	}
 694:Core/Src/vl53l0x_api.c **** 
 695:Core/Src/vl53l0x_api.c **** 	/* Store pre-range timeout */
 696:Core/Src/vl53l0x_api.c **** 	if (Status == VL53L0X_ERROR_NONE) {
 697:Core/Src/vl53l0x_api.c **** 		Status = get_sequence_step_timeout(
 698:Core/Src/vl53l0x_api.c **** 			Dev,
 699:Core/Src/vl53l0x_api.c **** 			VL53L0X_SEQUENCESTEP_PRE_RANGE,
 700:Core/Src/vl53l0x_api.c **** 			&seqTimeoutMicroSecs);
 701:Core/Src/vl53l0x_api.c **** 	}
 702:Core/Src/vl53l0x_api.c **** 
 703:Core/Src/vl53l0x_api.c **** 	if (Status == VL53L0X_ERROR_NONE) {
 704:Core/Src/vl53l0x_api.c **** 		VL53L0X_SETDEVICESPECIFICPARAMETER(
 705:Core/Src/vl53l0x_api.c **** 			Dev,
 706:Core/Src/vl53l0x_api.c **** 			PreRangeTimeoutMicroSecs,
 707:Core/Src/vl53l0x_api.c **** 			seqTimeoutMicroSecs);
 708:Core/Src/vl53l0x_api.c **** 	}
 709:Core/Src/vl53l0x_api.c **** 
ARM GAS  C:\Users\anmh1\AppData\Local\Temp\ccBPLcM2.s 			page 29


 710:Core/Src/vl53l0x_api.c **** 	/* Store final-range timeout */
 711:Core/Src/vl53l0x_api.c **** 	if (Status == VL53L0X_ERROR_NONE) {
 712:Core/Src/vl53l0x_api.c **** 		Status = get_sequence_step_timeout(
 713:Core/Src/vl53l0x_api.c **** 			Dev,
 714:Core/Src/vl53l0x_api.c **** 			VL53L0X_SEQUENCESTEP_FINAL_RANGE,
 715:Core/Src/vl53l0x_api.c **** 			&seqTimeoutMicroSecs);
 716:Core/Src/vl53l0x_api.c **** 	}
 717:Core/Src/vl53l0x_api.c **** 
 718:Core/Src/vl53l0x_api.c **** 	if (Status == VL53L0X_ERROR_NONE) {
 719:Core/Src/vl53l0x_api.c **** 		VL53L0X_SETDEVICESPECIFICPARAMETER(
 720:Core/Src/vl53l0x_api.c **** 			Dev,
 721:Core/Src/vl53l0x_api.c **** 			FinalRangeTimeoutMicroSecs,
 722:Core/Src/vl53l0x_api.c **** 			seqTimeoutMicroSecs);
 723:Core/Src/vl53l0x_api.c **** 	}
 724:Core/Src/vl53l0x_api.c **** 
 725:Core/Src/vl53l0x_api.c **** 	LOG_FUNCTION_END(Status);
 726:Core/Src/vl53l0x_api.c **** 	return Status;
 727:Core/Src/vl53l0x_api.c **** }
 728:Core/Src/vl53l0x_api.c **** 
 729:Core/Src/vl53l0x_api.c **** VL53L0X_Error VL53L0X_WaitDeviceBooted(VL53L0X_DEV Dev)
 730:Core/Src/vl53l0x_api.c **** {
 918              		.loc 1 730 1 is_stmt 1 view -0
 919              		.cfi_startproc
 920              		@ args = 0, pretend = 0, frame = 0
 921              		@ frame_needed = 0, uses_anonymous_args = 0
 922              		@ link register save eliminated.
 731:Core/Src/vl53l0x_api.c **** 	VL53L0X_Error Status = VL53L0X_ERROR_NOT_IMPLEMENTED;
 923              		.loc 1 731 2 view .LVU257
 732:Core/Src/vl53l0x_api.c **** 	LOG_FUNCTION_START("");
 924              		.loc 1 732 2 view .LVU258
 733:Core/Src/vl53l0x_api.c **** 
 734:Core/Src/vl53l0x_api.c **** 	/* not implemented on VL53L0X */
 735:Core/Src/vl53l0x_api.c **** 
 736:Core/Src/vl53l0x_api.c **** 	LOG_FUNCTION_END(Status);
 925              		.loc 1 736 2 view .LVU259
 737:Core/Src/vl53l0x_api.c **** 	return Status;
 926              		.loc 1 737 2 view .LVU260
 738:Core/Src/vl53l0x_api.c **** }
 927              		.loc 1 738 1 is_stmt 0 view .LVU261
 928 0000 6FF06200 		mvn	r0, #98
 929              	.LVL73:
 930              		.loc 1 738 1 view .LVU262
 931 0004 7047     		bx	lr
 932              		.cfi_endproc
 933              	.LFE157:
 935              		.section	.text.VL53L0X_ResetDevice,"ax",%progbits
 936              		.align	1
 937              		.global	VL53L0X_ResetDevice
 938              		.syntax unified
 939              		.thumb
 940              		.thumb_func
 941              		.fpu fpv4-sp-d16
 943              	VL53L0X_ResetDevice:
 944              	.LVL74:
 945              	.LFB158:
 739:Core/Src/vl53l0x_api.c **** 
 740:Core/Src/vl53l0x_api.c **** VL53L0X_Error VL53L0X_ResetDevice(VL53L0X_DEV Dev)
ARM GAS  C:\Users\anmh1\AppData\Local\Temp\ccBPLcM2.s 			page 30


 741:Core/Src/vl53l0x_api.c **** {
 946              		.loc 1 741 1 is_stmt 1 view -0
 947              		.cfi_startproc
 948              		@ args = 0, pretend = 0, frame = 8
 949              		@ frame_needed = 0, uses_anonymous_args = 0
 950              		.loc 1 741 1 is_stmt 0 view .LVU264
 951 0000 30B5     		push	{r4, r5, lr}
 952              		.cfi_def_cfa_offset 12
 953              		.cfi_offset 4, -12
 954              		.cfi_offset 5, -8
 955              		.cfi_offset 14, -4
 956 0002 83B0     		sub	sp, sp, #12
 957              		.cfi_def_cfa_offset 24
 958 0004 0546     		mov	r5, r0
 742:Core/Src/vl53l0x_api.c **** 	VL53L0X_Error Status = VL53L0X_ERROR_NONE;
 959              		.loc 1 742 2 is_stmt 1 view .LVU265
 960              	.LVL75:
 743:Core/Src/vl53l0x_api.c **** 	uint8_t Byte;
 961              		.loc 1 743 2 view .LVU266
 744:Core/Src/vl53l0x_api.c **** 	LOG_FUNCTION_START("");
 962              		.loc 1 744 2 view .LVU267
 745:Core/Src/vl53l0x_api.c **** 
 746:Core/Src/vl53l0x_api.c **** 	/* Set reset bit */
 747:Core/Src/vl53l0x_api.c **** 	Status = VL53L0X_WrByte(Dev, VL53L0X_REG_SOFT_RESET_GO2_SOFT_RESET_N,
 963              		.loc 1 747 2 view .LVU268
 964              		.loc 1 747 11 is_stmt 0 view .LVU269
 965 0006 0022     		movs	r2, #0
 966 0008 BF21     		movs	r1, #191
 967 000a FFF7FEFF 		bl	VL53L0X_WrByte
 968              	.LVL76:
 748:Core/Src/vl53l0x_api.c **** 		0x00);
 749:Core/Src/vl53l0x_api.c **** 
 750:Core/Src/vl53l0x_api.c **** 	/* Wait for some time */
 751:Core/Src/vl53l0x_api.c **** 	if (Status == VL53L0X_ERROR_NONE) {
 969              		.loc 1 751 2 is_stmt 1 view .LVU270
 970              		.loc 1 751 5 is_stmt 0 view .LVU271
 971 000e 48B9     		cbnz	r0, .L48
 972              	.LVL77:
 973              	.L49:
 752:Core/Src/vl53l0x_api.c **** 		do {
 974              		.loc 1 752 3 is_stmt 1 discriminator 1 view .LVU272
 753:Core/Src/vl53l0x_api.c **** 			Status = VL53L0X_RdByte(Dev,
 975              		.loc 1 753 4 discriminator 1 view .LVU273
 976              		.loc 1 753 13 is_stmt 0 discriminator 1 view .LVU274
 977 0010 0DF10702 		add	r2, sp, #7
 978 0014 C021     		movs	r1, #192
 979 0016 2846     		mov	r0, r5
 980 0018 FFF7FEFF 		bl	VL53L0X_RdByte
 981              	.LVL78:
 754:Core/Src/vl53l0x_api.c **** 			VL53L0X_REG_IDENTIFICATION_MODEL_ID, &Byte);
 755:Core/Src/vl53l0x_api.c **** 		} while (Byte != 0x00);
 982              		.loc 1 755 11 is_stmt 1 discriminator 1 view .LVU275
 983              		.loc 1 755 17 is_stmt 0 discriminator 1 view .LVU276
 984 001c 9DF80730 		ldrb	r3, [sp, #7]	@ zero_extendqisi2
 985              		.loc 1 755 3 discriminator 1 view .LVU277
 986 0020 002B     		cmp	r3, #0
 987 0022 F5D1     		bne	.L49
ARM GAS  C:\Users\anmh1\AppData\Local\Temp\ccBPLcM2.s 			page 31


 988              	.L48:
 756:Core/Src/vl53l0x_api.c **** 	}
 757:Core/Src/vl53l0x_api.c **** 
 758:Core/Src/vl53l0x_api.c **** 	VL53L0X_PollingDelay(Dev);
 989              		.loc 1 758 2 is_stmt 1 view .LVU278
 990 0024 2846     		mov	r0, r5
 991 0026 FFF7FEFF 		bl	VL53L0X_PollingDelay
 992              	.LVL79:
 759:Core/Src/vl53l0x_api.c **** 
 760:Core/Src/vl53l0x_api.c **** 	/* Release reset */
 761:Core/Src/vl53l0x_api.c **** 	Status = VL53L0X_WrByte(Dev, VL53L0X_REG_SOFT_RESET_GO2_SOFT_RESET_N,
 993              		.loc 1 761 2 view .LVU279
 994              		.loc 1 761 11 is_stmt 0 view .LVU280
 995 002a 0122     		movs	r2, #1
 996 002c BF21     		movs	r1, #191
 997 002e 2846     		mov	r0, r5
 998 0030 FFF7FEFF 		bl	VL53L0X_WrByte
 999              	.LVL80:
 762:Core/Src/vl53l0x_api.c **** 		0x01);
 763:Core/Src/vl53l0x_api.c **** 
 764:Core/Src/vl53l0x_api.c **** 	/* Wait until correct boot-up of the device */
 765:Core/Src/vl53l0x_api.c **** 	if (Status == VL53L0X_ERROR_NONE) {
 1000              		.loc 1 765 2 is_stmt 1 view .LVU281
 1001              		.loc 1 765 5 is_stmt 0 view .LVU282
 1002 0034 0446     		mov	r4, r0
 1003 0036 50B9     		cbnz	r0, .L50
 1004              	.LVL81:
 1005              	.L51:
 766:Core/Src/vl53l0x_api.c **** 		do {
 1006              		.loc 1 766 3 is_stmt 1 discriminator 1 view .LVU283
 767:Core/Src/vl53l0x_api.c **** 			Status = VL53L0X_RdByte(Dev,
 1007              		.loc 1 767 4 discriminator 1 view .LVU284
 1008              		.loc 1 767 13 is_stmt 0 discriminator 1 view .LVU285
 1009 0038 0DF10702 		add	r2, sp, #7
 1010 003c C021     		movs	r1, #192
 1011 003e 2846     		mov	r0, r5
 1012 0040 FFF7FEFF 		bl	VL53L0X_RdByte
 1013              	.LVL82:
 1014 0044 0446     		mov	r4, r0
 1015              	.LVL83:
 768:Core/Src/vl53l0x_api.c **** 			VL53L0X_REG_IDENTIFICATION_MODEL_ID, &Byte);
 769:Core/Src/vl53l0x_api.c **** 		} while (Byte == 0x00);
 1016              		.loc 1 769 11 is_stmt 1 discriminator 1 view .LVU286
 1017              		.loc 1 769 17 is_stmt 0 discriminator 1 view .LVU287
 1018 0046 9DF80730 		ldrb	r3, [sp, #7]	@ zero_extendqisi2
 1019              		.loc 1 769 3 discriminator 1 view .LVU288
 1020 004a 002B     		cmp	r3, #0
 1021 004c F4D0     		beq	.L51
 1022              	.LVL84:
 1023              	.L50:
 770:Core/Src/vl53l0x_api.c **** 	}
 771:Core/Src/vl53l0x_api.c **** 
 772:Core/Src/vl53l0x_api.c **** 	VL53L0X_PollingDelay(Dev);
 1024              		.loc 1 772 2 is_stmt 1 view .LVU289
 1025 004e 2846     		mov	r0, r5
 1026 0050 FFF7FEFF 		bl	VL53L0X_PollingDelay
 1027              	.LVL85:
ARM GAS  C:\Users\anmh1\AppData\Local\Temp\ccBPLcM2.s 			page 32


 773:Core/Src/vl53l0x_api.c **** 
 774:Core/Src/vl53l0x_api.c **** 	/* Set PAL State to VL53L0X_STATE_POWERDOWN */
 775:Core/Src/vl53l0x_api.c **** 	if (Status == VL53L0X_ERROR_NONE)
 1028              		.loc 1 775 2 view .LVU290
 1029              		.loc 1 775 5 is_stmt 0 view .LVU291
 1030 0054 14B9     		cbnz	r4, .L52
 776:Core/Src/vl53l0x_api.c **** 		PALDevDataSet(Dev, PalState, VL53L0X_STATE_POWERDOWN);
 1031              		.loc 1 776 3 is_stmt 1 view .LVU292
 1032 0056 0023     		movs	r3, #0
 1033 0058 85F83231 		strb	r3, [r5, #306]
 1034              	.L52:
 777:Core/Src/vl53l0x_api.c **** 
 778:Core/Src/vl53l0x_api.c **** 
 779:Core/Src/vl53l0x_api.c **** 	LOG_FUNCTION_END(Status);
 1035              		.loc 1 779 2 view .LVU293
 780:Core/Src/vl53l0x_api.c **** 	return Status;
 1036              		.loc 1 780 2 view .LVU294
 781:Core/Src/vl53l0x_api.c **** }
 1037              		.loc 1 781 1 is_stmt 0 view .LVU295
 1038 005c 2046     		mov	r0, r4
 1039 005e 03B0     		add	sp, sp, #12
 1040              		.cfi_def_cfa_offset 12
 1041              		@ sp needed
 1042 0060 30BD     		pop	{r4, r5, pc}
 1043              		.loc 1 781 1 view .LVU296
 1044              		.cfi_endproc
 1045              	.LFE158:
 1047              		.section	.text.VL53L0X_SetDeviceMode,"ax",%progbits
 1048              		.align	1
 1049              		.global	VL53L0X_SetDeviceMode
 1050              		.syntax unified
 1051              		.thumb
 1052              		.thumb_func
 1053              		.fpu fpv4-sp-d16
 1055              	VL53L0X_SetDeviceMode:
 1056              	.LVL86:
 1057              	.LFB161:
 782:Core/Src/vl53l0x_api.c **** /* End Group PAL Init Functions */
 783:Core/Src/vl53l0x_api.c **** 
 784:Core/Src/vl53l0x_api.c **** /* Group PAL Parameters Functions */
 785:Core/Src/vl53l0x_api.c **** VL53L0X_Error VL53L0X_SetDeviceParameters(VL53L0X_DEV Dev,
 786:Core/Src/vl53l0x_api.c **** 	const VL53L0X_DeviceParameters_t *pDeviceParameters)
 787:Core/Src/vl53l0x_api.c **** {
 788:Core/Src/vl53l0x_api.c **** 	VL53L0X_Error Status = VL53L0X_ERROR_NONE;
 789:Core/Src/vl53l0x_api.c **** 	int i;
 790:Core/Src/vl53l0x_api.c **** 	LOG_FUNCTION_START("");
 791:Core/Src/vl53l0x_api.c **** 	Status = VL53L0X_SetDeviceMode(Dev, pDeviceParameters->DeviceMode);
 792:Core/Src/vl53l0x_api.c **** 
 793:Core/Src/vl53l0x_api.c **** 	if (Status == VL53L0X_ERROR_NONE)
 794:Core/Src/vl53l0x_api.c **** 		Status = VL53L0X_SetInterMeasurementPeriodMilliSeconds(Dev,
 795:Core/Src/vl53l0x_api.c **** 			pDeviceParameters->InterMeasurementPeriodMilliSeconds);
 796:Core/Src/vl53l0x_api.c **** 
 797:Core/Src/vl53l0x_api.c **** 
 798:Core/Src/vl53l0x_api.c **** 	if (Status == VL53L0X_ERROR_NONE)
 799:Core/Src/vl53l0x_api.c **** 		Status = VL53L0X_SetXTalkCompensationRateMegaCps(Dev,
 800:Core/Src/vl53l0x_api.c **** 			pDeviceParameters->XTalkCompensationRateMegaCps);
 801:Core/Src/vl53l0x_api.c **** 
ARM GAS  C:\Users\anmh1\AppData\Local\Temp\ccBPLcM2.s 			page 33


 802:Core/Src/vl53l0x_api.c **** 
 803:Core/Src/vl53l0x_api.c **** 	if (Status == VL53L0X_ERROR_NONE)
 804:Core/Src/vl53l0x_api.c **** 		Status = VL53L0X_SetOffsetCalibrationDataMicroMeter(Dev,
 805:Core/Src/vl53l0x_api.c **** 			pDeviceParameters->RangeOffsetMicroMeters);
 806:Core/Src/vl53l0x_api.c **** 
 807:Core/Src/vl53l0x_api.c **** 
 808:Core/Src/vl53l0x_api.c **** 	for (i = 0; i < VL53L0X_CHECKENABLE_NUMBER_OF_CHECKS; i++) {
 809:Core/Src/vl53l0x_api.c **** 		if (Status == VL53L0X_ERROR_NONE)
 810:Core/Src/vl53l0x_api.c **** 			Status |= VL53L0X_SetLimitCheckEnable(Dev, i,
 811:Core/Src/vl53l0x_api.c **** 				pDeviceParameters->LimitChecksEnable[i]);
 812:Core/Src/vl53l0x_api.c **** 		else
 813:Core/Src/vl53l0x_api.c **** 			break;
 814:Core/Src/vl53l0x_api.c **** 
 815:Core/Src/vl53l0x_api.c **** 		if (Status == VL53L0X_ERROR_NONE)
 816:Core/Src/vl53l0x_api.c **** 			Status |= VL53L0X_SetLimitCheckValue(Dev, i,
 817:Core/Src/vl53l0x_api.c **** 				pDeviceParameters->LimitChecksValue[i]);
 818:Core/Src/vl53l0x_api.c **** 		else
 819:Core/Src/vl53l0x_api.c **** 			break;
 820:Core/Src/vl53l0x_api.c **** 
 821:Core/Src/vl53l0x_api.c **** 	}
 822:Core/Src/vl53l0x_api.c **** 
 823:Core/Src/vl53l0x_api.c **** 	if (Status == VL53L0X_ERROR_NONE)
 824:Core/Src/vl53l0x_api.c **** 		Status = VL53L0X_SetWrapAroundCheckEnable(Dev,
 825:Core/Src/vl53l0x_api.c **** 			pDeviceParameters->WrapAroundCheckEnable);
 826:Core/Src/vl53l0x_api.c **** 
 827:Core/Src/vl53l0x_api.c **** 	if (Status == VL53L0X_ERROR_NONE)
 828:Core/Src/vl53l0x_api.c **** 		Status = VL53L0X_SetMeasurementTimingBudgetMicroSeconds(Dev,
 829:Core/Src/vl53l0x_api.c **** 			pDeviceParameters->MeasurementTimingBudgetMicroSeconds);
 830:Core/Src/vl53l0x_api.c **** 
 831:Core/Src/vl53l0x_api.c **** 
 832:Core/Src/vl53l0x_api.c **** 	LOG_FUNCTION_END(Status);
 833:Core/Src/vl53l0x_api.c **** 	return Status;
 834:Core/Src/vl53l0x_api.c **** }
 835:Core/Src/vl53l0x_api.c **** 
 836:Core/Src/vl53l0x_api.c **** VL53L0X_Error VL53L0X_GetDeviceParameters(VL53L0X_DEV Dev,
 837:Core/Src/vl53l0x_api.c **** 	VL53L0X_DeviceParameters_t *pDeviceParameters)
 838:Core/Src/vl53l0x_api.c **** {
 839:Core/Src/vl53l0x_api.c **** 	VL53L0X_Error Status = VL53L0X_ERROR_NONE;
 840:Core/Src/vl53l0x_api.c **** 	int i;
 841:Core/Src/vl53l0x_api.c **** 
 842:Core/Src/vl53l0x_api.c **** 	LOG_FUNCTION_START("");
 843:Core/Src/vl53l0x_api.c **** 
 844:Core/Src/vl53l0x_api.c **** 	Status = VL53L0X_GetDeviceMode(Dev, &(pDeviceParameters->DeviceMode));
 845:Core/Src/vl53l0x_api.c **** 
 846:Core/Src/vl53l0x_api.c **** 	if (Status == VL53L0X_ERROR_NONE)
 847:Core/Src/vl53l0x_api.c **** 		Status = VL53L0X_GetInterMeasurementPeriodMilliSeconds(Dev,
 848:Core/Src/vl53l0x_api.c **** 		&(pDeviceParameters->InterMeasurementPeriodMilliSeconds));
 849:Core/Src/vl53l0x_api.c **** 
 850:Core/Src/vl53l0x_api.c **** 
 851:Core/Src/vl53l0x_api.c **** 	if (Status == VL53L0X_ERROR_NONE)
 852:Core/Src/vl53l0x_api.c **** 		pDeviceParameters->XTalkCompensationEnable = 0;
 853:Core/Src/vl53l0x_api.c **** 
 854:Core/Src/vl53l0x_api.c **** 	if (Status == VL53L0X_ERROR_NONE)
 855:Core/Src/vl53l0x_api.c **** 		Status = VL53L0X_GetXTalkCompensationRateMegaCps(Dev,
 856:Core/Src/vl53l0x_api.c **** 			&(pDeviceParameters->XTalkCompensationRateMegaCps));
 857:Core/Src/vl53l0x_api.c **** 
 858:Core/Src/vl53l0x_api.c **** 
ARM GAS  C:\Users\anmh1\AppData\Local\Temp\ccBPLcM2.s 			page 34


 859:Core/Src/vl53l0x_api.c **** 	if (Status == VL53L0X_ERROR_NONE)
 860:Core/Src/vl53l0x_api.c **** 		Status = VL53L0X_GetOffsetCalibrationDataMicroMeter(Dev,
 861:Core/Src/vl53l0x_api.c **** 			&(pDeviceParameters->RangeOffsetMicroMeters));
 862:Core/Src/vl53l0x_api.c **** 
 863:Core/Src/vl53l0x_api.c **** 
 864:Core/Src/vl53l0x_api.c **** 	if (Status == VL53L0X_ERROR_NONE) {
 865:Core/Src/vl53l0x_api.c **** 		for (i = 0; i < VL53L0X_CHECKENABLE_NUMBER_OF_CHECKS; i++) {
 866:Core/Src/vl53l0x_api.c **** 			/* get first the values, then the enables.
 867:Core/Src/vl53l0x_api.c **** 			 * VL53L0X_GetLimitCheckValue will modify the enable
 868:Core/Src/vl53l0x_api.c **** 			 * flags
 869:Core/Src/vl53l0x_api.c **** 			 */
 870:Core/Src/vl53l0x_api.c **** 			if (Status == VL53L0X_ERROR_NONE) {
 871:Core/Src/vl53l0x_api.c **** 				Status |= VL53L0X_GetLimitCheckValue(Dev, i,
 872:Core/Src/vl53l0x_api.c **** 				&(pDeviceParameters->LimitChecksValue[i]));
 873:Core/Src/vl53l0x_api.c **** 			} else {
 874:Core/Src/vl53l0x_api.c **** 				break;
 875:Core/Src/vl53l0x_api.c **** 			}
 876:Core/Src/vl53l0x_api.c **** 			if (Status == VL53L0X_ERROR_NONE) {
 877:Core/Src/vl53l0x_api.c **** 				Status |= VL53L0X_GetLimitCheckEnable(Dev, i,
 878:Core/Src/vl53l0x_api.c **** 				&(pDeviceParameters->LimitChecksEnable[i]));
 879:Core/Src/vl53l0x_api.c **** 			} else {
 880:Core/Src/vl53l0x_api.c **** 				break;
 881:Core/Src/vl53l0x_api.c **** 			}
 882:Core/Src/vl53l0x_api.c **** 		}
 883:Core/Src/vl53l0x_api.c **** 	}
 884:Core/Src/vl53l0x_api.c **** 
 885:Core/Src/vl53l0x_api.c **** 	if (Status == VL53L0X_ERROR_NONE) {
 886:Core/Src/vl53l0x_api.c **** 		Status = VL53L0X_GetWrapAroundCheckEnable(Dev,
 887:Core/Src/vl53l0x_api.c **** 			&(pDeviceParameters->WrapAroundCheckEnable));
 888:Core/Src/vl53l0x_api.c **** 	}
 889:Core/Src/vl53l0x_api.c **** 
 890:Core/Src/vl53l0x_api.c **** 	/* Need to be done at the end as it uses VCSELPulsePeriod */
 891:Core/Src/vl53l0x_api.c **** 	if (Status == VL53L0X_ERROR_NONE) {
 892:Core/Src/vl53l0x_api.c **** 		Status = VL53L0X_GetMeasurementTimingBudgetMicroSeconds(Dev,
 893:Core/Src/vl53l0x_api.c **** 		&(pDeviceParameters->MeasurementTimingBudgetMicroSeconds));
 894:Core/Src/vl53l0x_api.c **** 	}
 895:Core/Src/vl53l0x_api.c **** 
 896:Core/Src/vl53l0x_api.c **** 	LOG_FUNCTION_END(Status);
 897:Core/Src/vl53l0x_api.c **** 	return Status;
 898:Core/Src/vl53l0x_api.c **** }
 899:Core/Src/vl53l0x_api.c **** 
 900:Core/Src/vl53l0x_api.c **** VL53L0X_Error VL53L0X_SetDeviceMode(VL53L0X_DEV Dev, VL53L0X_DeviceModes DeviceMode)
 901:Core/Src/vl53l0x_api.c **** {
 1058              		.loc 1 901 1 is_stmt 1 view -0
 1059              		.cfi_startproc
 1060              		@ args = 0, pretend = 0, frame = 0
 1061              		@ frame_needed = 0, uses_anonymous_args = 0
 1062              		@ link register save eliminated.
 902:Core/Src/vl53l0x_api.c **** 	VL53L0X_Error Status = VL53L0X_ERROR_NONE;
 1063              		.loc 1 902 2 view .LVU298
 903:Core/Src/vl53l0x_api.c **** 
 904:Core/Src/vl53l0x_api.c **** 	LOG_FUNCTION_START("%d", (int)DeviceMode);
 1064              		.loc 1 904 2 view .LVU299
 905:Core/Src/vl53l0x_api.c **** 
 906:Core/Src/vl53l0x_api.c **** 	switch (DeviceMode) {
 1065              		.loc 1 906 2 view .LVU300
 1066 0000 1529     		cmp	r1, #21
ARM GAS  C:\Users\anmh1\AppData\Local\Temp\ccBPLcM2.s 			page 35


 1067 0002 07D8     		bhi	.L56
 1068 0004 0122     		movs	r2, #1
 1069 0006 8A40     		lsls	r2, r2, r1
 1070 0008 054B     		ldr	r3, .L58
 1071 000a 1340     		ands	r3, r3, r2
 1072 000c 2BB1     		cbz	r3, .L57
 907:Core/Src/vl53l0x_api.c **** 	case VL53L0X_DEVICEMODE_SINGLE_RANGING:
 908:Core/Src/vl53l0x_api.c **** 	case VL53L0X_DEVICEMODE_CONTINUOUS_RANGING:
 909:Core/Src/vl53l0x_api.c **** 	case VL53L0X_DEVICEMODE_CONTINUOUS_TIMED_RANGING:
 910:Core/Src/vl53l0x_api.c **** 	case VL53L0X_DEVICEMODE_GPIO_DRIVE:
 911:Core/Src/vl53l0x_api.c **** 	case VL53L0X_DEVICEMODE_GPIO_OSC:
 912:Core/Src/vl53l0x_api.c **** 		/* Supported modes */
 913:Core/Src/vl53l0x_api.c **** 		VL53L0X_SETPARAMETERFIELD(Dev, DeviceMode, DeviceMode);
 1073              		.loc 1 913 3 view .LVU301
 1074 000e 0174     		strb	r1, [r0, #16]
 914:Core/Src/vl53l0x_api.c **** 		break;
 1075              		.loc 1 914 3 view .LVU302
 902:Core/Src/vl53l0x_api.c **** 
 1076              		.loc 1 902 16 is_stmt 0 view .LVU303
 1077 0010 0020     		movs	r0, #0
 1078              	.LVL87:
 1079              		.loc 1 914 3 view .LVU304
 1080 0012 7047     		bx	lr
 1081              	.LVL88:
 1082              	.L56:
 902:Core/Src/vl53l0x_api.c **** 
 1083              		.loc 1 902 16 view .LVU305
 1084 0014 6FF00700 		mvn	r0, #7
 1085              	.LVL89:
 902:Core/Src/vl53l0x_api.c **** 
 1086              		.loc 1 902 16 view .LVU306
 1087 0018 7047     		bx	lr
 1088              	.LVL90:
 1089              	.L57:
 902:Core/Src/vl53l0x_api.c **** 
 1090              		.loc 1 902 16 view .LVU307
 1091 001a 6FF00700 		mvn	r0, #7
 1092              	.LVL91:
 915:Core/Src/vl53l0x_api.c **** 	default:
 916:Core/Src/vl53l0x_api.c **** 		/* Unsupported mode */
 917:Core/Src/vl53l0x_api.c **** 		Status = VL53L0X_ERROR_MODE_NOT_SUPPORTED;
 918:Core/Src/vl53l0x_api.c **** 	}
 919:Core/Src/vl53l0x_api.c **** 
 920:Core/Src/vl53l0x_api.c **** 	LOG_FUNCTION_END(Status);
 1093              		.loc 1 920 2 is_stmt 1 view .LVU308
 921:Core/Src/vl53l0x_api.c **** 	return Status;
 1094              		.loc 1 921 2 view .LVU309
 922:Core/Src/vl53l0x_api.c **** }
 1095              		.loc 1 922 1 is_stmt 0 view .LVU310
 1096 001e 7047     		bx	lr
 1097              	.L59:
 1098              		.align	2
 1099              	.L58:
 1100 0020 0B003000 		.word	3145739
 1101              		.cfi_endproc
 1102              	.LFE161:
 1104              		.section	.text.VL53L0X_GetDeviceMode,"ax",%progbits
ARM GAS  C:\Users\anmh1\AppData\Local\Temp\ccBPLcM2.s 			page 36


 1105              		.align	1
 1106              		.global	VL53L0X_GetDeviceMode
 1107              		.syntax unified
 1108              		.thumb
 1109              		.thumb_func
 1110              		.fpu fpv4-sp-d16
 1112              	VL53L0X_GetDeviceMode:
 1113              	.LVL92:
 1114              	.LFB162:
 923:Core/Src/vl53l0x_api.c **** 
 924:Core/Src/vl53l0x_api.c **** VL53L0X_Error VL53L0X_GetDeviceMode(VL53L0X_DEV Dev,
 925:Core/Src/vl53l0x_api.c **** 	VL53L0X_DeviceModes *pDeviceMode)
 926:Core/Src/vl53l0x_api.c **** {
 1115              		.loc 1 926 1 is_stmt 1 view -0
 1116              		.cfi_startproc
 1117              		@ args = 0, pretend = 0, frame = 0
 1118              		@ frame_needed = 0, uses_anonymous_args = 0
 1119              		@ link register save eliminated.
 927:Core/Src/vl53l0x_api.c **** 	VL53L0X_Error Status = VL53L0X_ERROR_NONE;
 1120              		.loc 1 927 2 view .LVU312
 928:Core/Src/vl53l0x_api.c **** 	LOG_FUNCTION_START("");
 1121              		.loc 1 928 2 view .LVU313
 929:Core/Src/vl53l0x_api.c **** 
 930:Core/Src/vl53l0x_api.c **** 	VL53L0X_GETPARAMETERFIELD(Dev, DeviceMode, *pDeviceMode);
 1122              		.loc 1 930 2 view .LVU314
 1123 0000 037C     		ldrb	r3, [r0, #16]	@ zero_extendqisi2
 1124 0002 0B70     		strb	r3, [r1]
 931:Core/Src/vl53l0x_api.c **** 
 932:Core/Src/vl53l0x_api.c **** 	LOG_FUNCTION_END(Status);
 1125              		.loc 1 932 2 view .LVU315
 933:Core/Src/vl53l0x_api.c **** 	return Status;
 1126              		.loc 1 933 2 view .LVU316
 934:Core/Src/vl53l0x_api.c **** }
 1127              		.loc 1 934 1 is_stmt 0 view .LVU317
 1128 0004 0020     		movs	r0, #0
 1129              	.LVL93:
 1130              		.loc 1 934 1 view .LVU318
 1131 0006 7047     		bx	lr
 1132              		.cfi_endproc
 1133              	.LFE162:
 1135              		.section	.text.VL53L0X_SetRangeFractionEnable,"ax",%progbits
 1136              		.align	1
 1137              		.global	VL53L0X_SetRangeFractionEnable
 1138              		.syntax unified
 1139              		.thumb
 1140              		.thumb_func
 1141              		.fpu fpv4-sp-d16
 1143              	VL53L0X_SetRangeFractionEnable:
 1144              	.LVL94:
 1145              	.LFB163:
 935:Core/Src/vl53l0x_api.c **** 
 936:Core/Src/vl53l0x_api.c **** VL53L0X_Error VL53L0X_SetRangeFractionEnable(VL53L0X_DEV Dev,	uint8_t Enable)
 937:Core/Src/vl53l0x_api.c **** {
 1146              		.loc 1 937 1 is_stmt 1 view -0
 1147              		.cfi_startproc
 1148              		@ args = 0, pretend = 0, frame = 0
 1149              		@ frame_needed = 0, uses_anonymous_args = 0
ARM GAS  C:\Users\anmh1\AppData\Local\Temp\ccBPLcM2.s 			page 37


 1150              		.loc 1 937 1 is_stmt 0 view .LVU320
 1151 0000 38B5     		push	{r3, r4, r5, lr}
 1152              		.cfi_def_cfa_offset 16
 1153              		.cfi_offset 3, -16
 1154              		.cfi_offset 4, -12
 1155              		.cfi_offset 5, -8
 1156              		.cfi_offset 14, -4
 1157 0002 0546     		mov	r5, r0
 1158 0004 0C46     		mov	r4, r1
 938:Core/Src/vl53l0x_api.c **** 	VL53L0X_Error Status = VL53L0X_ERROR_NONE;
 1159              		.loc 1 938 2 is_stmt 1 view .LVU321
 1160              	.LVL95:
 939:Core/Src/vl53l0x_api.c **** 
 940:Core/Src/vl53l0x_api.c **** 	LOG_FUNCTION_START("%d", (int)Enable);
 1161              		.loc 1 940 2 view .LVU322
 941:Core/Src/vl53l0x_api.c **** 
 942:Core/Src/vl53l0x_api.c **** 	Status = VL53L0X_WrByte(Dev, VL53L0X_REG_SYSTEM_RANGE_CONFIG, Enable);
 1162              		.loc 1 942 2 view .LVU323
 1163              		.loc 1 942 11 is_stmt 0 view .LVU324
 1164 0006 0A46     		mov	r2, r1
 1165 0008 0921     		movs	r1, #9
 1166              	.LVL96:
 1167              		.loc 1 942 11 view .LVU325
 1168 000a FFF7FEFF 		bl	VL53L0X_WrByte
 1169              	.LVL97:
 943:Core/Src/vl53l0x_api.c **** 
 944:Core/Src/vl53l0x_api.c **** 	if (Status == VL53L0X_ERROR_NONE)
 1170              		.loc 1 944 2 is_stmt 1 view .LVU326
 1171              		.loc 1 944 5 is_stmt 0 view .LVU327
 1172 000e 08B9     		cbnz	r0, .L62
 945:Core/Src/vl53l0x_api.c **** 		PALDevDataSet(Dev, RangeFractionalEnable, Enable);
 1173              		.loc 1 945 3 is_stmt 1 view .LVU328
 1174 0010 85F83141 		strb	r4, [r5, #305]
 1175              	.L62:
 946:Core/Src/vl53l0x_api.c **** 
 947:Core/Src/vl53l0x_api.c **** 	LOG_FUNCTION_END(Status);
 1176              		.loc 1 947 2 view .LVU329
 948:Core/Src/vl53l0x_api.c **** 	return Status;
 1177              		.loc 1 948 2 view .LVU330
 949:Core/Src/vl53l0x_api.c **** }
 1178              		.loc 1 949 1 is_stmt 0 view .LVU331
 1179 0014 38BD     		pop	{r3, r4, r5, pc}
 1180              		.loc 1 949 1 view .LVU332
 1181              		.cfi_endproc
 1182              	.LFE163:
 1184              		.section	.text.VL53L0X_GetFractionEnable,"ax",%progbits
 1185              		.align	1
 1186              		.global	VL53L0X_GetFractionEnable
 1187              		.syntax unified
 1188              		.thumb
 1189              		.thumb_func
 1190              		.fpu fpv4-sp-d16
 1192              	VL53L0X_GetFractionEnable:
 1193              	.LVL98:
 1194              	.LFB164:
 950:Core/Src/vl53l0x_api.c **** 
 951:Core/Src/vl53l0x_api.c **** VL53L0X_Error VL53L0X_GetFractionEnable(VL53L0X_DEV Dev, uint8_t *pEnabled)
ARM GAS  C:\Users\anmh1\AppData\Local\Temp\ccBPLcM2.s 			page 38


 952:Core/Src/vl53l0x_api.c **** {
 1195              		.loc 1 952 1 is_stmt 1 view -0
 1196              		.cfi_startproc
 1197              		@ args = 0, pretend = 0, frame = 0
 1198              		@ frame_needed = 0, uses_anonymous_args = 0
 1199              		.loc 1 952 1 is_stmt 0 view .LVU334
 1200 0000 10B5     		push	{r4, lr}
 1201              		.cfi_def_cfa_offset 8
 1202              		.cfi_offset 4, -8
 1203              		.cfi_offset 14, -4
 1204 0002 0C46     		mov	r4, r1
 953:Core/Src/vl53l0x_api.c **** 	VL53L0X_Error Status = VL53L0X_ERROR_NONE;
 1205              		.loc 1 953 2 is_stmt 1 view .LVU335
 1206              	.LVL99:
 954:Core/Src/vl53l0x_api.c **** 	LOG_FUNCTION_START("");
 1207              		.loc 1 954 2 view .LVU336
 955:Core/Src/vl53l0x_api.c **** 
 956:Core/Src/vl53l0x_api.c **** 	Status = VL53L0X_RdByte(Dev, VL53L0X_REG_SYSTEM_RANGE_CONFIG, pEnabled);
 1208              		.loc 1 956 2 view .LVU337
 1209              		.loc 1 956 11 is_stmt 0 view .LVU338
 1210 0004 0A46     		mov	r2, r1
 1211 0006 0921     		movs	r1, #9
 1212              	.LVL100:
 1213              		.loc 1 956 11 view .LVU339
 1214 0008 FFF7FEFF 		bl	VL53L0X_RdByte
 1215              	.LVL101:
 957:Core/Src/vl53l0x_api.c **** 
 958:Core/Src/vl53l0x_api.c **** 	if (Status == VL53L0X_ERROR_NONE)
 1216              		.loc 1 958 2 is_stmt 1 view .LVU340
 1217              		.loc 1 958 5 is_stmt 0 view .LVU341
 1218 000c 18B9     		cbnz	r0, .L65
 959:Core/Src/vl53l0x_api.c **** 		*pEnabled = (*pEnabled & 1);
 1219              		.loc 1 959 3 is_stmt 1 view .LVU342
 1220              		.loc 1 959 16 is_stmt 0 view .LVU343
 1221 000e 2378     		ldrb	r3, [r4]	@ zero_extendqisi2
 1222              		.loc 1 959 26 view .LVU344
 1223 0010 03F00103 		and	r3, r3, #1
 1224              		.loc 1 959 13 view .LVU345
 1225 0014 2370     		strb	r3, [r4]
 1226              	.L65:
 960:Core/Src/vl53l0x_api.c **** 
 961:Core/Src/vl53l0x_api.c **** 	LOG_FUNCTION_END(Status);
 1227              		.loc 1 961 2 is_stmt 1 view .LVU346
 962:Core/Src/vl53l0x_api.c **** 	return Status;
 1228              		.loc 1 962 2 view .LVU347
 963:Core/Src/vl53l0x_api.c **** }
 1229              		.loc 1 963 1 is_stmt 0 view .LVU348
 1230 0016 10BD     		pop	{r4, pc}
 1231              		.loc 1 963 1 view .LVU349
 1232              		.cfi_endproc
 1233              	.LFE164:
 1235              		.section	.text.VL53L0X_SetHistogramMode,"ax",%progbits
 1236              		.align	1
 1237              		.global	VL53L0X_SetHistogramMode
 1238              		.syntax unified
 1239              		.thumb
 1240              		.thumb_func
ARM GAS  C:\Users\anmh1\AppData\Local\Temp\ccBPLcM2.s 			page 39


 1241              		.fpu fpv4-sp-d16
 1243              	VL53L0X_SetHistogramMode:
 1244              	.LVL102:
 1245              	.LFB165:
 964:Core/Src/vl53l0x_api.c **** 
 965:Core/Src/vl53l0x_api.c **** VL53L0X_Error VL53L0X_SetHistogramMode(VL53L0X_DEV Dev,
 966:Core/Src/vl53l0x_api.c **** 	VL53L0X_HistogramModes HistogramMode)
 967:Core/Src/vl53l0x_api.c **** {
 1246              		.loc 1 967 1 is_stmt 1 view -0
 1247              		.cfi_startproc
 1248              		@ args = 0, pretend = 0, frame = 0
 1249              		@ frame_needed = 0, uses_anonymous_args = 0
 1250              		@ link register save eliminated.
 968:Core/Src/vl53l0x_api.c **** 	VL53L0X_Error Status = VL53L0X_ERROR_NOT_IMPLEMENTED;
 1251              		.loc 1 968 2 view .LVU351
 969:Core/Src/vl53l0x_api.c **** 	LOG_FUNCTION_START("");
 1252              		.loc 1 969 2 view .LVU352
 970:Core/Src/vl53l0x_api.c **** 
 971:Core/Src/vl53l0x_api.c **** 	/* not implemented on VL53L0X */
 972:Core/Src/vl53l0x_api.c **** 
 973:Core/Src/vl53l0x_api.c **** 	LOG_FUNCTION_END(Status);
 1253              		.loc 1 973 2 view .LVU353
 974:Core/Src/vl53l0x_api.c **** 	return Status;
 1254              		.loc 1 974 2 view .LVU354
 975:Core/Src/vl53l0x_api.c **** }
 1255              		.loc 1 975 1 is_stmt 0 view .LVU355
 1256 0000 6FF06200 		mvn	r0, #98
 1257              	.LVL103:
 1258              		.loc 1 975 1 view .LVU356
 1259 0004 7047     		bx	lr
 1260              		.cfi_endproc
 1261              	.LFE165:
 1263              		.section	.text.VL53L0X_GetHistogramMode,"ax",%progbits
 1264              		.align	1
 1265              		.global	VL53L0X_GetHistogramMode
 1266              		.syntax unified
 1267              		.thumb
 1268              		.thumb_func
 1269              		.fpu fpv4-sp-d16
 1271              	VL53L0X_GetHistogramMode:
 1272              	.LVL104:
 1273              	.LFB166:
 976:Core/Src/vl53l0x_api.c **** 
 977:Core/Src/vl53l0x_api.c **** VL53L0X_Error VL53L0X_GetHistogramMode(VL53L0X_DEV Dev,
 978:Core/Src/vl53l0x_api.c **** 	VL53L0X_HistogramModes *pHistogramMode)
 979:Core/Src/vl53l0x_api.c **** {
 1274              		.loc 1 979 1 is_stmt 1 view -0
 1275              		.cfi_startproc
 1276              		@ args = 0, pretend = 0, frame = 0
 1277              		@ frame_needed = 0, uses_anonymous_args = 0
 1278              		@ link register save eliminated.
 980:Core/Src/vl53l0x_api.c **** 	VL53L0X_Error Status = VL53L0X_ERROR_NOT_IMPLEMENTED;
 1279              		.loc 1 980 2 view .LVU358
 981:Core/Src/vl53l0x_api.c **** 	LOG_FUNCTION_START("");
 1280              		.loc 1 981 2 view .LVU359
 982:Core/Src/vl53l0x_api.c **** 
 983:Core/Src/vl53l0x_api.c **** 	/* not implemented on VL53L0X */
ARM GAS  C:\Users\anmh1\AppData\Local\Temp\ccBPLcM2.s 			page 40


 984:Core/Src/vl53l0x_api.c **** 
 985:Core/Src/vl53l0x_api.c **** 	LOG_FUNCTION_END(Status);
 1281              		.loc 1 985 2 view .LVU360
 986:Core/Src/vl53l0x_api.c **** 	return Status;
 1282              		.loc 1 986 2 view .LVU361
 987:Core/Src/vl53l0x_api.c **** }
 1283              		.loc 1 987 1 is_stmt 0 view .LVU362
 1284 0000 6FF06200 		mvn	r0, #98
 1285              	.LVL105:
 1286              		.loc 1 987 1 view .LVU363
 1287 0004 7047     		bx	lr
 1288              		.cfi_endproc
 1289              	.LFE166:
 1291              		.section	.text.VL53L0X_SetMeasurementTimingBudgetMicroSeconds,"ax",%progbits
 1292              		.align	1
 1293              		.global	VL53L0X_SetMeasurementTimingBudgetMicroSeconds
 1294              		.syntax unified
 1295              		.thumb
 1296              		.thumb_func
 1297              		.fpu fpv4-sp-d16
 1299              	VL53L0X_SetMeasurementTimingBudgetMicroSeconds:
 1300              	.LVL106:
 1301              	.LFB167:
 988:Core/Src/vl53l0x_api.c **** 
 989:Core/Src/vl53l0x_api.c **** VL53L0X_Error VL53L0X_SetMeasurementTimingBudgetMicroSeconds(VL53L0X_DEV Dev,
 990:Core/Src/vl53l0x_api.c **** 	uint32_t MeasurementTimingBudgetMicroSeconds)
 991:Core/Src/vl53l0x_api.c **** {
 1302              		.loc 1 991 1 is_stmt 1 view -0
 1303              		.cfi_startproc
 1304              		@ args = 0, pretend = 0, frame = 0
 1305              		@ frame_needed = 0, uses_anonymous_args = 0
 1306              		.loc 1 991 1 is_stmt 0 view .LVU365
 1307 0000 08B5     		push	{r3, lr}
 1308              		.cfi_def_cfa_offset 8
 1309              		.cfi_offset 3, -8
 1310              		.cfi_offset 14, -4
 992:Core/Src/vl53l0x_api.c **** 	VL53L0X_Error Status = VL53L0X_ERROR_NONE;
 1311              		.loc 1 992 2 is_stmt 1 view .LVU366
 1312              	.LVL107:
 993:Core/Src/vl53l0x_api.c **** 	LOG_FUNCTION_START("");
 1313              		.loc 1 993 2 view .LVU367
 994:Core/Src/vl53l0x_api.c **** 
 995:Core/Src/vl53l0x_api.c **** 	Status = VL53L0X_set_measurement_timing_budget_micro_seconds(Dev,
 1314              		.loc 1 995 2 view .LVU368
 1315              		.loc 1 995 11 is_stmt 0 view .LVU369
 1316 0002 FFF7FEFF 		bl	VL53L0X_set_measurement_timing_budget_micro_seconds
 1317              	.LVL108:
 996:Core/Src/vl53l0x_api.c **** 		MeasurementTimingBudgetMicroSeconds);
 997:Core/Src/vl53l0x_api.c **** 
 998:Core/Src/vl53l0x_api.c **** 	LOG_FUNCTION_END(Status);
 1318              		.loc 1 998 2 is_stmt 1 view .LVU370
 999:Core/Src/vl53l0x_api.c **** 
1000:Core/Src/vl53l0x_api.c **** 	return Status;
 1319              		.loc 1 1000 2 view .LVU371
1001:Core/Src/vl53l0x_api.c **** }
 1320              		.loc 1 1001 1 is_stmt 0 view .LVU372
 1321 0006 08BD     		pop	{r3, pc}
ARM GAS  C:\Users\anmh1\AppData\Local\Temp\ccBPLcM2.s 			page 41


 1322              		.cfi_endproc
 1323              	.LFE167:
 1325              		.section	.text.VL53L0X_GetMeasurementTimingBudgetMicroSeconds,"ax",%progbits
 1326              		.align	1
 1327              		.global	VL53L0X_GetMeasurementTimingBudgetMicroSeconds
 1328              		.syntax unified
 1329              		.thumb
 1330              		.thumb_func
 1331              		.fpu fpv4-sp-d16
 1333              	VL53L0X_GetMeasurementTimingBudgetMicroSeconds:
 1334              	.LVL109:
 1335              	.LFB168:
1002:Core/Src/vl53l0x_api.c **** 
1003:Core/Src/vl53l0x_api.c **** VL53L0X_Error VL53L0X_GetMeasurementTimingBudgetMicroSeconds(VL53L0X_DEV Dev,
1004:Core/Src/vl53l0x_api.c **** 	uint32_t *pMeasurementTimingBudgetMicroSeconds)
1005:Core/Src/vl53l0x_api.c **** {
 1336              		.loc 1 1005 1 is_stmt 1 view -0
 1337              		.cfi_startproc
 1338              		@ args = 0, pretend = 0, frame = 0
 1339              		@ frame_needed = 0, uses_anonymous_args = 0
 1340              		.loc 1 1005 1 is_stmt 0 view .LVU374
 1341 0000 08B5     		push	{r3, lr}
 1342              		.cfi_def_cfa_offset 8
 1343              		.cfi_offset 3, -8
 1344              		.cfi_offset 14, -4
1006:Core/Src/vl53l0x_api.c **** 	VL53L0X_Error Status = VL53L0X_ERROR_NONE;
 1345              		.loc 1 1006 2 is_stmt 1 view .LVU375
 1346              	.LVL110:
1007:Core/Src/vl53l0x_api.c **** 	LOG_FUNCTION_START("");
 1347              		.loc 1 1007 2 view .LVU376
1008:Core/Src/vl53l0x_api.c **** 
1009:Core/Src/vl53l0x_api.c **** 	Status = VL53L0X_get_measurement_timing_budget_micro_seconds(Dev,
 1348              		.loc 1 1009 2 view .LVU377
 1349              		.loc 1 1009 11 is_stmt 0 view .LVU378
 1350 0002 FFF7FEFF 		bl	VL53L0X_get_measurement_timing_budget_micro_seconds
 1351              	.LVL111:
1010:Core/Src/vl53l0x_api.c **** 		pMeasurementTimingBudgetMicroSeconds);
1011:Core/Src/vl53l0x_api.c **** 
1012:Core/Src/vl53l0x_api.c **** 	LOG_FUNCTION_END(Status);
 1352              		.loc 1 1012 2 is_stmt 1 view .LVU379
1013:Core/Src/vl53l0x_api.c **** 	return Status;
 1353              		.loc 1 1013 2 view .LVU380
1014:Core/Src/vl53l0x_api.c **** }
 1354              		.loc 1 1014 1 is_stmt 0 view .LVU381
 1355 0006 08BD     		pop	{r3, pc}
 1356              		.cfi_endproc
 1357              	.LFE168:
 1359              		.section	.text.VL53L0X_SetVcselPulsePeriod,"ax",%progbits
 1360              		.align	1
 1361              		.global	VL53L0X_SetVcselPulsePeriod
 1362              		.syntax unified
 1363              		.thumb
 1364              		.thumb_func
 1365              		.fpu fpv4-sp-d16
 1367              	VL53L0X_SetVcselPulsePeriod:
 1368              	.LVL112:
 1369              	.LFB169:
ARM GAS  C:\Users\anmh1\AppData\Local\Temp\ccBPLcM2.s 			page 42


1015:Core/Src/vl53l0x_api.c **** 
1016:Core/Src/vl53l0x_api.c **** VL53L0X_Error VL53L0X_SetVcselPulsePeriod(VL53L0X_DEV Dev,
1017:Core/Src/vl53l0x_api.c **** 	VL53L0X_VcselPeriod VcselPeriodType, uint8_t VCSELPulsePeriodPCLK)
1018:Core/Src/vl53l0x_api.c **** {
 1370              		.loc 1 1018 1 is_stmt 1 view -0
 1371              		.cfi_startproc
 1372              		@ args = 0, pretend = 0, frame = 0
 1373              		@ frame_needed = 0, uses_anonymous_args = 0
 1374              		.loc 1 1018 1 is_stmt 0 view .LVU383
 1375 0000 08B5     		push	{r3, lr}
 1376              		.cfi_def_cfa_offset 8
 1377              		.cfi_offset 3, -8
 1378              		.cfi_offset 14, -4
1019:Core/Src/vl53l0x_api.c **** 	VL53L0X_Error Status = VL53L0X_ERROR_NONE;
 1379              		.loc 1 1019 2 is_stmt 1 view .LVU384
 1380              	.LVL113:
1020:Core/Src/vl53l0x_api.c **** 	LOG_FUNCTION_START("");
 1381              		.loc 1 1020 2 view .LVU385
1021:Core/Src/vl53l0x_api.c **** 
1022:Core/Src/vl53l0x_api.c **** 	Status = VL53L0X_set_vcsel_pulse_period(Dev, VcselPeriodType,
 1382              		.loc 1 1022 2 view .LVU386
 1383              		.loc 1 1022 11 is_stmt 0 view .LVU387
 1384 0002 FFF7FEFF 		bl	VL53L0X_set_vcsel_pulse_period
 1385              	.LVL114:
1023:Core/Src/vl53l0x_api.c **** 		VCSELPulsePeriodPCLK);
1024:Core/Src/vl53l0x_api.c **** 
1025:Core/Src/vl53l0x_api.c **** 	LOG_FUNCTION_END(Status);
 1386              		.loc 1 1025 2 is_stmt 1 view .LVU388
1026:Core/Src/vl53l0x_api.c **** 	return Status;
 1387              		.loc 1 1026 2 view .LVU389
1027:Core/Src/vl53l0x_api.c **** }
 1388              		.loc 1 1027 1 is_stmt 0 view .LVU390
 1389 0006 08BD     		pop	{r3, pc}
 1390              		.cfi_endproc
 1391              	.LFE169:
 1393              		.section	.text.VL53L0X_GetVcselPulsePeriod,"ax",%progbits
 1394              		.align	1
 1395              		.global	VL53L0X_GetVcselPulsePeriod
 1396              		.syntax unified
 1397              		.thumb
 1398              		.thumb_func
 1399              		.fpu fpv4-sp-d16
 1401              	VL53L0X_GetVcselPulsePeriod:
 1402              	.LVL115:
 1403              	.LFB170:
1028:Core/Src/vl53l0x_api.c **** 
1029:Core/Src/vl53l0x_api.c **** VL53L0X_Error VL53L0X_GetVcselPulsePeriod(VL53L0X_DEV Dev,
1030:Core/Src/vl53l0x_api.c **** 	VL53L0X_VcselPeriod VcselPeriodType, uint8_t *pVCSELPulsePeriodPCLK)
1031:Core/Src/vl53l0x_api.c **** {
 1404              		.loc 1 1031 1 is_stmt 1 view -0
 1405              		.cfi_startproc
 1406              		@ args = 0, pretend = 0, frame = 0
 1407              		@ frame_needed = 0, uses_anonymous_args = 0
 1408              		.loc 1 1031 1 is_stmt 0 view .LVU392
 1409 0000 08B5     		push	{r3, lr}
 1410              		.cfi_def_cfa_offset 8
 1411              		.cfi_offset 3, -8
ARM GAS  C:\Users\anmh1\AppData\Local\Temp\ccBPLcM2.s 			page 43


 1412              		.cfi_offset 14, -4
1032:Core/Src/vl53l0x_api.c **** 	VL53L0X_Error Status = VL53L0X_ERROR_NONE;
 1413              		.loc 1 1032 2 is_stmt 1 view .LVU393
 1414              	.LVL116:
1033:Core/Src/vl53l0x_api.c **** 	LOG_FUNCTION_START("");
 1415              		.loc 1 1033 2 view .LVU394
1034:Core/Src/vl53l0x_api.c **** 
1035:Core/Src/vl53l0x_api.c **** 	Status = VL53L0X_get_vcsel_pulse_period(Dev, VcselPeriodType,
 1416              		.loc 1 1035 2 view .LVU395
 1417              		.loc 1 1035 11 is_stmt 0 view .LVU396
 1418 0002 FFF7FEFF 		bl	VL53L0X_get_vcsel_pulse_period
 1419              	.LVL117:
1036:Core/Src/vl53l0x_api.c **** 		pVCSELPulsePeriodPCLK);
1037:Core/Src/vl53l0x_api.c **** 
1038:Core/Src/vl53l0x_api.c **** 	LOG_FUNCTION_END(Status);
 1420              		.loc 1 1038 2 is_stmt 1 view .LVU397
1039:Core/Src/vl53l0x_api.c **** 	return Status;
 1421              		.loc 1 1039 2 view .LVU398
1040:Core/Src/vl53l0x_api.c **** }
 1422              		.loc 1 1040 1 is_stmt 0 view .LVU399
 1423 0006 08BD     		pop	{r3, pc}
 1424              		.cfi_endproc
 1425              	.LFE170:
 1427              		.section	.text.VL53L0X_SetSequenceStepEnable,"ax",%progbits
 1428              		.align	1
 1429              		.global	VL53L0X_SetSequenceStepEnable
 1430              		.syntax unified
 1431              		.thumb
 1432              		.thumb_func
 1433              		.fpu fpv4-sp-d16
 1435              	VL53L0X_SetSequenceStepEnable:
 1436              	.LVL118:
 1437              	.LFB171:
1041:Core/Src/vl53l0x_api.c **** 
1042:Core/Src/vl53l0x_api.c **** VL53L0X_Error VL53L0X_SetSequenceStepEnable(VL53L0X_DEV Dev,
1043:Core/Src/vl53l0x_api.c **** 	VL53L0X_SequenceStepId SequenceStepId, uint8_t SequenceStepEnabled)
1044:Core/Src/vl53l0x_api.c **** {
 1438              		.loc 1 1044 1 is_stmt 1 view -0
 1439              		.cfi_startproc
 1440              		@ args = 0, pretend = 0, frame = 8
 1441              		@ frame_needed = 0, uses_anonymous_args = 0
 1442              		.loc 1 1044 1 is_stmt 0 view .LVU401
 1443 0000 F0B5     		push	{r4, r5, r6, r7, lr}
 1444              		.cfi_def_cfa_offset 20
 1445              		.cfi_offset 4, -20
 1446              		.cfi_offset 5, -16
 1447              		.cfi_offset 6, -12
 1448              		.cfi_offset 7, -8
 1449              		.cfi_offset 14, -4
 1450 0002 83B0     		sub	sp, sp, #12
 1451              		.cfi_def_cfa_offset 32
 1452 0004 0646     		mov	r6, r0
 1453 0006 0C46     		mov	r4, r1
 1454 0008 1746     		mov	r7, r2
1045:Core/Src/vl53l0x_api.c **** 	VL53L0X_Error Status = VL53L0X_ERROR_NONE;
 1455              		.loc 1 1045 2 is_stmt 1 view .LVU402
 1456              	.LVL119:
ARM GAS  C:\Users\anmh1\AppData\Local\Temp\ccBPLcM2.s 			page 44


1046:Core/Src/vl53l0x_api.c **** 	uint8_t SequenceConfig = 0;
 1457              		.loc 1 1046 2 view .LVU403
 1458              		.loc 1 1046 10 is_stmt 0 view .LVU404
 1459 000a 0023     		movs	r3, #0
 1460 000c 8DF80730 		strb	r3, [sp, #7]
1047:Core/Src/vl53l0x_api.c **** 	uint8_t SequenceConfigNew = 0;
 1461              		.loc 1 1047 2 is_stmt 1 view .LVU405
 1462              	.LVL120:
1048:Core/Src/vl53l0x_api.c **** 	uint32_t MeasurementTimingBudgetMicroSeconds;
 1463              		.loc 1 1048 2 view .LVU406
1049:Core/Src/vl53l0x_api.c **** 	LOG_FUNCTION_START("");
 1464              		.loc 1 1049 2 view .LVU407
1050:Core/Src/vl53l0x_api.c **** 
1051:Core/Src/vl53l0x_api.c **** 	Status = VL53L0X_RdByte(Dev, VL53L0X_REG_SYSTEM_SEQUENCE_CONFIG,
 1465              		.loc 1 1051 2 view .LVU408
 1466              		.loc 1 1051 11 is_stmt 0 view .LVU409
 1467 0010 0DF10702 		add	r2, sp, #7
 1468              	.LVL121:
 1469              		.loc 1 1051 11 view .LVU410
 1470 0014 0121     		movs	r1, #1
 1471              	.LVL122:
 1472              		.loc 1 1051 11 view .LVU411
 1473 0016 FFF7FEFF 		bl	VL53L0X_RdByte
 1474              	.LVL123:
1052:Core/Src/vl53l0x_api.c **** 		&SequenceConfig);
1053:Core/Src/vl53l0x_api.c **** 
1054:Core/Src/vl53l0x_api.c **** 	SequenceConfigNew = SequenceConfig;
 1475              		.loc 1 1054 2 is_stmt 1 view .LVU412
 1476              		.loc 1 1054 20 is_stmt 0 view .LVU413
 1477 001a 9DF80730 		ldrb	r3, [sp, #7]	@ zero_extendqisi2
 1478              	.LVL124:
1055:Core/Src/vl53l0x_api.c **** 
1056:Core/Src/vl53l0x_api.c **** 	if (Status == VL53L0X_ERROR_NONE) {
 1479              		.loc 1 1056 2 is_stmt 1 view .LVU414
 1480              		.loc 1 1056 5 is_stmt 0 view .LVU415
 1481 001e 0546     		mov	r5, r0
 1482 0020 68BB     		cbnz	r0, .L95
1057:Core/Src/vl53l0x_api.c **** 		if (SequenceStepEnabled == 1) {
 1483              		.loc 1 1057 3 is_stmt 1 view .LVU416
 1484              		.loc 1 1057 6 is_stmt 0 view .LVU417
 1485 0022 012F     		cmp	r7, #1
 1486 0024 06D0     		beq	.L99
1058:Core/Src/vl53l0x_api.c **** 
1059:Core/Src/vl53l0x_api.c **** 			/* Enable requested sequence step
1060:Core/Src/vl53l0x_api.c **** 			 */
1061:Core/Src/vl53l0x_api.c **** 			switch (SequenceStepId) {
1062:Core/Src/vl53l0x_api.c **** 			case VL53L0X_SEQUENCESTEP_TCC:
1063:Core/Src/vl53l0x_api.c **** 				SequenceConfigNew |= 0x10;
1064:Core/Src/vl53l0x_api.c **** 				break;
1065:Core/Src/vl53l0x_api.c **** 			case VL53L0X_SEQUENCESTEP_DSS:
1066:Core/Src/vl53l0x_api.c **** 				SequenceConfigNew |= 0x28;
1067:Core/Src/vl53l0x_api.c **** 				break;
1068:Core/Src/vl53l0x_api.c **** 			case VL53L0X_SEQUENCESTEP_MSRC:
1069:Core/Src/vl53l0x_api.c **** 				SequenceConfigNew |= 0x04;
1070:Core/Src/vl53l0x_api.c **** 				break;
1071:Core/Src/vl53l0x_api.c **** 			case VL53L0X_SEQUENCESTEP_PRE_RANGE:
1072:Core/Src/vl53l0x_api.c **** 				SequenceConfigNew |= 0x40;
ARM GAS  C:\Users\anmh1\AppData\Local\Temp\ccBPLcM2.s 			page 45


1073:Core/Src/vl53l0x_api.c **** 				break;
1074:Core/Src/vl53l0x_api.c **** 			case VL53L0X_SEQUENCESTEP_FINAL_RANGE:
1075:Core/Src/vl53l0x_api.c **** 				SequenceConfigNew |= 0x80;
1076:Core/Src/vl53l0x_api.c **** 				break;
1077:Core/Src/vl53l0x_api.c **** 			default:
1078:Core/Src/vl53l0x_api.c **** 				Status = VL53L0X_ERROR_INVALID_PARAMS;
1079:Core/Src/vl53l0x_api.c **** 			}
1080:Core/Src/vl53l0x_api.c **** 		} else {
1081:Core/Src/vl53l0x_api.c **** 			/* Disable requested sequence step
1082:Core/Src/vl53l0x_api.c **** 			 */
1083:Core/Src/vl53l0x_api.c **** 			switch (SequenceStepId) {
 1487              		.loc 1 1083 4 is_stmt 1 view .LVU418
 1488 0026 042C     		cmp	r4, #4
 1489 0028 38D8     		bhi	.L97
 1490 002a DFE804F0 		tbb	[pc, r4]
 1491              	.L87:
 1492 002e 19       		.byte	(.L91-.L87)/2
 1493 002f 1C       		.byte	(.L90-.L87)/2
 1494 0030 1F       		.byte	(.L89-.L87)/2
 1495 0031 22       		.byte	(.L88-.L87)/2
 1496 0032 25       		.byte	(.L86-.L87)/2
 1497 0033 00       		.p2align 1
 1498              	.L99:
1061:Core/Src/vl53l0x_api.c **** 			case VL53L0X_SEQUENCESTEP_TCC:
 1499              		.loc 1 1061 4 view .LVU419
 1500 0034 042C     		cmp	r4, #4
 1501 0036 2DD8     		bhi	.L96
 1502 0038 DFE804F0 		tbb	[pc, r4]
 1503              	.L81:
 1504 003c 03       		.byte	(.L85-.L81)/2
 1505 003d 06       		.byte	(.L84-.L81)/2
 1506 003e 09       		.byte	(.L83-.L81)/2
 1507 003f 0C       		.byte	(.L82-.L81)/2
 1508 0040 0F       		.byte	(.L80-.L81)/2
 1509 0041 00       		.p2align 1
 1510              	.L85:
1063:Core/Src/vl53l0x_api.c **** 				break;
 1511              		.loc 1 1063 5 view .LVU420
1063:Core/Src/vl53l0x_api.c **** 				break;
 1512              		.loc 1 1063 23 is_stmt 0 view .LVU421
 1513 0042 43F01004 		orr	r4, r3, #16
 1514              	.LVL125:
1064:Core/Src/vl53l0x_api.c **** 			case VL53L0X_SEQUENCESTEP_DSS:
 1515              		.loc 1 1064 5 is_stmt 1 view .LVU422
 1516 0046 1BE0     		b	.L78
 1517              	.LVL126:
 1518              	.L84:
1066:Core/Src/vl53l0x_api.c **** 				break;
 1519              		.loc 1 1066 5 view .LVU423
1066:Core/Src/vl53l0x_api.c **** 				break;
 1520              		.loc 1 1066 23 is_stmt 0 view .LVU424
 1521 0048 43F02804 		orr	r4, r3, #40
 1522              	.LVL127:
1067:Core/Src/vl53l0x_api.c **** 			case VL53L0X_SEQUENCESTEP_MSRC:
 1523              		.loc 1 1067 5 is_stmt 1 view .LVU425
 1524 004c 18E0     		b	.L78
 1525              	.LVL128:
ARM GAS  C:\Users\anmh1\AppData\Local\Temp\ccBPLcM2.s 			page 46


 1526              	.L83:
1069:Core/Src/vl53l0x_api.c **** 				break;
 1527              		.loc 1 1069 5 view .LVU426
1069:Core/Src/vl53l0x_api.c **** 				break;
 1528              		.loc 1 1069 23 is_stmt 0 view .LVU427
 1529 004e 43F00404 		orr	r4, r3, #4
 1530              	.LVL129:
1070:Core/Src/vl53l0x_api.c **** 			case VL53L0X_SEQUENCESTEP_PRE_RANGE:
 1531              		.loc 1 1070 5 is_stmt 1 view .LVU428
 1532 0052 15E0     		b	.L78
 1533              	.LVL130:
 1534              	.L82:
1072:Core/Src/vl53l0x_api.c **** 				break;
 1535              		.loc 1 1072 5 view .LVU429
1072:Core/Src/vl53l0x_api.c **** 				break;
 1536              		.loc 1 1072 23 is_stmt 0 view .LVU430
 1537 0054 43F04004 		orr	r4, r3, #64
 1538              	.LVL131:
1073:Core/Src/vl53l0x_api.c **** 			case VL53L0X_SEQUENCESTEP_FINAL_RANGE:
 1539              		.loc 1 1073 5 is_stmt 1 view .LVU431
 1540 0058 12E0     		b	.L78
 1541              	.LVL132:
 1542              	.L80:
1075:Core/Src/vl53l0x_api.c **** 				break;
 1543              		.loc 1 1075 5 view .LVU432
1075:Core/Src/vl53l0x_api.c **** 				break;
 1544              		.loc 1 1075 23 is_stmt 0 view .LVU433
 1545 005a 43F08004 		orr	r4, r3, #128
 1546              	.LVL133:
1076:Core/Src/vl53l0x_api.c **** 			default:
 1547              		.loc 1 1076 5 is_stmt 1 view .LVU434
 1548 005e 0FE0     		b	.L78
 1549              	.LVL134:
 1550              	.L91:
1084:Core/Src/vl53l0x_api.c **** 			case VL53L0X_SEQUENCESTEP_TCC:
1085:Core/Src/vl53l0x_api.c **** 				SequenceConfigNew &= 0xef;
 1551              		.loc 1 1085 5 view .LVU435
 1552              		.loc 1 1085 23 is_stmt 0 view .LVU436
 1553 0060 03F0EF04 		and	r4, r3, #239
 1554              	.LVL135:
1086:Core/Src/vl53l0x_api.c **** 				break;
 1555              		.loc 1 1086 5 is_stmt 1 view .LVU437
 1556 0064 0CE0     		b	.L78
 1557              	.LVL136:
 1558              	.L90:
1087:Core/Src/vl53l0x_api.c **** 			case VL53L0X_SEQUENCESTEP_DSS:
1088:Core/Src/vl53l0x_api.c **** 				SequenceConfigNew &= 0xd7;
 1559              		.loc 1 1088 5 view .LVU438
 1560              		.loc 1 1088 23 is_stmt 0 view .LVU439
 1561 0066 03F0D704 		and	r4, r3, #215
 1562              	.LVL137:
1089:Core/Src/vl53l0x_api.c **** 				break;
 1563              		.loc 1 1089 5 is_stmt 1 view .LVU440
 1564 006a 09E0     		b	.L78
 1565              	.LVL138:
 1566              	.L89:
1090:Core/Src/vl53l0x_api.c **** 			case VL53L0X_SEQUENCESTEP_MSRC:
ARM GAS  C:\Users\anmh1\AppData\Local\Temp\ccBPLcM2.s 			page 47


1091:Core/Src/vl53l0x_api.c **** 				SequenceConfigNew &= 0xfb;
 1567              		.loc 1 1091 5 view .LVU441
 1568              		.loc 1 1091 23 is_stmt 0 view .LVU442
 1569 006c 03F0FB04 		and	r4, r3, #251
 1570              	.LVL139:
1092:Core/Src/vl53l0x_api.c **** 				break;
 1571              		.loc 1 1092 5 is_stmt 1 view .LVU443
 1572 0070 06E0     		b	.L78
 1573              	.LVL140:
 1574              	.L88:
1093:Core/Src/vl53l0x_api.c **** 			case VL53L0X_SEQUENCESTEP_PRE_RANGE:
1094:Core/Src/vl53l0x_api.c **** 				SequenceConfigNew &= 0xbf;
 1575              		.loc 1 1094 5 view .LVU444
 1576              		.loc 1 1094 23 is_stmt 0 view .LVU445
 1577 0072 03F0BF04 		and	r4, r3, #191
 1578              	.LVL141:
1095:Core/Src/vl53l0x_api.c **** 				break;
 1579              		.loc 1 1095 5 is_stmt 1 view .LVU446
 1580 0076 03E0     		b	.L78
 1581              	.LVL142:
 1582              	.L86:
1096:Core/Src/vl53l0x_api.c **** 			case VL53L0X_SEQUENCESTEP_FINAL_RANGE:
1097:Core/Src/vl53l0x_api.c **** 				SequenceConfigNew &= 0x7f;
 1583              		.loc 1 1097 5 view .LVU447
 1584              		.loc 1 1097 23 is_stmt 0 view .LVU448
 1585 0078 03F07F04 		and	r4, r3, #127
 1586              	.LVL143:
1098:Core/Src/vl53l0x_api.c **** 				break;
 1587              		.loc 1 1098 5 is_stmt 1 view .LVU449
 1588 007c 00E0     		b	.L78
 1589              	.LVL144:
 1590              	.L95:
1054:Core/Src/vl53l0x_api.c **** 
 1591              		.loc 1 1054 20 is_stmt 0 view .LVU450
 1592 007e 1C46     		mov	r4, r3
 1593              	.LVL145:
 1594              	.L78:
1099:Core/Src/vl53l0x_api.c **** 			default:
1100:Core/Src/vl53l0x_api.c **** 				Status = VL53L0X_ERROR_INVALID_PARAMS;
1101:Core/Src/vl53l0x_api.c **** 			}
1102:Core/Src/vl53l0x_api.c **** 		}
1103:Core/Src/vl53l0x_api.c **** 	}
1104:Core/Src/vl53l0x_api.c **** 
1105:Core/Src/vl53l0x_api.c **** 	if (SequenceConfigNew != SequenceConfig) {
 1595              		.loc 1 1105 2 is_stmt 1 view .LVU451
 1596              		.loc 1 1105 5 is_stmt 0 view .LVU452
 1597 0080 9C42     		cmp	r4, r3
 1598 0082 04D0     		beq	.L92
1106:Core/Src/vl53l0x_api.c **** 		/* Apply New Setting */
1107:Core/Src/vl53l0x_api.c **** 		if (Status == VL53L0X_ERROR_NONE) {
 1599              		.loc 1 1107 3 is_stmt 1 view .LVU453
 1600              		.loc 1 1107 6 is_stmt 0 view .LVU454
 1601 0084 75B1     		cbz	r5, .L100
 1602              	.L93:
1108:Core/Src/vl53l0x_api.c **** 			Status = VL53L0X_WrByte(Dev,
1109:Core/Src/vl53l0x_api.c **** 			VL53L0X_REG_SYSTEM_SEQUENCE_CONFIG, SequenceConfigNew);
1110:Core/Src/vl53l0x_api.c **** 		}
ARM GAS  C:\Users\anmh1\AppData\Local\Temp\ccBPLcM2.s 			page 48


1111:Core/Src/vl53l0x_api.c **** 		if (Status == VL53L0X_ERROR_NONE)
 1603              		.loc 1 1111 3 is_stmt 1 view .LVU455
 1604              		.loc 1 1111 6 is_stmt 0 view .LVU456
 1605 0086 0DB9     		cbnz	r5, .L94
1112:Core/Src/vl53l0x_api.c **** 			PALDevDataSet(Dev, SequenceConfig, SequenceConfigNew);
 1606              		.loc 1 1112 4 is_stmt 1 view .LVU457
 1607 0088 86F83041 		strb	r4, [r6, #304]
 1608              	.L94:
1113:Core/Src/vl53l0x_api.c **** 
1114:Core/Src/vl53l0x_api.c **** 
1115:Core/Src/vl53l0x_api.c **** 		/* Recalculate timing budget */
1116:Core/Src/vl53l0x_api.c **** 		if (Status == VL53L0X_ERROR_NONE) {
 1609              		.loc 1 1116 3 view .LVU458
 1610              		.loc 1 1116 6 is_stmt 0 view .LVU459
 1611 008c 8DB1     		cbz	r5, .L101
 1612              	.L92:
1117:Core/Src/vl53l0x_api.c **** 			VL53L0X_GETPARAMETERFIELD(Dev,
1118:Core/Src/vl53l0x_api.c **** 				MeasurementTimingBudgetMicroSeconds,
1119:Core/Src/vl53l0x_api.c **** 				MeasurementTimingBudgetMicroSeconds);
1120:Core/Src/vl53l0x_api.c **** 
1121:Core/Src/vl53l0x_api.c **** 			VL53L0X_SetMeasurementTimingBudgetMicroSeconds(Dev,
1122:Core/Src/vl53l0x_api.c **** 				MeasurementTimingBudgetMicroSeconds);
1123:Core/Src/vl53l0x_api.c **** 		}
1124:Core/Src/vl53l0x_api.c **** 	}
1125:Core/Src/vl53l0x_api.c **** 
1126:Core/Src/vl53l0x_api.c **** 	LOG_FUNCTION_END(Status);
 1613              		.loc 1 1126 2 is_stmt 1 view .LVU460
1127:Core/Src/vl53l0x_api.c **** 
1128:Core/Src/vl53l0x_api.c **** 	return Status;
 1614              		.loc 1 1128 2 view .LVU461
1129:Core/Src/vl53l0x_api.c **** }
 1615              		.loc 1 1129 1 is_stmt 0 view .LVU462
 1616 008e 2846     		mov	r0, r5
 1617 0090 03B0     		add	sp, sp, #12
 1618              		.cfi_remember_state
 1619              		.cfi_def_cfa_offset 20
 1620              		@ sp needed
 1621 0092 F0BD     		pop	{r4, r5, r6, r7, pc}
 1622              	.LVL146:
 1623              	.L96:
1057:Core/Src/vl53l0x_api.c **** 
 1624              		.loc 1 1057 6 view .LVU463
 1625 0094 1C46     		mov	r4, r3
 1626 0096 6FF00305 		mvn	r5, #3
 1627 009a F1E7     		b	.L78
 1628              	.L97:
 1629 009c 1C46     		mov	r4, r3
 1630 009e 6FF00305 		mvn	r5, #3
 1631 00a2 EDE7     		b	.L78
 1632              	.LVL147:
 1633              	.L100:
 1634              		.cfi_restore_state
1108:Core/Src/vl53l0x_api.c **** 			VL53L0X_REG_SYSTEM_SEQUENCE_CONFIG, SequenceConfigNew);
 1635              		.loc 1 1108 4 is_stmt 1 view .LVU464
1108:Core/Src/vl53l0x_api.c **** 			VL53L0X_REG_SYSTEM_SEQUENCE_CONFIG, SequenceConfigNew);
 1636              		.loc 1 1108 13 is_stmt 0 view .LVU465
 1637 00a4 2246     		mov	r2, r4
ARM GAS  C:\Users\anmh1\AppData\Local\Temp\ccBPLcM2.s 			page 49


 1638 00a6 0121     		movs	r1, #1
 1639 00a8 3046     		mov	r0, r6
 1640 00aa FFF7FEFF 		bl	VL53L0X_WrByte
 1641              	.LVL148:
 1642 00ae 0546     		mov	r5, r0
 1643              	.LVL149:
1108:Core/Src/vl53l0x_api.c **** 			VL53L0X_REG_SYSTEM_SEQUENCE_CONFIG, SequenceConfigNew);
 1644              		.loc 1 1108 13 view .LVU466
 1645 00b0 E9E7     		b	.L93
 1646              	.L101:
1117:Core/Src/vl53l0x_api.c **** 				MeasurementTimingBudgetMicroSeconds,
 1647              		.loc 1 1117 4 is_stmt 1 view .LVU467
 1648              	.LVL150:
1121:Core/Src/vl53l0x_api.c **** 				MeasurementTimingBudgetMicroSeconds);
 1649              		.loc 1 1121 4 view .LVU468
 1650 00b2 7169     		ldr	r1, [r6, #20]
 1651 00b4 3046     		mov	r0, r6
 1652 00b6 FFF7FEFF 		bl	VL53L0X_SetMeasurementTimingBudgetMicroSeconds
 1653              	.LVL151:
1121:Core/Src/vl53l0x_api.c **** 				MeasurementTimingBudgetMicroSeconds);
 1654              		.loc 1 1121 4 is_stmt 0 view .LVU469
 1655 00ba E8E7     		b	.L92
 1656              		.cfi_endproc
 1657              	.LFE171:
 1659              		.section	.text.sequence_step_enabled,"ax",%progbits
 1660              		.align	1
 1661              		.global	sequence_step_enabled
 1662              		.syntax unified
 1663              		.thumb
 1664              		.thumb_func
 1665              		.fpu fpv4-sp-d16
 1667              	sequence_step_enabled:
 1668              	.LVL152:
 1669              	.LFB172:
1130:Core/Src/vl53l0x_api.c **** 
1131:Core/Src/vl53l0x_api.c **** VL53L0X_Error sequence_step_enabled(VL53L0X_DEV Dev,
1132:Core/Src/vl53l0x_api.c **** 	VL53L0X_SequenceStepId SequenceStepId, uint8_t SequenceConfig,
1133:Core/Src/vl53l0x_api.c **** 	uint8_t *pSequenceStepEnabled)
1134:Core/Src/vl53l0x_api.c **** {
 1670              		.loc 1 1134 1 is_stmt 1 view -0
 1671              		.cfi_startproc
 1672              		@ args = 0, pretend = 0, frame = 0
 1673              		@ frame_needed = 0, uses_anonymous_args = 0
 1674              		@ link register save eliminated.
1135:Core/Src/vl53l0x_api.c **** 	VL53L0X_Error Status = VL53L0X_ERROR_NONE;
 1675              		.loc 1 1135 2 view .LVU471
1136:Core/Src/vl53l0x_api.c **** 	*pSequenceStepEnabled = 0;
 1676              		.loc 1 1136 2 view .LVU472
 1677              		.loc 1 1136 24 is_stmt 0 view .LVU473
 1678 0000 0020     		movs	r0, #0
 1679              	.LVL153:
 1680              		.loc 1 1136 24 view .LVU474
 1681 0002 1870     		strb	r0, [r3]
1137:Core/Src/vl53l0x_api.c **** 	LOG_FUNCTION_START("");
 1682              		.loc 1 1137 2 is_stmt 1 view .LVU475
1138:Core/Src/vl53l0x_api.c **** 
1139:Core/Src/vl53l0x_api.c **** 	switch (SequenceStepId) {
ARM GAS  C:\Users\anmh1\AppData\Local\Temp\ccBPLcM2.s 			page 50


 1683              		.loc 1 1139 2 view .LVU476
 1684 0004 0429     		cmp	r1, #4
 1685 0006 1CD8     		bhi	.L110
 1686 0008 DFE801F0 		tbb	[pc, r1]
 1687              	.L105:
 1688 000c 03       		.byte	(.L109-.L105)/2
 1689 000d 08       		.byte	(.L108-.L105)/2
 1690 000e 0D       		.byte	(.L107-.L105)/2
 1691 000f 12       		.byte	(.L106-.L105)/2
 1692 0010 17       		.byte	(.L104-.L105)/2
 1693 0011 00       		.p2align 1
 1694              	.L109:
1140:Core/Src/vl53l0x_api.c **** 	case VL53L0X_SEQUENCESTEP_TCC:
1141:Core/Src/vl53l0x_api.c **** 		*pSequenceStepEnabled = (SequenceConfig & 0x10) >> 4;
 1695              		.loc 1 1141 3 view .LVU477
 1696              		.loc 1 1141 51 is_stmt 0 view .LVU478
 1697 0012 C2F30012 		ubfx	r2, r2, #4, #1
 1698              	.LVL154:
 1699              		.loc 1 1141 25 view .LVU479
 1700 0016 1A70     		strb	r2, [r3]
1142:Core/Src/vl53l0x_api.c **** 		break;
 1701              		.loc 1 1142 3 is_stmt 1 view .LVU480
1135:Core/Src/vl53l0x_api.c **** 	*pSequenceStepEnabled = 0;
 1702              		.loc 1 1135 16 is_stmt 0 view .LVU481
 1703 0018 0020     		movs	r0, #0
 1704              		.loc 1 1142 3 view .LVU482
 1705 001a 7047     		bx	lr
 1706              	.LVL155:
 1707              	.L108:
1143:Core/Src/vl53l0x_api.c **** 	case VL53L0X_SEQUENCESTEP_DSS:
1144:Core/Src/vl53l0x_api.c **** 		*pSequenceStepEnabled = (SequenceConfig & 0x08) >> 3;
 1708              		.loc 1 1144 3 is_stmt 1 view .LVU483
 1709              		.loc 1 1144 51 is_stmt 0 view .LVU484
 1710 001c C2F3C002 		ubfx	r2, r2, #3, #1
 1711              	.LVL156:
 1712              		.loc 1 1144 25 view .LVU485
 1713 0020 1A70     		strb	r2, [r3]
1145:Core/Src/vl53l0x_api.c **** 		break;
 1714              		.loc 1 1145 3 is_stmt 1 view .LVU486
1135:Core/Src/vl53l0x_api.c **** 	*pSequenceStepEnabled = 0;
 1715              		.loc 1 1135 16 is_stmt 0 view .LVU487
 1716 0022 0020     		movs	r0, #0
 1717              		.loc 1 1145 3 view .LVU488
 1718 0024 7047     		bx	lr
 1719              	.LVL157:
 1720              	.L107:
1146:Core/Src/vl53l0x_api.c **** 	case VL53L0X_SEQUENCESTEP_MSRC:
1147:Core/Src/vl53l0x_api.c **** 		*pSequenceStepEnabled = (SequenceConfig & 0x04) >> 2;
 1721              		.loc 1 1147 3 is_stmt 1 view .LVU489
 1722              		.loc 1 1147 51 is_stmt 0 view .LVU490
 1723 0026 C2F38002 		ubfx	r2, r2, #2, #1
 1724              	.LVL158:
 1725              		.loc 1 1147 25 view .LVU491
 1726 002a 1A70     		strb	r2, [r3]
1148:Core/Src/vl53l0x_api.c **** 		break;
 1727              		.loc 1 1148 3 is_stmt 1 view .LVU492
1135:Core/Src/vl53l0x_api.c **** 	*pSequenceStepEnabled = 0;
ARM GAS  C:\Users\anmh1\AppData\Local\Temp\ccBPLcM2.s 			page 51


 1728              		.loc 1 1135 16 is_stmt 0 view .LVU493
 1729 002c 0020     		movs	r0, #0
 1730              		.loc 1 1148 3 view .LVU494
 1731 002e 7047     		bx	lr
 1732              	.LVL159:
 1733              	.L106:
1149:Core/Src/vl53l0x_api.c **** 	case VL53L0X_SEQUENCESTEP_PRE_RANGE:
1150:Core/Src/vl53l0x_api.c **** 		*pSequenceStepEnabled = (SequenceConfig & 0x40) >> 6;
 1734              		.loc 1 1150 3 is_stmt 1 view .LVU495
 1735              		.loc 1 1150 51 is_stmt 0 view .LVU496
 1736 0030 C2F38012 		ubfx	r2, r2, #6, #1
 1737              	.LVL160:
 1738              		.loc 1 1150 25 view .LVU497
 1739 0034 1A70     		strb	r2, [r3]
1151:Core/Src/vl53l0x_api.c **** 		break;
 1740              		.loc 1 1151 3 is_stmt 1 view .LVU498
1135:Core/Src/vl53l0x_api.c **** 	*pSequenceStepEnabled = 0;
 1741              		.loc 1 1135 16 is_stmt 0 view .LVU499
 1742 0036 0020     		movs	r0, #0
 1743              		.loc 1 1151 3 view .LVU500
 1744 0038 7047     		bx	lr
 1745              	.LVL161:
 1746              	.L104:
1152:Core/Src/vl53l0x_api.c **** 	case VL53L0X_SEQUENCESTEP_FINAL_RANGE:
1153:Core/Src/vl53l0x_api.c **** 		*pSequenceStepEnabled = (SequenceConfig & 0x80) >> 7;
 1747              		.loc 1 1153 3 is_stmt 1 view .LVU501
 1748              		.loc 1 1153 51 is_stmt 0 view .LVU502
 1749 003a D209     		lsrs	r2, r2, #7
 1750              	.LVL162:
 1751              		.loc 1 1153 25 view .LVU503
 1752 003c 1A70     		strb	r2, [r3]
1154:Core/Src/vl53l0x_api.c **** 		break;
 1753              		.loc 1 1154 3 is_stmt 1 view .LVU504
1135:Core/Src/vl53l0x_api.c **** 	*pSequenceStepEnabled = 0;
 1754              		.loc 1 1135 16 is_stmt 0 view .LVU505
 1755 003e 0020     		movs	r0, #0
 1756              		.loc 1 1154 3 view .LVU506
 1757 0040 7047     		bx	lr
 1758              	.LVL163:
 1759              	.L110:
1136:Core/Src/vl53l0x_api.c **** 	LOG_FUNCTION_START("");
 1760              		.loc 1 1136 24 view .LVU507
 1761 0042 6FF00300 		mvn	r0, #3
 1762              	.LVL164:
1155:Core/Src/vl53l0x_api.c **** 	default:
1156:Core/Src/vl53l0x_api.c **** 		Status = VL53L0X_ERROR_INVALID_PARAMS;
1157:Core/Src/vl53l0x_api.c **** 	}
1158:Core/Src/vl53l0x_api.c **** 
1159:Core/Src/vl53l0x_api.c **** 	LOG_FUNCTION_END(Status);
 1763              		.loc 1 1159 2 is_stmt 1 view .LVU508
1160:Core/Src/vl53l0x_api.c **** 	return Status;
 1764              		.loc 1 1160 2 view .LVU509
1161:Core/Src/vl53l0x_api.c **** }
 1765              		.loc 1 1161 1 is_stmt 0 view .LVU510
 1766 0046 7047     		bx	lr
 1767              		.cfi_endproc
 1768              	.LFE172:
ARM GAS  C:\Users\anmh1\AppData\Local\Temp\ccBPLcM2.s 			page 52


 1770              		.section	.text.VL53L0X_GetSequenceStepEnable,"ax",%progbits
 1771              		.align	1
 1772              		.global	VL53L0X_GetSequenceStepEnable
 1773              		.syntax unified
 1774              		.thumb
 1775              		.thumb_func
 1776              		.fpu fpv4-sp-d16
 1778              	VL53L0X_GetSequenceStepEnable:
 1779              	.LVL165:
 1780              	.LFB173:
1162:Core/Src/vl53l0x_api.c **** 
1163:Core/Src/vl53l0x_api.c **** VL53L0X_Error VL53L0X_GetSequenceStepEnable(VL53L0X_DEV Dev,
1164:Core/Src/vl53l0x_api.c **** 	VL53L0X_SequenceStepId SequenceStepId, uint8_t *pSequenceStepEnabled)
1165:Core/Src/vl53l0x_api.c **** {
 1781              		.loc 1 1165 1 is_stmt 1 view -0
 1782              		.cfi_startproc
 1783              		@ args = 0, pretend = 0, frame = 8
 1784              		@ frame_needed = 0, uses_anonymous_args = 0
 1785              		.loc 1 1165 1 is_stmt 0 view .LVU512
 1786 0000 70B5     		push	{r4, r5, r6, lr}
 1787              		.cfi_def_cfa_offset 16
 1788              		.cfi_offset 4, -16
 1789              		.cfi_offset 5, -12
 1790              		.cfi_offset 6, -8
 1791              		.cfi_offset 14, -4
 1792 0002 82B0     		sub	sp, sp, #8
 1793              		.cfi_def_cfa_offset 24
 1794 0004 0446     		mov	r4, r0
 1795 0006 0D46     		mov	r5, r1
 1796 0008 1646     		mov	r6, r2
1166:Core/Src/vl53l0x_api.c **** 	VL53L0X_Error Status = VL53L0X_ERROR_NONE;
 1797              		.loc 1 1166 2 is_stmt 1 view .LVU513
 1798              	.LVL166:
1167:Core/Src/vl53l0x_api.c **** 	uint8_t SequenceConfig = 0;
 1799              		.loc 1 1167 2 view .LVU514
 1800              		.loc 1 1167 10 is_stmt 0 view .LVU515
 1801 000a 0023     		movs	r3, #0
 1802 000c 8DF80730 		strb	r3, [sp, #7]
1168:Core/Src/vl53l0x_api.c **** 	LOG_FUNCTION_START("");
 1803              		.loc 1 1168 2 is_stmt 1 view .LVU516
1169:Core/Src/vl53l0x_api.c **** 
1170:Core/Src/vl53l0x_api.c **** 	Status = VL53L0X_RdByte(Dev, VL53L0X_REG_SYSTEM_SEQUENCE_CONFIG,
 1804              		.loc 1 1170 2 view .LVU517
 1805              		.loc 1 1170 11 is_stmt 0 view .LVU518
 1806 0010 0DF10702 		add	r2, sp, #7
 1807              	.LVL167:
 1808              		.loc 1 1170 11 view .LVU519
 1809 0014 0121     		movs	r1, #1
 1810              	.LVL168:
 1811              		.loc 1 1170 11 view .LVU520
 1812 0016 FFF7FEFF 		bl	VL53L0X_RdByte
 1813              	.LVL169:
1171:Core/Src/vl53l0x_api.c **** 		&SequenceConfig);
1172:Core/Src/vl53l0x_api.c **** 
1173:Core/Src/vl53l0x_api.c **** 	if (Status == VL53L0X_ERROR_NONE) {
 1814              		.loc 1 1173 2 is_stmt 1 view .LVU521
 1815              		.loc 1 1173 5 is_stmt 0 view .LVU522
ARM GAS  C:\Users\anmh1\AppData\Local\Temp\ccBPLcM2.s 			page 53


 1816 001a 08B1     		cbz	r0, .L114
 1817              	.LVL170:
 1818              	.L112:
1174:Core/Src/vl53l0x_api.c **** 		Status = sequence_step_enabled(Dev, SequenceStepId,
1175:Core/Src/vl53l0x_api.c **** 			SequenceConfig, pSequenceStepEnabled);
1176:Core/Src/vl53l0x_api.c **** 	}
1177:Core/Src/vl53l0x_api.c **** 
1178:Core/Src/vl53l0x_api.c **** 	LOG_FUNCTION_END(Status);
 1819              		.loc 1 1178 2 is_stmt 1 view .LVU523
1179:Core/Src/vl53l0x_api.c **** 	return Status;
 1820              		.loc 1 1179 2 view .LVU524
1180:Core/Src/vl53l0x_api.c **** }
 1821              		.loc 1 1180 1 is_stmt 0 view .LVU525
 1822 001c 02B0     		add	sp, sp, #8
 1823              		.cfi_remember_state
 1824              		.cfi_def_cfa_offset 16
 1825              		@ sp needed
 1826 001e 70BD     		pop	{r4, r5, r6, pc}
 1827              	.LVL171:
 1828              	.L114:
 1829              		.cfi_restore_state
1174:Core/Src/vl53l0x_api.c **** 		Status = sequence_step_enabled(Dev, SequenceStepId,
 1830              		.loc 1 1174 3 is_stmt 1 view .LVU526
1174:Core/Src/vl53l0x_api.c **** 		Status = sequence_step_enabled(Dev, SequenceStepId,
 1831              		.loc 1 1174 12 is_stmt 0 view .LVU527
 1832 0020 3346     		mov	r3, r6
 1833 0022 9DF80720 		ldrb	r2, [sp, #7]	@ zero_extendqisi2
 1834 0026 2946     		mov	r1, r5
 1835 0028 2046     		mov	r0, r4
 1836 002a FFF7FEFF 		bl	sequence_step_enabled
 1837              	.LVL172:
1174:Core/Src/vl53l0x_api.c **** 		Status = sequence_step_enabled(Dev, SequenceStepId,
 1838              		.loc 1 1174 12 view .LVU528
 1839 002e F5E7     		b	.L112
 1840              		.cfi_endproc
 1841              	.LFE173:
 1843              		.section	.text.VL53L0X_GetSequenceStepEnables,"ax",%progbits
 1844              		.align	1
 1845              		.global	VL53L0X_GetSequenceStepEnables
 1846              		.syntax unified
 1847              		.thumb
 1848              		.thumb_func
 1849              		.fpu fpv4-sp-d16
 1851              	VL53L0X_GetSequenceStepEnables:
 1852              	.LVL173:
 1853              	.LFB174:
1181:Core/Src/vl53l0x_api.c **** 
1182:Core/Src/vl53l0x_api.c **** VL53L0X_Error VL53L0X_GetSequenceStepEnables(VL53L0X_DEV Dev,
1183:Core/Src/vl53l0x_api.c **** 	VL53L0X_SchedulerSequenceSteps_t *pSchedulerSequenceSteps)
1184:Core/Src/vl53l0x_api.c **** {
 1854              		.loc 1 1184 1 is_stmt 1 view -0
 1855              		.cfi_startproc
 1856              		@ args = 0, pretend = 0, frame = 8
 1857              		@ frame_needed = 0, uses_anonymous_args = 0
 1858              		.loc 1 1184 1 is_stmt 0 view .LVU530
 1859 0000 30B5     		push	{r4, r5, lr}
 1860              		.cfi_def_cfa_offset 12
ARM GAS  C:\Users\anmh1\AppData\Local\Temp\ccBPLcM2.s 			page 54


 1861              		.cfi_offset 4, -12
 1862              		.cfi_offset 5, -8
 1863              		.cfi_offset 14, -4
 1864 0002 83B0     		sub	sp, sp, #12
 1865              		.cfi_def_cfa_offset 24
 1866 0004 0446     		mov	r4, r0
 1867 0006 0D46     		mov	r5, r1
1185:Core/Src/vl53l0x_api.c **** 	VL53L0X_Error Status = VL53L0X_ERROR_NONE;
 1868              		.loc 1 1185 2 is_stmt 1 view .LVU531
 1869              	.LVL174:
1186:Core/Src/vl53l0x_api.c **** 	uint8_t SequenceConfig = 0;
 1870              		.loc 1 1186 2 view .LVU532
 1871              		.loc 1 1186 10 is_stmt 0 view .LVU533
 1872 0008 0023     		movs	r3, #0
 1873 000a 8DF80730 		strb	r3, [sp, #7]
1187:Core/Src/vl53l0x_api.c **** 	LOG_FUNCTION_START("");
 1874              		.loc 1 1187 2 is_stmt 1 view .LVU534
1188:Core/Src/vl53l0x_api.c **** 
1189:Core/Src/vl53l0x_api.c **** 	Status = VL53L0X_RdByte(Dev, VL53L0X_REG_SYSTEM_SEQUENCE_CONFIG,
 1875              		.loc 1 1189 2 view .LVU535
 1876              		.loc 1 1189 11 is_stmt 0 view .LVU536
 1877 000e 0DF10702 		add	r2, sp, #7
 1878 0012 0121     		movs	r1, #1
 1879              	.LVL175:
 1880              		.loc 1 1189 11 view .LVU537
 1881 0014 FFF7FEFF 		bl	VL53L0X_RdByte
 1882              	.LVL176:
1190:Core/Src/vl53l0x_api.c **** 		&SequenceConfig);
1191:Core/Src/vl53l0x_api.c **** 
1192:Core/Src/vl53l0x_api.c **** 	if (Status == VL53L0X_ERROR_NONE) {
 1883              		.loc 1 1192 2 is_stmt 1 view .LVU538
 1884              		.loc 1 1192 5 is_stmt 0 view .LVU539
 1885 0018 28B1     		cbz	r0, .L122
 1886              	.LVL177:
 1887              	.L116:
1193:Core/Src/vl53l0x_api.c **** 		Status = sequence_step_enabled(Dev,
1194:Core/Src/vl53l0x_api.c **** 		VL53L0X_SEQUENCESTEP_TCC, SequenceConfig,
1195:Core/Src/vl53l0x_api.c **** 			&pSchedulerSequenceSteps->TccOn);
1196:Core/Src/vl53l0x_api.c **** 	}
1197:Core/Src/vl53l0x_api.c **** 	if (Status == VL53L0X_ERROR_NONE) {
 1888              		.loc 1 1197 2 is_stmt 1 view .LVU540
 1889              		.loc 1 1197 5 is_stmt 0 view .LVU541
 1890 001a 60B1     		cbz	r0, .L123
 1891              	.L117:
1198:Core/Src/vl53l0x_api.c **** 		Status = sequence_step_enabled(Dev,
1199:Core/Src/vl53l0x_api.c **** 		VL53L0X_SEQUENCESTEP_DSS, SequenceConfig,
1200:Core/Src/vl53l0x_api.c **** 			&pSchedulerSequenceSteps->DssOn);
1201:Core/Src/vl53l0x_api.c **** 	}
1202:Core/Src/vl53l0x_api.c **** 	if (Status == VL53L0X_ERROR_NONE) {
 1892              		.loc 1 1202 2 is_stmt 1 view .LVU542
 1893              		.loc 1 1202 5 is_stmt 0 view .LVU543
 1894 001c 98B1     		cbz	r0, .L124
 1895              	.L118:
1203:Core/Src/vl53l0x_api.c **** 		Status = sequence_step_enabled(Dev,
1204:Core/Src/vl53l0x_api.c **** 		VL53L0X_SEQUENCESTEP_MSRC, SequenceConfig,
1205:Core/Src/vl53l0x_api.c **** 			&pSchedulerSequenceSteps->MsrcOn);
1206:Core/Src/vl53l0x_api.c **** 	}
ARM GAS  C:\Users\anmh1\AppData\Local\Temp\ccBPLcM2.s 			page 55


1207:Core/Src/vl53l0x_api.c **** 	if (Status == VL53L0X_ERROR_NONE) {
 1896              		.loc 1 1207 2 is_stmt 1 view .LVU544
 1897              		.loc 1 1207 5 is_stmt 0 view .LVU545
 1898 001e D0B1     		cbz	r0, .L125
 1899              	.L119:
1208:Core/Src/vl53l0x_api.c **** 		Status = sequence_step_enabled(Dev,
1209:Core/Src/vl53l0x_api.c **** 		VL53L0X_SEQUENCESTEP_PRE_RANGE, SequenceConfig,
1210:Core/Src/vl53l0x_api.c **** 			&pSchedulerSequenceSteps->PreRangeOn);
1211:Core/Src/vl53l0x_api.c **** 	}
1212:Core/Src/vl53l0x_api.c **** 	if (Status == VL53L0X_ERROR_NONE) {
 1900              		.loc 1 1212 2 is_stmt 1 view .LVU546
 1901              		.loc 1 1212 5 is_stmt 0 view .LVU547
 1902 0020 08B3     		cbz	r0, .L126
 1903              	.L120:
1213:Core/Src/vl53l0x_api.c **** 		Status = sequence_step_enabled(Dev,
1214:Core/Src/vl53l0x_api.c **** 		VL53L0X_SEQUENCESTEP_FINAL_RANGE, SequenceConfig,
1215:Core/Src/vl53l0x_api.c **** 			&pSchedulerSequenceSteps->FinalRangeOn);
1216:Core/Src/vl53l0x_api.c **** 	}
1217:Core/Src/vl53l0x_api.c **** 
1218:Core/Src/vl53l0x_api.c **** 	LOG_FUNCTION_END(Status);
 1904              		.loc 1 1218 2 is_stmt 1 view .LVU548
1219:Core/Src/vl53l0x_api.c **** 	return Status;
 1905              		.loc 1 1219 2 view .LVU549
1220:Core/Src/vl53l0x_api.c **** }
 1906              		.loc 1 1220 1 is_stmt 0 view .LVU550
 1907 0022 03B0     		add	sp, sp, #12
 1908              		.cfi_remember_state
 1909              		.cfi_def_cfa_offset 12
 1910              		@ sp needed
 1911 0024 30BD     		pop	{r4, r5, pc}
 1912              	.LVL178:
 1913              	.L122:
 1914              		.cfi_restore_state
1193:Core/Src/vl53l0x_api.c **** 		VL53L0X_SEQUENCESTEP_TCC, SequenceConfig,
 1915              		.loc 1 1193 3 is_stmt 1 view .LVU551
1193:Core/Src/vl53l0x_api.c **** 		VL53L0X_SEQUENCESTEP_TCC, SequenceConfig,
 1916              		.loc 1 1193 12 is_stmt 0 view .LVU552
 1917 0026 2B46     		mov	r3, r5
 1918 0028 9DF80720 		ldrb	r2, [sp, #7]	@ zero_extendqisi2
 1919 002c 0021     		movs	r1, #0
 1920              	.LVL179:
1193:Core/Src/vl53l0x_api.c **** 		VL53L0X_SEQUENCESTEP_TCC, SequenceConfig,
 1921              		.loc 1 1193 12 view .LVU553
 1922 002e 2046     		mov	r0, r4
 1923 0030 FFF7FEFF 		bl	sequence_step_enabled
 1924              	.LVL180:
1193:Core/Src/vl53l0x_api.c **** 		VL53L0X_SEQUENCESTEP_TCC, SequenceConfig,
 1925              		.loc 1 1193 12 view .LVU554
 1926 0034 F1E7     		b	.L116
 1927              	.L123:
1198:Core/Src/vl53l0x_api.c **** 		VL53L0X_SEQUENCESTEP_DSS, SequenceConfig,
 1928              		.loc 1 1198 3 is_stmt 1 view .LVU555
1198:Core/Src/vl53l0x_api.c **** 		VL53L0X_SEQUENCESTEP_DSS, SequenceConfig,
 1929              		.loc 1 1198 12 is_stmt 0 view .LVU556
 1930 0036 AB1C     		adds	r3, r5, #2
 1931 0038 9DF80720 		ldrb	r2, [sp, #7]	@ zero_extendqisi2
 1932 003c 0121     		movs	r1, #1
ARM GAS  C:\Users\anmh1\AppData\Local\Temp\ccBPLcM2.s 			page 56


 1933 003e 2046     		mov	r0, r4
 1934              	.LVL181:
1198:Core/Src/vl53l0x_api.c **** 		VL53L0X_SEQUENCESTEP_DSS, SequenceConfig,
 1935              		.loc 1 1198 12 view .LVU557
 1936 0040 FFF7FEFF 		bl	sequence_step_enabled
 1937              	.LVL182:
1198:Core/Src/vl53l0x_api.c **** 		VL53L0X_SEQUENCESTEP_DSS, SequenceConfig,
 1938              		.loc 1 1198 12 view .LVU558
 1939 0044 EAE7     		b	.L117
 1940              	.L124:
1203:Core/Src/vl53l0x_api.c **** 		VL53L0X_SEQUENCESTEP_MSRC, SequenceConfig,
 1941              		.loc 1 1203 3 is_stmt 1 view .LVU559
1203:Core/Src/vl53l0x_api.c **** 		VL53L0X_SEQUENCESTEP_MSRC, SequenceConfig,
 1942              		.loc 1 1203 12 is_stmt 0 view .LVU560
 1943 0046 6B1C     		adds	r3, r5, #1
 1944 0048 9DF80720 		ldrb	r2, [sp, #7]	@ zero_extendqisi2
 1945 004c 0221     		movs	r1, #2
 1946 004e 2046     		mov	r0, r4
 1947              	.LVL183:
1203:Core/Src/vl53l0x_api.c **** 		VL53L0X_SEQUENCESTEP_MSRC, SequenceConfig,
 1948              		.loc 1 1203 12 view .LVU561
 1949 0050 FFF7FEFF 		bl	sequence_step_enabled
 1950              	.LVL184:
1203:Core/Src/vl53l0x_api.c **** 		VL53L0X_SEQUENCESTEP_MSRC, SequenceConfig,
 1951              		.loc 1 1203 12 view .LVU562
 1952 0054 E3E7     		b	.L118
 1953              	.L125:
1208:Core/Src/vl53l0x_api.c **** 		VL53L0X_SEQUENCESTEP_PRE_RANGE, SequenceConfig,
 1954              		.loc 1 1208 3 is_stmt 1 view .LVU563
1208:Core/Src/vl53l0x_api.c **** 		VL53L0X_SEQUENCESTEP_PRE_RANGE, SequenceConfig,
 1955              		.loc 1 1208 12 is_stmt 0 view .LVU564
 1956 0056 EB1C     		adds	r3, r5, #3
 1957 0058 9DF80720 		ldrb	r2, [sp, #7]	@ zero_extendqisi2
 1958 005c 0321     		movs	r1, #3
 1959 005e 2046     		mov	r0, r4
 1960              	.LVL185:
1208:Core/Src/vl53l0x_api.c **** 		VL53L0X_SEQUENCESTEP_PRE_RANGE, SequenceConfig,
 1961              		.loc 1 1208 12 view .LVU565
 1962 0060 FFF7FEFF 		bl	sequence_step_enabled
 1963              	.LVL186:
1208:Core/Src/vl53l0x_api.c **** 		VL53L0X_SEQUENCESTEP_PRE_RANGE, SequenceConfig,
 1964              		.loc 1 1208 12 view .LVU566
 1965 0064 DCE7     		b	.L119
 1966              	.L126:
1213:Core/Src/vl53l0x_api.c **** 		VL53L0X_SEQUENCESTEP_FINAL_RANGE, SequenceConfig,
 1967              		.loc 1 1213 3 is_stmt 1 view .LVU567
1213:Core/Src/vl53l0x_api.c **** 		VL53L0X_SEQUENCESTEP_FINAL_RANGE, SequenceConfig,
 1968              		.loc 1 1213 12 is_stmt 0 view .LVU568
 1969 0066 2B1D     		adds	r3, r5, #4
 1970 0068 9DF80720 		ldrb	r2, [sp, #7]	@ zero_extendqisi2
 1971 006c 0421     		movs	r1, #4
 1972 006e 2046     		mov	r0, r4
 1973              	.LVL187:
1213:Core/Src/vl53l0x_api.c **** 		VL53L0X_SEQUENCESTEP_FINAL_RANGE, SequenceConfig,
 1974              		.loc 1 1213 12 view .LVU569
 1975 0070 FFF7FEFF 		bl	sequence_step_enabled
 1976              	.LVL188:
ARM GAS  C:\Users\anmh1\AppData\Local\Temp\ccBPLcM2.s 			page 57


1213:Core/Src/vl53l0x_api.c **** 		VL53L0X_SEQUENCESTEP_FINAL_RANGE, SequenceConfig,
 1977              		.loc 1 1213 12 view .LVU570
 1978 0074 D5E7     		b	.L120
 1979              		.cfi_endproc
 1980              	.LFE174:
 1982              		.section	.text.VL53L0X_GetNumberOfSequenceSteps,"ax",%progbits
 1983              		.align	1
 1984              		.global	VL53L0X_GetNumberOfSequenceSteps
 1985              		.syntax unified
 1986              		.thumb
 1987              		.thumb_func
 1988              		.fpu fpv4-sp-d16
 1990              	VL53L0X_GetNumberOfSequenceSteps:
 1991              	.LVL189:
 1992              	.LFB175:
1221:Core/Src/vl53l0x_api.c **** 
1222:Core/Src/vl53l0x_api.c **** VL53L0X_Error VL53L0X_GetNumberOfSequenceSteps(VL53L0X_DEV Dev,
1223:Core/Src/vl53l0x_api.c **** 	uint8_t *pNumberOfSequenceSteps)
1224:Core/Src/vl53l0x_api.c **** {
 1993              		.loc 1 1224 1 is_stmt 1 view -0
 1994              		.cfi_startproc
 1995              		@ args = 0, pretend = 0, frame = 0
 1996              		@ frame_needed = 0, uses_anonymous_args = 0
 1997              		@ link register save eliminated.
1225:Core/Src/vl53l0x_api.c **** 	VL53L0X_Error Status = VL53L0X_ERROR_NONE;
 1998              		.loc 1 1225 2 view .LVU572
1226:Core/Src/vl53l0x_api.c **** 	LOG_FUNCTION_START("");
 1999              		.loc 1 1226 2 view .LVU573
1227:Core/Src/vl53l0x_api.c **** 
1228:Core/Src/vl53l0x_api.c **** 	*pNumberOfSequenceSteps = VL53L0X_SEQUENCESTEP_NUMBER_OF_CHECKS;
 2000              		.loc 1 1228 2 view .LVU574
 2001              		.loc 1 1228 26 is_stmt 0 view .LVU575
 2002 0000 0523     		movs	r3, #5
 2003 0002 0B70     		strb	r3, [r1]
1229:Core/Src/vl53l0x_api.c **** 
1230:Core/Src/vl53l0x_api.c **** 	LOG_FUNCTION_END(Status);
 2004              		.loc 1 1230 2 is_stmt 1 view .LVU576
1231:Core/Src/vl53l0x_api.c **** 	return Status;
 2005              		.loc 1 1231 2 view .LVU577
1232:Core/Src/vl53l0x_api.c **** }
 2006              		.loc 1 1232 1 is_stmt 0 view .LVU578
 2007 0004 0020     		movs	r0, #0
 2008              	.LVL190:
 2009              		.loc 1 1232 1 view .LVU579
 2010 0006 7047     		bx	lr
 2011              		.cfi_endproc
 2012              	.LFE175:
 2014              		.section	.text.VL53L0X_GetSequenceStepsInfo,"ax",%progbits
 2015              		.align	1
 2016              		.global	VL53L0X_GetSequenceStepsInfo
 2017              		.syntax unified
 2018              		.thumb
 2019              		.thumb_func
 2020              		.fpu fpv4-sp-d16
 2022              	VL53L0X_GetSequenceStepsInfo:
 2023              	.LVL191:
 2024              	.LFB176:
ARM GAS  C:\Users\anmh1\AppData\Local\Temp\ccBPLcM2.s 			page 58


1233:Core/Src/vl53l0x_api.c **** 
1234:Core/Src/vl53l0x_api.c **** VL53L0X_Error VL53L0X_GetSequenceStepsInfo(VL53L0X_SequenceStepId SequenceStepId,
1235:Core/Src/vl53l0x_api.c **** 	char *pSequenceStepsString)
1236:Core/Src/vl53l0x_api.c **** {
 2025              		.loc 1 1236 1 is_stmt 1 view -0
 2026              		.cfi_startproc
 2027              		@ args = 0, pretend = 0, frame = 0
 2028              		@ frame_needed = 0, uses_anonymous_args = 0
 2029              		.loc 1 1236 1 is_stmt 0 view .LVU581
 2030 0000 08B5     		push	{r3, lr}
 2031              		.cfi_def_cfa_offset 8
 2032              		.cfi_offset 3, -8
 2033              		.cfi_offset 14, -4
1237:Core/Src/vl53l0x_api.c **** 	VL53L0X_Error Status = VL53L0X_ERROR_NONE;
 2034              		.loc 1 1237 2 is_stmt 1 view .LVU582
 2035              	.LVL192:
1238:Core/Src/vl53l0x_api.c **** 	LOG_FUNCTION_START("");
 2036              		.loc 1 1238 2 view .LVU583
1239:Core/Src/vl53l0x_api.c **** 
1240:Core/Src/vl53l0x_api.c **** 	Status = VL53L0X_get_sequence_steps_info(
 2037              		.loc 1 1240 2 view .LVU584
 2038              		.loc 1 1240 11 is_stmt 0 view .LVU585
 2039 0002 FFF7FEFF 		bl	VL53L0X_get_sequence_steps_info
 2040              	.LVL193:
1241:Core/Src/vl53l0x_api.c **** 			SequenceStepId,
1242:Core/Src/vl53l0x_api.c **** 			pSequenceStepsString);
1243:Core/Src/vl53l0x_api.c **** 
1244:Core/Src/vl53l0x_api.c **** 	LOG_FUNCTION_END(Status);
 2041              		.loc 1 1244 2 is_stmt 1 view .LVU586
1245:Core/Src/vl53l0x_api.c **** 
1246:Core/Src/vl53l0x_api.c **** 	return Status;
 2042              		.loc 1 1246 2 view .LVU587
1247:Core/Src/vl53l0x_api.c **** }
 2043              		.loc 1 1247 1 is_stmt 0 view .LVU588
 2044 0006 08BD     		pop	{r3, pc}
 2045              		.cfi_endproc
 2046              	.LFE176:
 2048              		.section	.text.VL53L0X_SetSequenceStepTimeout,"ax",%progbits
 2049              		.align	1
 2050              		.global	VL53L0X_SetSequenceStepTimeout
 2051              		.syntax unified
 2052              		.thumb
 2053              		.thumb_func
 2054              		.fpu fpv4-sp-d16
 2056              	VL53L0X_SetSequenceStepTimeout:
 2057              	.LVL194:
 2058              	.LFB177:
1248:Core/Src/vl53l0x_api.c **** 
1249:Core/Src/vl53l0x_api.c **** VL53L0X_Error VL53L0X_SetSequenceStepTimeout(VL53L0X_DEV Dev,
1250:Core/Src/vl53l0x_api.c **** 	VL53L0X_SequenceStepId SequenceStepId, FixPoint1616_t TimeOutMilliSecs)
1251:Core/Src/vl53l0x_api.c **** {
 2059              		.loc 1 1251 1 is_stmt 1 view -0
 2060              		.cfi_startproc
 2061              		@ args = 0, pretend = 0, frame = 8
 2062              		@ frame_needed = 0, uses_anonymous_args = 0
 2063              		.loc 1 1251 1 is_stmt 0 view .LVU590
 2064 0000 70B5     		push	{r4, r5, r6, lr}
ARM GAS  C:\Users\anmh1\AppData\Local\Temp\ccBPLcM2.s 			page 59


 2065              		.cfi_def_cfa_offset 16
 2066              		.cfi_offset 4, -16
 2067              		.cfi_offset 5, -12
 2068              		.cfi_offset 6, -8
 2069              		.cfi_offset 14, -4
 2070 0002 82B0     		sub	sp, sp, #8
 2071              		.cfi_def_cfa_offset 24
 2072 0004 0546     		mov	r5, r0
 2073 0006 0E46     		mov	r6, r1
1252:Core/Src/vl53l0x_api.c **** 	VL53L0X_Error Status = VL53L0X_ERROR_NONE;
 2074              		.loc 1 1252 2 is_stmt 1 view .LVU591
 2075              	.LVL195:
1253:Core/Src/vl53l0x_api.c **** 	VL53L0X_Error Status1 = VL53L0X_ERROR_NONE;
 2076              		.loc 1 1253 2 view .LVU592
1254:Core/Src/vl53l0x_api.c **** 	uint32_t TimeoutMicroSeconds = ((TimeOutMilliSecs * 1000) + 0x8000)
 2077              		.loc 1 1254 2 view .LVU593
 2078              		.loc 1 1254 52 is_stmt 0 view .LVU594
 2079 0008 4FF47A73 		mov	r3, #1000
 2080 000c 03FB02F3 		mul	r3, r3, r2
 2081              		.loc 1 1254 60 view .LVU595
 2082 0010 03F50043 		add	r3, r3, #32768
 2083              		.loc 1 1254 11 view .LVU596
 2084 0014 1C0C     		lsrs	r4, r3, #16
 2085              	.LVL196:
1255:Core/Src/vl53l0x_api.c **** 		>> 16;
1256:Core/Src/vl53l0x_api.c **** 	uint32_t MeasurementTimingBudgetMicroSeconds;
 2086              		.loc 1 1256 2 is_stmt 1 view .LVU597
1257:Core/Src/vl53l0x_api.c **** 	FixPoint1616_t OldTimeOutMicroSeconds;
 2087              		.loc 1 1257 2 view .LVU598
1258:Core/Src/vl53l0x_api.c **** 
1259:Core/Src/vl53l0x_api.c **** 	LOG_FUNCTION_START("");
 2088              		.loc 1 1259 2 view .LVU599
1260:Core/Src/vl53l0x_api.c **** 
1261:Core/Src/vl53l0x_api.c **** 	/* Read back the current value in case we need to revert back to this.
1262:Core/Src/vl53l0x_api.c **** 	 */
1263:Core/Src/vl53l0x_api.c **** 	Status = get_sequence_step_timeout(Dev, SequenceStepId,
 2089              		.loc 1 1263 2 view .LVU600
 2090              		.loc 1 1263 11 is_stmt 0 view .LVU601
 2091 0016 01AA     		add	r2, sp, #4
 2092              	.LVL197:
 2093              		.loc 1 1263 11 view .LVU602
 2094 0018 FFF7FEFF 		bl	get_sequence_step_timeout
 2095              	.LVL198:
1264:Core/Src/vl53l0x_api.c **** 		&OldTimeOutMicroSeconds);
1265:Core/Src/vl53l0x_api.c **** 
1266:Core/Src/vl53l0x_api.c **** 	if (Status == VL53L0X_ERROR_NONE) {
 2096              		.loc 1 1266 2 is_stmt 1 view .LVU603
 2097              		.loc 1 1266 5 is_stmt 0 view .LVU604
 2098 001c 0346     		mov	r3, r0
 2099 001e 18B1     		cbz	r0, .L134
 2100              	.LVL199:
 2101              	.L131:
1267:Core/Src/vl53l0x_api.c **** 		Status = set_sequence_step_timeout(Dev, SequenceStepId,
1268:Core/Src/vl53l0x_api.c **** 			TimeoutMicroSeconds);
1269:Core/Src/vl53l0x_api.c **** 	}
1270:Core/Src/vl53l0x_api.c **** 
1271:Core/Src/vl53l0x_api.c **** 	if (Status == VL53L0X_ERROR_NONE) {
ARM GAS  C:\Users\anmh1\AppData\Local\Temp\ccBPLcM2.s 			page 60


 2102              		.loc 1 1271 2 is_stmt 1 view .LVU605
 2103              		.loc 1 1271 5 is_stmt 0 view .LVU606
 2104 0020 4BB1     		cbz	r3, .L135
 2105              	.LVL200:
 2106              	.L132:
1272:Core/Src/vl53l0x_api.c **** 		VL53L0X_GETPARAMETERFIELD(Dev,
1273:Core/Src/vl53l0x_api.c **** 			MeasurementTimingBudgetMicroSeconds,
1274:Core/Src/vl53l0x_api.c **** 			MeasurementTimingBudgetMicroSeconds);
1275:Core/Src/vl53l0x_api.c **** 
1276:Core/Src/vl53l0x_api.c **** 		/* At this point we don't know if the requested value is valid,
1277:Core/Src/vl53l0x_api.c **** 		 therefore proceed to update the entire timing budget and
1278:Core/Src/vl53l0x_api.c **** 		 if this fails, revert back to the previous value.
1279:Core/Src/vl53l0x_api.c **** 		 */
1280:Core/Src/vl53l0x_api.c **** 		Status = VL53L0X_SetMeasurementTimingBudgetMicroSeconds(Dev,
1281:Core/Src/vl53l0x_api.c **** 			MeasurementTimingBudgetMicroSeconds);
1282:Core/Src/vl53l0x_api.c **** 
1283:Core/Src/vl53l0x_api.c **** 		if (Status != VL53L0X_ERROR_NONE) {
1284:Core/Src/vl53l0x_api.c **** 			Status1 = set_sequence_step_timeout(Dev, SequenceStepId,
1285:Core/Src/vl53l0x_api.c **** 				OldTimeOutMicroSeconds);
1286:Core/Src/vl53l0x_api.c **** 
1287:Core/Src/vl53l0x_api.c **** 			if (Status1 == VL53L0X_ERROR_NONE) {
1288:Core/Src/vl53l0x_api.c **** 				Status1 =
1289:Core/Src/vl53l0x_api.c **** 				VL53L0X_SetMeasurementTimingBudgetMicroSeconds(
1290:Core/Src/vl53l0x_api.c **** 					Dev,
1291:Core/Src/vl53l0x_api.c **** 					MeasurementTimingBudgetMicroSeconds);
1292:Core/Src/vl53l0x_api.c **** 			}
1293:Core/Src/vl53l0x_api.c **** 
1294:Core/Src/vl53l0x_api.c **** 			Status = Status1;
1295:Core/Src/vl53l0x_api.c **** 		}
1296:Core/Src/vl53l0x_api.c **** 	}
1297:Core/Src/vl53l0x_api.c **** 
1298:Core/Src/vl53l0x_api.c **** 	LOG_FUNCTION_END(Status);
 2107              		.loc 1 1298 2 is_stmt 1 view .LVU607
1299:Core/Src/vl53l0x_api.c **** 
1300:Core/Src/vl53l0x_api.c **** 	return Status;
 2108              		.loc 1 1300 2 view .LVU608
1301:Core/Src/vl53l0x_api.c **** }
 2109              		.loc 1 1301 1 is_stmt 0 view .LVU609
 2110 0022 1846     		mov	r0, r3
 2111 0024 02B0     		add	sp, sp, #8
 2112              		.cfi_remember_state
 2113              		.cfi_def_cfa_offset 16
 2114              		@ sp needed
 2115 0026 70BD     		pop	{r4, r5, r6, pc}
 2116              	.LVL201:
 2117              	.L134:
 2118              		.cfi_restore_state
1267:Core/Src/vl53l0x_api.c **** 			TimeoutMicroSeconds);
 2119              		.loc 1 1267 3 is_stmt 1 view .LVU610
1267:Core/Src/vl53l0x_api.c **** 			TimeoutMicroSeconds);
 2120              		.loc 1 1267 12 is_stmt 0 view .LVU611
 2121 0028 2246     		mov	r2, r4
 2122 002a 3146     		mov	r1, r6
 2123 002c 2846     		mov	r0, r5
 2124              	.LVL202:
1267:Core/Src/vl53l0x_api.c **** 			TimeoutMicroSeconds);
 2125              		.loc 1 1267 12 view .LVU612
ARM GAS  C:\Users\anmh1\AppData\Local\Temp\ccBPLcM2.s 			page 61


 2126 002e FFF7FEFF 		bl	set_sequence_step_timeout
 2127              	.LVL203:
 2128 0032 0346     		mov	r3, r0
 2129              	.LVL204:
1267:Core/Src/vl53l0x_api.c **** 			TimeoutMicroSeconds);
 2130              		.loc 1 1267 12 view .LVU613
 2131 0034 F4E7     		b	.L131
 2132              	.L135:
1272:Core/Src/vl53l0x_api.c **** 			MeasurementTimingBudgetMicroSeconds,
 2133              		.loc 1 1272 3 is_stmt 1 view .LVU614
 2134 0036 6C69     		ldr	r4, [r5, #20]
 2135              	.LVL205:
1280:Core/Src/vl53l0x_api.c **** 			MeasurementTimingBudgetMicroSeconds);
 2136              		.loc 1 1280 3 view .LVU615
1280:Core/Src/vl53l0x_api.c **** 			MeasurementTimingBudgetMicroSeconds);
 2137              		.loc 1 1280 12 is_stmt 0 view .LVU616
 2138 0038 2146     		mov	r1, r4
 2139 003a 2846     		mov	r0, r5
 2140 003c FFF7FEFF 		bl	VL53L0X_SetMeasurementTimingBudgetMicroSeconds
 2141              	.LVL206:
1283:Core/Src/vl53l0x_api.c **** 			Status1 = set_sequence_step_timeout(Dev, SequenceStepId,
 2142              		.loc 1 1283 3 is_stmt 1 view .LVU617
1283:Core/Src/vl53l0x_api.c **** 			Status1 = set_sequence_step_timeout(Dev, SequenceStepId,
 2143              		.loc 1 1283 6 is_stmt 0 view .LVU618
 2144 0040 0346     		mov	r3, r0
 2145 0042 0028     		cmp	r0, #0
 2146 0044 EDD0     		beq	.L132
1284:Core/Src/vl53l0x_api.c **** 				OldTimeOutMicroSeconds);
 2147              		.loc 1 1284 4 is_stmt 1 view .LVU619
1284:Core/Src/vl53l0x_api.c **** 				OldTimeOutMicroSeconds);
 2148              		.loc 1 1284 14 is_stmt 0 view .LVU620
 2149 0046 019A     		ldr	r2, [sp, #4]
 2150 0048 3146     		mov	r1, r6
 2151 004a 2846     		mov	r0, r5
 2152              	.LVL207:
1284:Core/Src/vl53l0x_api.c **** 				OldTimeOutMicroSeconds);
 2153              		.loc 1 1284 14 view .LVU621
 2154 004c FFF7FEFF 		bl	set_sequence_step_timeout
 2155              	.LVL208:
1287:Core/Src/vl53l0x_api.c **** 				Status1 =
 2156              		.loc 1 1287 4 is_stmt 1 view .LVU622
1287:Core/Src/vl53l0x_api.c **** 				Status1 =
 2157              		.loc 1 1287 7 is_stmt 0 view .LVU623
 2158 0050 0346     		mov	r3, r0
 2159 0052 0028     		cmp	r0, #0
 2160 0054 E5D1     		bne	.L132
1288:Core/Src/vl53l0x_api.c **** 				VL53L0X_SetMeasurementTimingBudgetMicroSeconds(
 2161              		.loc 1 1288 5 is_stmt 1 view .LVU624
1289:Core/Src/vl53l0x_api.c **** 					Dev,
 2162              		.loc 1 1289 5 is_stmt 0 view .LVU625
 2163 0056 2146     		mov	r1, r4
 2164 0058 2846     		mov	r0, r5
 2165              	.LVL209:
1289:Core/Src/vl53l0x_api.c **** 					Dev,
 2166              		.loc 1 1289 5 view .LVU626
 2167 005a FFF7FEFF 		bl	VL53L0X_SetMeasurementTimingBudgetMicroSeconds
 2168              	.LVL210:
ARM GAS  C:\Users\anmh1\AppData\Local\Temp\ccBPLcM2.s 			page 62


 2169 005e 0346     		mov	r3, r0
 2170              	.LVL211:
1289:Core/Src/vl53l0x_api.c **** 					Dev,
 2171              		.loc 1 1289 5 view .LVU627
 2172 0060 DFE7     		b	.L132
 2173              		.cfi_endproc
 2174              	.LFE177:
 2176              		.section	.text.VL53L0X_GetSequenceStepTimeout,"ax",%progbits
 2177              		.align	1
 2178              		.global	VL53L0X_GetSequenceStepTimeout
 2179              		.syntax unified
 2180              		.thumb
 2181              		.thumb_func
 2182              		.fpu fpv4-sp-d16
 2184              	VL53L0X_GetSequenceStepTimeout:
 2185              	.LVL212:
 2186              	.LFB178:
1302:Core/Src/vl53l0x_api.c **** 
1303:Core/Src/vl53l0x_api.c **** VL53L0X_Error VL53L0X_GetSequenceStepTimeout(VL53L0X_DEV Dev,
1304:Core/Src/vl53l0x_api.c **** 	VL53L0X_SequenceStepId SequenceStepId, FixPoint1616_t *pTimeOutMilliSecs)
1305:Core/Src/vl53l0x_api.c **** {
 2187              		.loc 1 1305 1 is_stmt 1 view -0
 2188              		.cfi_startproc
 2189              		@ args = 0, pretend = 0, frame = 8
 2190              		@ frame_needed = 0, uses_anonymous_args = 0
 2191              		.loc 1 1305 1 is_stmt 0 view .LVU629
 2192 0000 10B5     		push	{r4, lr}
 2193              		.cfi_def_cfa_offset 8
 2194              		.cfi_offset 4, -8
 2195              		.cfi_offset 14, -4
 2196 0002 82B0     		sub	sp, sp, #8
 2197              		.cfi_def_cfa_offset 16
 2198 0004 1446     		mov	r4, r2
1306:Core/Src/vl53l0x_api.c **** 	VL53L0X_Error Status = VL53L0X_ERROR_NONE;
 2199              		.loc 1 1306 2 is_stmt 1 view .LVU630
 2200              	.LVL213:
1307:Core/Src/vl53l0x_api.c **** 	uint32_t TimeoutMicroSeconds;
 2201              		.loc 1 1307 2 view .LVU631
1308:Core/Src/vl53l0x_api.c **** 	LOG_FUNCTION_START("");
 2202              		.loc 1 1308 2 view .LVU632
1309:Core/Src/vl53l0x_api.c **** 
1310:Core/Src/vl53l0x_api.c **** 	Status = get_sequence_step_timeout(Dev, SequenceStepId,
 2203              		.loc 1 1310 2 view .LVU633
 2204              		.loc 1 1310 11 is_stmt 0 view .LVU634
 2205 0006 01AA     		add	r2, sp, #4
 2206              	.LVL214:
 2207              		.loc 1 1310 11 view .LVU635
 2208 0008 FFF7FEFF 		bl	get_sequence_step_timeout
 2209              	.LVL215:
1311:Core/Src/vl53l0x_api.c **** 		&TimeoutMicroSeconds);
1312:Core/Src/vl53l0x_api.c **** 	if (Status == VL53L0X_ERROR_NONE) {
 2210              		.loc 1 1312 2 is_stmt 1 view .LVU636
 2211              		.loc 1 1312 5 is_stmt 0 view .LVU637
 2212 000c 48B9     		cbnz	r0, .L137
1313:Core/Src/vl53l0x_api.c **** 		TimeoutMicroSeconds <<= 8;
 2213              		.loc 1 1313 3 is_stmt 1 view .LVU638
 2214              		.loc 1 1313 23 is_stmt 0 view .LVU639
ARM GAS  C:\Users\anmh1\AppData\Local\Temp\ccBPLcM2.s 			page 63


 2215 000e 019B     		ldr	r3, [sp, #4]
 2216 0010 1B02     		lsls	r3, r3, #8
1314:Core/Src/vl53l0x_api.c **** 		*pTimeOutMilliSecs = (TimeoutMicroSeconds + 500)/1000;
 2217              		.loc 1 1314 3 is_stmt 1 view .LVU640
 2218              		.loc 1 1314 45 is_stmt 0 view .LVU641
 2219 0012 03F5FA73 		add	r3, r3, #500
 2220              		.loc 1 1314 51 view .LVU642
 2221 0016 044A     		ldr	r2, .L139
 2222 0018 A2FB0323 		umull	r2, r3, r2, r3
 2223 001c 9B09     		lsrs	r3, r3, #6
1315:Core/Src/vl53l0x_api.c **** 		*pTimeOutMilliSecs <<= 8;
 2224              		.loc 1 1315 3 is_stmt 1 view .LVU643
 2225              		.loc 1 1315 22 is_stmt 0 view .LVU644
 2226 001e 1B02     		lsls	r3, r3, #8
 2227 0020 2360     		str	r3, [r4]
 2228              	.L137:
1316:Core/Src/vl53l0x_api.c **** 	}
1317:Core/Src/vl53l0x_api.c **** 
1318:Core/Src/vl53l0x_api.c **** 	LOG_FUNCTION_END(Status);
 2229              		.loc 1 1318 2 is_stmt 1 view .LVU645
1319:Core/Src/vl53l0x_api.c **** 	return Status;
 2230              		.loc 1 1319 2 view .LVU646
1320:Core/Src/vl53l0x_api.c **** }
 2231              		.loc 1 1320 1 is_stmt 0 view .LVU647
 2232 0022 02B0     		add	sp, sp, #8
 2233              		.cfi_def_cfa_offset 8
 2234              		@ sp needed
 2235 0024 10BD     		pop	{r4, pc}
 2236              	.LVL216:
 2237              	.L140:
 2238              		.loc 1 1320 1 view .LVU648
 2239 0026 00BF     		.align	2
 2240              	.L139:
 2241 0028 D34D6210 		.word	274877907
 2242              		.cfi_endproc
 2243              	.LFE178:
 2245              		.section	.text.VL53L0X_SetInterMeasurementPeriodMilliSeconds,"ax",%progbits
 2246              		.align	1
 2247              		.global	VL53L0X_SetInterMeasurementPeriodMilliSeconds
 2248              		.syntax unified
 2249              		.thumb
 2250              		.thumb_func
 2251              		.fpu fpv4-sp-d16
 2253              	VL53L0X_SetInterMeasurementPeriodMilliSeconds:
 2254              	.LVL217:
 2255              	.LFB179:
1321:Core/Src/vl53l0x_api.c **** 
1322:Core/Src/vl53l0x_api.c **** VL53L0X_Error VL53L0X_SetInterMeasurementPeriodMilliSeconds(VL53L0X_DEV Dev,
1323:Core/Src/vl53l0x_api.c **** 	uint32_t InterMeasurementPeriodMilliSeconds)
1324:Core/Src/vl53l0x_api.c **** {
 2256              		.loc 1 1324 1 is_stmt 1 view -0
 2257              		.cfi_startproc
 2258              		@ args = 0, pretend = 0, frame = 8
 2259              		@ frame_needed = 0, uses_anonymous_args = 0
 2260              		.loc 1 1324 1 is_stmt 0 view .LVU650
 2261 0000 30B5     		push	{r4, r5, lr}
 2262              		.cfi_def_cfa_offset 12
ARM GAS  C:\Users\anmh1\AppData\Local\Temp\ccBPLcM2.s 			page 64


 2263              		.cfi_offset 4, -12
 2264              		.cfi_offset 5, -8
 2265              		.cfi_offset 14, -4
 2266 0002 83B0     		sub	sp, sp, #12
 2267              		.cfi_def_cfa_offset 24
 2268 0004 0446     		mov	r4, r0
 2269 0006 0D46     		mov	r5, r1
1325:Core/Src/vl53l0x_api.c **** 	VL53L0X_Error Status = VL53L0X_ERROR_NONE;
 2270              		.loc 1 1325 2 is_stmt 1 view .LVU651
 2271              	.LVL218:
1326:Core/Src/vl53l0x_api.c **** 	uint16_t osc_calibrate_val;
 2272              		.loc 1 1326 2 view .LVU652
1327:Core/Src/vl53l0x_api.c **** 	uint32_t IMPeriodMilliSeconds;
 2273              		.loc 1 1327 2 view .LVU653
1328:Core/Src/vl53l0x_api.c **** 
1329:Core/Src/vl53l0x_api.c **** 	LOG_FUNCTION_START("");
 2274              		.loc 1 1329 2 view .LVU654
1330:Core/Src/vl53l0x_api.c **** 
1331:Core/Src/vl53l0x_api.c **** 	Status = VL53L0X_RdWord(Dev, VL53L0X_REG_OSC_CALIBRATE_VAL,
 2275              		.loc 1 1331 2 view .LVU655
 2276              		.loc 1 1331 11 is_stmt 0 view .LVU656
 2277 0008 0DF10602 		add	r2, sp, #6
 2278 000c F821     		movs	r1, #248
 2279              	.LVL219:
 2280              		.loc 1 1331 11 view .LVU657
 2281 000e FFF7FEFF 		bl	VL53L0X_RdWord
 2282              	.LVL220:
1332:Core/Src/vl53l0x_api.c **** 		&osc_calibrate_val);
1333:Core/Src/vl53l0x_api.c **** 
1334:Core/Src/vl53l0x_api.c **** 	if (Status == VL53L0X_ERROR_NONE) {
 2283              		.loc 1 1334 2 is_stmt 1 view .LVU658
 2284              		.loc 1 1334 5 is_stmt 0 view .LVU659
 2285 0012 50B9     		cbnz	r0, .L142
1335:Core/Src/vl53l0x_api.c **** 		if (osc_calibrate_val != 0) {
 2286              		.loc 1 1335 3 is_stmt 1 view .LVU660
 2287              		.loc 1 1335 25 is_stmt 0 view .LVU661
 2288 0014 BDF80620 		ldrh	r2, [sp, #6]
 2289              		.loc 1 1335 6 view .LVU662
 2290 0018 12B1     		cbz	r2, .L145
1336:Core/Src/vl53l0x_api.c **** 			IMPeriodMilliSeconds =
 2291              		.loc 1 1336 4 is_stmt 1 view .LVU663
 2292              		.loc 1 1336 25 is_stmt 0 view .LVU664
 2293 001a 05FB02F2 		mul	r2, r5, r2
 2294              	.LVL221:
 2295              		.loc 1 1336 25 view .LVU665
 2296 001e 00E0     		b	.L143
 2297              	.LVL222:
 2298              	.L145:
1337:Core/Src/vl53l0x_api.c **** 				InterMeasurementPeriodMilliSeconds
1338:Core/Src/vl53l0x_api.c **** 					* osc_calibrate_val;
1339:Core/Src/vl53l0x_api.c **** 		} else {
1340:Core/Src/vl53l0x_api.c **** 			IMPeriodMilliSeconds =
 2299              		.loc 1 1340 25 view .LVU666
 2300 0020 2A46     		mov	r2, r5
 2301              	.L143:
 2302              	.LVL223:
1341:Core/Src/vl53l0x_api.c **** 				InterMeasurementPeriodMilliSeconds;
ARM GAS  C:\Users\anmh1\AppData\Local\Temp\ccBPLcM2.s 			page 65


1342:Core/Src/vl53l0x_api.c **** 		}
1343:Core/Src/vl53l0x_api.c **** 		Status = VL53L0X_WrDWord(Dev,
 2303              		.loc 1 1343 3 is_stmt 1 view .LVU667
 2304              		.loc 1 1343 12 is_stmt 0 view .LVU668
 2305 0022 0421     		movs	r1, #4
 2306 0024 2046     		mov	r0, r4
 2307 0026 FFF7FEFF 		bl	VL53L0X_WrDWord
 2308              	.LVL224:
 2309              	.L142:
1344:Core/Src/vl53l0x_api.c **** 		VL53L0X_REG_SYSTEM_INTERMEASUREMENT_PERIOD,
1345:Core/Src/vl53l0x_api.c **** 			IMPeriodMilliSeconds);
1346:Core/Src/vl53l0x_api.c **** 	}
1347:Core/Src/vl53l0x_api.c **** 
1348:Core/Src/vl53l0x_api.c **** 	if (Status == VL53L0X_ERROR_NONE) {
 2310              		.loc 1 1348 2 is_stmt 1 view .LVU669
 2311              		.loc 1 1348 5 is_stmt 0 view .LVU670
 2312 002a 00B9     		cbnz	r0, .L144
1349:Core/Src/vl53l0x_api.c **** 		VL53L0X_SETPARAMETERFIELD(Dev,
 2313              		.loc 1 1349 3 is_stmt 1 view .LVU671
 2314 002c A561     		str	r5, [r4, #24]
 2315              	.L144:
1350:Core/Src/vl53l0x_api.c **** 			InterMeasurementPeriodMilliSeconds,
1351:Core/Src/vl53l0x_api.c **** 			InterMeasurementPeriodMilliSeconds);
1352:Core/Src/vl53l0x_api.c **** 	}
1353:Core/Src/vl53l0x_api.c **** 
1354:Core/Src/vl53l0x_api.c **** 	LOG_FUNCTION_END(Status);
 2316              		.loc 1 1354 2 view .LVU672
1355:Core/Src/vl53l0x_api.c **** 	return Status;
 2317              		.loc 1 1355 2 view .LVU673
1356:Core/Src/vl53l0x_api.c **** }
 2318              		.loc 1 1356 1 is_stmt 0 view .LVU674
 2319 002e 03B0     		add	sp, sp, #12
 2320              		.cfi_def_cfa_offset 12
 2321              		@ sp needed
 2322 0030 30BD     		pop	{r4, r5, pc}
 2323              		.loc 1 1356 1 view .LVU675
 2324              		.cfi_endproc
 2325              	.LFE179:
 2327              		.section	.text.VL53L0X_GetInterMeasurementPeriodMilliSeconds,"ax",%progbits
 2328              		.align	1
 2329              		.global	VL53L0X_GetInterMeasurementPeriodMilliSeconds
 2330              		.syntax unified
 2331              		.thumb
 2332              		.thumb_func
 2333              		.fpu fpv4-sp-d16
 2335              	VL53L0X_GetInterMeasurementPeriodMilliSeconds:
 2336              	.LVL225:
 2337              	.LFB180:
1357:Core/Src/vl53l0x_api.c **** 
1358:Core/Src/vl53l0x_api.c **** VL53L0X_Error VL53L0X_GetInterMeasurementPeriodMilliSeconds(VL53L0X_DEV Dev,
1359:Core/Src/vl53l0x_api.c **** 	uint32_t *pInterMeasurementPeriodMilliSeconds)
1360:Core/Src/vl53l0x_api.c **** {
 2338              		.loc 1 1360 1 is_stmt 1 view -0
 2339              		.cfi_startproc
 2340              		@ args = 0, pretend = 0, frame = 8
 2341              		@ frame_needed = 0, uses_anonymous_args = 0
 2342              		.loc 1 1360 1 is_stmt 0 view .LVU677
ARM GAS  C:\Users\anmh1\AppData\Local\Temp\ccBPLcM2.s 			page 66


 2343 0000 30B5     		push	{r4, r5, lr}
 2344              		.cfi_def_cfa_offset 12
 2345              		.cfi_offset 4, -12
 2346              		.cfi_offset 5, -8
 2347              		.cfi_offset 14, -4
 2348 0002 83B0     		sub	sp, sp, #12
 2349              		.cfi_def_cfa_offset 24
 2350 0004 0546     		mov	r5, r0
 2351 0006 0C46     		mov	r4, r1
1361:Core/Src/vl53l0x_api.c **** 	VL53L0X_Error Status = VL53L0X_ERROR_NONE;
 2352              		.loc 1 1361 2 is_stmt 1 view .LVU678
 2353              	.LVL226:
1362:Core/Src/vl53l0x_api.c **** 	uint16_t osc_calibrate_val;
 2354              		.loc 1 1362 2 view .LVU679
1363:Core/Src/vl53l0x_api.c **** 	uint32_t IMPeriodMilliSeconds;
 2355              		.loc 1 1363 2 view .LVU680
1364:Core/Src/vl53l0x_api.c **** 
1365:Core/Src/vl53l0x_api.c **** 	LOG_FUNCTION_START("");
 2356              		.loc 1 1365 2 view .LVU681
1366:Core/Src/vl53l0x_api.c **** 
1367:Core/Src/vl53l0x_api.c **** 	Status = VL53L0X_RdWord(Dev, VL53L0X_REG_OSC_CALIBRATE_VAL,
 2357              		.loc 1 1367 2 view .LVU682
 2358              		.loc 1 1367 11 is_stmt 0 view .LVU683
 2359 0008 0DF10602 		add	r2, sp, #6
 2360 000c F821     		movs	r1, #248
 2361              	.LVL227:
 2362              		.loc 1 1367 11 view .LVU684
 2363 000e FFF7FEFF 		bl	VL53L0X_RdWord
 2364              	.LVL228:
1368:Core/Src/vl53l0x_api.c **** 		&osc_calibrate_val);
1369:Core/Src/vl53l0x_api.c **** 
1370:Core/Src/vl53l0x_api.c **** 	if (Status == VL53L0X_ERROR_NONE) {
 2365              		.loc 1 1370 2 is_stmt 1 view .LVU685
 2366              		.loc 1 1370 5 is_stmt 0 view .LVU686
 2367 0012 58B1     		cbz	r0, .L152
 2368              	.L148:
 2369              	.LVL229:
1371:Core/Src/vl53l0x_api.c **** 		Status = VL53L0X_RdDWord(Dev,
1372:Core/Src/vl53l0x_api.c **** 		VL53L0X_REG_SYSTEM_INTERMEASUREMENT_PERIOD,
1373:Core/Src/vl53l0x_api.c **** 			&IMPeriodMilliSeconds);
1374:Core/Src/vl53l0x_api.c **** 	}
1375:Core/Src/vl53l0x_api.c **** 
1376:Core/Src/vl53l0x_api.c **** 	if (Status == VL53L0X_ERROR_NONE) {
 2370              		.loc 1 1376 2 is_stmt 1 view .LVU687
 2371              		.loc 1 1376 5 is_stmt 0 view .LVU688
 2372 0014 40B9     		cbnz	r0, .L149
1377:Core/Src/vl53l0x_api.c **** 		if (osc_calibrate_val != 0) {
 2373              		.loc 1 1377 3 is_stmt 1 view .LVU689
 2374              		.loc 1 1377 25 is_stmt 0 view .LVU690
 2375 0016 BDF80630 		ldrh	r3, [sp, #6]
 2376              		.loc 1 1377 6 view .LVU691
 2377 001a 1BB1     		cbz	r3, .L150
1378:Core/Src/vl53l0x_api.c **** 			*pInterMeasurementPeriodMilliSeconds =
 2378              		.loc 1 1378 4 is_stmt 1 view .LVU692
1379:Core/Src/vl53l0x_api.c **** 				IMPeriodMilliSeconds / osc_calibrate_val;
 2379              		.loc 1 1379 26 is_stmt 0 view .LVU693
 2380 001c 009A     		ldr	r2, [sp]
ARM GAS  C:\Users\anmh1\AppData\Local\Temp\ccBPLcM2.s 			page 67


 2381 001e B2FBF3F3 		udiv	r3, r2, r3
1378:Core/Src/vl53l0x_api.c **** 			*pInterMeasurementPeriodMilliSeconds =
 2382              		.loc 1 1378 41 view .LVU694
 2383 0022 2360     		str	r3, [r4]
 2384              	.L150:
1380:Core/Src/vl53l0x_api.c **** 		}
1381:Core/Src/vl53l0x_api.c **** 		VL53L0X_SETPARAMETERFIELD(Dev,
 2385              		.loc 1 1381 3 is_stmt 1 view .LVU695
 2386 0024 2368     		ldr	r3, [r4]
 2387 0026 AB61     		str	r3, [r5, #24]
 2388              	.L149:
1382:Core/Src/vl53l0x_api.c **** 			InterMeasurementPeriodMilliSeconds,
1383:Core/Src/vl53l0x_api.c **** 			*pInterMeasurementPeriodMilliSeconds);
1384:Core/Src/vl53l0x_api.c **** 	}
1385:Core/Src/vl53l0x_api.c **** 
1386:Core/Src/vl53l0x_api.c **** 	LOG_FUNCTION_END(Status);
 2389              		.loc 1 1386 2 view .LVU696
1387:Core/Src/vl53l0x_api.c **** 	return Status;
 2390              		.loc 1 1387 2 view .LVU697
1388:Core/Src/vl53l0x_api.c **** }
 2391              		.loc 1 1388 1 is_stmt 0 view .LVU698
 2392 0028 03B0     		add	sp, sp, #12
 2393              		.cfi_remember_state
 2394              		.cfi_def_cfa_offset 12
 2395              		@ sp needed
 2396 002a 30BD     		pop	{r4, r5, pc}
 2397              	.LVL230:
 2398              	.L152:
 2399              		.cfi_restore_state
1371:Core/Src/vl53l0x_api.c **** 		VL53L0X_REG_SYSTEM_INTERMEASUREMENT_PERIOD,
 2400              		.loc 1 1371 3 is_stmt 1 view .LVU699
1371:Core/Src/vl53l0x_api.c **** 		VL53L0X_REG_SYSTEM_INTERMEASUREMENT_PERIOD,
 2401              		.loc 1 1371 12 is_stmt 0 view .LVU700
 2402 002c 6A46     		mov	r2, sp
 2403 002e 0421     		movs	r1, #4
 2404 0030 2846     		mov	r0, r5
 2405 0032 FFF7FEFF 		bl	VL53L0X_RdDWord
 2406              	.LVL231:
1371:Core/Src/vl53l0x_api.c **** 		VL53L0X_REG_SYSTEM_INTERMEASUREMENT_PERIOD,
 2407              		.loc 1 1371 12 view .LVU701
 2408 0036 EDE7     		b	.L148
 2409              		.cfi_endproc
 2410              	.LFE180:
 2412              		.section	.text.VL53L0X_SetXTalkCompensationEnable,"ax",%progbits
 2413              		.align	1
 2414              		.global	VL53L0X_SetXTalkCompensationEnable
 2415              		.syntax unified
 2416              		.thumb
 2417              		.thumb_func
 2418              		.fpu fpv4-sp-d16
 2420              	VL53L0X_SetXTalkCompensationEnable:
 2421              	.LVL232:
 2422              	.LFB181:
1389:Core/Src/vl53l0x_api.c **** 
1390:Core/Src/vl53l0x_api.c **** VL53L0X_Error VL53L0X_SetXTalkCompensationEnable(VL53L0X_DEV Dev,
1391:Core/Src/vl53l0x_api.c **** 	uint8_t XTalkCompensationEnable)
1392:Core/Src/vl53l0x_api.c **** {
ARM GAS  C:\Users\anmh1\AppData\Local\Temp\ccBPLcM2.s 			page 68


 2423              		.loc 1 1392 1 is_stmt 1 view -0
 2424              		.cfi_startproc
 2425              		@ args = 0, pretend = 0, frame = 0
 2426              		@ frame_needed = 0, uses_anonymous_args = 0
 2427              		.loc 1 1392 1 is_stmt 0 view .LVU703
 2428 0000 38B5     		push	{r3, r4, r5, lr}
 2429              		.cfi_def_cfa_offset 16
 2430              		.cfi_offset 3, -16
 2431              		.cfi_offset 4, -12
 2432              		.cfi_offset 5, -8
 2433              		.cfi_offset 14, -4
 2434 0002 0446     		mov	r4, r0
1393:Core/Src/vl53l0x_api.c **** 	VL53L0X_Error Status = VL53L0X_ERROR_NONE;
 2435              		.loc 1 1393 2 is_stmt 1 view .LVU704
 2436              	.LVL233:
1394:Core/Src/vl53l0x_api.c **** 	FixPoint1616_t TempFix1616;
 2437              		.loc 1 1394 2 view .LVU705
1395:Core/Src/vl53l0x_api.c **** 	uint16_t LinearityCorrectiveGain;
 2438              		.loc 1 1395 2 view .LVU706
1396:Core/Src/vl53l0x_api.c **** 
1397:Core/Src/vl53l0x_api.c **** 	LOG_FUNCTION_START("");
 2439              		.loc 1 1397 2 view .LVU707
1398:Core/Src/vl53l0x_api.c **** 
1399:Core/Src/vl53l0x_api.c **** 	LinearityCorrectiveGain = PALDevDataGet(Dev, LinearityCorrectiveGain);
 2440              		.loc 1 1399 2 view .LVU708
 2441              		.loc 1 1399 26 is_stmt 0 view .LVU709
 2442 0004 B0F85231 		ldrh	r3, [r0, #338]
 2443              	.LVL234:
1400:Core/Src/vl53l0x_api.c **** 
1401:Core/Src/vl53l0x_api.c **** 	if ((XTalkCompensationEnable == 0)
 2444              		.loc 1 1401 2 is_stmt 1 view .LVU710
 2445              		.loc 1 1401 5 is_stmt 0 view .LVU711
 2446 0008 0D46     		mov	r5, r1
 2447 000a 31B1     		cbz	r1, .L157
1402:Core/Src/vl53l0x_api.c **** 		|| (LinearityCorrectiveGain != 1000)) {
 2448              		.loc 1 1402 3 view .LVU712
 2449 000c B3F57A7F 		cmp	r3, #1000
 2450 0010 01D0     		beq	.L160
1403:Core/Src/vl53l0x_api.c **** 		TempFix1616 = 0;
 2451              		.loc 1 1403 15 view .LVU713
 2452 0012 0022     		movs	r2, #0
 2453 0014 02E0     		b	.L154
 2454              	.L160:
1404:Core/Src/vl53l0x_api.c **** 	} else {
1405:Core/Src/vl53l0x_api.c **** 		VL53L0X_GETPARAMETERFIELD(Dev, XTalkCompensationRateMegaCps,
 2455              		.loc 1 1405 3 is_stmt 1 view .LVU714
 2456 0016 026A     		ldr	r2, [r0, #32]
 2457              	.LVL235:
 2458              		.loc 1 1405 3 is_stmt 0 view .LVU715
 2459 0018 00E0     		b	.L154
 2460              	.LVL236:
 2461              	.L157:
1403:Core/Src/vl53l0x_api.c **** 		TempFix1616 = 0;
 2462              		.loc 1 1403 15 view .LVU716
 2463 001a 0022     		movs	r2, #0
 2464              	.L154:
 2465              	.LVL237:
ARM GAS  C:\Users\anmh1\AppData\Local\Temp\ccBPLcM2.s 			page 69


1406:Core/Src/vl53l0x_api.c **** 			TempFix1616);
1407:Core/Src/vl53l0x_api.c **** 	}
1408:Core/Src/vl53l0x_api.c **** 
1409:Core/Src/vl53l0x_api.c **** 	/* the following register has a format 3.13 */
1410:Core/Src/vl53l0x_api.c **** 	Status = VL53L0X_WrWord(Dev,
 2466              		.loc 1 1410 2 is_stmt 1 view .LVU717
 2467              		.loc 1 1410 11 is_stmt 0 view .LVU718
 2468 001c C2F3CF02 		ubfx	r2, r2, #3, #16
 2469              	.LVL238:
 2470              		.loc 1 1410 11 view .LVU719
 2471 0020 2021     		movs	r1, #32
 2472              	.LVL239:
 2473              		.loc 1 1410 11 view .LVU720
 2474 0022 2046     		mov	r0, r4
 2475              	.LVL240:
 2476              		.loc 1 1410 11 view .LVU721
 2477 0024 FFF7FEFF 		bl	VL53L0X_WrWord
 2478              	.LVL241:
1411:Core/Src/vl53l0x_api.c **** 	VL53L0X_REG_CROSSTALK_COMPENSATION_PEAK_RATE_MCPS,
1412:Core/Src/vl53l0x_api.c **** 		VL53L0X_FIXPOINT1616TOFIXPOINT313(TempFix1616));
1413:Core/Src/vl53l0x_api.c **** 
1414:Core/Src/vl53l0x_api.c **** 	if (Status == VL53L0X_ERROR_NONE) {
 2479              		.loc 1 1414 2 is_stmt 1 view .LVU722
 2480              		.loc 1 1414 5 is_stmt 0 view .LVU723
 2481 0028 08B9     		cbnz	r0, .L155
1415:Core/Src/vl53l0x_api.c **** 		if (XTalkCompensationEnable == 0) {
 2482              		.loc 1 1415 3 is_stmt 1 view .LVU724
 2483              		.loc 1 1415 6 is_stmt 0 view .LVU725
 2484 002a 0DB9     		cbnz	r5, .L156
1416:Core/Src/vl53l0x_api.c **** 			VL53L0X_SETPARAMETERFIELD(Dev, XTalkCompensationEnable,
 2485              		.loc 1 1416 4 is_stmt 1 view .LVU726
 2486 002c 2077     		strb	r0, [r4, #28]
 2487              	.L155:
1417:Core/Src/vl53l0x_api.c **** 				0);
1418:Core/Src/vl53l0x_api.c **** 		} else {
1419:Core/Src/vl53l0x_api.c **** 			VL53L0X_SETPARAMETERFIELD(Dev, XTalkCompensationEnable,
1420:Core/Src/vl53l0x_api.c **** 				1);
1421:Core/Src/vl53l0x_api.c **** 		}
1422:Core/Src/vl53l0x_api.c **** 	}
1423:Core/Src/vl53l0x_api.c **** 
1424:Core/Src/vl53l0x_api.c **** 	LOG_FUNCTION_END(Status);
 2488              		.loc 1 1424 2 view .LVU727
1425:Core/Src/vl53l0x_api.c **** 	return Status;
 2489              		.loc 1 1425 2 view .LVU728
1426:Core/Src/vl53l0x_api.c **** }
 2490              		.loc 1 1426 1 is_stmt 0 view .LVU729
 2491 002e 38BD     		pop	{r3, r4, r5, pc}
 2492              	.LVL242:
 2493              	.L156:
1419:Core/Src/vl53l0x_api.c **** 				1);
 2494              		.loc 1 1419 4 is_stmt 1 view .LVU730
 2495 0030 0123     		movs	r3, #1
 2496 0032 2377     		strb	r3, [r4, #28]
 2497 0034 FBE7     		b	.L155
 2498              		.cfi_endproc
 2499              	.LFE181:
 2501              		.section	.text.VL53L0X_GetXTalkCompensationEnable,"ax",%progbits
ARM GAS  C:\Users\anmh1\AppData\Local\Temp\ccBPLcM2.s 			page 70


 2502              		.align	1
 2503              		.global	VL53L0X_GetXTalkCompensationEnable
 2504              		.syntax unified
 2505              		.thumb
 2506              		.thumb_func
 2507              		.fpu fpv4-sp-d16
 2509              	VL53L0X_GetXTalkCompensationEnable:
 2510              	.LVL243:
 2511              	.LFB182:
1427:Core/Src/vl53l0x_api.c **** 
1428:Core/Src/vl53l0x_api.c **** VL53L0X_Error VL53L0X_GetXTalkCompensationEnable(VL53L0X_DEV Dev,
1429:Core/Src/vl53l0x_api.c **** 	uint8_t *pXTalkCompensationEnable)
1430:Core/Src/vl53l0x_api.c **** {
 2512              		.loc 1 1430 1 view -0
 2513              		.cfi_startproc
 2514              		@ args = 0, pretend = 0, frame = 0
 2515              		@ frame_needed = 0, uses_anonymous_args = 0
 2516              		@ link register save eliminated.
1431:Core/Src/vl53l0x_api.c **** 	VL53L0X_Error Status = VL53L0X_ERROR_NONE;
 2517              		.loc 1 1431 2 view .LVU732
1432:Core/Src/vl53l0x_api.c **** 	uint8_t Temp8;
 2518              		.loc 1 1432 2 view .LVU733
1433:Core/Src/vl53l0x_api.c **** 	LOG_FUNCTION_START("");
 2519              		.loc 1 1433 2 view .LVU734
1434:Core/Src/vl53l0x_api.c **** 
1435:Core/Src/vl53l0x_api.c **** 	VL53L0X_GETPARAMETERFIELD(Dev, XTalkCompensationEnable, Temp8);
 2520              		.loc 1 1435 2 view .LVU735
 2521 0000 037F     		ldrb	r3, [r0, #28]	@ zero_extendqisi2
 2522              	.LVL244:
1436:Core/Src/vl53l0x_api.c **** 	*pXTalkCompensationEnable = Temp8;
 2523              		.loc 1 1436 2 view .LVU736
 2524              		.loc 1 1436 28 is_stmt 0 view .LVU737
 2525 0002 0B70     		strb	r3, [r1]
1437:Core/Src/vl53l0x_api.c **** 
1438:Core/Src/vl53l0x_api.c **** 	LOG_FUNCTION_END(Status);
 2526              		.loc 1 1438 2 is_stmt 1 view .LVU738
1439:Core/Src/vl53l0x_api.c **** 	return Status;
 2527              		.loc 1 1439 2 view .LVU739
1440:Core/Src/vl53l0x_api.c **** }
 2528              		.loc 1 1440 1 is_stmt 0 view .LVU740
 2529 0004 0020     		movs	r0, #0
 2530              	.LVL245:
 2531              		.loc 1 1440 1 view .LVU741
 2532 0006 7047     		bx	lr
 2533              		.cfi_endproc
 2534              	.LFE182:
 2536              		.section	.text.VL53L0X_SetXTalkCompensationRateMegaCps,"ax",%progbits
 2537              		.align	1
 2538              		.global	VL53L0X_SetXTalkCompensationRateMegaCps
 2539              		.syntax unified
 2540              		.thumb
 2541              		.thumb_func
 2542              		.fpu fpv4-sp-d16
 2544              	VL53L0X_SetXTalkCompensationRateMegaCps:
 2545              	.LVL246:
 2546              	.LFB183:
1441:Core/Src/vl53l0x_api.c **** 
ARM GAS  C:\Users\anmh1\AppData\Local\Temp\ccBPLcM2.s 			page 71


1442:Core/Src/vl53l0x_api.c **** VL53L0X_Error VL53L0X_SetXTalkCompensationRateMegaCps(VL53L0X_DEV Dev,
1443:Core/Src/vl53l0x_api.c **** 	FixPoint1616_t XTalkCompensationRateMegaCps)
1444:Core/Src/vl53l0x_api.c **** {
 2547              		.loc 1 1444 1 is_stmt 1 view -0
 2548              		.cfi_startproc
 2549              		@ args = 0, pretend = 0, frame = 0
 2550              		@ frame_needed = 0, uses_anonymous_args = 0
 2551              		.loc 1 1444 1 is_stmt 0 view .LVU743
 2552 0000 38B5     		push	{r3, r4, r5, lr}
 2553              		.cfi_def_cfa_offset 16
 2554              		.cfi_offset 3, -16
 2555              		.cfi_offset 4, -12
 2556              		.cfi_offset 5, -8
 2557              		.cfi_offset 14, -4
 2558 0002 0446     		mov	r4, r0
 2559 0004 0D46     		mov	r5, r1
1445:Core/Src/vl53l0x_api.c **** 	VL53L0X_Error Status = VL53L0X_ERROR_NONE;
 2560              		.loc 1 1445 2 is_stmt 1 view .LVU744
 2561              	.LVL247:
1446:Core/Src/vl53l0x_api.c **** 	uint8_t Temp8;
 2562              		.loc 1 1446 2 view .LVU745
1447:Core/Src/vl53l0x_api.c **** 	uint16_t LinearityCorrectiveGain;
 2563              		.loc 1 1447 2 view .LVU746
1448:Core/Src/vl53l0x_api.c **** 	uint16_t data;
 2564              		.loc 1 1448 2 view .LVU747
1449:Core/Src/vl53l0x_api.c **** 	LOG_FUNCTION_START("");
 2565              		.loc 1 1449 2 view .LVU748
1450:Core/Src/vl53l0x_api.c **** 
1451:Core/Src/vl53l0x_api.c **** 	VL53L0X_GETPARAMETERFIELD(Dev, XTalkCompensationEnable, Temp8);
 2566              		.loc 1 1451 2 view .LVU749
 2567 0006 037F     		ldrb	r3, [r0, #28]	@ zero_extendqisi2
 2568              	.LVL248:
1452:Core/Src/vl53l0x_api.c **** 	LinearityCorrectiveGain = PALDevDataGet(Dev, LinearityCorrectiveGain);
 2569              		.loc 1 1452 2 view .LVU750
 2570              		.loc 1 1452 26 is_stmt 0 view .LVU751
 2571 0008 B0F85221 		ldrh	r2, [r0, #338]
 2572              	.LVL249:
1453:Core/Src/vl53l0x_api.c **** 
1454:Core/Src/vl53l0x_api.c **** 	if (Temp8 == 0) { /* disabled write only internal value */
 2573              		.loc 1 1454 2 is_stmt 1 view .LVU752
 2574              		.loc 1 1454 5 is_stmt 0 view .LVU753
 2575 000c 13B9     		cbnz	r3, .L163
1455:Core/Src/vl53l0x_api.c **** 		VL53L0X_SETPARAMETERFIELD(Dev, XTalkCompensationRateMegaCps,
 2576              		.loc 1 1455 3 is_stmt 1 view .LVU754
 2577 000e 2162     		str	r1, [r4, #32]
1445:Core/Src/vl53l0x_api.c **** 	uint8_t Temp8;
 2578              		.loc 1 1445 16 is_stmt 0 view .LVU755
 2579 0010 0020     		movs	r0, #0
 2580              	.LVL250:
 2581              	.L164:
1456:Core/Src/vl53l0x_api.c **** 			XTalkCompensationRateMegaCps);
1457:Core/Src/vl53l0x_api.c **** 	} else {
1458:Core/Src/vl53l0x_api.c **** 		/* the following register has a format 3.13 */
1459:Core/Src/vl53l0x_api.c **** 		if (LinearityCorrectiveGain == 1000) {
1460:Core/Src/vl53l0x_api.c **** 			data = VL53L0X_FIXPOINT1616TOFIXPOINT313(
1461:Core/Src/vl53l0x_api.c **** 				XTalkCompensationRateMegaCps);
1462:Core/Src/vl53l0x_api.c **** 		} else {
ARM GAS  C:\Users\anmh1\AppData\Local\Temp\ccBPLcM2.s 			page 72


1463:Core/Src/vl53l0x_api.c **** 			data = 0;
1464:Core/Src/vl53l0x_api.c **** 		}
1465:Core/Src/vl53l0x_api.c **** 
1466:Core/Src/vl53l0x_api.c **** 		Status = VL53L0X_WrWord(Dev,
1467:Core/Src/vl53l0x_api.c **** 		VL53L0X_REG_CROSSTALK_COMPENSATION_PEAK_RATE_MCPS, data);
1468:Core/Src/vl53l0x_api.c **** 
1469:Core/Src/vl53l0x_api.c **** 		if (Status == VL53L0X_ERROR_NONE) {
1470:Core/Src/vl53l0x_api.c **** 			VL53L0X_SETPARAMETERFIELD(Dev,
1471:Core/Src/vl53l0x_api.c **** 				XTalkCompensationRateMegaCps,
1472:Core/Src/vl53l0x_api.c **** 				XTalkCompensationRateMegaCps);
1473:Core/Src/vl53l0x_api.c **** 		}
1474:Core/Src/vl53l0x_api.c **** 	}
1475:Core/Src/vl53l0x_api.c **** 
1476:Core/Src/vl53l0x_api.c **** 	LOG_FUNCTION_END(Status);
 2582              		.loc 1 1476 2 is_stmt 1 view .LVU756
1477:Core/Src/vl53l0x_api.c **** 	return Status;
 2583              		.loc 1 1477 2 view .LVU757
1478:Core/Src/vl53l0x_api.c **** }
 2584              		.loc 1 1478 1 is_stmt 0 view .LVU758
 2585 0012 38BD     		pop	{r3, r4, r5, pc}
 2586              	.LVL251:
 2587              	.L163:
1459:Core/Src/vl53l0x_api.c **** 			data = VL53L0X_FIXPOINT1616TOFIXPOINT313(
 2588              		.loc 1 1459 3 is_stmt 1 view .LVU759
1459:Core/Src/vl53l0x_api.c **** 			data = VL53L0X_FIXPOINT1616TOFIXPOINT313(
 2589              		.loc 1 1459 6 is_stmt 0 view .LVU760
 2590 0014 B2F57A7F 		cmp	r2, #1000
 2591 0018 08D0     		beq	.L168
1463:Core/Src/vl53l0x_api.c **** 		}
 2592              		.loc 1 1463 9 view .LVU761
 2593 001a 0022     		movs	r2, #0
 2594              	.LVL252:
 2595              	.L165:
1466:Core/Src/vl53l0x_api.c **** 		VL53L0X_REG_CROSSTALK_COMPENSATION_PEAK_RATE_MCPS, data);
 2596              		.loc 1 1466 3 is_stmt 1 view .LVU762
1466:Core/Src/vl53l0x_api.c **** 		VL53L0X_REG_CROSSTALK_COMPENSATION_PEAK_RATE_MCPS, data);
 2597              		.loc 1 1466 12 is_stmt 0 view .LVU763
 2598 001c 2021     		movs	r1, #32
 2599              	.LVL253:
1466:Core/Src/vl53l0x_api.c **** 		VL53L0X_REG_CROSSTALK_COMPENSATION_PEAK_RATE_MCPS, data);
 2600              		.loc 1 1466 12 view .LVU764
 2601 001e 2046     		mov	r0, r4
 2602              	.LVL254:
1466:Core/Src/vl53l0x_api.c **** 		VL53L0X_REG_CROSSTALK_COMPENSATION_PEAK_RATE_MCPS, data);
 2603              		.loc 1 1466 12 view .LVU765
 2604 0020 FFF7FEFF 		bl	VL53L0X_WrWord
 2605              	.LVL255:
1469:Core/Src/vl53l0x_api.c **** 			VL53L0X_SETPARAMETERFIELD(Dev,
 2606              		.loc 1 1469 3 is_stmt 1 view .LVU766
1469:Core/Src/vl53l0x_api.c **** 			VL53L0X_SETPARAMETERFIELD(Dev,
 2607              		.loc 1 1469 6 is_stmt 0 view .LVU767
 2608 0024 0028     		cmp	r0, #0
 2609 0026 F4D1     		bne	.L164
1470:Core/Src/vl53l0x_api.c **** 				XTalkCompensationRateMegaCps,
 2610              		.loc 1 1470 4 is_stmt 1 view .LVU768
 2611 0028 2562     		str	r5, [r4, #32]
 2612 002a F2E7     		b	.L164
ARM GAS  C:\Users\anmh1\AppData\Local\Temp\ccBPLcM2.s 			page 73


 2613              	.LVL256:
 2614              	.L168:
1460:Core/Src/vl53l0x_api.c **** 				XTalkCompensationRateMegaCps);
 2615              		.loc 1 1460 4 view .LVU769
1460:Core/Src/vl53l0x_api.c **** 				XTalkCompensationRateMegaCps);
 2616              		.loc 1 1460 9 is_stmt 0 view .LVU770
 2617 002c C1F3CF02 		ubfx	r2, r1, #3, #16
 2618              	.LVL257:
1460:Core/Src/vl53l0x_api.c **** 				XTalkCompensationRateMegaCps);
 2619              		.loc 1 1460 9 view .LVU771
 2620 0030 F4E7     		b	.L165
 2621              		.cfi_endproc
 2622              	.LFE183:
 2624              		.section	.text.VL53L0X_GetXTalkCompensationRateMegaCps,"ax",%progbits
 2625              		.align	1
 2626              		.global	VL53L0X_GetXTalkCompensationRateMegaCps
 2627              		.syntax unified
 2628              		.thumb
 2629              		.thumb_func
 2630              		.fpu fpv4-sp-d16
 2632              	VL53L0X_GetXTalkCompensationRateMegaCps:
 2633              	.LVL258:
 2634              	.LFB184:
1479:Core/Src/vl53l0x_api.c **** 
1480:Core/Src/vl53l0x_api.c **** VL53L0X_Error VL53L0X_GetXTalkCompensationRateMegaCps(VL53L0X_DEV Dev,
1481:Core/Src/vl53l0x_api.c **** 	FixPoint1616_t *pXTalkCompensationRateMegaCps)
1482:Core/Src/vl53l0x_api.c **** {
 2635              		.loc 1 1482 1 is_stmt 1 view -0
 2636              		.cfi_startproc
 2637              		@ args = 0, pretend = 0, frame = 8
 2638              		@ frame_needed = 0, uses_anonymous_args = 0
 2639              		.loc 1 1482 1 is_stmt 0 view .LVU773
 2640 0000 30B5     		push	{r4, r5, lr}
 2641              		.cfi_def_cfa_offset 12
 2642              		.cfi_offset 4, -12
 2643              		.cfi_offset 5, -8
 2644              		.cfi_offset 14, -4
 2645 0002 83B0     		sub	sp, sp, #12
 2646              		.cfi_def_cfa_offset 24
 2647 0004 0446     		mov	r4, r0
 2648 0006 0D46     		mov	r5, r1
1483:Core/Src/vl53l0x_api.c **** 	VL53L0X_Error Status = VL53L0X_ERROR_NONE;
 2649              		.loc 1 1483 2 is_stmt 1 view .LVU774
 2650              	.LVL259:
1484:Core/Src/vl53l0x_api.c **** 	uint16_t Value;
 2651              		.loc 1 1484 2 view .LVU775
1485:Core/Src/vl53l0x_api.c **** 	FixPoint1616_t TempFix1616;
 2652              		.loc 1 1485 2 view .LVU776
1486:Core/Src/vl53l0x_api.c **** 
1487:Core/Src/vl53l0x_api.c **** 	LOG_FUNCTION_START("");
 2653              		.loc 1 1487 2 view .LVU777
1488:Core/Src/vl53l0x_api.c **** 
1489:Core/Src/vl53l0x_api.c **** 	Status = VL53L0X_RdWord(Dev,
 2654              		.loc 1 1489 2 view .LVU778
 2655              		.loc 1 1489 11 is_stmt 0 view .LVU779
 2656 0008 0DF10602 		add	r2, sp, #6
 2657 000c 2021     		movs	r1, #32
ARM GAS  C:\Users\anmh1\AppData\Local\Temp\ccBPLcM2.s 			page 74


 2658              	.LVL260:
 2659              		.loc 1 1489 11 view .LVU780
 2660 000e FFF7FEFF 		bl	VL53L0X_RdWord
 2661              	.LVL261:
1490:Core/Src/vl53l0x_api.c **** 	VL53L0X_REG_CROSSTALK_COMPENSATION_PEAK_RATE_MCPS, (uint16_t *)&Value);
1491:Core/Src/vl53l0x_api.c **** 	if (Status == VL53L0X_ERROR_NONE) {
 2662              		.loc 1 1491 2 is_stmt 1 view .LVU781
 2663              		.loc 1 1491 5 is_stmt 0 view .LVU782
 2664 0012 30B9     		cbnz	r0, .L170
1492:Core/Src/vl53l0x_api.c **** 		if (Value == 0) {
 2665              		.loc 1 1492 3 is_stmt 1 view .LVU783
 2666              		.loc 1 1492 13 is_stmt 0 view .LVU784
 2667 0014 BDF80630 		ldrh	r3, [sp, #6]
 2668              		.loc 1 1492 6 view .LVU785
 2669 0018 2BB9     		cbnz	r3, .L171
1493:Core/Src/vl53l0x_api.c **** 			/* the Xtalk is disabled return value from memory */
1494:Core/Src/vl53l0x_api.c **** 			VL53L0X_GETPARAMETERFIELD(Dev,
 2670              		.loc 1 1494 4 is_stmt 1 view .LVU786
 2671 001a 236A     		ldr	r3, [r4, #32]
 2672              	.LVL262:
1495:Core/Src/vl53l0x_api.c **** 				XTalkCompensationRateMegaCps, TempFix1616);
1496:Core/Src/vl53l0x_api.c **** 			*pXTalkCompensationRateMegaCps = TempFix1616;
 2673              		.loc 1 1496 4 view .LVU787
 2674              		.loc 1 1496 35 is_stmt 0 view .LVU788
 2675 001c 2B60     		str	r3, [r5]
1497:Core/Src/vl53l0x_api.c **** 			VL53L0X_SETPARAMETERFIELD(Dev, XTalkCompensationEnable,
 2676              		.loc 1 1497 4 is_stmt 1 view .LVU789
 2677 001e 0023     		movs	r3, #0
 2678              	.LVL263:
 2679              		.loc 1 1497 4 is_stmt 0 view .LVU790
 2680 0020 2377     		strb	r3, [r4, #28]
 2681              	.LVL264:
 2682              	.L170:
1498:Core/Src/vl53l0x_api.c **** 				0);
1499:Core/Src/vl53l0x_api.c **** 		} else {
1500:Core/Src/vl53l0x_api.c **** 			TempFix1616 = VL53L0X_FIXPOINT313TOFIXPOINT1616(Value);
1501:Core/Src/vl53l0x_api.c **** 			*pXTalkCompensationRateMegaCps = TempFix1616;
1502:Core/Src/vl53l0x_api.c **** 			VL53L0X_SETPARAMETERFIELD(Dev,
1503:Core/Src/vl53l0x_api.c **** 				XTalkCompensationRateMegaCps, TempFix1616);
1504:Core/Src/vl53l0x_api.c **** 			VL53L0X_SETPARAMETERFIELD(Dev, XTalkCompensationEnable,
1505:Core/Src/vl53l0x_api.c **** 				1);
1506:Core/Src/vl53l0x_api.c **** 		}
1507:Core/Src/vl53l0x_api.c **** 	}
1508:Core/Src/vl53l0x_api.c **** 
1509:Core/Src/vl53l0x_api.c **** 	LOG_FUNCTION_END(Status);
 2683              		.loc 1 1509 2 is_stmt 1 view .LVU791
1510:Core/Src/vl53l0x_api.c **** 	return Status;
 2684              		.loc 1 1510 2 view .LVU792
1511:Core/Src/vl53l0x_api.c **** }
 2685              		.loc 1 1511 1 is_stmt 0 view .LVU793
 2686 0022 03B0     		add	sp, sp, #12
 2687              		.cfi_remember_state
 2688              		.cfi_def_cfa_offset 12
 2689              		@ sp needed
 2690 0024 30BD     		pop	{r4, r5, pc}
 2691              	.LVL265:
 2692              	.L171:
ARM GAS  C:\Users\anmh1\AppData\Local\Temp\ccBPLcM2.s 			page 75


 2693              		.cfi_restore_state
1500:Core/Src/vl53l0x_api.c **** 			*pXTalkCompensationRateMegaCps = TempFix1616;
 2694              		.loc 1 1500 4 is_stmt 1 view .LVU794
1500:Core/Src/vl53l0x_api.c **** 			*pXTalkCompensationRateMegaCps = TempFix1616;
 2695              		.loc 1 1500 18 is_stmt 0 view .LVU795
 2696 0026 DB00     		lsls	r3, r3, #3
 2697              	.LVL266:
1501:Core/Src/vl53l0x_api.c **** 			VL53L0X_SETPARAMETERFIELD(Dev,
 2698              		.loc 1 1501 4 is_stmt 1 view .LVU796
1501:Core/Src/vl53l0x_api.c **** 			VL53L0X_SETPARAMETERFIELD(Dev,
 2699              		.loc 1 1501 35 is_stmt 0 view .LVU797
 2700 0028 2B60     		str	r3, [r5]
1502:Core/Src/vl53l0x_api.c **** 				XTalkCompensationRateMegaCps, TempFix1616);
 2701              		.loc 1 1502 4 is_stmt 1 view .LVU798
 2702 002a 2362     		str	r3, [r4, #32]
1504:Core/Src/vl53l0x_api.c **** 				1);
 2703              		.loc 1 1504 4 view .LVU799
 2704 002c 0123     		movs	r3, #1
 2705              	.LVL267:
1504:Core/Src/vl53l0x_api.c **** 				1);
 2706              		.loc 1 1504 4 is_stmt 0 view .LVU800
 2707 002e 2377     		strb	r3, [r4, #28]
 2708 0030 F7E7     		b	.L170
 2709              		.cfi_endproc
 2710              	.LFE184:
 2712              		.section	.text.VL53L0X_SetRefCalibration,"ax",%progbits
 2713              		.align	1
 2714              		.global	VL53L0X_SetRefCalibration
 2715              		.syntax unified
 2716              		.thumb
 2717              		.thumb_func
 2718              		.fpu fpv4-sp-d16
 2720              	VL53L0X_SetRefCalibration:
 2721              	.LVL268:
 2722              	.LFB185:
1512:Core/Src/vl53l0x_api.c **** 
1513:Core/Src/vl53l0x_api.c **** VL53L0X_Error VL53L0X_SetRefCalibration(VL53L0X_DEV Dev, uint8_t VhvSettings,
1514:Core/Src/vl53l0x_api.c **** 	uint8_t PhaseCal)
1515:Core/Src/vl53l0x_api.c **** {
 2723              		.loc 1 1515 1 is_stmt 1 view -0
 2724              		.cfi_startproc
 2725              		@ args = 0, pretend = 0, frame = 0
 2726              		@ frame_needed = 0, uses_anonymous_args = 0
 2727              		.loc 1 1515 1 is_stmt 0 view .LVU802
 2728 0000 08B5     		push	{r3, lr}
 2729              		.cfi_def_cfa_offset 8
 2730              		.cfi_offset 3, -8
 2731              		.cfi_offset 14, -4
1516:Core/Src/vl53l0x_api.c **** 	VL53L0X_Error Status = VL53L0X_ERROR_NONE;
 2732              		.loc 1 1516 2 is_stmt 1 view .LVU803
 2733              	.LVL269:
1517:Core/Src/vl53l0x_api.c **** 	LOG_FUNCTION_START("");
 2734              		.loc 1 1517 2 view .LVU804
1518:Core/Src/vl53l0x_api.c **** 
1519:Core/Src/vl53l0x_api.c **** 	Status = VL53L0X_set_ref_calibration(Dev, VhvSettings, PhaseCal);
 2735              		.loc 1 1519 2 view .LVU805
 2736              		.loc 1 1519 11 is_stmt 0 view .LVU806
ARM GAS  C:\Users\anmh1\AppData\Local\Temp\ccBPLcM2.s 			page 76


 2737 0002 FFF7FEFF 		bl	VL53L0X_set_ref_calibration
 2738              	.LVL270:
1520:Core/Src/vl53l0x_api.c **** 
1521:Core/Src/vl53l0x_api.c **** 	LOG_FUNCTION_END(Status);
 2739              		.loc 1 1521 2 is_stmt 1 view .LVU807
1522:Core/Src/vl53l0x_api.c **** 	return Status;
 2740              		.loc 1 1522 2 view .LVU808
1523:Core/Src/vl53l0x_api.c **** }
 2741              		.loc 1 1523 1 is_stmt 0 view .LVU809
 2742 0006 08BD     		pop	{r3, pc}
 2743              		.cfi_endproc
 2744              	.LFE185:
 2746              		.section	.text.VL53L0X_GetRefCalibration,"ax",%progbits
 2747              		.align	1
 2748              		.global	VL53L0X_GetRefCalibration
 2749              		.syntax unified
 2750              		.thumb
 2751              		.thumb_func
 2752              		.fpu fpv4-sp-d16
 2754              	VL53L0X_GetRefCalibration:
 2755              	.LVL271:
 2756              	.LFB186:
1524:Core/Src/vl53l0x_api.c **** 
1525:Core/Src/vl53l0x_api.c **** VL53L0X_Error VL53L0X_GetRefCalibration(VL53L0X_DEV Dev, uint8_t *pVhvSettings,
1526:Core/Src/vl53l0x_api.c **** 	uint8_t *pPhaseCal)
1527:Core/Src/vl53l0x_api.c **** {
 2757              		.loc 1 1527 1 is_stmt 1 view -0
 2758              		.cfi_startproc
 2759              		@ args = 0, pretend = 0, frame = 0
 2760              		@ frame_needed = 0, uses_anonymous_args = 0
 2761              		.loc 1 1527 1 is_stmt 0 view .LVU811
 2762 0000 08B5     		push	{r3, lr}
 2763              		.cfi_def_cfa_offset 8
 2764              		.cfi_offset 3, -8
 2765              		.cfi_offset 14, -4
1528:Core/Src/vl53l0x_api.c **** 	VL53L0X_Error Status = VL53L0X_ERROR_NONE;
 2766              		.loc 1 1528 2 is_stmt 1 view .LVU812
 2767              	.LVL272:
1529:Core/Src/vl53l0x_api.c **** 	LOG_FUNCTION_START("");
 2768              		.loc 1 1529 2 view .LVU813
1530:Core/Src/vl53l0x_api.c **** 
1531:Core/Src/vl53l0x_api.c **** 	Status = VL53L0X_get_ref_calibration(Dev, pVhvSettings, pPhaseCal);
 2769              		.loc 1 1531 2 view .LVU814
 2770              		.loc 1 1531 11 is_stmt 0 view .LVU815
 2771 0002 FFF7FEFF 		bl	VL53L0X_get_ref_calibration
 2772              	.LVL273:
1532:Core/Src/vl53l0x_api.c **** 
1533:Core/Src/vl53l0x_api.c **** 	LOG_FUNCTION_END(Status);
 2773              		.loc 1 1533 2 is_stmt 1 view .LVU816
1534:Core/Src/vl53l0x_api.c **** 	return Status;
 2774              		.loc 1 1534 2 view .LVU817
1535:Core/Src/vl53l0x_api.c **** }
 2775              		.loc 1 1535 1 is_stmt 0 view .LVU818
 2776 0006 08BD     		pop	{r3, pc}
 2777              		.cfi_endproc
 2778              	.LFE186:
 2780              		.section	.text.VL53L0X_GetNumberOfLimitCheck,"ax",%progbits
ARM GAS  C:\Users\anmh1\AppData\Local\Temp\ccBPLcM2.s 			page 77


 2781              		.align	1
 2782              		.global	VL53L0X_GetNumberOfLimitCheck
 2783              		.syntax unified
 2784              		.thumb
 2785              		.thumb_func
 2786              		.fpu fpv4-sp-d16
 2788              	VL53L0X_GetNumberOfLimitCheck:
 2789              	.LVL274:
 2790              	.LFB187:
1536:Core/Src/vl53l0x_api.c **** 
1537:Core/Src/vl53l0x_api.c **** /*
1538:Core/Src/vl53l0x_api.c ****  * CHECK LIMIT FUNCTIONS
1539:Core/Src/vl53l0x_api.c ****  */
1540:Core/Src/vl53l0x_api.c **** 
1541:Core/Src/vl53l0x_api.c **** VL53L0X_Error VL53L0X_GetNumberOfLimitCheck(uint16_t *pNumberOfLimitCheck)
1542:Core/Src/vl53l0x_api.c **** {
 2791              		.loc 1 1542 1 is_stmt 1 view -0
 2792              		.cfi_startproc
 2793              		@ args = 0, pretend = 0, frame = 0
 2794              		@ frame_needed = 0, uses_anonymous_args = 0
 2795              		@ link register save eliminated.
1543:Core/Src/vl53l0x_api.c **** 	VL53L0X_Error Status = VL53L0X_ERROR_NONE;
 2796              		.loc 1 1543 2 view .LVU820
1544:Core/Src/vl53l0x_api.c **** 	LOG_FUNCTION_START("");
 2797              		.loc 1 1544 2 view .LVU821
1545:Core/Src/vl53l0x_api.c **** 
1546:Core/Src/vl53l0x_api.c **** 	*pNumberOfLimitCheck = VL53L0X_CHECKENABLE_NUMBER_OF_CHECKS;
 2798              		.loc 1 1546 2 view .LVU822
 2799              		.loc 1 1546 23 is_stmt 0 view .LVU823
 2800 0000 0623     		movs	r3, #6
 2801 0002 0380     		strh	r3, [r0]	@ movhi
1547:Core/Src/vl53l0x_api.c **** 
1548:Core/Src/vl53l0x_api.c **** 	LOG_FUNCTION_END(Status);
 2802              		.loc 1 1548 2 is_stmt 1 view .LVU824
1549:Core/Src/vl53l0x_api.c **** 	return Status;
 2803              		.loc 1 1549 2 view .LVU825
1550:Core/Src/vl53l0x_api.c **** }
 2804              		.loc 1 1550 1 is_stmt 0 view .LVU826
 2805 0004 0020     		movs	r0, #0
 2806              	.LVL275:
 2807              		.loc 1 1550 1 view .LVU827
 2808 0006 7047     		bx	lr
 2809              		.cfi_endproc
 2810              	.LFE187:
 2812              		.section	.text.VL53L0X_GetLimitCheckInfo,"ax",%progbits
 2813              		.align	1
 2814              		.global	VL53L0X_GetLimitCheckInfo
 2815              		.syntax unified
 2816              		.thumb
 2817              		.thumb_func
 2818              		.fpu fpv4-sp-d16
 2820              	VL53L0X_GetLimitCheckInfo:
 2821              	.LVL276:
 2822              	.LFB188:
1551:Core/Src/vl53l0x_api.c **** 
1552:Core/Src/vl53l0x_api.c **** VL53L0X_Error VL53L0X_GetLimitCheckInfo(VL53L0X_DEV Dev, uint16_t LimitCheckId,
1553:Core/Src/vl53l0x_api.c **** 	char *pLimitCheckString)
ARM GAS  C:\Users\anmh1\AppData\Local\Temp\ccBPLcM2.s 			page 78


1554:Core/Src/vl53l0x_api.c **** {
 2823              		.loc 1 1554 1 is_stmt 1 view -0
 2824              		.cfi_startproc
 2825              		@ args = 0, pretend = 0, frame = 0
 2826              		@ frame_needed = 0, uses_anonymous_args = 0
 2827              		.loc 1 1554 1 is_stmt 0 view .LVU829
 2828 0000 08B5     		push	{r3, lr}
 2829              		.cfi_def_cfa_offset 8
 2830              		.cfi_offset 3, -8
 2831              		.cfi_offset 14, -4
1555:Core/Src/vl53l0x_api.c **** 	VL53L0X_Error Status = VL53L0X_ERROR_NONE;
 2832              		.loc 1 1555 2 is_stmt 1 view .LVU830
 2833              	.LVL277:
1556:Core/Src/vl53l0x_api.c **** 
1557:Core/Src/vl53l0x_api.c **** 	LOG_FUNCTION_START("");
 2834              		.loc 1 1557 2 view .LVU831
1558:Core/Src/vl53l0x_api.c **** 
1559:Core/Src/vl53l0x_api.c **** 	Status = VL53L0X_get_limit_check_info(Dev, LimitCheckId,
 2835              		.loc 1 1559 2 view .LVU832
 2836              		.loc 1 1559 11 is_stmt 0 view .LVU833
 2837 0002 FFF7FEFF 		bl	VL53L0X_get_limit_check_info
 2838              	.LVL278:
1560:Core/Src/vl53l0x_api.c **** 		pLimitCheckString);
1561:Core/Src/vl53l0x_api.c **** 
1562:Core/Src/vl53l0x_api.c **** 	LOG_FUNCTION_END(Status);
 2839              		.loc 1 1562 2 is_stmt 1 view .LVU834
1563:Core/Src/vl53l0x_api.c **** 	return Status;
 2840              		.loc 1 1563 2 view .LVU835
1564:Core/Src/vl53l0x_api.c **** }
 2841              		.loc 1 1564 1 is_stmt 0 view .LVU836
 2842 0006 08BD     		pop	{r3, pc}
 2843              		.cfi_endproc
 2844              	.LFE188:
 2846              		.section	.text.VL53L0X_GetLimitCheckStatus,"ax",%progbits
 2847              		.align	1
 2848              		.global	VL53L0X_GetLimitCheckStatus
 2849              		.syntax unified
 2850              		.thumb
 2851              		.thumb_func
 2852              		.fpu fpv4-sp-d16
 2854              	VL53L0X_GetLimitCheckStatus:
 2855              	.LVL279:
 2856              	.LFB189:
1565:Core/Src/vl53l0x_api.c **** 
1566:Core/Src/vl53l0x_api.c **** VL53L0X_Error VL53L0X_GetLimitCheckStatus(VL53L0X_DEV Dev, uint16_t LimitCheckId,
1567:Core/Src/vl53l0x_api.c **** 	uint8_t *pLimitCheckStatus)
1568:Core/Src/vl53l0x_api.c **** {
 2857              		.loc 1 1568 1 is_stmt 1 view -0
 2858              		.cfi_startproc
 2859              		@ args = 0, pretend = 0, frame = 0
 2860              		@ frame_needed = 0, uses_anonymous_args = 0
 2861              		@ link register save eliminated.
1569:Core/Src/vl53l0x_api.c **** 	VL53L0X_Error Status = VL53L0X_ERROR_NONE;
 2862              		.loc 1 1569 2 view .LVU838
1570:Core/Src/vl53l0x_api.c **** 	uint8_t Temp8;
 2863              		.loc 1 1570 2 view .LVU839
1571:Core/Src/vl53l0x_api.c **** 
ARM GAS  C:\Users\anmh1\AppData\Local\Temp\ccBPLcM2.s 			page 79


1572:Core/Src/vl53l0x_api.c **** 	LOG_FUNCTION_START("");
 2864              		.loc 1 1572 2 view .LVU840
1573:Core/Src/vl53l0x_api.c **** 
1574:Core/Src/vl53l0x_api.c **** 	if (LimitCheckId >= VL53L0X_CHECKENABLE_NUMBER_OF_CHECKS) {
 2865              		.loc 1 1574 2 view .LVU841
 2866              		.loc 1 1574 5 is_stmt 0 view .LVU842
 2867 0000 0529     		cmp	r1, #5
 2868 0002 05D8     		bhi	.L182
1575:Core/Src/vl53l0x_api.c **** 		Status = VL53L0X_ERROR_INVALID_PARAMS;
1576:Core/Src/vl53l0x_api.c **** 	} else {
1577:Core/Src/vl53l0x_api.c **** 
1578:Core/Src/vl53l0x_api.c **** 		VL53L0X_GETARRAYPARAMETERFIELD(Dev, LimitChecksStatus,
 2869              		.loc 1 1578 3 is_stmt 1 view .LVU843
 2870 0004 0844     		add	r0, r0, r1
 2871              	.LVL280:
 2872              		.loc 1 1578 3 is_stmt 0 view .LVU844
 2873 0006 90F82E30 		ldrb	r3, [r0, #46]	@ zero_extendqisi2
 2874              	.LVL281:
1579:Core/Src/vl53l0x_api.c **** 			LimitCheckId, Temp8);
1580:Core/Src/vl53l0x_api.c **** 
1581:Core/Src/vl53l0x_api.c **** 		*pLimitCheckStatus = Temp8;
 2875              		.loc 1 1581 3 is_stmt 1 view .LVU845
 2876              		.loc 1 1581 22 is_stmt 0 view .LVU846
 2877 000a 1370     		strb	r3, [r2]
1569:Core/Src/vl53l0x_api.c **** 	uint8_t Temp8;
 2878              		.loc 1 1569 16 view .LVU847
 2879 000c 0020     		movs	r0, #0
 2880 000e 7047     		bx	lr
 2881              	.LVL282:
 2882              	.L182:
1575:Core/Src/vl53l0x_api.c **** 		Status = VL53L0X_ERROR_INVALID_PARAMS;
 2883              		.loc 1 1575 10 view .LVU848
 2884 0010 6FF00300 		mvn	r0, #3
 2885              	.LVL283:
1582:Core/Src/vl53l0x_api.c **** 
1583:Core/Src/vl53l0x_api.c **** 	}
1584:Core/Src/vl53l0x_api.c **** 
1585:Core/Src/vl53l0x_api.c **** 	LOG_FUNCTION_END(Status);
 2886              		.loc 1 1585 2 is_stmt 1 view .LVU849
1586:Core/Src/vl53l0x_api.c **** 	return Status;
 2887              		.loc 1 1586 2 view .LVU850
1587:Core/Src/vl53l0x_api.c **** }
 2888              		.loc 1 1587 1 is_stmt 0 view .LVU851
 2889 0014 7047     		bx	lr
 2890              		.cfi_endproc
 2891              	.LFE189:
 2893              		.section	.text.VL53L0X_SetLimitCheckEnable,"ax",%progbits
 2894              		.align	1
 2895              		.global	VL53L0X_SetLimitCheckEnable
 2896              		.syntax unified
 2897              		.thumb
 2898              		.thumb_func
 2899              		.fpu fpv4-sp-d16
 2901              	VL53L0X_SetLimitCheckEnable:
 2902              	.LVL284:
 2903              	.LFB190:
1588:Core/Src/vl53l0x_api.c **** 
ARM GAS  C:\Users\anmh1\AppData\Local\Temp\ccBPLcM2.s 			page 80


1589:Core/Src/vl53l0x_api.c **** VL53L0X_Error VL53L0X_SetLimitCheckEnable(VL53L0X_DEV Dev, uint16_t LimitCheckId,
1590:Core/Src/vl53l0x_api.c **** 	uint8_t LimitCheckEnable)
1591:Core/Src/vl53l0x_api.c **** {
 2904              		.loc 1 1591 1 is_stmt 1 view -0
 2905              		.cfi_startproc
 2906              		@ args = 0, pretend = 0, frame = 0
 2907              		@ frame_needed = 0, uses_anonymous_args = 0
1592:Core/Src/vl53l0x_api.c **** 	VL53L0X_Error Status = VL53L0X_ERROR_NONE;
 2908              		.loc 1 1592 2 view .LVU853
1593:Core/Src/vl53l0x_api.c **** 	FixPoint1616_t TempFix1616 = 0;
 2909              		.loc 1 1593 2 view .LVU854
1594:Core/Src/vl53l0x_api.c **** 	uint8_t LimitCheckEnableInt = 0;
 2910              		.loc 1 1594 2 view .LVU855
1595:Core/Src/vl53l0x_api.c **** 	uint8_t LimitCheckDisable = 0;
 2911              		.loc 1 1595 2 view .LVU856
1596:Core/Src/vl53l0x_api.c **** 	uint8_t Temp8;
 2912              		.loc 1 1596 2 view .LVU857
1597:Core/Src/vl53l0x_api.c **** 
1598:Core/Src/vl53l0x_api.c **** 	LOG_FUNCTION_START("");
 2913              		.loc 1 1598 2 view .LVU858
1599:Core/Src/vl53l0x_api.c **** 
1600:Core/Src/vl53l0x_api.c **** 	if (LimitCheckId >= VL53L0X_CHECKENABLE_NUMBER_OF_CHECKS) {
 2914              		.loc 1 1600 2 view .LVU859
 2915              		.loc 1 1600 5 is_stmt 0 view .LVU860
 2916 0000 0529     		cmp	r1, #5
 2917 0002 42D8     		bhi	.L196
1591:Core/Src/vl53l0x_api.c **** 	VL53L0X_Error Status = VL53L0X_ERROR_NONE;
 2918              		.loc 1 1591 1 view .LVU861
 2919 0004 70B5     		push	{r4, r5, r6, lr}
 2920              		.cfi_def_cfa_offset 16
 2921              		.cfi_offset 4, -16
 2922              		.cfi_offset 5, -12
 2923              		.cfi_offset 6, -8
 2924              		.cfi_offset 14, -4
 2925 0006 0546     		mov	r5, r0
 2926 0008 0C46     		mov	r4, r1
 2927 000a 1646     		mov	r6, r2
1601:Core/Src/vl53l0x_api.c **** 		Status = VL53L0X_ERROR_INVALID_PARAMS;
1602:Core/Src/vl53l0x_api.c **** 	} else {
1603:Core/Src/vl53l0x_api.c **** 		if (LimitCheckEnable == 0) {
 2928              		.loc 1 1603 3 is_stmt 1 view .LVU862
 2929              		.loc 1 1603 6 is_stmt 0 view .LVU863
 2930 000c 3AB1     		cbz	r2, .L197
1604:Core/Src/vl53l0x_api.c **** 			TempFix1616 = 0;
1605:Core/Src/vl53l0x_api.c **** 			LimitCheckEnableInt = 0;
1606:Core/Src/vl53l0x_api.c **** 			LimitCheckDisable = 1;
1607:Core/Src/vl53l0x_api.c **** 
1608:Core/Src/vl53l0x_api.c **** 		} else {
1609:Core/Src/vl53l0x_api.c **** 			VL53L0X_GETARRAYPARAMETERFIELD(Dev, LimitChecksValue,
 2931              		.loc 1 1609 4 is_stmt 1 view .LVU864
 2932 000e 01F10C03 		add	r3, r1, #12
 2933 0012 00EB8303 		add	r3, r0, r3, lsl #2
 2934 0016 5A68     		ldr	r2, [r3, #4]
 2935              	.LVL285:
1610:Core/Src/vl53l0x_api.c **** 				LimitCheckId, TempFix1616);
1611:Core/Src/vl53l0x_api.c **** 			LimitCheckDisable = 0;
 2936              		.loc 1 1611 4 view .LVU865
ARM GAS  C:\Users\anmh1\AppData\Local\Temp\ccBPLcM2.s 			page 81


1612:Core/Src/vl53l0x_api.c **** 			/* this to be sure to have either 0 or 1 */
1613:Core/Src/vl53l0x_api.c **** 			LimitCheckEnableInt = 1;
 2937              		.loc 1 1613 4 view .LVU866
1611:Core/Src/vl53l0x_api.c **** 			/* this to be sure to have either 0 or 1 */
 2938              		.loc 1 1611 22 is_stmt 0 view .LVU867
 2939 0018 0023     		movs	r3, #0
 2940              		.loc 1 1613 24 view .LVU868
 2941 001a 0121     		movs	r1, #1
 2942              	.LVL286:
 2943              		.loc 1 1613 24 view .LVU869
 2944 001c 02E0     		b	.L185
 2945              	.LVL287:
 2946              	.L197:
1605:Core/Src/vl53l0x_api.c **** 			LimitCheckDisable = 1;
 2947              		.loc 1 1605 24 view .LVU870
 2948 001e 1146     		mov	r1, r2
 2949              	.LVL288:
1606:Core/Src/vl53l0x_api.c **** 
 2950              		.loc 1 1606 22 view .LVU871
 2951 0020 0123     		movs	r3, #1
1604:Core/Src/vl53l0x_api.c **** 			LimitCheckEnableInt = 0;
 2952              		.loc 1 1604 16 view .LVU872
 2953 0022 0022     		movs	r2, #0
 2954              	.LVL289:
 2955              	.L185:
1614:Core/Src/vl53l0x_api.c **** 		}
1615:Core/Src/vl53l0x_api.c **** 
1616:Core/Src/vl53l0x_api.c **** 		switch (LimitCheckId) {
 2956              		.loc 1 1616 3 is_stmt 1 view .LVU873
 2957 0024 052C     		cmp	r4, #5
 2958 0026 33D8     		bhi	.L198
 2959 0028 DFE804F0 		tbb	[pc, r4]
 2960              	.LVL290:
 2961              	.L187:
 2962 002c 03       		.byte	(.L192-.L187)/2
 2963 002d 07       		.byte	(.L191-.L187)/2
 2964 002e 14       		.byte	(.L190-.L187)/2
 2965 002f 18       		.byte	(.L189-.L187)/2
 2966 0030 1C       		.byte	(.L188-.L187)/2
 2967 0031 23       		.byte	(.L186-.L187)/2
 2968              		.p2align 1
 2969              	.L192:
1617:Core/Src/vl53l0x_api.c **** 
1618:Core/Src/vl53l0x_api.c **** 		case VL53L0X_CHECKENABLE_SIGMA_FINAL_RANGE:
1619:Core/Src/vl53l0x_api.c **** 			/* internal computation: */
1620:Core/Src/vl53l0x_api.c **** 			VL53L0X_SETARRAYPARAMETERFIELD(Dev, LimitChecksEnable,
 2970              		.loc 1 1620 4 view .LVU874
 2971 0032 85F82810 		strb	r1, [r5, #40]
1621:Core/Src/vl53l0x_api.c **** 				VL53L0X_CHECKENABLE_SIGMA_FINAL_RANGE,
1622:Core/Src/vl53l0x_api.c **** 				LimitCheckEnableInt);
1623:Core/Src/vl53l0x_api.c **** 
1624:Core/Src/vl53l0x_api.c **** 			break;
 2972              		.loc 1 1624 4 view .LVU875
1625:Core/Src/vl53l0x_api.c **** 
1626:Core/Src/vl53l0x_api.c **** 		case VL53L0X_CHECKENABLE_SIGNAL_RATE_FINAL_RANGE:
1627:Core/Src/vl53l0x_api.c **** 
1628:Core/Src/vl53l0x_api.c **** 			Status = VL53L0X_WrWord(Dev,
ARM GAS  C:\Users\anmh1\AppData\Local\Temp\ccBPLcM2.s 			page 82


1629:Core/Src/vl53l0x_api.c **** 			VL53L0X_REG_FINAL_RANGE_CONFIG_MIN_COUNT_RATE_RTN_LIMIT,
1630:Core/Src/vl53l0x_api.c **** 				VL53L0X_FIXPOINT1616TOFIXPOINT97(TempFix1616));
1631:Core/Src/vl53l0x_api.c **** 
1632:Core/Src/vl53l0x_api.c **** 			break;
1633:Core/Src/vl53l0x_api.c **** 
1634:Core/Src/vl53l0x_api.c **** 		case VL53L0X_CHECKENABLE_SIGNAL_REF_CLIP:
1635:Core/Src/vl53l0x_api.c **** 
1636:Core/Src/vl53l0x_api.c **** 			/* internal computation: */
1637:Core/Src/vl53l0x_api.c **** 			VL53L0X_SETARRAYPARAMETERFIELD(Dev, LimitChecksEnable,
1638:Core/Src/vl53l0x_api.c **** 				VL53L0X_CHECKENABLE_SIGNAL_REF_CLIP,
1639:Core/Src/vl53l0x_api.c **** 				LimitCheckEnableInt);
1640:Core/Src/vl53l0x_api.c **** 
1641:Core/Src/vl53l0x_api.c **** 			break;
1642:Core/Src/vl53l0x_api.c **** 
1643:Core/Src/vl53l0x_api.c **** 		case VL53L0X_CHECKENABLE_RANGE_IGNORE_THRESHOLD:
1644:Core/Src/vl53l0x_api.c **** 
1645:Core/Src/vl53l0x_api.c **** 			/* internal computation: */
1646:Core/Src/vl53l0x_api.c **** 			VL53L0X_SETARRAYPARAMETERFIELD(Dev, LimitChecksEnable,
1647:Core/Src/vl53l0x_api.c **** 				VL53L0X_CHECKENABLE_RANGE_IGNORE_THRESHOLD,
1648:Core/Src/vl53l0x_api.c **** 				LimitCheckEnableInt);
1649:Core/Src/vl53l0x_api.c **** 
1650:Core/Src/vl53l0x_api.c **** 			break;
1651:Core/Src/vl53l0x_api.c **** 
1652:Core/Src/vl53l0x_api.c **** 		case VL53L0X_CHECKENABLE_SIGNAL_RATE_MSRC:
1653:Core/Src/vl53l0x_api.c **** 
1654:Core/Src/vl53l0x_api.c **** 			Temp8 = (uint8_t)(LimitCheckDisable << 1);
1655:Core/Src/vl53l0x_api.c **** 			Status = VL53L0X_UpdateByte(Dev,
1656:Core/Src/vl53l0x_api.c **** 				VL53L0X_REG_MSRC_CONFIG_CONTROL,
1657:Core/Src/vl53l0x_api.c **** 				0xFE, Temp8);
1658:Core/Src/vl53l0x_api.c **** 
1659:Core/Src/vl53l0x_api.c **** 			break;
1660:Core/Src/vl53l0x_api.c **** 
1661:Core/Src/vl53l0x_api.c **** 		case VL53L0X_CHECKENABLE_SIGNAL_RATE_PRE_RANGE:
1662:Core/Src/vl53l0x_api.c **** 
1663:Core/Src/vl53l0x_api.c **** 			Temp8 = (uint8_t)(LimitCheckDisable << 4);
1664:Core/Src/vl53l0x_api.c **** 			Status = VL53L0X_UpdateByte(Dev,
1665:Core/Src/vl53l0x_api.c **** 				VL53L0X_REG_MSRC_CONFIG_CONTROL,
1666:Core/Src/vl53l0x_api.c **** 				0xEF, Temp8);
1667:Core/Src/vl53l0x_api.c **** 
1668:Core/Src/vl53l0x_api.c **** 			break;
1669:Core/Src/vl53l0x_api.c **** 
1670:Core/Src/vl53l0x_api.c **** 
1671:Core/Src/vl53l0x_api.c **** 		default:
1672:Core/Src/vl53l0x_api.c **** 			Status = VL53L0X_ERROR_INVALID_PARAMS;
1673:Core/Src/vl53l0x_api.c **** 
1674:Core/Src/vl53l0x_api.c **** 		}
1675:Core/Src/vl53l0x_api.c **** 
1676:Core/Src/vl53l0x_api.c **** 	}
1677:Core/Src/vl53l0x_api.c **** 
1678:Core/Src/vl53l0x_api.c **** 	if (Status == VL53L0X_ERROR_NONE) {
 2973              		.loc 1 1678 2 view .LVU876
1592:Core/Src/vl53l0x_api.c **** 	FixPoint1616_t TempFix1616 = 0;
 2974              		.loc 1 1592 16 is_stmt 0 view .LVU877
 2975 0036 0020     		movs	r0, #0
 2976 0038 06E0     		b	.L193
 2977              	.L191:
1628:Core/Src/vl53l0x_api.c **** 			VL53L0X_REG_FINAL_RANGE_CONFIG_MIN_COUNT_RATE_RTN_LIMIT,
ARM GAS  C:\Users\anmh1\AppData\Local\Temp\ccBPLcM2.s 			page 83


 2978              		.loc 1 1628 4 is_stmt 1 view .LVU878
1628:Core/Src/vl53l0x_api.c **** 			VL53L0X_REG_FINAL_RANGE_CONFIG_MIN_COUNT_RATE_RTN_LIMIT,
 2979              		.loc 1 1628 13 is_stmt 0 view .LVU879
 2980 003a C2F34F22 		ubfx	r2, r2, #9, #16
 2981              	.LVL291:
1628:Core/Src/vl53l0x_api.c **** 			VL53L0X_REG_FINAL_RANGE_CONFIG_MIN_COUNT_RATE_RTN_LIMIT,
 2982              		.loc 1 1628 13 view .LVU880
 2983 003e 4421     		movs	r1, #68
 2984              	.LVL292:
1628:Core/Src/vl53l0x_api.c **** 			VL53L0X_REG_FINAL_RANGE_CONFIG_MIN_COUNT_RATE_RTN_LIMIT,
 2985              		.loc 1 1628 13 view .LVU881
 2986 0040 2846     		mov	r0, r5
 2987 0042 FFF7FEFF 		bl	VL53L0X_WrWord
 2988              	.LVL293:
1632:Core/Src/vl53l0x_api.c **** 
 2989              		.loc 1 1632 4 is_stmt 1 view .LVU882
 2990              	.L194:
 2991              		.loc 1 1678 2 view .LVU883
 2992              		.loc 1 1678 5 is_stmt 0 view .LVU884
 2993 0046 20B9     		cbnz	r0, .L184
 2994              	.LVL294:
 2995              	.L193:
1679:Core/Src/vl53l0x_api.c **** 		if (LimitCheckEnable == 0) {
 2996              		.loc 1 1679 3 is_stmt 1 view .LVU885
 2997              		.loc 1 1679 6 is_stmt 0 view .LVU886
 2998 0048 D6B9     		cbnz	r6, .L195
1680:Core/Src/vl53l0x_api.c **** 			VL53L0X_SETARRAYPARAMETERFIELD(Dev, LimitChecksEnable,
 2999              		.loc 1 1680 4 is_stmt 1 view .LVU887
 3000 004a 2C44     		add	r4, r4, r5
 3001 004c 0023     		movs	r3, #0
 3002 004e 84F82830 		strb	r3, [r4, #40]
 3003              	.L184:
1681:Core/Src/vl53l0x_api.c **** 				LimitCheckId, 0);
1682:Core/Src/vl53l0x_api.c **** 		} else {
1683:Core/Src/vl53l0x_api.c **** 			VL53L0X_SETARRAYPARAMETERFIELD(Dev, LimitChecksEnable,
1684:Core/Src/vl53l0x_api.c **** 				LimitCheckId, 1);
1685:Core/Src/vl53l0x_api.c **** 		}
1686:Core/Src/vl53l0x_api.c **** 	}
1687:Core/Src/vl53l0x_api.c **** 
1688:Core/Src/vl53l0x_api.c **** 	LOG_FUNCTION_END(Status);
 3004              		.loc 1 1688 2 view .LVU888
1689:Core/Src/vl53l0x_api.c **** 	return Status;
 3005              		.loc 1 1689 2 view .LVU889
1690:Core/Src/vl53l0x_api.c **** }
 3006              		.loc 1 1690 1 is_stmt 0 view .LVU890
 3007 0052 70BD     		pop	{r4, r5, r6, pc}
 3008              	.LVL295:
 3009              	.L190:
1637:Core/Src/vl53l0x_api.c **** 				VL53L0X_CHECKENABLE_SIGNAL_REF_CLIP,
 3010              		.loc 1 1637 4 is_stmt 1 view .LVU891
 3011 0054 85F82A10 		strb	r1, [r5, #42]
1641:Core/Src/vl53l0x_api.c **** 
 3012              		.loc 1 1641 4 view .LVU892
1678:Core/Src/vl53l0x_api.c **** 		if (LimitCheckEnable == 0) {
 3013              		.loc 1 1678 2 view .LVU893
1592:Core/Src/vl53l0x_api.c **** 	FixPoint1616_t TempFix1616 = 0;
 3014              		.loc 1 1592 16 is_stmt 0 view .LVU894
ARM GAS  C:\Users\anmh1\AppData\Local\Temp\ccBPLcM2.s 			page 84


 3015 0058 0020     		movs	r0, #0
 3016 005a F5E7     		b	.L193
 3017              	.L189:
1646:Core/Src/vl53l0x_api.c **** 				VL53L0X_CHECKENABLE_RANGE_IGNORE_THRESHOLD,
 3018              		.loc 1 1646 4 is_stmt 1 view .LVU895
 3019 005c 85F82B10 		strb	r1, [r5, #43]
1650:Core/Src/vl53l0x_api.c **** 
 3020              		.loc 1 1650 4 view .LVU896
1678:Core/Src/vl53l0x_api.c **** 		if (LimitCheckEnable == 0) {
 3021              		.loc 1 1678 2 view .LVU897
1592:Core/Src/vl53l0x_api.c **** 	FixPoint1616_t TempFix1616 = 0;
 3022              		.loc 1 1592 16 is_stmt 0 view .LVU898
 3023 0060 0020     		movs	r0, #0
 3024 0062 F1E7     		b	.L193
 3025              	.L188:
1654:Core/Src/vl53l0x_api.c **** 			Status = VL53L0X_UpdateByte(Dev,
 3026              		.loc 1 1654 4 is_stmt 1 view .LVU899
 3027              	.LVL296:
1655:Core/Src/vl53l0x_api.c **** 				VL53L0X_REG_MSRC_CONFIG_CONTROL,
 3028              		.loc 1 1655 4 view .LVU900
1655:Core/Src/vl53l0x_api.c **** 				VL53L0X_REG_MSRC_CONFIG_CONTROL,
 3029              		.loc 1 1655 13 is_stmt 0 view .LVU901
 3030 0064 5B00     		lsls	r3, r3, #1
 3031              	.LVL297:
1655:Core/Src/vl53l0x_api.c **** 				VL53L0X_REG_MSRC_CONFIG_CONTROL,
 3032              		.loc 1 1655 13 view .LVU902
 3033 0066 FE22     		movs	r2, #254
 3034              	.LVL298:
1655:Core/Src/vl53l0x_api.c **** 				VL53L0X_REG_MSRC_CONFIG_CONTROL,
 3035              		.loc 1 1655 13 view .LVU903
 3036 0068 6021     		movs	r1, #96
 3037              	.LVL299:
1655:Core/Src/vl53l0x_api.c **** 				VL53L0X_REG_MSRC_CONFIG_CONTROL,
 3038              		.loc 1 1655 13 view .LVU904
 3039 006a 2846     		mov	r0, r5
 3040 006c FFF7FEFF 		bl	VL53L0X_UpdateByte
 3041              	.LVL300:
1659:Core/Src/vl53l0x_api.c **** 
 3042              		.loc 1 1659 4 is_stmt 1 view .LVU905
 3043 0070 E9E7     		b	.L194
 3044              	.LVL301:
 3045              	.L186:
1663:Core/Src/vl53l0x_api.c **** 			Status = VL53L0X_UpdateByte(Dev,
 3046              		.loc 1 1663 4 view .LVU906
1664:Core/Src/vl53l0x_api.c **** 				VL53L0X_REG_MSRC_CONFIG_CONTROL,
 3047              		.loc 1 1664 4 view .LVU907
1664:Core/Src/vl53l0x_api.c **** 				VL53L0X_REG_MSRC_CONFIG_CONTROL,
 3048              		.loc 1 1664 13 is_stmt 0 view .LVU908
 3049 0072 1B01     		lsls	r3, r3, #4
 3050              	.LVL302:
1664:Core/Src/vl53l0x_api.c **** 				VL53L0X_REG_MSRC_CONFIG_CONTROL,
 3051              		.loc 1 1664 13 view .LVU909
 3052 0074 EF22     		movs	r2, #239
 3053              	.LVL303:
1664:Core/Src/vl53l0x_api.c **** 				VL53L0X_REG_MSRC_CONFIG_CONTROL,
 3054              		.loc 1 1664 13 view .LVU910
 3055 0076 6021     		movs	r1, #96
ARM GAS  C:\Users\anmh1\AppData\Local\Temp\ccBPLcM2.s 			page 85


 3056              	.LVL304:
1664:Core/Src/vl53l0x_api.c **** 				VL53L0X_REG_MSRC_CONFIG_CONTROL,
 3057              		.loc 1 1664 13 view .LVU911
 3058 0078 2846     		mov	r0, r5
 3059 007a FFF7FEFF 		bl	VL53L0X_UpdateByte
 3060              	.LVL305:
1668:Core/Src/vl53l0x_api.c **** 
 3061              		.loc 1 1668 4 is_stmt 1 view .LVU912
 3062 007e E2E7     		b	.L194
 3063              	.LVL306:
 3064              	.L195:
1683:Core/Src/vl53l0x_api.c **** 				LimitCheckId, 1);
 3065              		.loc 1 1683 4 view .LVU913
 3066 0080 2C44     		add	r4, r4, r5
 3067 0082 0123     		movs	r3, #1
 3068 0084 84F82830 		strb	r3, [r4, #40]
 3069 0088 E3E7     		b	.L184
 3070              	.LVL307:
 3071              	.L196:
 3072              		.cfi_def_cfa_offset 0
 3073              		.cfi_restore 4
 3074              		.cfi_restore 5
 3075              		.cfi_restore 6
 3076              		.cfi_restore 14
1601:Core/Src/vl53l0x_api.c **** 	} else {
 3077              		.loc 1 1601 10 is_stmt 0 view .LVU914
 3078 008a 6FF00300 		mvn	r0, #3
 3079              	.LVL308:
1688:Core/Src/vl53l0x_api.c **** 	return Status;
 3080              		.loc 1 1688 2 is_stmt 1 view .LVU915
1689:Core/Src/vl53l0x_api.c **** }
 3081              		.loc 1 1689 2 view .LVU916
 3082              		.loc 1 1690 1 is_stmt 0 view .LVU917
 3083 008e 7047     		bx	lr
 3084              	.LVL309:
 3085              	.L198:
1616:Core/Src/vl53l0x_api.c **** 
 3086              		.loc 1 1616 3 view .LVU918
 3087 0090 6FF00300 		mvn	r0, #3
 3088 0094 DDE7     		b	.L184
 3089              		.cfi_endproc
 3090              	.LFE190:
 3092              		.section	.text.VL53L0X_GetLimitCheckEnable,"ax",%progbits
 3093              		.align	1
 3094              		.global	VL53L0X_GetLimitCheckEnable
 3095              		.syntax unified
 3096              		.thumb
 3097              		.thumb_func
 3098              		.fpu fpv4-sp-d16
 3100              	VL53L0X_GetLimitCheckEnable:
 3101              	.LVL310:
 3102              	.LFB191:
1691:Core/Src/vl53l0x_api.c **** 
1692:Core/Src/vl53l0x_api.c **** VL53L0X_Error VL53L0X_GetLimitCheckEnable(VL53L0X_DEV Dev, uint16_t LimitCheckId,
1693:Core/Src/vl53l0x_api.c **** 	uint8_t *pLimitCheckEnable)
1694:Core/Src/vl53l0x_api.c **** {
 3103              		.loc 1 1694 1 is_stmt 1 view -0
ARM GAS  C:\Users\anmh1\AppData\Local\Temp\ccBPLcM2.s 			page 86


 3104              		.cfi_startproc
 3105              		@ args = 0, pretend = 0, frame = 0
 3106              		@ frame_needed = 0, uses_anonymous_args = 0
 3107              		@ link register save eliminated.
1695:Core/Src/vl53l0x_api.c **** 	VL53L0X_Error Status = VL53L0X_ERROR_NONE;
 3108              		.loc 1 1695 2 view .LVU920
1696:Core/Src/vl53l0x_api.c **** 	uint8_t Temp8;
 3109              		.loc 1 1696 2 view .LVU921
1697:Core/Src/vl53l0x_api.c **** 
1698:Core/Src/vl53l0x_api.c **** 	LOG_FUNCTION_START("");
 3110              		.loc 1 1698 2 view .LVU922
1699:Core/Src/vl53l0x_api.c **** 
1700:Core/Src/vl53l0x_api.c **** 	if (LimitCheckId >= VL53L0X_CHECKENABLE_NUMBER_OF_CHECKS) {
 3111              		.loc 1 1700 2 view .LVU923
 3112              		.loc 1 1700 5 is_stmt 0 view .LVU924
 3113 0000 0529     		cmp	r1, #5
 3114 0002 05D8     		bhi	.L206
1701:Core/Src/vl53l0x_api.c **** 		Status = VL53L0X_ERROR_INVALID_PARAMS;
1702:Core/Src/vl53l0x_api.c **** 		*pLimitCheckEnable = 0;
1703:Core/Src/vl53l0x_api.c **** 	} else {
1704:Core/Src/vl53l0x_api.c **** 		VL53L0X_GETARRAYPARAMETERFIELD(Dev, LimitChecksEnable,
 3115              		.loc 1 1704 3 is_stmt 1 view .LVU925
 3116 0004 0844     		add	r0, r0, r1
 3117              	.LVL311:
 3118              		.loc 1 1704 3 is_stmt 0 view .LVU926
 3119 0006 90F82830 		ldrb	r3, [r0, #40]	@ zero_extendqisi2
 3120              	.LVL312:
1705:Core/Src/vl53l0x_api.c **** 			LimitCheckId, Temp8);
1706:Core/Src/vl53l0x_api.c **** 		*pLimitCheckEnable = Temp8;
 3121              		.loc 1 1706 3 is_stmt 1 view .LVU927
 3122              		.loc 1 1706 22 is_stmt 0 view .LVU928
 3123 000a 1370     		strb	r3, [r2]
1695:Core/Src/vl53l0x_api.c **** 	uint8_t Temp8;
 3124              		.loc 1 1695 16 view .LVU929
 3125 000c 0020     		movs	r0, #0
 3126              	.LVL313:
1707:Core/Src/vl53l0x_api.c **** 	}
1708:Core/Src/vl53l0x_api.c **** 
1709:Core/Src/vl53l0x_api.c **** 	LOG_FUNCTION_END(Status);
 3127              		.loc 1 1709 2 is_stmt 1 view .LVU930
1710:Core/Src/vl53l0x_api.c **** 	return Status;
 3128              		.loc 1 1710 2 view .LVU931
1711:Core/Src/vl53l0x_api.c **** }
 3129              		.loc 1 1711 1 is_stmt 0 view .LVU932
 3130 000e 7047     		bx	lr
 3131              	.LVL314:
 3132              	.L206:
1701:Core/Src/vl53l0x_api.c **** 		*pLimitCheckEnable = 0;
 3133              		.loc 1 1701 3 is_stmt 1 view .LVU933
1702:Core/Src/vl53l0x_api.c **** 	} else {
 3134              		.loc 1 1702 3 view .LVU934
1702:Core/Src/vl53l0x_api.c **** 	} else {
 3135              		.loc 1 1702 22 is_stmt 0 view .LVU935
 3136 0010 0023     		movs	r3, #0
 3137 0012 1370     		strb	r3, [r2]
1701:Core/Src/vl53l0x_api.c **** 		*pLimitCheckEnable = 0;
 3138              		.loc 1 1701 10 view .LVU936
ARM GAS  C:\Users\anmh1\AppData\Local\Temp\ccBPLcM2.s 			page 87


 3139 0014 6FF00300 		mvn	r0, #3
 3140              	.LVL315:
1701:Core/Src/vl53l0x_api.c **** 		*pLimitCheckEnable = 0;
 3141              		.loc 1 1701 10 view .LVU937
 3142 0018 7047     		bx	lr
 3143              		.cfi_endproc
 3144              	.LFE191:
 3146              		.section	.text.VL53L0X_SetLimitCheckValue,"ax",%progbits
 3147              		.align	1
 3148              		.global	VL53L0X_SetLimitCheckValue
 3149              		.syntax unified
 3150              		.thumb
 3151              		.thumb_func
 3152              		.fpu fpv4-sp-d16
 3154              	VL53L0X_SetLimitCheckValue:
 3155              	.LVL316:
 3156              	.LFB192:
1712:Core/Src/vl53l0x_api.c **** 
1713:Core/Src/vl53l0x_api.c **** VL53L0X_Error VL53L0X_SetLimitCheckValue(VL53L0X_DEV Dev, uint16_t LimitCheckId,
1714:Core/Src/vl53l0x_api.c **** 	FixPoint1616_t LimitCheckValue)
1715:Core/Src/vl53l0x_api.c **** {
 3157              		.loc 1 1715 1 is_stmt 1 view -0
 3158              		.cfi_startproc
 3159              		@ args = 0, pretend = 0, frame = 0
 3160              		@ frame_needed = 0, uses_anonymous_args = 0
 3161              		.loc 1 1715 1 is_stmt 0 view .LVU939
 3162 0000 70B5     		push	{r4, r5, r6, lr}
 3163              		.cfi_def_cfa_offset 16
 3164              		.cfi_offset 4, -16
 3165              		.cfi_offset 5, -12
 3166              		.cfi_offset 6, -8
 3167              		.cfi_offset 14, -4
 3168 0002 0646     		mov	r6, r0
 3169 0004 0C46     		mov	r4, r1
 3170 0006 1546     		mov	r5, r2
1716:Core/Src/vl53l0x_api.c **** 	VL53L0X_Error Status = VL53L0X_ERROR_NONE;
 3171              		.loc 1 1716 2 is_stmt 1 view .LVU940
 3172              	.LVL317:
1717:Core/Src/vl53l0x_api.c **** 	uint8_t Temp8;
 3173              		.loc 1 1717 2 view .LVU941
1718:Core/Src/vl53l0x_api.c **** 
1719:Core/Src/vl53l0x_api.c **** 	LOG_FUNCTION_START("");
 3174              		.loc 1 1719 2 view .LVU942
1720:Core/Src/vl53l0x_api.c **** 
1721:Core/Src/vl53l0x_api.c **** 	VL53L0X_GETARRAYPARAMETERFIELD(Dev, LimitChecksEnable, LimitCheckId,
 3175              		.loc 1 1721 2 view .LVU943
 3176 0008 4318     		adds	r3, r0, r1
 3177 000a 93F82830 		ldrb	r3, [r3, #40]	@ zero_extendqisi2
 3178              	.LVL318:
1722:Core/Src/vl53l0x_api.c **** 		Temp8);
1723:Core/Src/vl53l0x_api.c **** 
1724:Core/Src/vl53l0x_api.c **** 	if (Temp8 == 0) { /* disabled write only internal value */
 3179              		.loc 1 1724 2 view .LVU944
 3180              		.loc 1 1724 5 is_stmt 0 view .LVU945
 3181 000e 2BB9     		cbnz	r3, .L208
1725:Core/Src/vl53l0x_api.c **** 		VL53L0X_SETARRAYPARAMETERFIELD(Dev, LimitChecksValue,
 3182              		.loc 1 1725 3 is_stmt 1 view .LVU946
ARM GAS  C:\Users\anmh1\AppData\Local\Temp\ccBPLcM2.s 			page 88


 3183 0010 0C31     		adds	r1, r1, #12
 3184              	.LVL319:
 3185              		.loc 1 1725 3 is_stmt 0 view .LVU947
 3186 0012 00EB8104 		add	r4, r0, r1, lsl #2
 3187 0016 6260     		str	r2, [r4, #4]
1716:Core/Src/vl53l0x_api.c **** 	uint8_t Temp8;
 3188              		.loc 1 1716 16 view .LVU948
 3189 0018 0020     		movs	r0, #0
 3190              	.LVL320:
 3191              	.L209:
1726:Core/Src/vl53l0x_api.c **** 			LimitCheckId, LimitCheckValue);
1727:Core/Src/vl53l0x_api.c **** 	} else {
1728:Core/Src/vl53l0x_api.c **** 
1729:Core/Src/vl53l0x_api.c **** 		switch (LimitCheckId) {
1730:Core/Src/vl53l0x_api.c **** 
1731:Core/Src/vl53l0x_api.c **** 		case VL53L0X_CHECKENABLE_SIGMA_FINAL_RANGE:
1732:Core/Src/vl53l0x_api.c **** 			/* internal computation: */
1733:Core/Src/vl53l0x_api.c **** 			VL53L0X_SETARRAYPARAMETERFIELD(Dev, LimitChecksValue,
1734:Core/Src/vl53l0x_api.c **** 				VL53L0X_CHECKENABLE_SIGMA_FINAL_RANGE,
1735:Core/Src/vl53l0x_api.c **** 				LimitCheckValue);
1736:Core/Src/vl53l0x_api.c **** 			break;
1737:Core/Src/vl53l0x_api.c **** 
1738:Core/Src/vl53l0x_api.c **** 		case VL53L0X_CHECKENABLE_SIGNAL_RATE_FINAL_RANGE:
1739:Core/Src/vl53l0x_api.c **** 
1740:Core/Src/vl53l0x_api.c **** 			Status = VL53L0X_WrWord(Dev,
1741:Core/Src/vl53l0x_api.c **** 			VL53L0X_REG_FINAL_RANGE_CONFIG_MIN_COUNT_RATE_RTN_LIMIT,
1742:Core/Src/vl53l0x_api.c **** 				VL53L0X_FIXPOINT1616TOFIXPOINT97(
1743:Core/Src/vl53l0x_api.c **** 					LimitCheckValue));
1744:Core/Src/vl53l0x_api.c **** 
1745:Core/Src/vl53l0x_api.c **** 			break;
1746:Core/Src/vl53l0x_api.c **** 
1747:Core/Src/vl53l0x_api.c **** 		case VL53L0X_CHECKENABLE_SIGNAL_REF_CLIP:
1748:Core/Src/vl53l0x_api.c **** 
1749:Core/Src/vl53l0x_api.c **** 			/* internal computation: */
1750:Core/Src/vl53l0x_api.c **** 			VL53L0X_SETARRAYPARAMETERFIELD(Dev, LimitChecksValue,
1751:Core/Src/vl53l0x_api.c **** 				VL53L0X_CHECKENABLE_SIGNAL_REF_CLIP,
1752:Core/Src/vl53l0x_api.c **** 				LimitCheckValue);
1753:Core/Src/vl53l0x_api.c **** 
1754:Core/Src/vl53l0x_api.c **** 			break;
1755:Core/Src/vl53l0x_api.c **** 
1756:Core/Src/vl53l0x_api.c **** 		case VL53L0X_CHECKENABLE_RANGE_IGNORE_THRESHOLD:
1757:Core/Src/vl53l0x_api.c **** 
1758:Core/Src/vl53l0x_api.c **** 			/* internal computation: */
1759:Core/Src/vl53l0x_api.c **** 			VL53L0X_SETARRAYPARAMETERFIELD(Dev, LimitChecksValue,
1760:Core/Src/vl53l0x_api.c **** 				VL53L0X_CHECKENABLE_RANGE_IGNORE_THRESHOLD,
1761:Core/Src/vl53l0x_api.c **** 				LimitCheckValue);
1762:Core/Src/vl53l0x_api.c **** 
1763:Core/Src/vl53l0x_api.c **** 			break;
1764:Core/Src/vl53l0x_api.c **** 
1765:Core/Src/vl53l0x_api.c **** 		case VL53L0X_CHECKENABLE_SIGNAL_RATE_MSRC:
1766:Core/Src/vl53l0x_api.c **** 		case VL53L0X_CHECKENABLE_SIGNAL_RATE_PRE_RANGE:
1767:Core/Src/vl53l0x_api.c **** 
1768:Core/Src/vl53l0x_api.c **** 			Status = VL53L0X_WrWord(Dev,
1769:Core/Src/vl53l0x_api.c **** 				VL53L0X_REG_PRE_RANGE_MIN_COUNT_RATE_RTN_LIMIT,
1770:Core/Src/vl53l0x_api.c **** 				VL53L0X_FIXPOINT1616TOFIXPOINT97(
1771:Core/Src/vl53l0x_api.c **** 					LimitCheckValue));
1772:Core/Src/vl53l0x_api.c **** 
ARM GAS  C:\Users\anmh1\AppData\Local\Temp\ccBPLcM2.s 			page 89


1773:Core/Src/vl53l0x_api.c **** 			break;
1774:Core/Src/vl53l0x_api.c **** 
1775:Core/Src/vl53l0x_api.c **** 		default:
1776:Core/Src/vl53l0x_api.c **** 			Status = VL53L0X_ERROR_INVALID_PARAMS;
1777:Core/Src/vl53l0x_api.c **** 
1778:Core/Src/vl53l0x_api.c **** 		}
1779:Core/Src/vl53l0x_api.c **** 
1780:Core/Src/vl53l0x_api.c **** 		if (Status == VL53L0X_ERROR_NONE) {
1781:Core/Src/vl53l0x_api.c **** 			VL53L0X_SETARRAYPARAMETERFIELD(Dev, LimitChecksValue,
1782:Core/Src/vl53l0x_api.c **** 				LimitCheckId, LimitCheckValue);
1783:Core/Src/vl53l0x_api.c **** 		}
1784:Core/Src/vl53l0x_api.c **** 	}
1785:Core/Src/vl53l0x_api.c **** 
1786:Core/Src/vl53l0x_api.c **** 	LOG_FUNCTION_END(Status);
 3192              		.loc 1 1786 2 is_stmt 1 view .LVU949
1787:Core/Src/vl53l0x_api.c **** 	return Status;
 3193              		.loc 1 1787 2 view .LVU950
1788:Core/Src/vl53l0x_api.c **** }
 3194              		.loc 1 1788 1 is_stmt 0 view .LVU951
 3195 001a 70BD     		pop	{r4, r5, r6, pc}
 3196              	.LVL321:
 3197              	.L208:
1729:Core/Src/vl53l0x_api.c **** 
 3198              		.loc 1 1729 3 is_stmt 1 view .LVU952
 3199 001c 0529     		cmp	r1, #5
 3200 001e 1FD8     		bhi	.L218
 3201 0020 DFE801F0 		tbb	[pc, r1]
 3202              	.LVL322:
 3203              	.L211:
 3204 0024 03       		.byte	(.L215-.L211)/2
 3205 0025 06       		.byte	(.L214-.L211)/2
 3206 0026 12       		.byte	(.L213-.L211)/2
 3207 0027 15       		.byte	(.L212-.L211)/2
 3208 0028 18       		.byte	(.L210-.L211)/2
 3209 0029 18       		.byte	(.L210-.L211)/2
 3210              		.p2align 1
 3211              	.L215:
1733:Core/Src/vl53l0x_api.c **** 				VL53L0X_CHECKENABLE_SIGMA_FINAL_RANGE,
 3212              		.loc 1 1733 4 view .LVU953
 3213 002a 7263     		str	r2, [r6, #52]
 3214              	.LVL323:
1736:Core/Src/vl53l0x_api.c **** 
 3215              		.loc 1 1736 4 view .LVU954
1780:Core/Src/vl53l0x_api.c **** 			VL53L0X_SETARRAYPARAMETERFIELD(Dev, LimitChecksValue,
 3216              		.loc 1 1780 3 view .LVU955
1716:Core/Src/vl53l0x_api.c **** 	uint8_t Temp8;
 3217              		.loc 1 1716 16 is_stmt 0 view .LVU956
 3218 002c 0020     		movs	r0, #0
 3219              	.LVL324:
1716:Core/Src/vl53l0x_api.c **** 	uint8_t Temp8;
 3220              		.loc 1 1716 16 view .LVU957
 3221 002e 06E0     		b	.L216
 3222              	.LVL325:
 3223              	.L214:
1740:Core/Src/vl53l0x_api.c **** 			VL53L0X_REG_FINAL_RANGE_CONFIG_MIN_COUNT_RATE_RTN_LIMIT,
 3224              		.loc 1 1740 4 is_stmt 1 view .LVU958
1740:Core/Src/vl53l0x_api.c **** 			VL53L0X_REG_FINAL_RANGE_CONFIG_MIN_COUNT_RATE_RTN_LIMIT,
ARM GAS  C:\Users\anmh1\AppData\Local\Temp\ccBPLcM2.s 			page 90


 3225              		.loc 1 1740 13 is_stmt 0 view .LVU959
 3226 0030 C2F34F22 		ubfx	r2, r2, #9, #16
 3227              	.LVL326:
1740:Core/Src/vl53l0x_api.c **** 			VL53L0X_REG_FINAL_RANGE_CONFIG_MIN_COUNT_RATE_RTN_LIMIT,
 3228              		.loc 1 1740 13 view .LVU960
 3229 0034 4421     		movs	r1, #68
 3230              	.LVL327:
1740:Core/Src/vl53l0x_api.c **** 			VL53L0X_REG_FINAL_RANGE_CONFIG_MIN_COUNT_RATE_RTN_LIMIT,
 3231              		.loc 1 1740 13 view .LVU961
 3232 0036 FFF7FEFF 		bl	VL53L0X_WrWord
 3233              	.LVL328:
1745:Core/Src/vl53l0x_api.c **** 
 3234              		.loc 1 1745 4 is_stmt 1 view .LVU962
 3235              	.L217:
1780:Core/Src/vl53l0x_api.c **** 			VL53L0X_SETARRAYPARAMETERFIELD(Dev, LimitChecksValue,
 3236              		.loc 1 1780 3 view .LVU963
1780:Core/Src/vl53l0x_api.c **** 			VL53L0X_SETARRAYPARAMETERFIELD(Dev, LimitChecksValue,
 3237              		.loc 1 1780 6 is_stmt 0 view .LVU964
 3238 003a 0028     		cmp	r0, #0
 3239 003c EDD1     		bne	.L209
 3240              	.LVL329:
 3241              	.L216:
1781:Core/Src/vl53l0x_api.c **** 				LimitCheckId, LimitCheckValue);
 3242              		.loc 1 1781 4 is_stmt 1 view .LVU965
 3243 003e 0C34     		adds	r4, r4, #12
 3244 0040 06EB8404 		add	r4, r6, r4, lsl #2
 3245 0044 6560     		str	r5, [r4, #4]
 3246 0046 E8E7     		b	.L209
 3247              	.LVL330:
 3248              	.L213:
1750:Core/Src/vl53l0x_api.c **** 				VL53L0X_CHECKENABLE_SIGNAL_REF_CLIP,
 3249              		.loc 1 1750 4 view .LVU966
 3250 0048 F263     		str	r2, [r6, #60]
 3251              	.LVL331:
1754:Core/Src/vl53l0x_api.c **** 
 3252              		.loc 1 1754 4 view .LVU967
1780:Core/Src/vl53l0x_api.c **** 			VL53L0X_SETARRAYPARAMETERFIELD(Dev, LimitChecksValue,
 3253              		.loc 1 1780 3 view .LVU968
1716:Core/Src/vl53l0x_api.c **** 	uint8_t Temp8;
 3254              		.loc 1 1716 16 is_stmt 0 view .LVU969
 3255 004a 0020     		movs	r0, #0
 3256              	.LVL332:
1716:Core/Src/vl53l0x_api.c **** 	uint8_t Temp8;
 3257              		.loc 1 1716 16 view .LVU970
 3258 004c F7E7     		b	.L216
 3259              	.LVL333:
 3260              	.L212:
1759:Core/Src/vl53l0x_api.c **** 				VL53L0X_CHECKENABLE_RANGE_IGNORE_THRESHOLD,
 3261              		.loc 1 1759 4 is_stmt 1 view .LVU971
 3262 004e 3264     		str	r2, [r6, #64]
 3263              	.LVL334:
1763:Core/Src/vl53l0x_api.c **** 
 3264              		.loc 1 1763 4 view .LVU972
1780:Core/Src/vl53l0x_api.c **** 			VL53L0X_SETARRAYPARAMETERFIELD(Dev, LimitChecksValue,
 3265              		.loc 1 1780 3 view .LVU973
1716:Core/Src/vl53l0x_api.c **** 	uint8_t Temp8;
 3266              		.loc 1 1716 16 is_stmt 0 view .LVU974
ARM GAS  C:\Users\anmh1\AppData\Local\Temp\ccBPLcM2.s 			page 91


 3267 0050 0020     		movs	r0, #0
 3268              	.LVL335:
1716:Core/Src/vl53l0x_api.c **** 	uint8_t Temp8;
 3269              		.loc 1 1716 16 view .LVU975
 3270 0052 F4E7     		b	.L216
 3271              	.LVL336:
 3272              	.L210:
1768:Core/Src/vl53l0x_api.c **** 				VL53L0X_REG_PRE_RANGE_MIN_COUNT_RATE_RTN_LIMIT,
 3273              		.loc 1 1768 4 is_stmt 1 view .LVU976
1768:Core/Src/vl53l0x_api.c **** 				VL53L0X_REG_PRE_RANGE_MIN_COUNT_RATE_RTN_LIMIT,
 3274              		.loc 1 1768 13 is_stmt 0 view .LVU977
 3275 0054 C2F34F22 		ubfx	r2, r2, #9, #16
 3276              	.LVL337:
1768:Core/Src/vl53l0x_api.c **** 				VL53L0X_REG_PRE_RANGE_MIN_COUNT_RATE_RTN_LIMIT,
 3277              		.loc 1 1768 13 view .LVU978
 3278 0058 6421     		movs	r1, #100
 3279              	.LVL338:
1768:Core/Src/vl53l0x_api.c **** 				VL53L0X_REG_PRE_RANGE_MIN_COUNT_RATE_RTN_LIMIT,
 3280              		.loc 1 1768 13 view .LVU979
 3281 005a FFF7FEFF 		bl	VL53L0X_WrWord
 3282              	.LVL339:
1773:Core/Src/vl53l0x_api.c **** 
 3283              		.loc 1 1773 4 is_stmt 1 view .LVU980
 3284 005e ECE7     		b	.L217
 3285              	.LVL340:
 3286              	.L218:
1724:Core/Src/vl53l0x_api.c **** 		VL53L0X_SETARRAYPARAMETERFIELD(Dev, LimitChecksValue,
 3287              		.loc 1 1724 5 is_stmt 0 view .LVU981
 3288 0060 6FF00300 		mvn	r0, #3
 3289              	.LVL341:
1724:Core/Src/vl53l0x_api.c **** 		VL53L0X_SETARRAYPARAMETERFIELD(Dev, LimitChecksValue,
 3290              		.loc 1 1724 5 view .LVU982
 3291 0064 D9E7     		b	.L209
 3292              		.cfi_endproc
 3293              	.LFE192:
 3295              		.section	.text.VL53L0X_GetLimitCheckValue,"ax",%progbits
 3296              		.align	1
 3297              		.global	VL53L0X_GetLimitCheckValue
 3298              		.syntax unified
 3299              		.thumb
 3300              		.thumb_func
 3301              		.fpu fpv4-sp-d16
 3303              	VL53L0X_GetLimitCheckValue:
 3304              	.LVL342:
 3305              	.LFB193:
1789:Core/Src/vl53l0x_api.c **** 
1790:Core/Src/vl53l0x_api.c **** VL53L0X_Error VL53L0X_GetLimitCheckValue(VL53L0X_DEV Dev, uint16_t LimitCheckId,
1791:Core/Src/vl53l0x_api.c **** 	FixPoint1616_t *pLimitCheckValue)
1792:Core/Src/vl53l0x_api.c **** {
 3306              		.loc 1 1792 1 is_stmt 1 view -0
 3307              		.cfi_startproc
 3308              		@ args = 0, pretend = 0, frame = 8
 3309              		@ frame_needed = 0, uses_anonymous_args = 0
 3310              		.loc 1 1792 1 is_stmt 0 view .LVU984
 3311 0000 F0B5     		push	{r4, r5, r6, r7, lr}
 3312              		.cfi_def_cfa_offset 20
 3313              		.cfi_offset 4, -20
ARM GAS  C:\Users\anmh1\AppData\Local\Temp\ccBPLcM2.s 			page 92


 3314              		.cfi_offset 5, -16
 3315              		.cfi_offset 6, -12
 3316              		.cfi_offset 7, -8
 3317              		.cfi_offset 14, -4
 3318 0002 83B0     		sub	sp, sp, #12
 3319              		.cfi_def_cfa_offset 32
 3320 0004 0646     		mov	r6, r0
 3321 0006 0C46     		mov	r4, r1
 3322 0008 1546     		mov	r5, r2
1793:Core/Src/vl53l0x_api.c **** 	VL53L0X_Error Status = VL53L0X_ERROR_NONE;
 3323              		.loc 1 1793 2 is_stmt 1 view .LVU985
 3324              	.LVL343:
1794:Core/Src/vl53l0x_api.c **** 	uint8_t EnableZeroValue = 0;
 3325              		.loc 1 1794 2 view .LVU986
1795:Core/Src/vl53l0x_api.c **** 	uint16_t Temp16;
 3326              		.loc 1 1795 2 view .LVU987
1796:Core/Src/vl53l0x_api.c **** 	FixPoint1616_t TempFix1616;
 3327              		.loc 1 1796 2 view .LVU988
1797:Core/Src/vl53l0x_api.c **** 
1798:Core/Src/vl53l0x_api.c **** 	LOG_FUNCTION_START("");
 3328              		.loc 1 1798 2 view .LVU989
1799:Core/Src/vl53l0x_api.c **** 
1800:Core/Src/vl53l0x_api.c **** 	switch (LimitCheckId) {
 3329              		.loc 1 1800 2 view .LVU990
 3330 000a 0529     		cmp	r1, #5
 3331 000c 2AD8     		bhi	.L231
 3332 000e DFE801F0 		tbb	[pc, r1]
 3333              	.L223:
 3334 0012 03       		.byte	(.L227-.L223)/2
 3335 0013 0B       		.byte	(.L226-.L223)/2
 3336 0014 16       		.byte	(.L225-.L223)/2
 3337 0015 1A       		.byte	(.L224-.L223)/2
 3338 0016 1E       		.byte	(.L222-.L223)/2
 3339 0017 1E       		.byte	(.L222-.L223)/2
 3340              		.p2align 1
 3341              	.L227:
1801:Core/Src/vl53l0x_api.c **** 
1802:Core/Src/vl53l0x_api.c **** 	case VL53L0X_CHECKENABLE_SIGMA_FINAL_RANGE:
1803:Core/Src/vl53l0x_api.c **** 		/* internal computation: */
1804:Core/Src/vl53l0x_api.c **** 		VL53L0X_GETARRAYPARAMETERFIELD(Dev, LimitChecksValue,
 3342              		.loc 1 1804 3 view .LVU991
 3343 0018 476B     		ldr	r7, [r0, #52]
 3344              	.LVL344:
1805:Core/Src/vl53l0x_api.c **** 			VL53L0X_CHECKENABLE_SIGMA_FINAL_RANGE, TempFix1616);
1806:Core/Src/vl53l0x_api.c **** 		EnableZeroValue = 0;
 3345              		.loc 1 1806 3 view .LVU992
1807:Core/Src/vl53l0x_api.c **** 		break;
 3346              		.loc 1 1807 3 view .LVU993
1806:Core/Src/vl53l0x_api.c **** 		break;
 3347              		.loc 1 1806 19 is_stmt 0 view .LVU994
 3348 001a 0023     		movs	r3, #0
1793:Core/Src/vl53l0x_api.c **** 	uint8_t EnableZeroValue = 0;
 3349              		.loc 1 1793 16 view .LVU995
 3350 001c 1846     		mov	r0, r3
 3351              	.LVL345:
 3352              	.L221:
1808:Core/Src/vl53l0x_api.c **** 
ARM GAS  C:\Users\anmh1\AppData\Local\Temp\ccBPLcM2.s 			page 93


1809:Core/Src/vl53l0x_api.c **** 	case VL53L0X_CHECKENABLE_SIGNAL_RATE_FINAL_RANGE:
1810:Core/Src/vl53l0x_api.c **** 		Status = VL53L0X_RdWord(Dev,
1811:Core/Src/vl53l0x_api.c **** 		VL53L0X_REG_FINAL_RANGE_CONFIG_MIN_COUNT_RATE_RTN_LIMIT,
1812:Core/Src/vl53l0x_api.c **** 			&Temp16);
1813:Core/Src/vl53l0x_api.c **** 		if (Status == VL53L0X_ERROR_NONE)
1814:Core/Src/vl53l0x_api.c **** 			TempFix1616 = VL53L0X_FIXPOINT97TOFIXPOINT1616(Temp16);
1815:Core/Src/vl53l0x_api.c **** 
1816:Core/Src/vl53l0x_api.c **** 
1817:Core/Src/vl53l0x_api.c **** 		EnableZeroValue = 1;
1818:Core/Src/vl53l0x_api.c **** 		break;
1819:Core/Src/vl53l0x_api.c **** 
1820:Core/Src/vl53l0x_api.c **** 	case VL53L0X_CHECKENABLE_SIGNAL_REF_CLIP:
1821:Core/Src/vl53l0x_api.c **** 		/* internal computation: */
1822:Core/Src/vl53l0x_api.c **** 		VL53L0X_GETARRAYPARAMETERFIELD(Dev, LimitChecksValue,
1823:Core/Src/vl53l0x_api.c **** 			VL53L0X_CHECKENABLE_SIGNAL_REF_CLIP, TempFix1616);
1824:Core/Src/vl53l0x_api.c **** 		EnableZeroValue = 0;
1825:Core/Src/vl53l0x_api.c **** 		break;
1826:Core/Src/vl53l0x_api.c **** 
1827:Core/Src/vl53l0x_api.c **** 	case VL53L0X_CHECKENABLE_RANGE_IGNORE_THRESHOLD:
1828:Core/Src/vl53l0x_api.c **** 		/* internal computation: */
1829:Core/Src/vl53l0x_api.c **** 		VL53L0X_GETARRAYPARAMETERFIELD(Dev, LimitChecksValue,
1830:Core/Src/vl53l0x_api.c **** 			VL53L0X_CHECKENABLE_RANGE_IGNORE_THRESHOLD, TempFix1616);
1831:Core/Src/vl53l0x_api.c **** 		EnableZeroValue = 0;
1832:Core/Src/vl53l0x_api.c **** 		break;
1833:Core/Src/vl53l0x_api.c **** 
1834:Core/Src/vl53l0x_api.c **** 	case VL53L0X_CHECKENABLE_SIGNAL_RATE_MSRC:
1835:Core/Src/vl53l0x_api.c **** 	case VL53L0X_CHECKENABLE_SIGNAL_RATE_PRE_RANGE:
1836:Core/Src/vl53l0x_api.c **** 		Status = VL53L0X_RdWord(Dev,
1837:Core/Src/vl53l0x_api.c **** 			VL53L0X_REG_PRE_RANGE_MIN_COUNT_RATE_RTN_LIMIT,
1838:Core/Src/vl53l0x_api.c **** 			&Temp16);
1839:Core/Src/vl53l0x_api.c **** 		if (Status == VL53L0X_ERROR_NONE)
1840:Core/Src/vl53l0x_api.c **** 			TempFix1616 = VL53L0X_FIXPOINT97TOFIXPOINT1616(Temp16);
1841:Core/Src/vl53l0x_api.c **** 
1842:Core/Src/vl53l0x_api.c **** 
1843:Core/Src/vl53l0x_api.c **** 		EnableZeroValue = 0;
1844:Core/Src/vl53l0x_api.c **** 		break;
1845:Core/Src/vl53l0x_api.c **** 
1846:Core/Src/vl53l0x_api.c **** 	default:
1847:Core/Src/vl53l0x_api.c **** 		Status = VL53L0X_ERROR_INVALID_PARAMS;
1848:Core/Src/vl53l0x_api.c **** 
1849:Core/Src/vl53l0x_api.c **** 	}
1850:Core/Src/vl53l0x_api.c **** 
1851:Core/Src/vl53l0x_api.c **** 	if (Status == VL53L0X_ERROR_NONE) {
 3353              		.loc 1 1851 2 is_stmt 1 view .LVU996
 3354              		.loc 1 1851 5 is_stmt 0 view .LVU997
 3355 001e 08B9     		cbnz	r0, .L228
1852:Core/Src/vl53l0x_api.c **** 
1853:Core/Src/vl53l0x_api.c **** 		if (EnableZeroValue == 1) {
 3356              		.loc 1 1853 3 is_stmt 1 view .LVU998
 3357              		.loc 1 1853 6 is_stmt 0 view .LVU999
 3358 0020 43BB     		cbnz	r3, .L235
1854:Core/Src/vl53l0x_api.c **** 
1855:Core/Src/vl53l0x_api.c **** 			if (TempFix1616 == 0) {
1856:Core/Src/vl53l0x_api.c **** 				/* disabled: return value from memory */
1857:Core/Src/vl53l0x_api.c **** 				VL53L0X_GETARRAYPARAMETERFIELD(Dev,
1858:Core/Src/vl53l0x_api.c **** 					LimitChecksValue, LimitCheckId,
1859:Core/Src/vl53l0x_api.c **** 					TempFix1616);
ARM GAS  C:\Users\anmh1\AppData\Local\Temp\ccBPLcM2.s 			page 94


1860:Core/Src/vl53l0x_api.c **** 				*pLimitCheckValue = TempFix1616;
1861:Core/Src/vl53l0x_api.c **** 				VL53L0X_SETARRAYPARAMETERFIELD(Dev,
1862:Core/Src/vl53l0x_api.c **** 					LimitChecksEnable, LimitCheckId, 0);
1863:Core/Src/vl53l0x_api.c **** 			} else {
1864:Core/Src/vl53l0x_api.c **** 				*pLimitCheckValue = TempFix1616;
1865:Core/Src/vl53l0x_api.c **** 				VL53L0X_SETARRAYPARAMETERFIELD(Dev,
1866:Core/Src/vl53l0x_api.c **** 					LimitChecksValue, LimitCheckId,
1867:Core/Src/vl53l0x_api.c **** 					TempFix1616);
1868:Core/Src/vl53l0x_api.c **** 				VL53L0X_SETARRAYPARAMETERFIELD(Dev,
1869:Core/Src/vl53l0x_api.c **** 					LimitChecksEnable, LimitCheckId, 1);
1870:Core/Src/vl53l0x_api.c **** 			}
1871:Core/Src/vl53l0x_api.c **** 		} else {
1872:Core/Src/vl53l0x_api.c **** 			*pLimitCheckValue = TempFix1616;
 3359              		.loc 1 1872 4 is_stmt 1 view .LVU1000
 3360              		.loc 1 1872 22 is_stmt 0 view .LVU1001
 3361 0022 2F60     		str	r7, [r5]
 3362              	.LVL346:
 3363              	.L228:
1873:Core/Src/vl53l0x_api.c **** 		}
1874:Core/Src/vl53l0x_api.c **** 	}
1875:Core/Src/vl53l0x_api.c **** 
1876:Core/Src/vl53l0x_api.c **** 	LOG_FUNCTION_END(Status);
 3364              		.loc 1 1876 2 is_stmt 1 view .LVU1002
1877:Core/Src/vl53l0x_api.c **** 	return Status;
 3365              		.loc 1 1877 2 view .LVU1003
1878:Core/Src/vl53l0x_api.c **** 
1879:Core/Src/vl53l0x_api.c **** }
 3366              		.loc 1 1879 1 is_stmt 0 view .LVU1004
 3367 0024 03B0     		add	sp, sp, #12
 3368              		.cfi_remember_state
 3369              		.cfi_def_cfa_offset 20
 3370              		@ sp needed
 3371 0026 F0BD     		pop	{r4, r5, r6, r7, pc}
 3372              	.LVL347:
 3373              	.L226:
 3374              		.cfi_restore_state
1810:Core/Src/vl53l0x_api.c **** 		VL53L0X_REG_FINAL_RANGE_CONFIG_MIN_COUNT_RATE_RTN_LIMIT,
 3375              		.loc 1 1810 3 is_stmt 1 view .LVU1005
1810:Core/Src/vl53l0x_api.c **** 		VL53L0X_REG_FINAL_RANGE_CONFIG_MIN_COUNT_RATE_RTN_LIMIT,
 3376              		.loc 1 1810 12 is_stmt 0 view .LVU1006
 3377 0028 0DF10602 		add	r2, sp, #6
 3378              	.LVL348:
1810:Core/Src/vl53l0x_api.c **** 		VL53L0X_REG_FINAL_RANGE_CONFIG_MIN_COUNT_RATE_RTN_LIMIT,
 3379              		.loc 1 1810 12 view .LVU1007
 3380 002c 4421     		movs	r1, #68
 3381              	.LVL349:
1810:Core/Src/vl53l0x_api.c **** 		VL53L0X_REG_FINAL_RANGE_CONFIG_MIN_COUNT_RATE_RTN_LIMIT,
 3382              		.loc 1 1810 12 view .LVU1008
 3383 002e FFF7FEFF 		bl	VL53L0X_RdWord
 3384              	.LVL350:
1813:Core/Src/vl53l0x_api.c **** 			TempFix1616 = VL53L0X_FIXPOINT97TOFIXPOINT1616(Temp16);
 3385              		.loc 1 1813 3 is_stmt 1 view .LVU1009
1813:Core/Src/vl53l0x_api.c **** 			TempFix1616 = VL53L0X_FIXPOINT97TOFIXPOINT1616(Temp16);
 3386              		.loc 1 1813 6 is_stmt 0 view .LVU1010
 3387 0032 D8B9     		cbnz	r0, .L232
1814:Core/Src/vl53l0x_api.c **** 
 3388              		.loc 1 1814 4 is_stmt 1 view .LVU1011
ARM GAS  C:\Users\anmh1\AppData\Local\Temp\ccBPLcM2.s 			page 95


1814:Core/Src/vl53l0x_api.c **** 
 3389              		.loc 1 1814 18 is_stmt 0 view .LVU1012
 3390 0034 BDF80670 		ldrh	r7, [sp, #6]
 3391 0038 7F02     		lsls	r7, r7, #9
 3392              	.LVL351:
1817:Core/Src/vl53l0x_api.c **** 		break;
 3393              		.loc 1 1817 19 view .LVU1013
 3394 003a 0123     		movs	r3, #1
 3395 003c EFE7     		b	.L221
 3396              	.LVL352:
 3397              	.L225:
1822:Core/Src/vl53l0x_api.c **** 			VL53L0X_CHECKENABLE_SIGNAL_REF_CLIP, TempFix1616);
 3398              		.loc 1 1822 3 is_stmt 1 view .LVU1014
 3399 003e C76B     		ldr	r7, [r0, #60]
 3400              	.LVL353:
1824:Core/Src/vl53l0x_api.c **** 		break;
 3401              		.loc 1 1824 3 view .LVU1015
1825:Core/Src/vl53l0x_api.c **** 
 3402              		.loc 1 1825 3 view .LVU1016
1824:Core/Src/vl53l0x_api.c **** 		break;
 3403              		.loc 1 1824 19 is_stmt 0 view .LVU1017
 3404 0040 0023     		movs	r3, #0
1793:Core/Src/vl53l0x_api.c **** 	uint8_t EnableZeroValue = 0;
 3405              		.loc 1 1793 16 view .LVU1018
 3406 0042 1846     		mov	r0, r3
 3407              	.LVL354:
1825:Core/Src/vl53l0x_api.c **** 
 3408              		.loc 1 1825 3 view .LVU1019
 3409 0044 EBE7     		b	.L221
 3410              	.LVL355:
 3411              	.L224:
1829:Core/Src/vl53l0x_api.c **** 			VL53L0X_CHECKENABLE_RANGE_IGNORE_THRESHOLD, TempFix1616);
 3412              		.loc 1 1829 3 is_stmt 1 view .LVU1020
 3413 0046 076C     		ldr	r7, [r0, #64]
 3414              	.LVL356:
1831:Core/Src/vl53l0x_api.c **** 		break;
 3415              		.loc 1 1831 3 view .LVU1021
1832:Core/Src/vl53l0x_api.c **** 
 3416              		.loc 1 1832 3 view .LVU1022
1831:Core/Src/vl53l0x_api.c **** 		break;
 3417              		.loc 1 1831 19 is_stmt 0 view .LVU1023
 3418 0048 0023     		movs	r3, #0
1793:Core/Src/vl53l0x_api.c **** 	uint8_t EnableZeroValue = 0;
 3419              		.loc 1 1793 16 view .LVU1024
 3420 004a 1846     		mov	r0, r3
 3421              	.LVL357:
1832:Core/Src/vl53l0x_api.c **** 
 3422              		.loc 1 1832 3 view .LVU1025
 3423 004c E7E7     		b	.L221
 3424              	.LVL358:
 3425              	.L222:
1836:Core/Src/vl53l0x_api.c **** 			VL53L0X_REG_PRE_RANGE_MIN_COUNT_RATE_RTN_LIMIT,
 3426              		.loc 1 1836 3 is_stmt 1 view .LVU1026
1836:Core/Src/vl53l0x_api.c **** 			VL53L0X_REG_PRE_RANGE_MIN_COUNT_RATE_RTN_LIMIT,
 3427              		.loc 1 1836 12 is_stmt 0 view .LVU1027
 3428 004e 0DF10602 		add	r2, sp, #6
 3429              	.LVL359:
ARM GAS  C:\Users\anmh1\AppData\Local\Temp\ccBPLcM2.s 			page 96


1836:Core/Src/vl53l0x_api.c **** 			VL53L0X_REG_PRE_RANGE_MIN_COUNT_RATE_RTN_LIMIT,
 3430              		.loc 1 1836 12 view .LVU1028
 3431 0052 6421     		movs	r1, #100
 3432              	.LVL360:
1836:Core/Src/vl53l0x_api.c **** 			VL53L0X_REG_PRE_RANGE_MIN_COUNT_RATE_RTN_LIMIT,
 3433              		.loc 1 1836 12 view .LVU1029
 3434 0054 FFF7FEFF 		bl	VL53L0X_RdWord
 3435              	.LVL361:
1836:Core/Src/vl53l0x_api.c **** 			VL53L0X_REG_PRE_RANGE_MIN_COUNT_RATE_RTN_LIMIT,
 3436              		.loc 1 1836 12 view .LVU1030
 3437 0058 0346     		mov	r3, r0
 3438              	.LVL362:
1839:Core/Src/vl53l0x_api.c **** 			TempFix1616 = VL53L0X_FIXPOINT97TOFIXPOINT1616(Temp16);
 3439              		.loc 1 1839 3 is_stmt 1 view .LVU1031
1839:Core/Src/vl53l0x_api.c **** 			TempFix1616 = VL53L0X_FIXPOINT97TOFIXPOINT1616(Temp16);
 3440              		.loc 1 1839 6 is_stmt 0 view .LVU1032
 3441 005a 48B9     		cbnz	r0, .L233
1840:Core/Src/vl53l0x_api.c **** 
 3442              		.loc 1 1840 4 is_stmt 1 view .LVU1033
1840:Core/Src/vl53l0x_api.c **** 
 3443              		.loc 1 1840 18 is_stmt 0 view .LVU1034
 3444 005c BDF80670 		ldrh	r7, [sp, #6]
 3445 0060 7F02     		lsls	r7, r7, #9
 3446              	.LVL363:
1840:Core/Src/vl53l0x_api.c **** 
 3447              		.loc 1 1840 18 view .LVU1035
 3448 0062 DCE7     		b	.L221
 3449              	.LVL364:
 3450              	.L231:
1800:Core/Src/vl53l0x_api.c **** 
 3451              		.loc 1 1800 2 view .LVU1036
 3452 0064 0023     		movs	r3, #0
 3453 0066 6FF00300 		mvn	r0, #3
 3454              	.LVL365:
1800:Core/Src/vl53l0x_api.c **** 
 3455              		.loc 1 1800 2 view .LVU1037
 3456 006a D8E7     		b	.L221
 3457              	.LVL366:
 3458              	.L232:
1817:Core/Src/vl53l0x_api.c **** 		break;
 3459              		.loc 1 1817 19 view .LVU1038
 3460 006c 0123     		movs	r3, #1
 3461 006e D6E7     		b	.L221
 3462              	.L233:
1843:Core/Src/vl53l0x_api.c **** 		break;
 3463              		.loc 1 1843 19 view .LVU1039
 3464 0070 0023     		movs	r3, #0
 3465 0072 D4E7     		b	.L221
 3466              	.LVL367:
 3467              	.L235:
1855:Core/Src/vl53l0x_api.c **** 				/* disabled: return value from memory */
 3468              		.loc 1 1855 4 is_stmt 1 view .LVU1040
1855:Core/Src/vl53l0x_api.c **** 				/* disabled: return value from memory */
 3469              		.loc 1 1855 7 is_stmt 0 view .LVU1041
 3470 0074 57B9     		cbnz	r7, .L230
1857:Core/Src/vl53l0x_api.c **** 					LimitChecksValue, LimitCheckId,
 3471              		.loc 1 1857 5 is_stmt 1 view .LVU1042
ARM GAS  C:\Users\anmh1\AppData\Local\Temp\ccBPLcM2.s 			page 97


 3472 0076 04F10C03 		add	r3, r4, #12
 3473              	.LVL368:
1857:Core/Src/vl53l0x_api.c **** 					LimitChecksValue, LimitCheckId,
 3474              		.loc 1 1857 5 is_stmt 0 view .LVU1043
 3475 007a 06EB8303 		add	r3, r6, r3, lsl #2
 3476 007e 5B68     		ldr	r3, [r3, #4]
 3477              	.LVL369:
1860:Core/Src/vl53l0x_api.c **** 				VL53L0X_SETARRAYPARAMETERFIELD(Dev,
 3478              		.loc 1 1860 5 is_stmt 1 view .LVU1044
1860:Core/Src/vl53l0x_api.c **** 				VL53L0X_SETARRAYPARAMETERFIELD(Dev,
 3479              		.loc 1 1860 23 is_stmt 0 view .LVU1045
 3480 0080 2B60     		str	r3, [r5]
1861:Core/Src/vl53l0x_api.c **** 					LimitChecksEnable, LimitCheckId, 0);
 3481              		.loc 1 1861 5 is_stmt 1 view .LVU1046
 3482 0082 3444     		add	r4, r4, r6
 3483 0084 0023     		movs	r3, #0
 3484              	.LVL370:
1861:Core/Src/vl53l0x_api.c **** 					LimitChecksEnable, LimitCheckId, 0);
 3485              		.loc 1 1861 5 is_stmt 0 view .LVU1047
 3486 0086 84F82830 		strb	r3, [r4, #40]
 3487              	.LVL371:
1861:Core/Src/vl53l0x_api.c **** 					LimitChecksEnable, LimitCheckId, 0);
 3488              		.loc 1 1861 5 view .LVU1048
 3489 008a CBE7     		b	.L228
 3490              	.LVL372:
 3491              	.L230:
1864:Core/Src/vl53l0x_api.c **** 				VL53L0X_SETARRAYPARAMETERFIELD(Dev,
 3492              		.loc 1 1864 5 is_stmt 1 view .LVU1049
1864:Core/Src/vl53l0x_api.c **** 				VL53L0X_SETARRAYPARAMETERFIELD(Dev,
 3493              		.loc 1 1864 23 is_stmt 0 view .LVU1050
 3494 008c 2F60     		str	r7, [r5]
1865:Core/Src/vl53l0x_api.c **** 					LimitChecksValue, LimitCheckId,
 3495              		.loc 1 1865 5 is_stmt 1 view .LVU1051
 3496 008e 04F10C03 		add	r3, r4, #12
 3497              	.LVL373:
1865:Core/Src/vl53l0x_api.c **** 					LimitChecksValue, LimitCheckId,
 3498              		.loc 1 1865 5 is_stmt 0 view .LVU1052
 3499 0092 06EB8303 		add	r3, r6, r3, lsl #2
 3500 0096 5F60     		str	r7, [r3, #4]
1868:Core/Src/vl53l0x_api.c **** 					LimitChecksEnable, LimitCheckId, 1);
 3501              		.loc 1 1868 5 is_stmt 1 view .LVU1053
 3502 0098 3444     		add	r4, r4, r6
 3503 009a 0123     		movs	r3, #1
 3504 009c 84F82830 		strb	r3, [r4, #40]
 3505 00a0 C0E7     		b	.L228
 3506              		.cfi_endproc
 3507              	.LFE193:
 3509              		.section	.text.VL53L0X_GetLimitCheckCurrent,"ax",%progbits
 3510              		.align	1
 3511              		.global	VL53L0X_GetLimitCheckCurrent
 3512              		.syntax unified
 3513              		.thumb
 3514              		.thumb_func
 3515              		.fpu fpv4-sp-d16
 3517              	VL53L0X_GetLimitCheckCurrent:
 3518              	.LVL374:
 3519              	.LFB194:
ARM GAS  C:\Users\anmh1\AppData\Local\Temp\ccBPLcM2.s 			page 98


1880:Core/Src/vl53l0x_api.c **** 
1881:Core/Src/vl53l0x_api.c **** VL53L0X_Error VL53L0X_GetLimitCheckCurrent(VL53L0X_DEV Dev, uint16_t LimitCheckId,
1882:Core/Src/vl53l0x_api.c **** 	FixPoint1616_t *pLimitCheckCurrent)
1883:Core/Src/vl53l0x_api.c **** {
 3520              		.loc 1 1883 1 view -0
 3521              		.cfi_startproc
 3522              		@ args = 0, pretend = 0, frame = 32
 3523              		@ frame_needed = 0, uses_anonymous_args = 0
 3524              		@ link register save eliminated.
1884:Core/Src/vl53l0x_api.c **** 	VL53L0X_Error Status = VL53L0X_ERROR_NONE;
 3525              		.loc 1 1884 2 view .LVU1055
1885:Core/Src/vl53l0x_api.c **** 	VL53L0X_RangingMeasurementData_t LastRangeDataBuffer;
 3526              		.loc 1 1885 2 view .LVU1056
1886:Core/Src/vl53l0x_api.c **** 
1887:Core/Src/vl53l0x_api.c **** 	LOG_FUNCTION_START("");
 3527              		.loc 1 1887 2 view .LVU1057
1888:Core/Src/vl53l0x_api.c **** 
1889:Core/Src/vl53l0x_api.c **** 	if (LimitCheckId >= VL53L0X_CHECKENABLE_NUMBER_OF_CHECKS) {
 3528              		.loc 1 1889 2 view .LVU1058
 3529              		.loc 1 1889 5 is_stmt 0 view .LVU1059
 3530 0000 0529     		cmp	r1, #5
 3531 0002 49D8     		bhi	.L245
1883:Core/Src/vl53l0x_api.c **** 	VL53L0X_Error Status = VL53L0X_ERROR_NONE;
 3532              		.loc 1 1883 1 view .LVU1060
 3533 0004 70B4     		push	{r4, r5, r6}
 3534              		.cfi_def_cfa_offset 12
 3535              		.cfi_offset 4, -12
 3536              		.cfi_offset 5, -8
 3537              		.cfi_offset 6, -4
 3538 0006 89B0     		sub	sp, sp, #36
 3539              		.cfi_def_cfa_offset 48
 3540 0008 1546     		mov	r5, r2
1890:Core/Src/vl53l0x_api.c **** 		Status = VL53L0X_ERROR_INVALID_PARAMS;
1891:Core/Src/vl53l0x_api.c **** 	} else {
1892:Core/Src/vl53l0x_api.c **** 		switch (LimitCheckId) {
 3541              		.loc 1 1892 3 is_stmt 1 view .LVU1061
 3542 000a 0529     		cmp	r1, #5
 3543 000c 47D8     		bhi	.L246
 3544 000e DFE801F0 		tbb	[pc, r1]
 3545              	.L239:
 3546 0012 03       		.byte	(.L244-.L239)/2
 3547 0013 0A       		.byte	(.L243-.L239)/2
 3548 0014 17       		.byte	(.L242-.L239)/2
 3549 0015 1C       		.byte	(.L241-.L239)/2
 3550 0016 29       		.byte	(.L240-.L239)/2
 3551 0017 36       		.byte	(.L238-.L239)/2
 3552              		.p2align 1
 3553              	.L244:
1893:Core/Src/vl53l0x_api.c **** 		case VL53L0X_CHECKENABLE_SIGMA_FINAL_RANGE:
1894:Core/Src/vl53l0x_api.c **** 			/* Need to run a ranging to have the latest values */
1895:Core/Src/vl53l0x_api.c **** 			*pLimitCheckCurrent = PALDevDataGet(Dev, SigmaEstimate);
 3554              		.loc 1 1895 4 view .LVU1062
 3555              		.loc 1 1895 26 is_stmt 0 view .LVU1063
 3556 0018 D0F84031 		ldr	r3, [r0, #320]
 3557              		.loc 1 1895 24 view .LVU1064
 3558 001c 1360     		str	r3, [r2]
1896:Core/Src/vl53l0x_api.c **** 
ARM GAS  C:\Users\anmh1\AppData\Local\Temp\ccBPLcM2.s 			page 99


1897:Core/Src/vl53l0x_api.c **** 			break;
 3559              		.loc 1 1897 4 is_stmt 1 view .LVU1065
1884:Core/Src/vl53l0x_api.c **** 	VL53L0X_RangingMeasurementData_t LastRangeDataBuffer;
 3560              		.loc 1 1884 16 is_stmt 0 view .LVU1066
 3561 001e 0020     		movs	r0, #0
 3562              	.LVL375:
 3563              	.L237:
1898:Core/Src/vl53l0x_api.c **** 
1899:Core/Src/vl53l0x_api.c **** 		case VL53L0X_CHECKENABLE_SIGNAL_RATE_FINAL_RANGE:
1900:Core/Src/vl53l0x_api.c **** 			/* Need to run a ranging to have the latest values */
1901:Core/Src/vl53l0x_api.c **** 			LastRangeDataBuffer = PALDevDataGet(Dev,
1902:Core/Src/vl53l0x_api.c **** 				LastRangeMeasure);
1903:Core/Src/vl53l0x_api.c **** 			*pLimitCheckCurrent =
1904:Core/Src/vl53l0x_api.c **** 				LastRangeDataBuffer.SignalRateRtnMegaCps;
1905:Core/Src/vl53l0x_api.c **** 
1906:Core/Src/vl53l0x_api.c **** 			break;
1907:Core/Src/vl53l0x_api.c **** 
1908:Core/Src/vl53l0x_api.c **** 		case VL53L0X_CHECKENABLE_SIGNAL_REF_CLIP:
1909:Core/Src/vl53l0x_api.c **** 			/* Need to run a ranging to have the latest values */
1910:Core/Src/vl53l0x_api.c **** 			*pLimitCheckCurrent = PALDevDataGet(Dev,
1911:Core/Src/vl53l0x_api.c **** 				LastSignalRefMcps);
1912:Core/Src/vl53l0x_api.c **** 
1913:Core/Src/vl53l0x_api.c **** 			break;
1914:Core/Src/vl53l0x_api.c **** 
1915:Core/Src/vl53l0x_api.c **** 		case VL53L0X_CHECKENABLE_RANGE_IGNORE_THRESHOLD:
1916:Core/Src/vl53l0x_api.c **** 			/* Need to run a ranging to have the latest values */
1917:Core/Src/vl53l0x_api.c **** 			LastRangeDataBuffer = PALDevDataGet(Dev,
1918:Core/Src/vl53l0x_api.c **** 				LastRangeMeasure);
1919:Core/Src/vl53l0x_api.c **** 			*pLimitCheckCurrent =
1920:Core/Src/vl53l0x_api.c **** 				LastRangeDataBuffer.SignalRateRtnMegaCps;
1921:Core/Src/vl53l0x_api.c **** 
1922:Core/Src/vl53l0x_api.c **** 			break;
1923:Core/Src/vl53l0x_api.c **** 
1924:Core/Src/vl53l0x_api.c **** 		case VL53L0X_CHECKENABLE_SIGNAL_RATE_MSRC:
1925:Core/Src/vl53l0x_api.c **** 			/* Need to run a ranging to have the latest values */
1926:Core/Src/vl53l0x_api.c **** 			LastRangeDataBuffer = PALDevDataGet(Dev,
1927:Core/Src/vl53l0x_api.c **** 				LastRangeMeasure);
1928:Core/Src/vl53l0x_api.c **** 			*pLimitCheckCurrent =
1929:Core/Src/vl53l0x_api.c **** 				LastRangeDataBuffer.SignalRateRtnMegaCps;
1930:Core/Src/vl53l0x_api.c **** 
1931:Core/Src/vl53l0x_api.c **** 			break;
1932:Core/Src/vl53l0x_api.c **** 
1933:Core/Src/vl53l0x_api.c **** 		case VL53L0X_CHECKENABLE_SIGNAL_RATE_PRE_RANGE:
1934:Core/Src/vl53l0x_api.c **** 			/* Need to run a ranging to have the latest values */
1935:Core/Src/vl53l0x_api.c **** 			LastRangeDataBuffer = PALDevDataGet(Dev,
1936:Core/Src/vl53l0x_api.c **** 				LastRangeMeasure);
1937:Core/Src/vl53l0x_api.c **** 			*pLimitCheckCurrent =
1938:Core/Src/vl53l0x_api.c **** 				LastRangeDataBuffer.SignalRateRtnMegaCps;
1939:Core/Src/vl53l0x_api.c **** 
1940:Core/Src/vl53l0x_api.c **** 			break;
1941:Core/Src/vl53l0x_api.c **** 
1942:Core/Src/vl53l0x_api.c **** 		default:
1943:Core/Src/vl53l0x_api.c **** 			Status = VL53L0X_ERROR_INVALID_PARAMS;
1944:Core/Src/vl53l0x_api.c **** 		}
1945:Core/Src/vl53l0x_api.c **** 	}
1946:Core/Src/vl53l0x_api.c **** 
1947:Core/Src/vl53l0x_api.c **** 	LOG_FUNCTION_END(Status);
ARM GAS  C:\Users\anmh1\AppData\Local\Temp\ccBPLcM2.s 			page 100


 3564              		.loc 1 1947 2 is_stmt 1 view .LVU1067
1948:Core/Src/vl53l0x_api.c **** 	return Status;
 3565              		.loc 1 1948 2 view .LVU1068
1949:Core/Src/vl53l0x_api.c **** 
1950:Core/Src/vl53l0x_api.c **** }
 3566              		.loc 1 1950 1 is_stmt 0 view .LVU1069
 3567 0020 09B0     		add	sp, sp, #36
 3568              		.cfi_remember_state
 3569              		.cfi_def_cfa_offset 12
 3570              		@ sp needed
 3571 0022 70BC     		pop	{r4, r5, r6}
 3572              		.cfi_restore 6
 3573              		.cfi_restore 5
 3574              		.cfi_restore 4
 3575              		.cfi_def_cfa_offset 0
 3576              	.LVL376:
 3577              		.loc 1 1950 1 view .LVU1070
 3578 0024 7047     		bx	lr
 3579              	.LVL377:
 3580              	.L243:
 3581              		.cfi_restore_state
1901:Core/Src/vl53l0x_api.c **** 				LastRangeMeasure);
 3582              		.loc 1 1901 4 is_stmt 1 view .LVU1071
1901:Core/Src/vl53l0x_api.c **** 				LastRangeMeasure);
 3583              		.loc 1 1901 24 is_stmt 0 view .LVU1072
 3584 0026 01AE     		add	r6, sp, #4
 3585 0028 00F15004 		add	r4, r0, #80
 3586 002c 0FCC     		ldmia	r4!, {r0, r1, r2, r3}
 3587              	.LVL378:
1901:Core/Src/vl53l0x_api.c **** 				LastRangeMeasure);
 3588              		.loc 1 1901 24 view .LVU1073
 3589 002e 0FC6     		stmia	r6!, {r0, r1, r2, r3}
 3590 0030 94E80700 		ldm	r4, {r0, r1, r2}
 3591 0034 86E80700 		stm	r6, {r0, r1, r2}
1903:Core/Src/vl53l0x_api.c **** 				LastRangeDataBuffer.SignalRateRtnMegaCps;
 3592              		.loc 1 1903 4 is_stmt 1 view .LVU1074
1904:Core/Src/vl53l0x_api.c **** 
 3593              		.loc 1 1904 24 is_stmt 0 view .LVU1075
 3594 0038 049B     		ldr	r3, [sp, #16]
1903:Core/Src/vl53l0x_api.c **** 				LastRangeDataBuffer.SignalRateRtnMegaCps;
 3595              		.loc 1 1903 24 view .LVU1076
 3596 003a 2B60     		str	r3, [r5]
1906:Core/Src/vl53l0x_api.c **** 
 3597              		.loc 1 1906 4 is_stmt 1 view .LVU1077
1884:Core/Src/vl53l0x_api.c **** 	VL53L0X_RangingMeasurementData_t LastRangeDataBuffer;
 3598              		.loc 1 1884 16 is_stmt 0 view .LVU1078
 3599 003c 0020     		movs	r0, #0
1906:Core/Src/vl53l0x_api.c **** 
 3600              		.loc 1 1906 4 view .LVU1079
 3601 003e EFE7     		b	.L237
 3602              	.LVL379:
 3603              	.L242:
1910:Core/Src/vl53l0x_api.c **** 				LastSignalRefMcps);
 3604              		.loc 1 1910 4 is_stmt 1 view .LVU1080
1910:Core/Src/vl53l0x_api.c **** 				LastSignalRefMcps);
 3605              		.loc 1 1910 26 is_stmt 0 view .LVU1081
 3606 0040 D0F84831 		ldr	r3, [r0, #328]
ARM GAS  C:\Users\anmh1\AppData\Local\Temp\ccBPLcM2.s 			page 101


1910:Core/Src/vl53l0x_api.c **** 				LastSignalRefMcps);
 3607              		.loc 1 1910 24 view .LVU1082
 3608 0044 1360     		str	r3, [r2]
1913:Core/Src/vl53l0x_api.c **** 
 3609              		.loc 1 1913 4 is_stmt 1 view .LVU1083
1884:Core/Src/vl53l0x_api.c **** 	VL53L0X_RangingMeasurementData_t LastRangeDataBuffer;
 3610              		.loc 1 1884 16 is_stmt 0 view .LVU1084
 3611 0046 0020     		movs	r0, #0
 3612              	.LVL380:
1913:Core/Src/vl53l0x_api.c **** 
 3613              		.loc 1 1913 4 view .LVU1085
 3614 0048 EAE7     		b	.L237
 3615              	.LVL381:
 3616              	.L241:
1917:Core/Src/vl53l0x_api.c **** 				LastRangeMeasure);
 3617              		.loc 1 1917 4 is_stmt 1 view .LVU1086
1917:Core/Src/vl53l0x_api.c **** 				LastRangeMeasure);
 3618              		.loc 1 1917 24 is_stmt 0 view .LVU1087
 3619 004a 01AE     		add	r6, sp, #4
 3620 004c 00F15004 		add	r4, r0, #80
 3621 0050 0FCC     		ldmia	r4!, {r0, r1, r2, r3}
 3622              	.LVL382:
1917:Core/Src/vl53l0x_api.c **** 				LastRangeMeasure);
 3623              		.loc 1 1917 24 view .LVU1088
 3624 0052 0FC6     		stmia	r6!, {r0, r1, r2, r3}
 3625 0054 94E80700 		ldm	r4, {r0, r1, r2}
 3626 0058 86E80700 		stm	r6, {r0, r1, r2}
1919:Core/Src/vl53l0x_api.c **** 				LastRangeDataBuffer.SignalRateRtnMegaCps;
 3627              		.loc 1 1919 4 is_stmt 1 view .LVU1089
1920:Core/Src/vl53l0x_api.c **** 
 3628              		.loc 1 1920 24 is_stmt 0 view .LVU1090
 3629 005c 049B     		ldr	r3, [sp, #16]
1919:Core/Src/vl53l0x_api.c **** 				LastRangeDataBuffer.SignalRateRtnMegaCps;
 3630              		.loc 1 1919 24 view .LVU1091
 3631 005e 2B60     		str	r3, [r5]
1922:Core/Src/vl53l0x_api.c **** 
 3632              		.loc 1 1922 4 is_stmt 1 view .LVU1092
1884:Core/Src/vl53l0x_api.c **** 	VL53L0X_RangingMeasurementData_t LastRangeDataBuffer;
 3633              		.loc 1 1884 16 is_stmt 0 view .LVU1093
 3634 0060 0020     		movs	r0, #0
1922:Core/Src/vl53l0x_api.c **** 
 3635              		.loc 1 1922 4 view .LVU1094
 3636 0062 DDE7     		b	.L237
 3637              	.LVL383:
 3638              	.L240:
1926:Core/Src/vl53l0x_api.c **** 				LastRangeMeasure);
 3639              		.loc 1 1926 4 is_stmt 1 view .LVU1095
1926:Core/Src/vl53l0x_api.c **** 				LastRangeMeasure);
 3640              		.loc 1 1926 24 is_stmt 0 view .LVU1096
 3641 0064 01AE     		add	r6, sp, #4
 3642 0066 00F15004 		add	r4, r0, #80
 3643 006a 0FCC     		ldmia	r4!, {r0, r1, r2, r3}
 3644              	.LVL384:
1926:Core/Src/vl53l0x_api.c **** 				LastRangeMeasure);
 3645              		.loc 1 1926 24 view .LVU1097
 3646 006c 0FC6     		stmia	r6!, {r0, r1, r2, r3}
 3647 006e 94E80700 		ldm	r4, {r0, r1, r2}
ARM GAS  C:\Users\anmh1\AppData\Local\Temp\ccBPLcM2.s 			page 102


 3648 0072 86E80700 		stm	r6, {r0, r1, r2}
1928:Core/Src/vl53l0x_api.c **** 				LastRangeDataBuffer.SignalRateRtnMegaCps;
 3649              		.loc 1 1928 4 is_stmt 1 view .LVU1098
1929:Core/Src/vl53l0x_api.c **** 
 3650              		.loc 1 1929 24 is_stmt 0 view .LVU1099
 3651 0076 049B     		ldr	r3, [sp, #16]
1928:Core/Src/vl53l0x_api.c **** 				LastRangeDataBuffer.SignalRateRtnMegaCps;
 3652              		.loc 1 1928 24 view .LVU1100
 3653 0078 2B60     		str	r3, [r5]
1931:Core/Src/vl53l0x_api.c **** 
 3654              		.loc 1 1931 4 is_stmt 1 view .LVU1101
1884:Core/Src/vl53l0x_api.c **** 	VL53L0X_RangingMeasurementData_t LastRangeDataBuffer;
 3655              		.loc 1 1884 16 is_stmt 0 view .LVU1102
 3656 007a 0020     		movs	r0, #0
1931:Core/Src/vl53l0x_api.c **** 
 3657              		.loc 1 1931 4 view .LVU1103
 3658 007c D0E7     		b	.L237
 3659              	.LVL385:
 3660              	.L238:
1935:Core/Src/vl53l0x_api.c **** 				LastRangeMeasure);
 3661              		.loc 1 1935 4 is_stmt 1 view .LVU1104
1935:Core/Src/vl53l0x_api.c **** 				LastRangeMeasure);
 3662              		.loc 1 1935 24 is_stmt 0 view .LVU1105
 3663 007e 01AE     		add	r6, sp, #4
 3664 0080 00F15004 		add	r4, r0, #80
 3665 0084 0FCC     		ldmia	r4!, {r0, r1, r2, r3}
 3666              	.LVL386:
1935:Core/Src/vl53l0x_api.c **** 				LastRangeMeasure);
 3667              		.loc 1 1935 24 view .LVU1106
 3668 0086 0FC6     		stmia	r6!, {r0, r1, r2, r3}
 3669 0088 94E80700 		ldm	r4, {r0, r1, r2}
 3670 008c 86E80700 		stm	r6, {r0, r1, r2}
1937:Core/Src/vl53l0x_api.c **** 				LastRangeDataBuffer.SignalRateRtnMegaCps;
 3671              		.loc 1 1937 4 is_stmt 1 view .LVU1107
1938:Core/Src/vl53l0x_api.c **** 
 3672              		.loc 1 1938 24 is_stmt 0 view .LVU1108
 3673 0090 049B     		ldr	r3, [sp, #16]
1937:Core/Src/vl53l0x_api.c **** 				LastRangeDataBuffer.SignalRateRtnMegaCps;
 3674              		.loc 1 1937 24 view .LVU1109
 3675 0092 2B60     		str	r3, [r5]
1940:Core/Src/vl53l0x_api.c **** 
 3676              		.loc 1 1940 4 is_stmt 1 view .LVU1110
1884:Core/Src/vl53l0x_api.c **** 	VL53L0X_RangingMeasurementData_t LastRangeDataBuffer;
 3677              		.loc 1 1884 16 is_stmt 0 view .LVU1111
 3678 0094 0020     		movs	r0, #0
1940:Core/Src/vl53l0x_api.c **** 
 3679              		.loc 1 1940 4 view .LVU1112
 3680 0096 C3E7     		b	.L237
 3681              	.LVL387:
 3682              	.L245:
 3683              		.cfi_def_cfa_offset 0
 3684              		.cfi_restore 4
 3685              		.cfi_restore 5
 3686              		.cfi_restore 6
1890:Core/Src/vl53l0x_api.c **** 	} else {
 3687              		.loc 1 1890 10 view .LVU1113
 3688 0098 6FF00300 		mvn	r0, #3
ARM GAS  C:\Users\anmh1\AppData\Local\Temp\ccBPLcM2.s 			page 103


 3689              	.LVL388:
1947:Core/Src/vl53l0x_api.c **** 	return Status;
 3690              		.loc 1 1947 2 is_stmt 1 view .LVU1114
1948:Core/Src/vl53l0x_api.c **** 
 3691              		.loc 1 1948 2 view .LVU1115
 3692              		.loc 1 1950 1 is_stmt 0 view .LVU1116
 3693 009c 7047     		bx	lr
 3694              	.LVL389:
 3695              	.L246:
1889:Core/Src/vl53l0x_api.c **** 		Status = VL53L0X_ERROR_INVALID_PARAMS;
 3696              		.loc 1 1889 5 view .LVU1117
 3697 009e 6FF00300 		mvn	r0, #3
 3698              	.LVL390:
1889:Core/Src/vl53l0x_api.c **** 		Status = VL53L0X_ERROR_INVALID_PARAMS;
 3699              		.loc 1 1889 5 view .LVU1118
 3700 00a2 BDE7     		b	.L237
 3701              		.cfi_endproc
 3702              	.LFE194:
 3704              		.section	.text.VL53L0X_SetWrapAroundCheckEnable,"ax",%progbits
 3705              		.align	1
 3706              		.global	VL53L0X_SetWrapAroundCheckEnable
 3707              		.syntax unified
 3708              		.thumb
 3709              		.thumb_func
 3710              		.fpu fpv4-sp-d16
 3712              	VL53L0X_SetWrapAroundCheckEnable:
 3713              	.LVL391:
 3714              	.LFB195:
1951:Core/Src/vl53l0x_api.c **** 
1952:Core/Src/vl53l0x_api.c **** /*
1953:Core/Src/vl53l0x_api.c ****  * WRAPAROUND Check
1954:Core/Src/vl53l0x_api.c ****  */
1955:Core/Src/vl53l0x_api.c **** VL53L0X_Error VL53L0X_SetWrapAroundCheckEnable(VL53L0X_DEV Dev,
1956:Core/Src/vl53l0x_api.c **** 	uint8_t WrapAroundCheckEnable)
1957:Core/Src/vl53l0x_api.c **** {
 3715              		.loc 1 1957 1 is_stmt 1 view -0
 3716              		.cfi_startproc
 3717              		@ args = 0, pretend = 0, frame = 8
 3718              		@ frame_needed = 0, uses_anonymous_args = 0
 3719              		.loc 1 1957 1 is_stmt 0 view .LVU1120
 3720 0000 30B5     		push	{r4, r5, lr}
 3721              		.cfi_def_cfa_offset 12
 3722              		.cfi_offset 4, -12
 3723              		.cfi_offset 5, -8
 3724              		.cfi_offset 14, -4
 3725 0002 83B0     		sub	sp, sp, #12
 3726              		.cfi_def_cfa_offset 24
 3727 0004 0446     		mov	r4, r0
 3728 0006 0D46     		mov	r5, r1
1958:Core/Src/vl53l0x_api.c **** 	VL53L0X_Error Status = VL53L0X_ERROR_NONE;
 3729              		.loc 1 1958 2 is_stmt 1 view .LVU1121
 3730              	.LVL392:
1959:Core/Src/vl53l0x_api.c **** 	uint8_t Byte;
 3731              		.loc 1 1959 2 view .LVU1122
1960:Core/Src/vl53l0x_api.c **** 	uint8_t WrapAroundCheckEnableInt;
 3732              		.loc 1 1960 2 view .LVU1123
1961:Core/Src/vl53l0x_api.c **** 
ARM GAS  C:\Users\anmh1\AppData\Local\Temp\ccBPLcM2.s 			page 104


1962:Core/Src/vl53l0x_api.c **** 	LOG_FUNCTION_START("");
 3733              		.loc 1 1962 2 view .LVU1124
1963:Core/Src/vl53l0x_api.c **** 
1964:Core/Src/vl53l0x_api.c **** 	Status = VL53L0X_RdByte(Dev, VL53L0X_REG_SYSTEM_SEQUENCE_CONFIG, &Byte);
 3734              		.loc 1 1964 2 view .LVU1125
 3735              		.loc 1 1964 11 is_stmt 0 view .LVU1126
 3736 0008 0DF10702 		add	r2, sp, #7
 3737 000c 0121     		movs	r1, #1
 3738              	.LVL393:
 3739              		.loc 1 1964 11 view .LVU1127
 3740 000e FFF7FEFF 		bl	VL53L0X_RdByte
 3741              	.LVL394:
1965:Core/Src/vl53l0x_api.c **** 	if (WrapAroundCheckEnable == 0) {
 3742              		.loc 1 1965 2 is_stmt 1 view .LVU1128
 3743              		.loc 1 1965 5 is_stmt 0 view .LVU1129
 3744 0012 A5B9     		cbnz	r5, .L252
1966:Core/Src/vl53l0x_api.c **** 		/* Disable wraparound */
1967:Core/Src/vl53l0x_api.c **** 		Byte = Byte & 0x7F;
 3745              		.loc 1 1967 3 is_stmt 1 view .LVU1130
 3746              		.loc 1 1967 15 is_stmt 0 view .LVU1131
 3747 0014 9DF80730 		ldrb	r3, [sp, #7]	@ zero_extendqisi2
 3748 0018 03F07F03 		and	r3, r3, #127
 3749              		.loc 1 1967 8 view .LVU1132
 3750 001c 8DF80730 		strb	r3, [sp, #7]
1968:Core/Src/vl53l0x_api.c **** 		WrapAroundCheckEnableInt = 0;
 3751              		.loc 1 1968 3 is_stmt 1 view .LVU1133
 3752              	.LVL395:
 3753              	.L253:
1969:Core/Src/vl53l0x_api.c **** 	} else {
1970:Core/Src/vl53l0x_api.c **** 		/*Enable wraparound */
1971:Core/Src/vl53l0x_api.c **** 		Byte = Byte | 0x80;
1972:Core/Src/vl53l0x_api.c **** 		WrapAroundCheckEnableInt = 1;
1973:Core/Src/vl53l0x_api.c **** 	}
1974:Core/Src/vl53l0x_api.c **** 
1975:Core/Src/vl53l0x_api.c **** 	Status = VL53L0X_WrByte(Dev, VL53L0X_REG_SYSTEM_SEQUENCE_CONFIG, Byte);
 3754              		.loc 1 1975 2 view .LVU1134
 3755              		.loc 1 1975 11 is_stmt 0 view .LVU1135
 3756 0020 9DF80720 		ldrb	r2, [sp, #7]	@ zero_extendqisi2
 3757 0024 0121     		movs	r1, #1
 3758 0026 2046     		mov	r0, r4
 3759 0028 FFF7FEFF 		bl	VL53L0X_WrByte
 3760              	.LVL396:
1976:Core/Src/vl53l0x_api.c **** 
1977:Core/Src/vl53l0x_api.c **** 	if (Status == VL53L0X_ERROR_NONE) {
 3761              		.loc 1 1977 2 is_stmt 1 view .LVU1136
 3762              		.loc 1 1977 5 is_stmt 0 view .LVU1137
 3763 002c 28B9     		cbnz	r0, .L254
1978:Core/Src/vl53l0x_api.c **** 		PALDevDataSet(Dev, SequenceConfig, Byte);
 3764              		.loc 1 1978 3 is_stmt 1 view .LVU1138
 3765 002e 9DF80730 		ldrb	r3, [sp, #7]	@ zero_extendqisi2
 3766 0032 84F83031 		strb	r3, [r4, #304]
1979:Core/Src/vl53l0x_api.c **** 		VL53L0X_SETPARAMETERFIELD(Dev, WrapAroundCheckEnable,
 3767              		.loc 1 1979 3 view .LVU1139
 3768 0036 84F84C50 		strb	r5, [r4, #76]
 3769              	.L254:
1980:Core/Src/vl53l0x_api.c **** 			WrapAroundCheckEnableInt);
1981:Core/Src/vl53l0x_api.c **** 	}
ARM GAS  C:\Users\anmh1\AppData\Local\Temp\ccBPLcM2.s 			page 105


1982:Core/Src/vl53l0x_api.c **** 
1983:Core/Src/vl53l0x_api.c **** 	LOG_FUNCTION_END(Status);
 3770              		.loc 1 1983 2 view .LVU1140
1984:Core/Src/vl53l0x_api.c **** 	return Status;
 3771              		.loc 1 1984 2 view .LVU1141
1985:Core/Src/vl53l0x_api.c **** }
 3772              		.loc 1 1985 1 is_stmt 0 view .LVU1142
 3773 003a 03B0     		add	sp, sp, #12
 3774              		.cfi_remember_state
 3775              		.cfi_def_cfa_offset 12
 3776              		@ sp needed
 3777 003c 30BD     		pop	{r4, r5, pc}
 3778              	.LVL397:
 3779              	.L252:
 3780              		.cfi_restore_state
1971:Core/Src/vl53l0x_api.c **** 		WrapAroundCheckEnableInt = 1;
 3781              		.loc 1 1971 3 is_stmt 1 view .LVU1143
1971:Core/Src/vl53l0x_api.c **** 		WrapAroundCheckEnableInt = 1;
 3782              		.loc 1 1971 8 is_stmt 0 view .LVU1144
 3783 003e 9DF80730 		ldrb	r3, [sp, #7]	@ zero_extendqisi2
 3784 0042 63F07F03 		orn	r3, r3, #127
 3785 0046 8DF80730 		strb	r3, [sp, #7]
1972:Core/Src/vl53l0x_api.c **** 	}
 3786              		.loc 1 1972 3 is_stmt 1 view .LVU1145
 3787              	.LVL398:
1972:Core/Src/vl53l0x_api.c **** 	}
 3788              		.loc 1 1972 28 is_stmt 0 view .LVU1146
 3789 004a 0125     		movs	r5, #1
 3790 004c E8E7     		b	.L253
 3791              		.cfi_endproc
 3792              	.LFE195:
 3794              		.section	.text.VL53L0X_SetDeviceParameters,"ax",%progbits
 3795              		.align	1
 3796              		.global	VL53L0X_SetDeviceParameters
 3797              		.syntax unified
 3798              		.thumb
 3799              		.thumb_func
 3800              		.fpu fpv4-sp-d16
 3802              	VL53L0X_SetDeviceParameters:
 3803              	.LVL399:
 3804              	.LFB159:
 787:Core/Src/vl53l0x_api.c **** 	VL53L0X_Error Status = VL53L0X_ERROR_NONE;
 3805              		.loc 1 787 1 is_stmt 1 view -0
 3806              		.cfi_startproc
 3807              		@ args = 0, pretend = 0, frame = 0
 3808              		@ frame_needed = 0, uses_anonymous_args = 0
 787:Core/Src/vl53l0x_api.c **** 	VL53L0X_Error Status = VL53L0X_ERROR_NONE;
 3809              		.loc 1 787 1 is_stmt 0 view .LVU1148
 3810 0000 2DE9F041 		push	{r4, r5, r6, r7, r8, lr}
 3811              		.cfi_def_cfa_offset 24
 3812              		.cfi_offset 4, -24
 3813              		.cfi_offset 5, -20
 3814              		.cfi_offset 6, -16
 3815              		.cfi_offset 7, -12
 3816              		.cfi_offset 8, -8
 3817              		.cfi_offset 14, -4
 3818 0004 0746     		mov	r7, r0
ARM GAS  C:\Users\anmh1\AppData\Local\Temp\ccBPLcM2.s 			page 106


 3819 0006 0E46     		mov	r6, r1
 788:Core/Src/vl53l0x_api.c **** 	int i;
 3820              		.loc 1 788 2 is_stmt 1 view .LVU1149
 3821              	.LVL400:
 789:Core/Src/vl53l0x_api.c **** 	LOG_FUNCTION_START("");
 3822              		.loc 1 789 2 view .LVU1150
 790:Core/Src/vl53l0x_api.c **** 	Status = VL53L0X_SetDeviceMode(Dev, pDeviceParameters->DeviceMode);
 3823              		.loc 1 790 2 view .LVU1151
 791:Core/Src/vl53l0x_api.c **** 
 3824              		.loc 1 791 2 view .LVU1152
 791:Core/Src/vl53l0x_api.c **** 
 3825              		.loc 1 791 11 is_stmt 0 view .LVU1153
 3826 0008 0978     		ldrb	r1, [r1]	@ zero_extendqisi2
 3827              	.LVL401:
 791:Core/Src/vl53l0x_api.c **** 
 3828              		.loc 1 791 11 view .LVU1154
 3829 000a FFF7FEFF 		bl	VL53L0X_SetDeviceMode
 3830              	.LVL402:
 793:Core/Src/vl53l0x_api.c **** 		Status = VL53L0X_SetInterMeasurementPeriodMilliSeconds(Dev,
 3831              		.loc 1 793 2 is_stmt 1 view .LVU1155
 793:Core/Src/vl53l0x_api.c **** 		Status = VL53L0X_SetInterMeasurementPeriodMilliSeconds(Dev,
 3832              		.loc 1 793 5 is_stmt 0 view .LVU1156
 3833 000e 0446     		mov	r4, r0
 3834 0010 E8B1     		cbz	r0, .L266
 3835              	.LVL403:
 3836              	.L257:
 798:Core/Src/vl53l0x_api.c **** 		Status = VL53L0X_SetXTalkCompensationRateMegaCps(Dev,
 3837              		.loc 1 798 2 is_stmt 1 view .LVU1157
 798:Core/Src/vl53l0x_api.c **** 		Status = VL53L0X_SetXTalkCompensationRateMegaCps(Dev,
 3838              		.loc 1 798 5 is_stmt 0 view .LVU1158
 3839 0012 14B3     		cbz	r4, .L267
 3840              	.L258:
 803:Core/Src/vl53l0x_api.c **** 		Status = VL53L0X_SetOffsetCalibrationDataMicroMeter(Dev,
 3841              		.loc 1 803 2 is_stmt 1 view .LVU1159
 803:Core/Src/vl53l0x_api.c **** 		Status = VL53L0X_SetOffsetCalibrationDataMicroMeter(Dev,
 3842              		.loc 1 803 5 is_stmt 0 view .LVU1160
 3843 0014 3CB3     		cbz	r4, .L268
 3844              	.L259:
 787:Core/Src/vl53l0x_api.c **** 	VL53L0X_Error Status = VL53L0X_ERROR_NONE;
 3845              		.loc 1 787 1 discriminator 1 view .LVU1161
 3846 0016 0025     		movs	r5, #0
 3847              	.L260:
 3848              	.LVL404:
 808:Core/Src/vl53l0x_api.c **** 		if (Status == VL53L0X_ERROR_NONE)
 3849              		.loc 1 808 14 is_stmt 1 discriminator 1 view .LVU1162
 808:Core/Src/vl53l0x_api.c **** 		if (Status == VL53L0X_ERROR_NONE)
 3850              		.loc 1 808 2 is_stmt 0 discriminator 1 view .LVU1163
 3851 0018 052D     		cmp	r5, #5
 3852 001a 2ADC     		bgt	.L261
 809:Core/Src/vl53l0x_api.c **** 			Status |= VL53L0X_SetLimitCheckEnable(Dev, i,
 3853              		.loc 1 809 3 is_stmt 1 view .LVU1164
 809:Core/Src/vl53l0x_api.c **** 			Status |= VL53L0X_SetLimitCheckEnable(Dev, i,
 3854              		.loc 1 809 6 is_stmt 0 view .LVU1165
 3855 001c 4CBB     		cbnz	r4, .L261
 810:Core/Src/vl53l0x_api.c **** 				pDeviceParameters->LimitChecksEnable[i]);
 3856              		.loc 1 810 4 is_stmt 1 view .LVU1166
 810:Core/Src/vl53l0x_api.c **** 				pDeviceParameters->LimitChecksEnable[i]);
ARM GAS  C:\Users\anmh1\AppData\Local\Temp\ccBPLcM2.s 			page 107


 3857              		.loc 1 810 14 is_stmt 0 view .LVU1167
 3858 001e 1FFA85F8 		uxth	r8, r5
 3859 0022 7319     		adds	r3, r6, r5
 3860 0024 1A7E     		ldrb	r2, [r3, #24]	@ zero_extendqisi2
 3861 0026 4146     		mov	r1, r8
 3862 0028 3846     		mov	r0, r7
 3863 002a FFF7FEFF 		bl	VL53L0X_SetLimitCheckEnable
 3864              	.LVL405:
 810:Core/Src/vl53l0x_api.c **** 				pDeviceParameters->LimitChecksEnable[i]);
 3865              		.loc 1 810 11 view .LVU1168
 3866 002e 2043     		orrs	r0, r0, r4
 3867 0030 44B2     		sxtb	r4, r0
 3868              	.LVL406:
 815:Core/Src/vl53l0x_api.c **** 			Status |= VL53L0X_SetLimitCheckValue(Dev, i,
 3869              		.loc 1 815 3 is_stmt 1 view .LVU1169
 815:Core/Src/vl53l0x_api.c **** 			Status |= VL53L0X_SetLimitCheckValue(Dev, i,
 3870              		.loc 1 815 6 is_stmt 0 view .LVU1170
 3871 0032 F4B9     		cbnz	r4, .L261
 816:Core/Src/vl53l0x_api.c **** 				pDeviceParameters->LimitChecksValue[i]);
 3872              		.loc 1 816 4 is_stmt 1 discriminator 2 view .LVU1171
 816:Core/Src/vl53l0x_api.c **** 				pDeviceParameters->LimitChecksValue[i]);
 3873              		.loc 1 816 14 is_stmt 0 discriminator 2 view .LVU1172
 3874 0034 05F10803 		add	r3, r5, #8
 3875 0038 06EB8303 		add	r3, r6, r3, lsl #2
 3876 003c 5A68     		ldr	r2, [r3, #4]
 3877 003e 4146     		mov	r1, r8
 3878 0040 3846     		mov	r0, r7
 3879 0042 FFF7FEFF 		bl	VL53L0X_SetLimitCheckValue
 3880              	.LVL407:
 816:Core/Src/vl53l0x_api.c **** 				pDeviceParameters->LimitChecksValue[i]);
 3881              		.loc 1 816 11 discriminator 2 view .LVU1173
 3882 0046 2043     		orrs	r0, r0, r4
 3883 0048 44B2     		sxtb	r4, r0
 3884              	.LVL408:
 808:Core/Src/vl53l0x_api.c **** 		if (Status == VL53L0X_ERROR_NONE)
 3885              		.loc 1 808 56 is_stmt 1 discriminator 2 view .LVU1174
 808:Core/Src/vl53l0x_api.c **** 		if (Status == VL53L0X_ERROR_NONE)
 3886              		.loc 1 808 57 is_stmt 0 discriminator 2 view .LVU1175
 3887 004a 0135     		adds	r5, r5, #1
 3888              	.LVL409:
 808:Core/Src/vl53l0x_api.c **** 		if (Status == VL53L0X_ERROR_NONE)
 3889              		.loc 1 808 57 discriminator 2 view .LVU1176
 3890 004c E4E7     		b	.L260
 3891              	.LVL410:
 3892              	.L266:
 794:Core/Src/vl53l0x_api.c **** 			pDeviceParameters->InterMeasurementPeriodMilliSeconds);
 3893              		.loc 1 794 3 is_stmt 1 view .LVU1177
 794:Core/Src/vl53l0x_api.c **** 			pDeviceParameters->InterMeasurementPeriodMilliSeconds);
 3894              		.loc 1 794 12 is_stmt 0 view .LVU1178
 3895 004e B168     		ldr	r1, [r6, #8]
 3896 0050 3846     		mov	r0, r7
 3897              	.LVL411:
 794:Core/Src/vl53l0x_api.c **** 			pDeviceParameters->InterMeasurementPeriodMilliSeconds);
 3898              		.loc 1 794 12 view .LVU1179
 3899 0052 FFF7FEFF 		bl	VL53L0X_SetInterMeasurementPeriodMilliSeconds
 3900              	.LVL412:
 3901 0056 0446     		mov	r4, r0
ARM GAS  C:\Users\anmh1\AppData\Local\Temp\ccBPLcM2.s 			page 108


 3902              	.LVL413:
 794:Core/Src/vl53l0x_api.c **** 			pDeviceParameters->InterMeasurementPeriodMilliSeconds);
 3903              		.loc 1 794 12 view .LVU1180
 3904 0058 DBE7     		b	.L257
 3905              	.L267:
 799:Core/Src/vl53l0x_api.c **** 			pDeviceParameters->XTalkCompensationRateMegaCps);
 3906              		.loc 1 799 3 is_stmt 1 view .LVU1181
 799:Core/Src/vl53l0x_api.c **** 			pDeviceParameters->XTalkCompensationRateMegaCps);
 3907              		.loc 1 799 12 is_stmt 0 view .LVU1182
 3908 005a 3169     		ldr	r1, [r6, #16]
 3909 005c 3846     		mov	r0, r7
 3910 005e FFF7FEFF 		bl	VL53L0X_SetXTalkCompensationRateMegaCps
 3911              	.LVL414:
 3912 0062 0446     		mov	r4, r0
 3913              	.LVL415:
 799:Core/Src/vl53l0x_api.c **** 			pDeviceParameters->XTalkCompensationRateMegaCps);
 3914              		.loc 1 799 12 view .LVU1183
 3915 0064 D6E7     		b	.L258
 3916              	.L268:
 804:Core/Src/vl53l0x_api.c **** 			pDeviceParameters->RangeOffsetMicroMeters);
 3917              		.loc 1 804 3 is_stmt 1 view .LVU1184
 804:Core/Src/vl53l0x_api.c **** 			pDeviceParameters->RangeOffsetMicroMeters);
 3918              		.loc 1 804 12 is_stmt 0 view .LVU1185
 3919 0066 7169     		ldr	r1, [r6, #20]
 3920 0068 3846     		mov	r0, r7
 3921 006a FFF7FEFF 		bl	VL53L0X_SetOffsetCalibrationDataMicroMeter
 3922              	.LVL416:
 3923 006e 0446     		mov	r4, r0
 3924              	.LVL417:
 804:Core/Src/vl53l0x_api.c **** 			pDeviceParameters->RangeOffsetMicroMeters);
 3925              		.loc 1 804 12 view .LVU1186
 3926 0070 D1E7     		b	.L259
 3927              	.LVL418:
 3928              	.L261:
 823:Core/Src/vl53l0x_api.c **** 		Status = VL53L0X_SetWrapAroundCheckEnable(Dev,
 3929              		.loc 1 823 2 is_stmt 1 view .LVU1187
 823:Core/Src/vl53l0x_api.c **** 		Status = VL53L0X_SetWrapAroundCheckEnable(Dev,
 3930              		.loc 1 823 5 is_stmt 0 view .LVU1188
 3931 0072 1CB1     		cbz	r4, .L269
 3932              	.L263:
 827:Core/Src/vl53l0x_api.c **** 		Status = VL53L0X_SetMeasurementTimingBudgetMicroSeconds(Dev,
 3933              		.loc 1 827 2 is_stmt 1 view .LVU1189
 827:Core/Src/vl53l0x_api.c **** 		Status = VL53L0X_SetMeasurementTimingBudgetMicroSeconds(Dev,
 3934              		.loc 1 827 5 is_stmt 0 view .LVU1190
 3935 0074 4CB1     		cbz	r4, .L270
 3936              	.L264:
 832:Core/Src/vl53l0x_api.c **** 	return Status;
 3937              		.loc 1 832 2 is_stmt 1 view .LVU1191
 833:Core/Src/vl53l0x_api.c **** }
 3938              		.loc 1 833 2 view .LVU1192
 834:Core/Src/vl53l0x_api.c **** 
 3939              		.loc 1 834 1 is_stmt 0 view .LVU1193
 3940 0076 2046     		mov	r0, r4
 3941 0078 BDE8F081 		pop	{r4, r5, r6, r7, r8, pc}
 3942              	.LVL419:
 3943              	.L269:
 824:Core/Src/vl53l0x_api.c **** 			pDeviceParameters->WrapAroundCheckEnable);
ARM GAS  C:\Users\anmh1\AppData\Local\Temp\ccBPLcM2.s 			page 109


 3944              		.loc 1 824 3 is_stmt 1 view .LVU1194
 824:Core/Src/vl53l0x_api.c **** 			pDeviceParameters->WrapAroundCheckEnable);
 3945              		.loc 1 824 12 is_stmt 0 view .LVU1195
 3946 007c 96F83C10 		ldrb	r1, [r6, #60]	@ zero_extendqisi2
 3947 0080 3846     		mov	r0, r7
 3948 0082 FFF7FEFF 		bl	VL53L0X_SetWrapAroundCheckEnable
 3949              	.LVL420:
 3950 0086 0446     		mov	r4, r0
 3951              	.LVL421:
 824:Core/Src/vl53l0x_api.c **** 			pDeviceParameters->WrapAroundCheckEnable);
 3952              		.loc 1 824 12 view .LVU1196
 3953 0088 F4E7     		b	.L263
 3954              	.L270:
 828:Core/Src/vl53l0x_api.c **** 			pDeviceParameters->MeasurementTimingBudgetMicroSeconds);
 3955              		.loc 1 828 3 is_stmt 1 view .LVU1197
 828:Core/Src/vl53l0x_api.c **** 			pDeviceParameters->MeasurementTimingBudgetMicroSeconds);
 3956              		.loc 1 828 12 is_stmt 0 view .LVU1198
 3957 008a 7168     		ldr	r1, [r6, #4]
 3958 008c 3846     		mov	r0, r7
 3959 008e FFF7FEFF 		bl	VL53L0X_SetMeasurementTimingBudgetMicroSeconds
 3960              	.LVL422:
 3961 0092 0446     		mov	r4, r0
 3962              	.LVL423:
 828:Core/Src/vl53l0x_api.c **** 			pDeviceParameters->MeasurementTimingBudgetMicroSeconds);
 3963              		.loc 1 828 12 view .LVU1199
 3964 0094 EFE7     		b	.L264
 3965              		.cfi_endproc
 3966              	.LFE159:
 3968              		.section	.text.VL53L0X_GetWrapAroundCheckEnable,"ax",%progbits
 3969              		.align	1
 3970              		.global	VL53L0X_GetWrapAroundCheckEnable
 3971              		.syntax unified
 3972              		.thumb
 3973              		.thumb_func
 3974              		.fpu fpv4-sp-d16
 3976              	VL53L0X_GetWrapAroundCheckEnable:
 3977              	.LVL424:
 3978              	.LFB196:
1986:Core/Src/vl53l0x_api.c **** 
1987:Core/Src/vl53l0x_api.c **** VL53L0X_Error VL53L0X_GetWrapAroundCheckEnable(VL53L0X_DEV Dev,
1988:Core/Src/vl53l0x_api.c **** 	uint8_t *pWrapAroundCheckEnable)
1989:Core/Src/vl53l0x_api.c **** {
 3979              		.loc 1 1989 1 is_stmt 1 view -0
 3980              		.cfi_startproc
 3981              		@ args = 0, pretend = 0, frame = 8
 3982              		@ frame_needed = 0, uses_anonymous_args = 0
 3983              		.loc 1 1989 1 is_stmt 0 view .LVU1201
 3984 0000 30B5     		push	{r4, r5, lr}
 3985              		.cfi_def_cfa_offset 12
 3986              		.cfi_offset 4, -12
 3987              		.cfi_offset 5, -8
 3988              		.cfi_offset 14, -4
 3989 0002 83B0     		sub	sp, sp, #12
 3990              		.cfi_def_cfa_offset 24
 3991 0004 0446     		mov	r4, r0
 3992 0006 0D46     		mov	r5, r1
1990:Core/Src/vl53l0x_api.c **** 	VL53L0X_Error Status = VL53L0X_ERROR_NONE;
ARM GAS  C:\Users\anmh1\AppData\Local\Temp\ccBPLcM2.s 			page 110


 3993              		.loc 1 1990 2 is_stmt 1 view .LVU1202
 3994              	.LVL425:
1991:Core/Src/vl53l0x_api.c **** 	uint8_t data;
 3995              		.loc 1 1991 2 view .LVU1203
1992:Core/Src/vl53l0x_api.c **** 
1993:Core/Src/vl53l0x_api.c **** 	LOG_FUNCTION_START("");
 3996              		.loc 1 1993 2 view .LVU1204
1994:Core/Src/vl53l0x_api.c **** 
1995:Core/Src/vl53l0x_api.c **** 	Status = VL53L0X_RdByte(Dev, VL53L0X_REG_SYSTEM_SEQUENCE_CONFIG, &data);
 3997              		.loc 1 1995 2 view .LVU1205
 3998              		.loc 1 1995 11 is_stmt 0 view .LVU1206
 3999 0008 0DF10702 		add	r2, sp, #7
 4000 000c 0121     		movs	r1, #1
 4001              	.LVL426:
 4002              		.loc 1 1995 11 view .LVU1207
 4003 000e FFF7FEFF 		bl	VL53L0X_RdByte
 4004              	.LVL427:
1996:Core/Src/vl53l0x_api.c **** 	if (Status == VL53L0X_ERROR_NONE) {
 4005              		.loc 1 1996 2 is_stmt 1 view .LVU1208
 4006              		.loc 1 1996 5 is_stmt 0 view .LVU1209
 4007 0012 0346     		mov	r3, r0
 4008 0014 40B9     		cbnz	r0, .L272
1997:Core/Src/vl53l0x_api.c **** 		PALDevDataSet(Dev, SequenceConfig, data);
 4009              		.loc 1 1997 3 is_stmt 1 view .LVU1210
 4010 0016 9DF80720 		ldrb	r2, [sp, #7]	@ zero_extendqisi2
 4011 001a 84F83021 		strb	r2, [r4, #304]
1998:Core/Src/vl53l0x_api.c **** 		if (data & (0x01 << 7))
 4012              		.loc 1 1998 3 view .LVU1211
 4013              		.loc 1 1998 6 is_stmt 0 view .LVU1212
 4014 001e 12F0800F 		tst	r2, #128
 4015 0022 08D1     		bne	.L276
1999:Core/Src/vl53l0x_api.c **** 			*pWrapAroundCheckEnable = 0x01;
2000:Core/Src/vl53l0x_api.c **** 		else
2001:Core/Src/vl53l0x_api.c **** 			*pWrapAroundCheckEnable = 0x00;
 4016              		.loc 1 2001 4 is_stmt 1 view .LVU1213
 4017              		.loc 1 2001 28 is_stmt 0 view .LVU1214
 4018 0024 0022     		movs	r2, #0
 4019 0026 2A70     		strb	r2, [r5]
 4020              	.L272:
2002:Core/Src/vl53l0x_api.c **** 	}
2003:Core/Src/vl53l0x_api.c **** 	if (Status == VL53L0X_ERROR_NONE) {
 4021              		.loc 1 2003 2 is_stmt 1 view .LVU1215
 4022              		.loc 1 2003 5 is_stmt 0 view .LVU1216
 4023 0028 13B9     		cbnz	r3, .L274
2004:Core/Src/vl53l0x_api.c **** 		VL53L0X_SETPARAMETERFIELD(Dev, WrapAroundCheckEnable,
 4024              		.loc 1 2004 3 is_stmt 1 view .LVU1217
 4025 002a 2A78     		ldrb	r2, [r5]	@ zero_extendqisi2
 4026 002c 84F84C20 		strb	r2, [r4, #76]
 4027              	.L274:
2005:Core/Src/vl53l0x_api.c **** 			*pWrapAroundCheckEnable);
2006:Core/Src/vl53l0x_api.c **** 	}
2007:Core/Src/vl53l0x_api.c **** 
2008:Core/Src/vl53l0x_api.c **** 	LOG_FUNCTION_END(Status);
 4028              		.loc 1 2008 2 view .LVU1218
2009:Core/Src/vl53l0x_api.c **** 	return Status;
 4029              		.loc 1 2009 2 view .LVU1219
2010:Core/Src/vl53l0x_api.c **** }
ARM GAS  C:\Users\anmh1\AppData\Local\Temp\ccBPLcM2.s 			page 111


 4030              		.loc 1 2010 1 is_stmt 0 view .LVU1220
 4031 0030 1846     		mov	r0, r3
 4032              	.LVL428:
 4033              		.loc 1 2010 1 view .LVU1221
 4034 0032 03B0     		add	sp, sp, #12
 4035              		.cfi_remember_state
 4036              		.cfi_def_cfa_offset 12
 4037              		@ sp needed
 4038 0034 30BD     		pop	{r4, r5, pc}
 4039              	.LVL429:
 4040              	.L276:
 4041              		.cfi_restore_state
1999:Core/Src/vl53l0x_api.c **** 		else
 4042              		.loc 1 1999 4 is_stmt 1 view .LVU1222
1999:Core/Src/vl53l0x_api.c **** 		else
 4043              		.loc 1 1999 28 is_stmt 0 view .LVU1223
 4044 0036 0122     		movs	r2, #1
 4045 0038 2A70     		strb	r2, [r5]
 4046 003a F5E7     		b	.L272
 4047              		.cfi_endproc
 4048              	.LFE196:
 4050              		.section	.text.VL53L0X_GetDeviceParameters,"ax",%progbits
 4051              		.align	1
 4052              		.global	VL53L0X_GetDeviceParameters
 4053              		.syntax unified
 4054              		.thumb
 4055              		.thumb_func
 4056              		.fpu fpv4-sp-d16
 4058              	VL53L0X_GetDeviceParameters:
 4059              	.LVL430:
 4060              	.LFB160:
 838:Core/Src/vl53l0x_api.c **** 	VL53L0X_Error Status = VL53L0X_ERROR_NONE;
 4061              		.loc 1 838 1 is_stmt 1 view -0
 4062              		.cfi_startproc
 4063              		@ args = 0, pretend = 0, frame = 0
 4064              		@ frame_needed = 0, uses_anonymous_args = 0
 838:Core/Src/vl53l0x_api.c **** 	VL53L0X_Error Status = VL53L0X_ERROR_NONE;
 4065              		.loc 1 838 1 is_stmt 0 view .LVU1225
 4066 0000 2DE9F041 		push	{r4, r5, r6, r7, r8, lr}
 4067              		.cfi_def_cfa_offset 24
 4068              		.cfi_offset 4, -24
 4069              		.cfi_offset 5, -20
 4070              		.cfi_offset 6, -16
 4071              		.cfi_offset 7, -12
 4072              		.cfi_offset 8, -8
 4073              		.cfi_offset 14, -4
 4074 0004 0746     		mov	r7, r0
 4075 0006 0E46     		mov	r6, r1
 839:Core/Src/vl53l0x_api.c **** 	int i;
 4076              		.loc 1 839 2 is_stmt 1 view .LVU1226
 4077              	.LVL431:
 840:Core/Src/vl53l0x_api.c **** 
 4078              		.loc 1 840 2 view .LVU1227
 842:Core/Src/vl53l0x_api.c **** 
 4079              		.loc 1 842 2 view .LVU1228
 844:Core/Src/vl53l0x_api.c **** 
 4080              		.loc 1 844 2 view .LVU1229
ARM GAS  C:\Users\anmh1\AppData\Local\Temp\ccBPLcM2.s 			page 112


 844:Core/Src/vl53l0x_api.c **** 
 4081              		.loc 1 844 11 is_stmt 0 view .LVU1230
 4082 0008 FFF7FEFF 		bl	VL53L0X_GetDeviceMode
 4083              	.LVL432:
 846:Core/Src/vl53l0x_api.c **** 		Status = VL53L0X_GetInterMeasurementPeriodMilliSeconds(Dev,
 4084              		.loc 1 846 2 is_stmt 1 view .LVU1231
 846:Core/Src/vl53l0x_api.c **** 		Status = VL53L0X_GetInterMeasurementPeriodMilliSeconds(Dev,
 4085              		.loc 1 846 5 is_stmt 0 view .LVU1232
 4086 000c 0446     		mov	r4, r0
 4087 000e 60B1     		cbz	r0, .L289
 4088              	.LVL433:
 4089              	.L278:
 851:Core/Src/vl53l0x_api.c **** 		pDeviceParameters->XTalkCompensationEnable = 0;
 4090              		.loc 1 851 2 is_stmt 1 view .LVU1233
 851:Core/Src/vl53l0x_api.c **** 		pDeviceParameters->XTalkCompensationEnable = 0;
 4091              		.loc 1 851 5 is_stmt 0 view .LVU1234
 4092 0010 0CB9     		cbnz	r4, .L279
 852:Core/Src/vl53l0x_api.c **** 
 4093              		.loc 1 852 3 is_stmt 1 view .LVU1235
 852:Core/Src/vl53l0x_api.c **** 
 4094              		.loc 1 852 46 is_stmt 0 view .LVU1236
 4095 0012 0023     		movs	r3, #0
 4096 0014 3373     		strb	r3, [r6, #12]
 4097              	.L279:
 854:Core/Src/vl53l0x_api.c **** 		Status = VL53L0X_GetXTalkCompensationRateMegaCps(Dev,
 4098              		.loc 1 854 2 is_stmt 1 view .LVU1237
 854:Core/Src/vl53l0x_api.c **** 		Status = VL53L0X_GetXTalkCompensationRateMegaCps(Dev,
 4099              		.loc 1 854 5 is_stmt 0 view .LVU1238
 4100 0016 7CB1     		cbz	r4, .L290
 4101              	.L280:
 859:Core/Src/vl53l0x_api.c **** 		Status = VL53L0X_GetOffsetCalibrationDataMicroMeter(Dev,
 4102              		.loc 1 859 2 is_stmt 1 view .LVU1239
 859:Core/Src/vl53l0x_api.c **** 		Status = VL53L0X_GetOffsetCalibrationDataMicroMeter(Dev,
 4103              		.loc 1 859 5 is_stmt 0 view .LVU1240
 4104 0018 ACB1     		cbz	r4, .L291
 4105              	.L281:
 864:Core/Src/vl53l0x_api.c **** 		for (i = 0; i < VL53L0X_CHECKENABLE_NUMBER_OF_CHECKS; i++) {
 4106              		.loc 1 864 2 is_stmt 1 view .LVU1241
 864:Core/Src/vl53l0x_api.c **** 		for (i = 0; i < VL53L0X_CHECKENABLE_NUMBER_OF_CHECKS; i++) {
 4107              		.loc 1 864 5 is_stmt 0 view .LVU1242
 4108 001a DCB1     		cbz	r4, .L287
 4109              	.L283:
 885:Core/Src/vl53l0x_api.c **** 		Status = VL53L0X_GetWrapAroundCheckEnable(Dev,
 4110              		.loc 1 885 2 is_stmt 1 view .LVU1243
 885:Core/Src/vl53l0x_api.c **** 		Status = VL53L0X_GetWrapAroundCheckEnable(Dev,
 4111              		.loc 1 885 5 is_stmt 0 view .LVU1244
 4112 001c 002C     		cmp	r4, #0
 4113 001e 38D0     		beq	.L292
 4114              	.L285:
 891:Core/Src/vl53l0x_api.c **** 		Status = VL53L0X_GetMeasurementTimingBudgetMicroSeconds(Dev,
 4115              		.loc 1 891 2 is_stmt 1 view .LVU1245
 891:Core/Src/vl53l0x_api.c **** 		Status = VL53L0X_GetMeasurementTimingBudgetMicroSeconds(Dev,
 4116              		.loc 1 891 5 is_stmt 0 view .LVU1246
 4117 0020 002C     		cmp	r4, #0
 4118 0022 3DD0     		beq	.L293
 4119              	.L286:
 896:Core/Src/vl53l0x_api.c **** 	return Status;
ARM GAS  C:\Users\anmh1\AppData\Local\Temp\ccBPLcM2.s 			page 113


 4120              		.loc 1 896 2 is_stmt 1 view .LVU1247
 897:Core/Src/vl53l0x_api.c **** }
 4121              		.loc 1 897 2 view .LVU1248
 898:Core/Src/vl53l0x_api.c **** 
 4122              		.loc 1 898 1 is_stmt 0 view .LVU1249
 4123 0024 2046     		mov	r0, r4
 4124 0026 BDE8F081 		pop	{r4, r5, r6, r7, r8, pc}
 4125              	.LVL434:
 4126              	.L289:
 847:Core/Src/vl53l0x_api.c **** 		&(pDeviceParameters->InterMeasurementPeriodMilliSeconds));
 4127              		.loc 1 847 3 is_stmt 1 view .LVU1250
 847:Core/Src/vl53l0x_api.c **** 		&(pDeviceParameters->InterMeasurementPeriodMilliSeconds));
 4128              		.loc 1 847 12 is_stmt 0 view .LVU1251
 4129 002a 06F10801 		add	r1, r6, #8
 4130 002e 3846     		mov	r0, r7
 4131              	.LVL435:
 847:Core/Src/vl53l0x_api.c **** 		&(pDeviceParameters->InterMeasurementPeriodMilliSeconds));
 4132              		.loc 1 847 12 view .LVU1252
 4133 0030 FFF7FEFF 		bl	VL53L0X_GetInterMeasurementPeriodMilliSeconds
 4134              	.LVL436:
 4135 0034 0446     		mov	r4, r0
 4136              	.LVL437:
 847:Core/Src/vl53l0x_api.c **** 		&(pDeviceParameters->InterMeasurementPeriodMilliSeconds));
 4137              		.loc 1 847 12 view .LVU1253
 4138 0036 EBE7     		b	.L278
 4139              	.L290:
 855:Core/Src/vl53l0x_api.c **** 			&(pDeviceParameters->XTalkCompensationRateMegaCps));
 4140              		.loc 1 855 3 is_stmt 1 view .LVU1254
 855:Core/Src/vl53l0x_api.c **** 			&(pDeviceParameters->XTalkCompensationRateMegaCps));
 4141              		.loc 1 855 12 is_stmt 0 view .LVU1255
 4142 0038 06F11001 		add	r1, r6, #16
 4143 003c 3846     		mov	r0, r7
 4144 003e FFF7FEFF 		bl	VL53L0X_GetXTalkCompensationRateMegaCps
 4145              	.LVL438:
 4146 0042 0446     		mov	r4, r0
 4147              	.LVL439:
 855:Core/Src/vl53l0x_api.c **** 			&(pDeviceParameters->XTalkCompensationRateMegaCps));
 4148              		.loc 1 855 12 view .LVU1256
 4149 0044 E8E7     		b	.L280
 4150              	.L291:
 860:Core/Src/vl53l0x_api.c **** 			&(pDeviceParameters->RangeOffsetMicroMeters));
 4151              		.loc 1 860 3 is_stmt 1 view .LVU1257
 860:Core/Src/vl53l0x_api.c **** 			&(pDeviceParameters->RangeOffsetMicroMeters));
 4152              		.loc 1 860 12 is_stmt 0 view .LVU1258
 4153 0046 06F11401 		add	r1, r6, #20
 4154 004a 3846     		mov	r0, r7
 4155 004c FFF7FEFF 		bl	VL53L0X_GetOffsetCalibrationDataMicroMeter
 4156              	.LVL440:
 4157 0050 0446     		mov	r4, r0
 4158              	.LVL441:
 860:Core/Src/vl53l0x_api.c **** 			&(pDeviceParameters->RangeOffsetMicroMeters));
 4159              		.loc 1 860 12 view .LVU1259
 4160 0052 E2E7     		b	.L281
 4161              	.L287:
 865:Core/Src/vl53l0x_api.c **** 			/* get first the values, then the enables.
 4162              		.loc 1 865 10 view .LVU1260
 4163 0054 0025     		movs	r5, #0
ARM GAS  C:\Users\anmh1\AppData\Local\Temp\ccBPLcM2.s 			page 114


 4164              	.L282:
 4165              	.LVL442:
 865:Core/Src/vl53l0x_api.c **** 			/* get first the values, then the enables.
 4166              		.loc 1 865 15 is_stmt 1 discriminator 1 view .LVU1261
 865:Core/Src/vl53l0x_api.c **** 			/* get first the values, then the enables.
 4167              		.loc 1 865 3 is_stmt 0 discriminator 1 view .LVU1262
 4168 0056 052D     		cmp	r5, #5
 4169 0058 E0DC     		bgt	.L283
 870:Core/Src/vl53l0x_api.c **** 				Status |= VL53L0X_GetLimitCheckValue(Dev, i,
 4170              		.loc 1 870 4 is_stmt 1 view .LVU1263
 870:Core/Src/vl53l0x_api.c **** 				Status |= VL53L0X_GetLimitCheckValue(Dev, i,
 4171              		.loc 1 870 7 is_stmt 0 view .LVU1264
 4172 005a 002C     		cmp	r4, #0
 4173 005c DED1     		bne	.L283
 871:Core/Src/vl53l0x_api.c **** 				&(pDeviceParameters->LimitChecksValue[i]));
 4174              		.loc 1 871 5 is_stmt 1 view .LVU1265
 871:Core/Src/vl53l0x_api.c **** 				&(pDeviceParameters->LimitChecksValue[i]));
 4175              		.loc 1 871 15 is_stmt 0 view .LVU1266
 4176 005e 1FFA85F8 		uxth	r8, r5
 4177 0062 05F10802 		add	r2, r5, #8
 4178 0066 06EB8202 		add	r2, r6, r2, lsl #2
 4179 006a 0432     		adds	r2, r2, #4
 4180 006c 4146     		mov	r1, r8
 4181 006e 3846     		mov	r0, r7
 4182 0070 FFF7FEFF 		bl	VL53L0X_GetLimitCheckValue
 4183              	.LVL443:
 871:Core/Src/vl53l0x_api.c **** 				&(pDeviceParameters->LimitChecksValue[i]));
 4184              		.loc 1 871 12 view .LVU1267
 4185 0074 2043     		orrs	r0, r0, r4
 4186 0076 44B2     		sxtb	r4, r0
 4187              	.LVL444:
 876:Core/Src/vl53l0x_api.c **** 				Status |= VL53L0X_GetLimitCheckEnable(Dev, i,
 4188              		.loc 1 876 4 is_stmt 1 view .LVU1268
 876:Core/Src/vl53l0x_api.c **** 				Status |= VL53L0X_GetLimitCheckEnable(Dev, i,
 4189              		.loc 1 876 7 is_stmt 0 view .LVU1269
 4190 0078 002C     		cmp	r4, #0
 4191 007a CFD1     		bne	.L283
 877:Core/Src/vl53l0x_api.c **** 				&(pDeviceParameters->LimitChecksEnable[i]));
 4192              		.loc 1 877 5 is_stmt 1 discriminator 2 view .LVU1270
 877:Core/Src/vl53l0x_api.c **** 				&(pDeviceParameters->LimitChecksEnable[i]));
 4193              		.loc 1 877 15 is_stmt 0 discriminator 2 view .LVU1271
 4194 007c 05F11802 		add	r2, r5, #24
 4195 0080 3244     		add	r2, r2, r6
 4196 0082 4146     		mov	r1, r8
 4197 0084 3846     		mov	r0, r7
 4198 0086 FFF7FEFF 		bl	VL53L0X_GetLimitCheckEnable
 4199              	.LVL445:
 877:Core/Src/vl53l0x_api.c **** 				&(pDeviceParameters->LimitChecksEnable[i]));
 4200              		.loc 1 877 12 discriminator 2 view .LVU1272
 4201 008a 2043     		orrs	r0, r0, r4
 4202 008c 44B2     		sxtb	r4, r0
 4203              	.LVL446:
 865:Core/Src/vl53l0x_api.c **** 			/* get first the values, then the enables.
 4204              		.loc 1 865 57 is_stmt 1 discriminator 2 view .LVU1273
 865:Core/Src/vl53l0x_api.c **** 			/* get first the values, then the enables.
 4205              		.loc 1 865 58 is_stmt 0 discriminator 2 view .LVU1274
 4206 008e 0135     		adds	r5, r5, #1
ARM GAS  C:\Users\anmh1\AppData\Local\Temp\ccBPLcM2.s 			page 115


 4207              	.LVL447:
 865:Core/Src/vl53l0x_api.c **** 			/* get first the values, then the enables.
 4208              		.loc 1 865 58 discriminator 2 view .LVU1275
 4209 0090 E1E7     		b	.L282
 4210              	.LVL448:
 4211              	.L292:
 886:Core/Src/vl53l0x_api.c **** 			&(pDeviceParameters->WrapAroundCheckEnable));
 4212              		.loc 1 886 3 is_stmt 1 view .LVU1276
 886:Core/Src/vl53l0x_api.c **** 			&(pDeviceParameters->WrapAroundCheckEnable));
 4213              		.loc 1 886 12 is_stmt 0 view .LVU1277
 4214 0092 06F13C01 		add	r1, r6, #60
 4215 0096 3846     		mov	r0, r7
 4216 0098 FFF7FEFF 		bl	VL53L0X_GetWrapAroundCheckEnable
 4217              	.LVL449:
 4218 009c 0446     		mov	r4, r0
 4219              	.LVL450:
 886:Core/Src/vl53l0x_api.c **** 			&(pDeviceParameters->WrapAroundCheckEnable));
 4220              		.loc 1 886 12 view .LVU1278
 4221 009e BFE7     		b	.L285
 4222              	.L293:
 892:Core/Src/vl53l0x_api.c **** 		&(pDeviceParameters->MeasurementTimingBudgetMicroSeconds));
 4223              		.loc 1 892 3 is_stmt 1 view .LVU1279
 892:Core/Src/vl53l0x_api.c **** 		&(pDeviceParameters->MeasurementTimingBudgetMicroSeconds));
 4224              		.loc 1 892 12 is_stmt 0 view .LVU1280
 4225 00a0 311D     		adds	r1, r6, #4
 4226 00a2 3846     		mov	r0, r7
 4227 00a4 FFF7FEFF 		bl	VL53L0X_GetMeasurementTimingBudgetMicroSeconds
 4228              	.LVL451:
 4229 00a8 0446     		mov	r4, r0
 4230              	.LVL452:
 892:Core/Src/vl53l0x_api.c **** 		&(pDeviceParameters->MeasurementTimingBudgetMicroSeconds));
 4231              		.loc 1 892 12 view .LVU1281
 4232 00aa BBE7     		b	.L286
 4233              		.cfi_endproc
 4234              	.LFE160:
 4236              		.section	.text.VL53L0X_DataInit,"ax",%progbits
 4237              		.align	1
 4238              		.global	VL53L0X_DataInit
 4239              		.syntax unified
 4240              		.thumb
 4241              		.thumb_func
 4242              		.fpu fpv4-sp-d16
 4244              	VL53L0X_DataInit:
 4245              	.LVL453:
 4246              	.LFB153:
 368:Core/Src/vl53l0x_api.c **** 	VL53L0X_Error Status = VL53L0X_ERROR_NONE;
 4247              		.loc 1 368 1 is_stmt 1 view -0
 4248              		.cfi_startproc
 4249              		@ args = 0, pretend = 0, frame = 72
 4250              		@ frame_needed = 0, uses_anonymous_args = 0
 368:Core/Src/vl53l0x_api.c **** 	VL53L0X_Error Status = VL53L0X_ERROR_NONE;
 4251              		.loc 1 368 1 is_stmt 0 view .LVU1283
 4252 0000 F0B5     		push	{r4, r5, r6, r7, lr}
 4253              		.cfi_def_cfa_offset 20
 4254              		.cfi_offset 4, -20
 4255              		.cfi_offset 5, -16
 4256              		.cfi_offset 6, -12
ARM GAS  C:\Users\anmh1\AppData\Local\Temp\ccBPLcM2.s 			page 116


 4257              		.cfi_offset 7, -8
 4258              		.cfi_offset 14, -4
 4259 0002 93B0     		sub	sp, sp, #76
 4260              		.cfi_def_cfa_offset 96
 4261 0004 0546     		mov	r5, r0
 369:Core/Src/vl53l0x_api.c **** 	VL53L0X_DeviceParameters_t CurrentParameters;
 4262              		.loc 1 369 2 is_stmt 1 view .LVU1284
 4263              	.LVL454:
 370:Core/Src/vl53l0x_api.c **** 	int i;
 4264              		.loc 1 370 2 view .LVU1285
 371:Core/Src/vl53l0x_api.c **** 	uint8_t StopVariable;
 4265              		.loc 1 371 2 view .LVU1286
 372:Core/Src/vl53l0x_api.c **** 
 4266              		.loc 1 372 2 view .LVU1287
 374:Core/Src/vl53l0x_api.c **** 
 4267              		.loc 1 374 2 view .LVU1288
 386:Core/Src/vl53l0x_api.c **** 		Status = VL53L0X_WrByte(Dev, 0x88, 0x00);
 4268              		.loc 1 386 2 view .LVU1289
 387:Core/Src/vl53l0x_api.c **** 
 4269              		.loc 1 387 3 view .LVU1290
 387:Core/Src/vl53l0x_api.c **** 
 4270              		.loc 1 387 12 is_stmt 0 view .LVU1291
 4271 0006 0022     		movs	r2, #0
 4272 0008 8821     		movs	r1, #136
 4273 000a FFF7FEFF 		bl	VL53L0X_WrByte
 4274              	.LVL455:
 389:Core/Src/vl53l0x_api.c **** 
 4275              		.loc 1 389 2 is_stmt 1 view .LVU1292
 4276 000e 0023     		movs	r3, #0
 4277 0010 85F8F030 		strb	r3, [r5, #240]
 397:Core/Src/vl53l0x_api.c **** 
 4278              		.loc 1 397 2 view .LVU1293
 4279 0014 4FF47A72 		mov	r2, #1000
 4280 0018 A5F85221 		strh	r2, [r5, #338]	@ movhi
 400:Core/Src/vl53l0x_api.c **** 	PALDevDataSet(Dev, DmaxCalSignalRateRtnMegaCps,
 4281              		.loc 1 400 2 view .LVU1294
 4282 001c 4FF4C872 		mov	r2, #400
 4283 0020 A5F85421 		strh	r2, [r5, #340]	@ movhi
 401:Core/Src/vl53l0x_api.c **** 		(FixPoint1616_t)((0x00016B85))); /* 1.42 No Cover Glass*/
 4284              		.loc 1 401 2 view .LVU1295
 4285 0024 654A     		ldr	r2, .L319
 4286 0026 C5F85821 		str	r2, [r5, #344]
 406:Core/Src/vl53l0x_api.c **** 
 4287              		.loc 1 406 2 view .LVU1296
 4288 002a 654A     		ldr	r2, .L319+4
 4289 002c C5F8D420 		str	r2, [r5, #212]
 409:Core/Src/vl53l0x_api.c **** 
 4290              		.loc 1 409 2 view .LVU1297
 4291 0030 2B62     		str	r3, [r5, #32]
 412:Core/Src/vl53l0x_api.c **** 	if (Status == VL53L0X_ERROR_NONE) {
 4292              		.loc 1 412 2 view .LVU1298
 412:Core/Src/vl53l0x_api.c **** 	if (Status == VL53L0X_ERROR_NONE) {
 4293              		.loc 1 412 11 is_stmt 0 view .LVU1299
 4294 0032 02A9     		add	r1, sp, #8
 4295 0034 2846     		mov	r0, r5
 4296 0036 FFF7FEFF 		bl	VL53L0X_GetDeviceParameters
 4297              	.LVL456:
ARM GAS  C:\Users\anmh1\AppData\Local\Temp\ccBPLcM2.s 			page 117


 413:Core/Src/vl53l0x_api.c **** 		/* initialize PAL values */
 4298              		.loc 1 413 2 is_stmt 1 view .LVU1300
 413:Core/Src/vl53l0x_api.c **** 		/* initialize PAL values */
 4299              		.loc 1 413 5 is_stmt 0 view .LVU1301
 4300 003a 0446     		mov	r4, r0
 4301 003c 88B9     		cbnz	r0, .L295
 415:Core/Src/vl53l0x_api.c **** 		CurrentParameters.HistogramMode = VL53L0X_HISTOGRAMMODE_DISABLED;
 4302              		.loc 1 415 3 is_stmt 1 view .LVU1302
 415:Core/Src/vl53l0x_api.c **** 		CurrentParameters.HistogramMode = VL53L0X_HISTOGRAMMODE_DISABLED;
 4303              		.loc 1 415 32 is_stmt 0 view .LVU1303
 4304 003e 0023     		movs	r3, #0
 4305 0040 8DF80830 		strb	r3, [sp, #8]
 416:Core/Src/vl53l0x_api.c **** 		PALDevDataSet(Dev, CurrentParameters, CurrentParameters);
 4306              		.loc 1 416 3 is_stmt 1 view .LVU1304
 416:Core/Src/vl53l0x_api.c **** 		PALDevDataSet(Dev, CurrentParameters, CurrentParameters);
 4307              		.loc 1 416 35 is_stmt 0 view .LVU1305
 4308 0044 8DF80930 		strb	r3, [sp, #9]
 417:Core/Src/vl53l0x_api.c **** 	}
 4309              		.loc 1 417 3 is_stmt 1 view .LVU1306
 4310 0048 05F11006 		add	r6, r5, #16
 4311 004c 02AF     		add	r7, sp, #8
 4312 004e 0FCF     		ldmia	r7!, {r0, r1, r2, r3}
 4313              	.LVL457:
 417:Core/Src/vl53l0x_api.c **** 	}
 4314              		.loc 1 417 3 is_stmt 0 view .LVU1307
 4315 0050 0FC6     		stmia	r6!, {r0, r1, r2, r3}
 4316 0052 0FCF     		ldmia	r7!, {r0, r1, r2, r3}
 4317 0054 0FC6     		stmia	r6!, {r0, r1, r2, r3}
 4318 0056 0FCF     		ldmia	r7!, {r0, r1, r2, r3}
 4319 0058 0FC6     		stmia	r6!, {r0, r1, r2, r3}
 4320 005a 97E80F00 		ldm	r7, {r0, r1, r2, r3}
 4321 005e 86E80F00 		stm	r6, {r0, r1, r2, r3}
 4322              	.L295:
 421:Core/Src/vl53l0x_api.c **** 	PALDevDataSet(Dev, SigmaEstEffPulseWidth, 900);
 4323              		.loc 1 421 2 is_stmt 1 view .LVU1308
 4324 0062 6423     		movs	r3, #100
 4325 0064 A5F83431 		strh	r3, [r5, #308]	@ movhi
 422:Core/Src/vl53l0x_api.c **** 	PALDevDataSet(Dev, SigmaEstEffAmbWidth, 500);
 4326              		.loc 1 422 2 view .LVU1309
 4327 0068 4FF46173 		mov	r3, #900
 4328 006c A5F83631 		strh	r3, [r5, #310]	@ movhi
 423:Core/Src/vl53l0x_api.c **** 	PALDevDataSet(Dev, targetRefRate, 0x0A00); /* 20 MCPS in 9:7 format */
 4329              		.loc 1 423 2 view .LVU1310
 4330 0070 4FF4FA73 		mov	r3, #500
 4331 0074 A5F83831 		strh	r3, [r5, #312]	@ movhi
 424:Core/Src/vl53l0x_api.c **** 
 4332              		.loc 1 424 2 view .LVU1311
 4333 0078 4FF42063 		mov	r3, #2560
 4334 007c A5F83C31 		strh	r3, [r5, #316]	@ movhi
 427:Core/Src/vl53l0x_api.c **** 
 4335              		.loc 1 427 2 view .LVU1312
 4336 0080 0126     		movs	r6, #1
 4337 0082 85F85061 		strb	r6, [r5, #336]
 429:Core/Src/vl53l0x_api.c **** 	Status |= VL53L0X_WrByte(Dev, 0xFF, 0x01);
 4338              		.loc 1 429 2 view .LVU1313
 429:Core/Src/vl53l0x_api.c **** 	Status |= VL53L0X_WrByte(Dev, 0xFF, 0x01);
 4339              		.loc 1 429 12 is_stmt 0 view .LVU1314
ARM GAS  C:\Users\anmh1\AppData\Local\Temp\ccBPLcM2.s 			page 118


 4340 0086 3246     		mov	r2, r6
 4341 0088 8021     		movs	r1, #128
 4342 008a 2846     		mov	r0, r5
 4343 008c FFF7FEFF 		bl	VL53L0X_WrByte
 4344              	.LVL458:
 429:Core/Src/vl53l0x_api.c **** 	Status |= VL53L0X_WrByte(Dev, 0xFF, 0x01);
 4345              		.loc 1 429 9 view .LVU1315
 4346 0090 0443     		orrs	r4, r4, r0
 4347 0092 64B2     		sxtb	r4, r4
 4348              	.LVL459:
 430:Core/Src/vl53l0x_api.c **** 	Status |= VL53L0X_WrByte(Dev, 0x00, 0x00);
 4349              		.loc 1 430 2 is_stmt 1 view .LVU1316
 430:Core/Src/vl53l0x_api.c **** 	Status |= VL53L0X_WrByte(Dev, 0x00, 0x00);
 4350              		.loc 1 430 12 is_stmt 0 view .LVU1317
 4351 0094 3246     		mov	r2, r6
 4352 0096 FF21     		movs	r1, #255
 4353 0098 2846     		mov	r0, r5
 4354 009a FFF7FEFF 		bl	VL53L0X_WrByte
 4355              	.LVL460:
 430:Core/Src/vl53l0x_api.c **** 	Status |= VL53L0X_WrByte(Dev, 0x00, 0x00);
 4356              		.loc 1 430 9 view .LVU1318
 4357 009e 0443     		orrs	r4, r4, r0
 4358              	.LVL461:
 430:Core/Src/vl53l0x_api.c **** 	Status |= VL53L0X_WrByte(Dev, 0x00, 0x00);
 4359              		.loc 1 430 9 view .LVU1319
 4360 00a0 64B2     		sxtb	r4, r4
 4361              	.LVL462:
 431:Core/Src/vl53l0x_api.c **** 	Status |= VL53L0X_RdByte(Dev, 0x91, &StopVariable);
 4362              		.loc 1 431 2 is_stmt 1 view .LVU1320
 431:Core/Src/vl53l0x_api.c **** 	Status |= VL53L0X_RdByte(Dev, 0x91, &StopVariable);
 4363              		.loc 1 431 12 is_stmt 0 view .LVU1321
 4364 00a2 0022     		movs	r2, #0
 4365 00a4 1146     		mov	r1, r2
 4366 00a6 2846     		mov	r0, r5
 4367 00a8 FFF7FEFF 		bl	VL53L0X_WrByte
 4368              	.LVL463:
 431:Core/Src/vl53l0x_api.c **** 	Status |= VL53L0X_RdByte(Dev, 0x91, &StopVariable);
 4369              		.loc 1 431 9 view .LVU1322
 4370 00ac 0443     		orrs	r4, r4, r0
 4371              	.LVL464:
 431:Core/Src/vl53l0x_api.c **** 	Status |= VL53L0X_RdByte(Dev, 0x91, &StopVariable);
 4372              		.loc 1 431 9 view .LVU1323
 4373 00ae 64B2     		sxtb	r4, r4
 4374              	.LVL465:
 432:Core/Src/vl53l0x_api.c **** 	PALDevDataSet(Dev, StopVariable, StopVariable);
 4375              		.loc 1 432 2 is_stmt 1 view .LVU1324
 432:Core/Src/vl53l0x_api.c **** 	PALDevDataSet(Dev, StopVariable, StopVariable);
 4376              		.loc 1 432 12 is_stmt 0 view .LVU1325
 4377 00b0 0DF10702 		add	r2, sp, #7
 4378 00b4 9121     		movs	r1, #145
 4379 00b6 2846     		mov	r0, r5
 4380 00b8 FFF7FEFF 		bl	VL53L0X_RdByte
 4381              	.LVL466:
 432:Core/Src/vl53l0x_api.c **** 	PALDevDataSet(Dev, StopVariable, StopVariable);
 4382              		.loc 1 432 9 view .LVU1326
 4383 00bc 0443     		orrs	r4, r4, r0
 4384              	.LVL467:
ARM GAS  C:\Users\anmh1\AppData\Local\Temp\ccBPLcM2.s 			page 119


 432:Core/Src/vl53l0x_api.c **** 	PALDevDataSet(Dev, StopVariable, StopVariable);
 4385              		.loc 1 432 9 view .LVU1327
 4386 00be 64B2     		sxtb	r4, r4
 4387              	.LVL468:
 433:Core/Src/vl53l0x_api.c **** 	Status |= VL53L0X_WrByte(Dev, 0x00, 0x01);
 4388              		.loc 1 433 2 is_stmt 1 view .LVU1328
 4389 00c0 9DF80730 		ldrb	r3, [sp, #7]	@ zero_extendqisi2
 4390 00c4 85F83A31 		strb	r3, [r5, #314]
 434:Core/Src/vl53l0x_api.c **** 	Status |= VL53L0X_WrByte(Dev, 0xFF, 0x00);
 4391              		.loc 1 434 2 view .LVU1329
 434:Core/Src/vl53l0x_api.c **** 	Status |= VL53L0X_WrByte(Dev, 0xFF, 0x00);
 4392              		.loc 1 434 12 is_stmt 0 view .LVU1330
 4393 00c8 3246     		mov	r2, r6
 4394 00ca 0021     		movs	r1, #0
 4395 00cc 2846     		mov	r0, r5
 4396 00ce FFF7FEFF 		bl	VL53L0X_WrByte
 4397              	.LVL469:
 434:Core/Src/vl53l0x_api.c **** 	Status |= VL53L0X_WrByte(Dev, 0xFF, 0x00);
 4398              		.loc 1 434 9 view .LVU1331
 4399 00d2 0443     		orrs	r4, r4, r0
 4400              	.LVL470:
 434:Core/Src/vl53l0x_api.c **** 	Status |= VL53L0X_WrByte(Dev, 0xFF, 0x00);
 4401              		.loc 1 434 9 view .LVU1332
 4402 00d4 64B2     		sxtb	r4, r4
 4403              	.LVL471:
 435:Core/Src/vl53l0x_api.c **** 	Status |= VL53L0X_WrByte(Dev, 0x80, 0x00);
 4404              		.loc 1 435 2 is_stmt 1 view .LVU1333
 435:Core/Src/vl53l0x_api.c **** 	Status |= VL53L0X_WrByte(Dev, 0x80, 0x00);
 4405              		.loc 1 435 12 is_stmt 0 view .LVU1334
 4406 00d6 0022     		movs	r2, #0
 4407 00d8 FF21     		movs	r1, #255
 4408 00da 2846     		mov	r0, r5
 4409 00dc FFF7FEFF 		bl	VL53L0X_WrByte
 4410              	.LVL472:
 435:Core/Src/vl53l0x_api.c **** 	Status |= VL53L0X_WrByte(Dev, 0x80, 0x00);
 4411              		.loc 1 435 9 view .LVU1335
 4412 00e0 0443     		orrs	r4, r4, r0
 4413              	.LVL473:
 435:Core/Src/vl53l0x_api.c **** 	Status |= VL53L0X_WrByte(Dev, 0x80, 0x00);
 4414              		.loc 1 435 9 view .LVU1336
 4415 00e2 64B2     		sxtb	r4, r4
 4416              	.LVL474:
 436:Core/Src/vl53l0x_api.c **** 
 4417              		.loc 1 436 2 is_stmt 1 view .LVU1337
 436:Core/Src/vl53l0x_api.c **** 
 4418              		.loc 1 436 12 is_stmt 0 view .LVU1338
 4419 00e4 0022     		movs	r2, #0
 4420 00e6 8021     		movs	r1, #128
 4421 00e8 2846     		mov	r0, r5
 4422 00ea FFF7FEFF 		bl	VL53L0X_WrByte
 4423              	.LVL475:
 436:Core/Src/vl53l0x_api.c **** 
 4424              		.loc 1 436 9 view .LVU1339
 4425 00ee 2043     		orrs	r0, r0, r4
 4426 00f0 44B2     		sxtb	r4, r0
 4427              	.LVL476:
 439:Core/Src/vl53l0x_api.c **** 		if (Status == VL53L0X_ERROR_NONE)
ARM GAS  C:\Users\anmh1\AppData\Local\Temp\ccBPLcM2.s 			page 120


 4428              		.loc 1 439 2 is_stmt 1 view .LVU1340
 439:Core/Src/vl53l0x_api.c **** 		if (Status == VL53L0X_ERROR_NONE)
 4429              		.loc 1 439 9 is_stmt 0 view .LVU1341
 4430 00f2 0026     		movs	r6, #0
 4431              	.LVL477:
 4432              	.L296:
 439:Core/Src/vl53l0x_api.c **** 		if (Status == VL53L0X_ERROR_NONE)
 4433              		.loc 1 439 14 is_stmt 1 discriminator 1 view .LVU1342
 439:Core/Src/vl53l0x_api.c **** 		if (Status == VL53L0X_ERROR_NONE)
 4434              		.loc 1 439 2 is_stmt 0 discriminator 1 view .LVU1343
 4435 00f4 052E     		cmp	r6, #5
 4436 00f6 09DC     		bgt	.L297
 440:Core/Src/vl53l0x_api.c **** 			Status |= VL53L0X_SetLimitCheckEnable(Dev, i, 1);
 4437              		.loc 1 440 3 is_stmt 1 view .LVU1344
 440:Core/Src/vl53l0x_api.c **** 			Status |= VL53L0X_SetLimitCheckEnable(Dev, i, 1);
 4438              		.loc 1 440 6 is_stmt 0 view .LVU1345
 4439 00f8 44B9     		cbnz	r4, .L297
 441:Core/Src/vl53l0x_api.c **** 		else
 4440              		.loc 1 441 4 is_stmt 1 discriminator 2 view .LVU1346
 441:Core/Src/vl53l0x_api.c **** 		else
 4441              		.loc 1 441 14 is_stmt 0 discriminator 2 view .LVU1347
 4442 00fa 0122     		movs	r2, #1
 4443 00fc B1B2     		uxth	r1, r6
 4444 00fe 2846     		mov	r0, r5
 4445 0100 FFF7FEFF 		bl	VL53L0X_SetLimitCheckEnable
 4446              	.LVL478:
 441:Core/Src/vl53l0x_api.c **** 		else
 4447              		.loc 1 441 11 discriminator 2 view .LVU1348
 4448 0104 2043     		orrs	r0, r0, r4
 4449 0106 44B2     		sxtb	r4, r0
 4450              	.LVL479:
 439:Core/Src/vl53l0x_api.c **** 		if (Status == VL53L0X_ERROR_NONE)
 4451              		.loc 1 439 56 is_stmt 1 discriminator 2 view .LVU1349
 439:Core/Src/vl53l0x_api.c **** 		if (Status == VL53L0X_ERROR_NONE)
 4452              		.loc 1 439 57 is_stmt 0 discriminator 2 view .LVU1350
 4453 0108 0136     		adds	r6, r6, #1
 4454              	.LVL480:
 439:Core/Src/vl53l0x_api.c **** 		if (Status == VL53L0X_ERROR_NONE)
 4455              		.loc 1 439 57 discriminator 2 view .LVU1351
 4456 010a F3E7     		b	.L296
 4457              	.L297:
 448:Core/Src/vl53l0x_api.c **** 		Status = VL53L0X_SetLimitCheckEnable(Dev,
 4458              		.loc 1 448 2 is_stmt 1 view .LVU1352
 448:Core/Src/vl53l0x_api.c **** 		Status = VL53L0X_SetLimitCheckEnable(Dev,
 4459              		.loc 1 448 5 is_stmt 0 view .LVU1353
 4460 010c 7CB1     		cbz	r4, .L310
 4461              	.L299:
 452:Core/Src/vl53l0x_api.c **** 		Status = VL53L0X_SetLimitCheckEnable(Dev,
 4462              		.loc 1 452 2 is_stmt 1 view .LVU1354
 452:Core/Src/vl53l0x_api.c **** 		Status = VL53L0X_SetLimitCheckEnable(Dev,
 4463              		.loc 1 452 5 is_stmt 0 view .LVU1355
 4464 010e ACB1     		cbz	r4, .L311
 4465              	.L300:
 456:Core/Src/vl53l0x_api.c **** 		Status = VL53L0X_SetLimitCheckEnable(Dev,
 4466              		.loc 1 456 2 is_stmt 1 view .LVU1356
 456:Core/Src/vl53l0x_api.c **** 		Status = VL53L0X_SetLimitCheckEnable(Dev,
 4467              		.loc 1 456 5 is_stmt 0 view .LVU1357
ARM GAS  C:\Users\anmh1\AppData\Local\Temp\ccBPLcM2.s 			page 121


 4468 0110 DCB1     		cbz	r4, .L312
 4469              	.L301:
 460:Core/Src/vl53l0x_api.c **** 		Status = VL53L0X_SetLimitCheckEnable(Dev,
 4470              		.loc 1 460 2 is_stmt 1 view .LVU1358
 460:Core/Src/vl53l0x_api.c **** 		Status = VL53L0X_SetLimitCheckEnable(Dev,
 4471              		.loc 1 460 5 is_stmt 0 view .LVU1359
 4472 0112 0CB3     		cbz	r4, .L313
 4473              	.L302:
 465:Core/Src/vl53l0x_api.c **** 		Status = VL53L0X_SetLimitCheckValue(Dev,
 4474              		.loc 1 465 2 is_stmt 1 view .LVU1360
 465:Core/Src/vl53l0x_api.c **** 		Status = VL53L0X_SetLimitCheckValue(Dev,
 4475              		.loc 1 465 5 is_stmt 0 view .LVU1361
 4476 0114 3CB3     		cbz	r4, .L314
 4477              	.L303:
 470:Core/Src/vl53l0x_api.c **** 		Status = VL53L0X_SetLimitCheckValue(Dev,
 4478              		.loc 1 470 2 is_stmt 1 view .LVU1362
 470:Core/Src/vl53l0x_api.c **** 		Status = VL53L0X_SetLimitCheckValue(Dev,
 4479              		.loc 1 470 5 is_stmt 0 view .LVU1363
 4480 0116 74B3     		cbz	r4, .L315
 4481              	.L304:
 477:Core/Src/vl53l0x_api.c **** 		Status = VL53L0X_SetLimitCheckValue(Dev,
 4482              		.loc 1 477 2 is_stmt 1 view .LVU1364
 477:Core/Src/vl53l0x_api.c **** 		Status = VL53L0X_SetLimitCheckValue(Dev,
 4483              		.loc 1 477 5 is_stmt 0 view .LVU1365
 4484 0118 ACB3     		cbz	r4, .L316
 4485              	.L305:
 483:Core/Src/vl53l0x_api.c **** 		Status = VL53L0X_SetLimitCheckValue(Dev,
 4486              		.loc 1 483 2 is_stmt 1 view .LVU1366
 483:Core/Src/vl53l0x_api.c **** 		Status = VL53L0X_SetLimitCheckValue(Dev,
 4487              		.loc 1 483 5 is_stmt 0 view .LVU1367
 4488 011a E4B3     		cbz	r4, .L317
 4489              	.L306:
 489:Core/Src/vl53l0x_api.c **** 
 4490              		.loc 1 489 2 is_stmt 1 view .LVU1368
 489:Core/Src/vl53l0x_api.c **** 
 4491              		.loc 1 489 5 is_stmt 0 view .LVU1369
 4492 011c 002C     		cmp	r4, #0
 4493 011e 41D0     		beq	.L318
 4494              	.L307:
 500:Core/Src/vl53l0x_api.c **** 		VL53L0X_SETDEVICESPECIFICPARAMETER(Dev, RefSpadsInitialised, 0);
 4495              		.loc 1 500 2 is_stmt 1 view .LVU1370
 500:Core/Src/vl53l0x_api.c **** 		VL53L0X_SETDEVICESPECIFICPARAMETER(Dev, RefSpadsInitialised, 0);
 4496              		.loc 1 500 5 is_stmt 0 view .LVU1371
 4497 0120 14B9     		cbnz	r4, .L308
 501:Core/Src/vl53l0x_api.c **** 
 4498              		.loc 1 501 3 is_stmt 1 view .LVU1372
 4499 0122 0023     		movs	r3, #0
 4500 0124 85F81531 		strb	r3, [r5, #277]
 4501              	.L308:
 504:Core/Src/vl53l0x_api.c **** 	return Status;
 4502              		.loc 1 504 2 view .LVU1373
 505:Core/Src/vl53l0x_api.c **** }
 4503              		.loc 1 505 2 view .LVU1374
 506:Core/Src/vl53l0x_api.c **** 
 4504              		.loc 1 506 1 is_stmt 0 view .LVU1375
 4505 0128 2046     		mov	r0, r4
 4506 012a 13B0     		add	sp, sp, #76
ARM GAS  C:\Users\anmh1\AppData\Local\Temp\ccBPLcM2.s 			page 122


 4507              		.cfi_remember_state
 4508              		.cfi_def_cfa_offset 20
 4509              		@ sp needed
 4510 012c F0BD     		pop	{r4, r5, r6, r7, pc}
 4511              	.LVL481:
 4512              	.L310:
 4513              		.cfi_restore_state
 449:Core/Src/vl53l0x_api.c **** 			VL53L0X_CHECKENABLE_SIGNAL_REF_CLIP, 0);
 4514              		.loc 1 449 3 is_stmt 1 view .LVU1376
 449:Core/Src/vl53l0x_api.c **** 			VL53L0X_CHECKENABLE_SIGNAL_REF_CLIP, 0);
 4515              		.loc 1 449 12 is_stmt 0 view .LVU1377
 4516 012e 0022     		movs	r2, #0
 4517 0130 0221     		movs	r1, #2
 4518 0132 2846     		mov	r0, r5
 4519 0134 FFF7FEFF 		bl	VL53L0X_SetLimitCheckEnable
 4520              	.LVL482:
 4521 0138 0446     		mov	r4, r0
 4522              	.LVL483:
 449:Core/Src/vl53l0x_api.c **** 			VL53L0X_CHECKENABLE_SIGNAL_REF_CLIP, 0);
 4523              		.loc 1 449 12 view .LVU1378
 4524 013a E8E7     		b	.L299
 4525              	.L311:
 453:Core/Src/vl53l0x_api.c **** 			VL53L0X_CHECKENABLE_RANGE_IGNORE_THRESHOLD, 0);
 4526              		.loc 1 453 3 is_stmt 1 view .LVU1379
 453:Core/Src/vl53l0x_api.c **** 			VL53L0X_CHECKENABLE_RANGE_IGNORE_THRESHOLD, 0);
 4527              		.loc 1 453 12 is_stmt 0 view .LVU1380
 4528 013c 0022     		movs	r2, #0
 4529 013e 0321     		movs	r1, #3
 4530 0140 2846     		mov	r0, r5
 4531 0142 FFF7FEFF 		bl	VL53L0X_SetLimitCheckEnable
 4532              	.LVL484:
 4533 0146 0446     		mov	r4, r0
 4534              	.LVL485:
 453:Core/Src/vl53l0x_api.c **** 			VL53L0X_CHECKENABLE_RANGE_IGNORE_THRESHOLD, 0);
 4535              		.loc 1 453 12 view .LVU1381
 4536 0148 E2E7     		b	.L300
 4537              	.L312:
 457:Core/Src/vl53l0x_api.c **** 			VL53L0X_CHECKENABLE_SIGNAL_RATE_MSRC, 0);
 4538              		.loc 1 457 3 is_stmt 1 view .LVU1382
 457:Core/Src/vl53l0x_api.c **** 			VL53L0X_CHECKENABLE_SIGNAL_RATE_MSRC, 0);
 4539              		.loc 1 457 12 is_stmt 0 view .LVU1383
 4540 014a 0022     		movs	r2, #0
 4541 014c 0421     		movs	r1, #4
 4542 014e 2846     		mov	r0, r5
 4543 0150 FFF7FEFF 		bl	VL53L0X_SetLimitCheckEnable
 4544              	.LVL486:
 4545 0154 0446     		mov	r4, r0
 4546              	.LVL487:
 457:Core/Src/vl53l0x_api.c **** 			VL53L0X_CHECKENABLE_SIGNAL_RATE_MSRC, 0);
 4547              		.loc 1 457 12 view .LVU1384
 4548 0156 DCE7     		b	.L301
 4549              	.L313:
 461:Core/Src/vl53l0x_api.c **** 			VL53L0X_CHECKENABLE_SIGNAL_RATE_PRE_RANGE, 0);
 4550              		.loc 1 461 3 is_stmt 1 view .LVU1385
 461:Core/Src/vl53l0x_api.c **** 			VL53L0X_CHECKENABLE_SIGNAL_RATE_PRE_RANGE, 0);
 4551              		.loc 1 461 12 is_stmt 0 view .LVU1386
 4552 0158 0022     		movs	r2, #0
ARM GAS  C:\Users\anmh1\AppData\Local\Temp\ccBPLcM2.s 			page 123


 4553 015a 0521     		movs	r1, #5
 4554 015c 2846     		mov	r0, r5
 4555 015e FFF7FEFF 		bl	VL53L0X_SetLimitCheckEnable
 4556              	.LVL488:
 4557 0162 0446     		mov	r4, r0
 4558              	.LVL489:
 461:Core/Src/vl53l0x_api.c **** 			VL53L0X_CHECKENABLE_SIGNAL_RATE_PRE_RANGE, 0);
 4559              		.loc 1 461 12 view .LVU1387
 4560 0164 D6E7     		b	.L302
 4561              	.L314:
 466:Core/Src/vl53l0x_api.c **** 			VL53L0X_CHECKENABLE_SIGMA_FINAL_RANGE,
 4562              		.loc 1 466 3 is_stmt 1 view .LVU1388
 466:Core/Src/vl53l0x_api.c **** 			VL53L0X_CHECKENABLE_SIGMA_FINAL_RANGE,
 4563              		.loc 1 466 12 is_stmt 0 view .LVU1389
 4564 0166 4FF49012 		mov	r2, #1179648
 4565 016a 0021     		movs	r1, #0
 4566 016c 2846     		mov	r0, r5
 4567 016e FFF7FEFF 		bl	VL53L0X_SetLimitCheckValue
 4568              	.LVL490:
 4569 0172 0446     		mov	r4, r0
 4570              	.LVL491:
 466:Core/Src/vl53l0x_api.c **** 			VL53L0X_CHECKENABLE_SIGMA_FINAL_RANGE,
 4571              		.loc 1 466 12 view .LVU1390
 4572 0174 CFE7     		b	.L303
 4573              	.L315:
 471:Core/Src/vl53l0x_api.c **** 			VL53L0X_CHECKENABLE_SIGNAL_RATE_FINAL_RANGE,
 4574              		.loc 1 471 3 is_stmt 1 view .LVU1391
 471:Core/Src/vl53l0x_api.c **** 			VL53L0X_CHECKENABLE_SIGNAL_RATE_FINAL_RANGE,
 4575              		.loc 1 471 12 is_stmt 0 view .LVU1392
 4576 0176 4FF48042 		mov	r2, #16384
 4577 017a 0121     		movs	r1, #1
 4578 017c 2846     		mov	r0, r5
 4579 017e FFF7FEFF 		bl	VL53L0X_SetLimitCheckValue
 4580              	.LVL492:
 4581 0182 0446     		mov	r4, r0
 4582              	.LVL493:
 471:Core/Src/vl53l0x_api.c **** 			VL53L0X_CHECKENABLE_SIGNAL_RATE_FINAL_RANGE,
 4583              		.loc 1 471 12 view .LVU1393
 4584 0184 C8E7     		b	.L304
 4585              	.L316:
 478:Core/Src/vl53l0x_api.c **** 			VL53L0X_CHECKENABLE_SIGNAL_REF_CLIP,
 4586              		.loc 1 478 3 is_stmt 1 view .LVU1394
 478:Core/Src/vl53l0x_api.c **** 			VL53L0X_CHECKENABLE_SIGNAL_REF_CLIP,
 4587              		.loc 1 478 12 is_stmt 0 view .LVU1395
 4588 0186 4FF40C12 		mov	r2, #2293760
 4589 018a 0221     		movs	r1, #2
 4590 018c 2846     		mov	r0, r5
 4591 018e FFF7FEFF 		bl	VL53L0X_SetLimitCheckValue
 4592              	.LVL494:
 4593 0192 0446     		mov	r4, r0
 4594              	.LVL495:
 478:Core/Src/vl53l0x_api.c **** 			VL53L0X_CHECKENABLE_SIGNAL_REF_CLIP,
 4595              		.loc 1 478 12 view .LVU1396
 4596 0194 C1E7     		b	.L305
 4597              	.L317:
 484:Core/Src/vl53l0x_api.c **** 			VL53L0X_CHECKENABLE_RANGE_IGNORE_THRESHOLD,
 4598              		.loc 1 484 3 is_stmt 1 view .LVU1397
ARM GAS  C:\Users\anmh1\AppData\Local\Temp\ccBPLcM2.s 			page 124


 484:Core/Src/vl53l0x_api.c **** 			VL53L0X_CHECKENABLE_RANGE_IGNORE_THRESHOLD,
 4599              		.loc 1 484 12 is_stmt 0 view .LVU1398
 4600 0196 0022     		movs	r2, #0
 4601 0198 0321     		movs	r1, #3
 4602 019a 2846     		mov	r0, r5
 4603 019c FFF7FEFF 		bl	VL53L0X_SetLimitCheckValue
 4604              	.LVL496:
 4605 01a0 0446     		mov	r4, r0
 4606              	.LVL497:
 484:Core/Src/vl53l0x_api.c **** 			VL53L0X_CHECKENABLE_RANGE_IGNORE_THRESHOLD,
 4607              		.loc 1 484 12 view .LVU1399
 4608 01a2 BBE7     		b	.L306
 4609              	.L318:
 491:Core/Src/vl53l0x_api.c **** 		Status = VL53L0X_WrByte(Dev, VL53L0X_REG_SYSTEM_SEQUENCE_CONFIG,
 4610              		.loc 1 491 3 is_stmt 1 view .LVU1400
 4611 01a4 FF22     		movs	r2, #255
 4612 01a6 85F83021 		strb	r2, [r5, #304]
 492:Core/Src/vl53l0x_api.c **** 			0xFF);
 4613              		.loc 1 492 3 view .LVU1401
 492:Core/Src/vl53l0x_api.c **** 			0xFF);
 4614              		.loc 1 492 12 is_stmt 0 view .LVU1402
 4615 01aa 0121     		movs	r1, #1
 4616 01ac 2846     		mov	r0, r5
 4617 01ae FFF7FEFF 		bl	VL53L0X_WrByte
 4618              	.LVL498:
 4619 01b2 0446     		mov	r4, r0
 4620              	.LVL499:
 497:Core/Src/vl53l0x_api.c **** 	}
 4621              		.loc 1 497 3 is_stmt 1 view .LVU1403
 4622 01b4 0123     		movs	r3, #1
 4623 01b6 85F83231 		strb	r3, [r5, #306]
 4624 01ba B1E7     		b	.L307
 4625              	.L320:
 4626              		.align	2
 4627              	.L319:
 4628 01bc 856B0100 		.word	93061
 4629 01c0 A4700900 		.word	618660
 4630              		.cfi_endproc
 4631              	.LFE153:
 4633              		.section	.text.VL53L0X_SetDmaxCalParameters,"ax",%progbits
 4634              		.align	1
 4635              		.global	VL53L0X_SetDmaxCalParameters
 4636              		.syntax unified
 4637              		.thumb
 4638              		.thumb_func
 4639              		.fpu fpv4-sp-d16
 4641              	VL53L0X_SetDmaxCalParameters:
 4642              	.LVL500:
 4643              	.LFB197:
2011:Core/Src/vl53l0x_api.c **** 
2012:Core/Src/vl53l0x_api.c **** VL53L0X_Error VL53L0X_SetDmaxCalParameters(VL53L0X_DEV Dev,
2013:Core/Src/vl53l0x_api.c **** 	uint16_t RangeMilliMeter, FixPoint1616_t SignalRateRtnMegaCps)
2014:Core/Src/vl53l0x_api.c **** {
 4644              		.loc 1 2014 1 view -0
 4645              		.cfi_startproc
 4646              		@ args = 0, pretend = 0, frame = 0
 4647              		@ frame_needed = 0, uses_anonymous_args = 0
ARM GAS  C:\Users\anmh1\AppData\Local\Temp\ccBPLcM2.s 			page 125


 4648              		.loc 1 2014 1 is_stmt 0 view .LVU1405
 4649 0000 10B5     		push	{r4, lr}
 4650              		.cfi_def_cfa_offset 8
 4651              		.cfi_offset 4, -8
 4652              		.cfi_offset 14, -4
 4653 0002 0446     		mov	r4, r0
2015:Core/Src/vl53l0x_api.c **** 	VL53L0X_Error Status = VL53L0X_ERROR_NONE;
 4654              		.loc 1 2015 2 is_stmt 1 view .LVU1406
 4655              	.LVL501:
2016:Core/Src/vl53l0x_api.c **** 	FixPoint1616_t SignalRateRtnMegaCpsTemp = 0;
 4656              		.loc 1 2016 2 view .LVU1407
2017:Core/Src/vl53l0x_api.c **** 
2018:Core/Src/vl53l0x_api.c **** 	LOG_FUNCTION_START("");
 4657              		.loc 1 2018 2 view .LVU1408
2019:Core/Src/vl53l0x_api.c **** 
2020:Core/Src/vl53l0x_api.c **** 	/* Check if one of input parameter is zero, in that case the
2021:Core/Src/vl53l0x_api.c **** 	 * value are get from NVM */
2022:Core/Src/vl53l0x_api.c **** 	if ((RangeMilliMeter == 0) || (SignalRateRtnMegaCps == 0)) {
 4658              		.loc 1 2022 2 view .LVU1409
 4659              		.loc 1 2022 5 is_stmt 0 view .LVU1410
 4660 0004 01B1     		cbz	r1, .L322
 4661              		.loc 1 2022 29 discriminator 1 view .LVU1411
 4662 0006 6AB9     		cbnz	r2, .L323
 4663              	.L322:
2023:Core/Src/vl53l0x_api.c **** 		/* NVM parameters */
2024:Core/Src/vl53l0x_api.c **** 		/* Run VL53L0X_get_info_from_device wit option 4 to get
2025:Core/Src/vl53l0x_api.c **** 		 * signal rate at 400 mm if the value have been already
2026:Core/Src/vl53l0x_api.c **** 		 * get this function will return with no access to device */
2027:Core/Src/vl53l0x_api.c **** 		VL53L0X_get_info_from_device(Dev, 4);
 4664              		.loc 1 2027 3 is_stmt 1 view .LVU1412
 4665 0008 0421     		movs	r1, #4
 4666              	.LVL502:
 4667              		.loc 1 2027 3 is_stmt 0 view .LVU1413
 4668 000a 2046     		mov	r0, r4
 4669              	.LVL503:
 4670              		.loc 1 2027 3 view .LVU1414
 4671 000c FFF7FEFF 		bl	VL53L0X_get_info_from_device
 4672              	.LVL504:
2028:Core/Src/vl53l0x_api.c **** 
2029:Core/Src/vl53l0x_api.c **** 		SignalRateRtnMegaCpsTemp = VL53L0X_GETDEVICESPECIFICPARAMETER(
 4673              		.loc 1 2029 3 is_stmt 1 view .LVU1415
 4674              		.loc 1 2029 28 is_stmt 0 view .LVU1416
 4675 0010 D4F82031 		ldr	r3, [r4, #288]
 4676              	.LVL505:
2030:Core/Src/vl53l0x_api.c **** 			Dev, SignalRateMeasFixed400mm);
2031:Core/Src/vl53l0x_api.c **** 
2032:Core/Src/vl53l0x_api.c **** 		PALDevDataSet(Dev, DmaxCalRangeMilliMeter, 400);
 4677              		.loc 1 2032 3 is_stmt 1 view .LVU1417
 4678 0014 4FF4C872 		mov	r2, #400
 4679 0018 A4F85421 		strh	r2, [r4, #340]	@ movhi
2033:Core/Src/vl53l0x_api.c **** 		PALDevDataSet(Dev, DmaxCalSignalRateRtnMegaCps,
 4680              		.loc 1 2033 3 view .LVU1418
 4681 001c C4F85831 		str	r3, [r4, #344]
 4682              	.LVL506:
 4683              	.L324:
2034:Core/Src/vl53l0x_api.c **** 			SignalRateRtnMegaCpsTemp);
2035:Core/Src/vl53l0x_api.c **** 	} else {
ARM GAS  C:\Users\anmh1\AppData\Local\Temp\ccBPLcM2.s 			page 126


2036:Core/Src/vl53l0x_api.c **** 		/* User parameters */
2037:Core/Src/vl53l0x_api.c **** 		PALDevDataSet(Dev, DmaxCalRangeMilliMeter, RangeMilliMeter);
2038:Core/Src/vl53l0x_api.c **** 		PALDevDataSet(Dev, DmaxCalSignalRateRtnMegaCps,
2039:Core/Src/vl53l0x_api.c **** 			SignalRateRtnMegaCps);
2040:Core/Src/vl53l0x_api.c **** 	}
2041:Core/Src/vl53l0x_api.c **** 
2042:Core/Src/vl53l0x_api.c **** 	LOG_FUNCTION_END(Status);
 4684              		.loc 1 2042 2 view .LVU1419
2043:Core/Src/vl53l0x_api.c **** 	return Status;
 4685              		.loc 1 2043 2 view .LVU1420
2044:Core/Src/vl53l0x_api.c **** }
 4686              		.loc 1 2044 1 is_stmt 0 view .LVU1421
 4687 0020 0020     		movs	r0, #0
 4688 0022 10BD     		pop	{r4, pc}
 4689              	.LVL507:
 4690              	.L323:
2037:Core/Src/vl53l0x_api.c **** 		PALDevDataSet(Dev, DmaxCalSignalRateRtnMegaCps,
 4691              		.loc 1 2037 3 is_stmt 1 view .LVU1422
 4692 0024 A4F85411 		strh	r1, [r4, #340]	@ movhi
2038:Core/Src/vl53l0x_api.c **** 			SignalRateRtnMegaCps);
 4693              		.loc 1 2038 3 view .LVU1423
 4694 0028 C0F85821 		str	r2, [r0, #344]
 4695 002c F8E7     		b	.L324
 4696              		.cfi_endproc
 4697              	.LFE197:
 4699              		.section	.text.VL53L0X_GetDmaxCalParameters,"ax",%progbits
 4700              		.align	1
 4701              		.global	VL53L0X_GetDmaxCalParameters
 4702              		.syntax unified
 4703              		.thumb
 4704              		.thumb_func
 4705              		.fpu fpv4-sp-d16
 4707              	VL53L0X_GetDmaxCalParameters:
 4708              	.LVL508:
 4709              	.LFB198:
2045:Core/Src/vl53l0x_api.c **** 
2046:Core/Src/vl53l0x_api.c **** VL53L0X_Error VL53L0X_GetDmaxCalParameters(VL53L0X_DEV Dev,
2047:Core/Src/vl53l0x_api.c **** 	uint16_t *pRangeMilliMeter, FixPoint1616_t *pSignalRateRtnMegaCps)
2048:Core/Src/vl53l0x_api.c **** {
 4710              		.loc 1 2048 1 view -0
 4711              		.cfi_startproc
 4712              		@ args = 0, pretend = 0, frame = 0
 4713              		@ frame_needed = 0, uses_anonymous_args = 0
 4714              		@ link register save eliminated.
2049:Core/Src/vl53l0x_api.c **** 	VL53L0X_Error Status = VL53L0X_ERROR_NONE;
 4715              		.loc 1 2049 2 view .LVU1425
2050:Core/Src/vl53l0x_api.c **** 
2051:Core/Src/vl53l0x_api.c **** 	LOG_FUNCTION_START("");
 4716              		.loc 1 2051 2 view .LVU1426
2052:Core/Src/vl53l0x_api.c **** 
2053:Core/Src/vl53l0x_api.c **** 	*pRangeMilliMeter = PALDevDataGet(Dev, DmaxCalRangeMilliMeter);
 4717              		.loc 1 2053 2 view .LVU1427
 4718              		.loc 1 2053 22 is_stmt 0 view .LVU1428
 4719 0000 B0F85431 		ldrh	r3, [r0, #340]
 4720              		.loc 1 2053 20 view .LVU1429
 4721 0004 0B80     		strh	r3, [r1]	@ movhi
2054:Core/Src/vl53l0x_api.c **** 	*pSignalRateRtnMegaCps = PALDevDataGet(Dev,
ARM GAS  C:\Users\anmh1\AppData\Local\Temp\ccBPLcM2.s 			page 127


 4722              		.loc 1 2054 2 is_stmt 1 view .LVU1430
 4723              		.loc 1 2054 27 is_stmt 0 view .LVU1431
 4724 0006 D0F85831 		ldr	r3, [r0, #344]
 4725              		.loc 1 2054 25 view .LVU1432
 4726 000a 1360     		str	r3, [r2]
2055:Core/Src/vl53l0x_api.c **** 		DmaxCalSignalRateRtnMegaCps);
2056:Core/Src/vl53l0x_api.c **** 
2057:Core/Src/vl53l0x_api.c **** 	LOG_FUNCTION_END(Status);
 4727              		.loc 1 2057 2 is_stmt 1 view .LVU1433
2058:Core/Src/vl53l0x_api.c **** 	return Status;
 4728              		.loc 1 2058 2 view .LVU1434
2059:Core/Src/vl53l0x_api.c **** }
 4729              		.loc 1 2059 1 is_stmt 0 view .LVU1435
 4730 000c 0020     		movs	r0, #0
 4731              	.LVL509:
 4732              		.loc 1 2059 1 view .LVU1436
 4733 000e 7047     		bx	lr
 4734              		.cfi_endproc
 4735              	.LFE198:
 4737              		.section	.text.VL53L0X_PerformSingleHistogramMeasurement,"ax",%progbits
 4738              		.align	1
 4739              		.global	VL53L0X_PerformSingleHistogramMeasurement
 4740              		.syntax unified
 4741              		.thumb
 4742              		.thumb_func
 4743              		.fpu fpv4-sp-d16
 4745              	VL53L0X_PerformSingleHistogramMeasurement:
 4746              	.LVL510:
 4747              	.LFB200:
2060:Core/Src/vl53l0x_api.c **** 
2061:Core/Src/vl53l0x_api.c **** /* End Group PAL Parameters Functions */
2062:Core/Src/vl53l0x_api.c **** 
2063:Core/Src/vl53l0x_api.c **** /* Group PAL Measurement Functions */
2064:Core/Src/vl53l0x_api.c **** VL53L0X_Error VL53L0X_PerformSingleMeasurement(VL53L0X_DEV Dev)
2065:Core/Src/vl53l0x_api.c **** {
2066:Core/Src/vl53l0x_api.c **** 	VL53L0X_Error Status = VL53L0X_ERROR_NONE;
2067:Core/Src/vl53l0x_api.c **** 	VL53L0X_DeviceModes DeviceMode;
2068:Core/Src/vl53l0x_api.c **** 
2069:Core/Src/vl53l0x_api.c **** 	LOG_FUNCTION_START("");
2070:Core/Src/vl53l0x_api.c **** 
2071:Core/Src/vl53l0x_api.c **** 	/* Get Current DeviceMode */
2072:Core/Src/vl53l0x_api.c **** 	Status = VL53L0X_GetDeviceMode(Dev, &DeviceMode);
2073:Core/Src/vl53l0x_api.c **** 
2074:Core/Src/vl53l0x_api.c **** 	/* Start immediately to run a single ranging measurement in case of
2075:Core/Src/vl53l0x_api.c **** 	 * single ranging or single histogram */
2076:Core/Src/vl53l0x_api.c **** 	if (Status == VL53L0X_ERROR_NONE
2077:Core/Src/vl53l0x_api.c **** 		&& DeviceMode == VL53L0X_DEVICEMODE_SINGLE_RANGING)
2078:Core/Src/vl53l0x_api.c **** 		Status = VL53L0X_StartMeasurement(Dev);
2079:Core/Src/vl53l0x_api.c **** 
2080:Core/Src/vl53l0x_api.c **** 
2081:Core/Src/vl53l0x_api.c **** 	if (Status == VL53L0X_ERROR_NONE)
2082:Core/Src/vl53l0x_api.c **** 		Status = VL53L0X_measurement_poll_for_completion(Dev);
2083:Core/Src/vl53l0x_api.c **** 
2084:Core/Src/vl53l0x_api.c **** 
2085:Core/Src/vl53l0x_api.c **** 	/* Change PAL State in case of single ranging or single histogram */
2086:Core/Src/vl53l0x_api.c **** 	if (Status == VL53L0X_ERROR_NONE
2087:Core/Src/vl53l0x_api.c **** 		&& DeviceMode == VL53L0X_DEVICEMODE_SINGLE_RANGING)
ARM GAS  C:\Users\anmh1\AppData\Local\Temp\ccBPLcM2.s 			page 128


2088:Core/Src/vl53l0x_api.c **** 		PALDevDataSet(Dev, PalState, VL53L0X_STATE_IDLE);
2089:Core/Src/vl53l0x_api.c **** 
2090:Core/Src/vl53l0x_api.c **** 
2091:Core/Src/vl53l0x_api.c **** 	LOG_FUNCTION_END(Status);
2092:Core/Src/vl53l0x_api.c **** 	return Status;
2093:Core/Src/vl53l0x_api.c **** }
2094:Core/Src/vl53l0x_api.c **** 
2095:Core/Src/vl53l0x_api.c **** VL53L0X_Error VL53L0X_PerformSingleHistogramMeasurement(VL53L0X_DEV Dev,
2096:Core/Src/vl53l0x_api.c **** 	VL53L0X_HistogramMeasurementData_t *pHistogramMeasurementData)
2097:Core/Src/vl53l0x_api.c **** {
 4748              		.loc 1 2097 1 is_stmt 1 view -0
 4749              		.cfi_startproc
 4750              		@ args = 0, pretend = 0, frame = 0
 4751              		@ frame_needed = 0, uses_anonymous_args = 0
 4752              		@ link register save eliminated.
2098:Core/Src/vl53l0x_api.c **** 	VL53L0X_Error Status = VL53L0X_ERROR_NOT_IMPLEMENTED;
 4753              		.loc 1 2098 2 view .LVU1438
2099:Core/Src/vl53l0x_api.c **** 	LOG_FUNCTION_START("");
 4754              		.loc 1 2099 2 view .LVU1439
2100:Core/Src/vl53l0x_api.c **** 
2101:Core/Src/vl53l0x_api.c **** 	/* not implemented on VL53L0X */
2102:Core/Src/vl53l0x_api.c **** 
2103:Core/Src/vl53l0x_api.c **** 	LOG_FUNCTION_END(Status);
 4755              		.loc 1 2103 2 view .LVU1440
2104:Core/Src/vl53l0x_api.c **** 	return Status;
 4756              		.loc 1 2104 2 view .LVU1441
2105:Core/Src/vl53l0x_api.c **** }
 4757              		.loc 1 2105 1 is_stmt 0 view .LVU1442
 4758 0000 6FF06200 		mvn	r0, #98
 4759              	.LVL511:
 4760              		.loc 1 2105 1 view .LVU1443
 4761 0004 7047     		bx	lr
 4762              		.cfi_endproc
 4763              	.LFE200:
 4765              		.section	.text.VL53L0X_PerformRefCalibration,"ax",%progbits
 4766              		.align	1
 4767              		.global	VL53L0X_PerformRefCalibration
 4768              		.syntax unified
 4769              		.thumb
 4770              		.thumb_func
 4771              		.fpu fpv4-sp-d16
 4773              	VL53L0X_PerformRefCalibration:
 4774              	.LVL512:
 4775              	.LFB201:
2106:Core/Src/vl53l0x_api.c **** 
2107:Core/Src/vl53l0x_api.c **** VL53L0X_Error VL53L0X_PerformRefCalibration(VL53L0X_DEV Dev, uint8_t *pVhvSettings,
2108:Core/Src/vl53l0x_api.c **** 	uint8_t *pPhaseCal)
2109:Core/Src/vl53l0x_api.c **** {
 4776              		.loc 1 2109 1 is_stmt 1 view -0
 4777              		.cfi_startproc
 4778              		@ args = 0, pretend = 0, frame = 0
 4779              		@ frame_needed = 0, uses_anonymous_args = 0
 4780              		.loc 1 2109 1 is_stmt 0 view .LVU1445
 4781 0000 08B5     		push	{r3, lr}
 4782              		.cfi_def_cfa_offset 8
 4783              		.cfi_offset 3, -8
 4784              		.cfi_offset 14, -4
ARM GAS  C:\Users\anmh1\AppData\Local\Temp\ccBPLcM2.s 			page 129


2110:Core/Src/vl53l0x_api.c **** 	VL53L0X_Error Status = VL53L0X_ERROR_NONE;
 4785              		.loc 1 2110 2 is_stmt 1 view .LVU1446
 4786              	.LVL513:
2111:Core/Src/vl53l0x_api.c **** 	LOG_FUNCTION_START("");
 4787              		.loc 1 2111 2 view .LVU1447
2112:Core/Src/vl53l0x_api.c **** 
2113:Core/Src/vl53l0x_api.c **** 	Status = VL53L0X_perform_ref_calibration(Dev, pVhvSettings,
 4788              		.loc 1 2113 2 view .LVU1448
 4789              		.loc 1 2113 11 is_stmt 0 view .LVU1449
 4790 0002 0123     		movs	r3, #1
 4791 0004 FFF7FEFF 		bl	VL53L0X_perform_ref_calibration
 4792              	.LVL514:
2114:Core/Src/vl53l0x_api.c **** 		pPhaseCal, 1);
2115:Core/Src/vl53l0x_api.c **** 
2116:Core/Src/vl53l0x_api.c **** 	LOG_FUNCTION_END(Status);
 4793              		.loc 1 2116 2 is_stmt 1 view .LVU1450
2117:Core/Src/vl53l0x_api.c **** 	return Status;
 4794              		.loc 1 2117 2 view .LVU1451
2118:Core/Src/vl53l0x_api.c **** }
 4795              		.loc 1 2118 1 is_stmt 0 view .LVU1452
 4796 0008 08BD     		pop	{r3, pc}
 4797              		.cfi_endproc
 4798              	.LFE201:
 4800              		.section	.text.VL53L0X_PerformXTalkMeasurement,"ax",%progbits
 4801              		.align	1
 4802              		.global	VL53L0X_PerformXTalkMeasurement
 4803              		.syntax unified
 4804              		.thumb
 4805              		.thumb_func
 4806              		.fpu fpv4-sp-d16
 4808              	VL53L0X_PerformXTalkMeasurement:
 4809              	.LVL515:
 4810              	.LFB202:
2119:Core/Src/vl53l0x_api.c **** 
2120:Core/Src/vl53l0x_api.c **** VL53L0X_Error VL53L0X_PerformXTalkMeasurement(VL53L0X_DEV Dev,
2121:Core/Src/vl53l0x_api.c **** 	uint32_t TimeoutMs, FixPoint1616_t *pXtalkPerSpad,
2122:Core/Src/vl53l0x_api.c **** 	uint8_t *pAmbientTooHigh)
2123:Core/Src/vl53l0x_api.c **** {
 4811              		.loc 1 2123 1 is_stmt 1 view -0
 4812              		.cfi_startproc
 4813              		@ args = 0, pretend = 0, frame = 0
 4814              		@ frame_needed = 0, uses_anonymous_args = 0
 4815              		@ link register save eliminated.
2124:Core/Src/vl53l0x_api.c **** 	VL53L0X_Error Status = VL53L0X_ERROR_NOT_IMPLEMENTED;
 4816              		.loc 1 2124 2 view .LVU1454
2125:Core/Src/vl53l0x_api.c **** 	LOG_FUNCTION_START("");
 4817              		.loc 1 2125 2 view .LVU1455
2126:Core/Src/vl53l0x_api.c **** 
2127:Core/Src/vl53l0x_api.c **** 	/* not implemented on VL53L0X */
2128:Core/Src/vl53l0x_api.c **** 
2129:Core/Src/vl53l0x_api.c **** 	LOG_FUNCTION_END(Status);
 4818              		.loc 1 2129 2 view .LVU1456
2130:Core/Src/vl53l0x_api.c **** 	return Status;
 4819              		.loc 1 2130 2 view .LVU1457
2131:Core/Src/vl53l0x_api.c **** }
 4820              		.loc 1 2131 1 is_stmt 0 view .LVU1458
 4821 0000 6FF06200 		mvn	r0, #98
ARM GAS  C:\Users\anmh1\AppData\Local\Temp\ccBPLcM2.s 			page 130


 4822              	.LVL516:
 4823              		.loc 1 2131 1 view .LVU1459
 4824 0004 7047     		bx	lr
 4825              		.cfi_endproc
 4826              	.LFE202:
 4828              		.section	.text.VL53L0X_PerformXTalkCalibration,"ax",%progbits
 4829              		.align	1
 4830              		.global	VL53L0X_PerformXTalkCalibration
 4831              		.syntax unified
 4832              		.thumb
 4833              		.thumb_func
 4834              		.fpu fpv4-sp-d16
 4836              	VL53L0X_PerformXTalkCalibration:
 4837              	.LVL517:
 4838              	.LFB203:
2132:Core/Src/vl53l0x_api.c **** 
2133:Core/Src/vl53l0x_api.c **** VL53L0X_Error VL53L0X_PerformXTalkCalibration(VL53L0X_DEV Dev,
2134:Core/Src/vl53l0x_api.c **** 	FixPoint1616_t XTalkCalDistance,
2135:Core/Src/vl53l0x_api.c **** 	FixPoint1616_t *pXTalkCompensationRateMegaCps)
2136:Core/Src/vl53l0x_api.c **** {
 4839              		.loc 1 2136 1 is_stmt 1 view -0
 4840              		.cfi_startproc
 4841              		@ args = 0, pretend = 0, frame = 0
 4842              		@ frame_needed = 0, uses_anonymous_args = 0
 4843              		.loc 1 2136 1 is_stmt 0 view .LVU1461
 4844 0000 08B5     		push	{r3, lr}
 4845              		.cfi_def_cfa_offset 8
 4846              		.cfi_offset 3, -8
 4847              		.cfi_offset 14, -4
2137:Core/Src/vl53l0x_api.c **** 	VL53L0X_Error Status = VL53L0X_ERROR_NONE;
 4848              		.loc 1 2137 2 is_stmt 1 view .LVU1462
 4849              	.LVL518:
2138:Core/Src/vl53l0x_api.c **** 	LOG_FUNCTION_START("");
 4850              		.loc 1 2138 2 view .LVU1463
2139:Core/Src/vl53l0x_api.c **** 
2140:Core/Src/vl53l0x_api.c **** 	Status = VL53L0X_perform_xtalk_calibration(Dev, XTalkCalDistance,
 4851              		.loc 1 2140 2 view .LVU1464
 4852              		.loc 1 2140 11 is_stmt 0 view .LVU1465
 4853 0002 FFF7FEFF 		bl	VL53L0X_perform_xtalk_calibration
 4854              	.LVL519:
2141:Core/Src/vl53l0x_api.c **** 		pXTalkCompensationRateMegaCps);
2142:Core/Src/vl53l0x_api.c **** 
2143:Core/Src/vl53l0x_api.c **** 	LOG_FUNCTION_END(Status);
 4855              		.loc 1 2143 2 is_stmt 1 view .LVU1466
2144:Core/Src/vl53l0x_api.c **** 	return Status;
 4856              		.loc 1 2144 2 view .LVU1467
2145:Core/Src/vl53l0x_api.c **** }
 4857              		.loc 1 2145 1 is_stmt 0 view .LVU1468
 4858 0006 08BD     		pop	{r3, pc}
 4859              		.cfi_endproc
 4860              	.LFE203:
 4862              		.section	.text.VL53L0X_PerformOffsetCalibration,"ax",%progbits
 4863              		.align	1
 4864              		.global	VL53L0X_PerformOffsetCalibration
 4865              		.syntax unified
 4866              		.thumb
 4867              		.thumb_func
ARM GAS  C:\Users\anmh1\AppData\Local\Temp\ccBPLcM2.s 			page 131


 4868              		.fpu fpv4-sp-d16
 4870              	VL53L0X_PerformOffsetCalibration:
 4871              	.LVL520:
 4872              	.LFB204:
2146:Core/Src/vl53l0x_api.c **** 
2147:Core/Src/vl53l0x_api.c **** VL53L0X_Error VL53L0X_PerformOffsetCalibration(VL53L0X_DEV Dev,
2148:Core/Src/vl53l0x_api.c **** 	FixPoint1616_t CalDistanceMilliMeter, int32_t *pOffsetMicroMeter)
2149:Core/Src/vl53l0x_api.c **** {
 4873              		.loc 1 2149 1 is_stmt 1 view -0
 4874              		.cfi_startproc
 4875              		@ args = 0, pretend = 0, frame = 0
 4876              		@ frame_needed = 0, uses_anonymous_args = 0
 4877              		.loc 1 2149 1 is_stmt 0 view .LVU1470
 4878 0000 08B5     		push	{r3, lr}
 4879              		.cfi_def_cfa_offset 8
 4880              		.cfi_offset 3, -8
 4881              		.cfi_offset 14, -4
2150:Core/Src/vl53l0x_api.c **** 	VL53L0X_Error Status = VL53L0X_ERROR_NONE;
 4882              		.loc 1 2150 2 is_stmt 1 view .LVU1471
 4883              	.LVL521:
2151:Core/Src/vl53l0x_api.c **** 	LOG_FUNCTION_START("");
 4884              		.loc 1 2151 2 view .LVU1472
2152:Core/Src/vl53l0x_api.c **** 
2153:Core/Src/vl53l0x_api.c **** 	Status = VL53L0X_perform_offset_calibration(Dev, CalDistanceMilliMeter,
 4885              		.loc 1 2153 2 view .LVU1473
 4886              		.loc 1 2153 11 is_stmt 0 view .LVU1474
 4887 0002 FFF7FEFF 		bl	VL53L0X_perform_offset_calibration
 4888              	.LVL522:
2154:Core/Src/vl53l0x_api.c **** 		pOffsetMicroMeter);
2155:Core/Src/vl53l0x_api.c **** 
2156:Core/Src/vl53l0x_api.c **** 	LOG_FUNCTION_END(Status);
 4889              		.loc 1 2156 2 is_stmt 1 view .LVU1475
2157:Core/Src/vl53l0x_api.c **** 	return Status;
 4890              		.loc 1 2157 2 view .LVU1476
2158:Core/Src/vl53l0x_api.c **** }
 4891              		.loc 1 2158 1 is_stmt 0 view .LVU1477
 4892 0006 08BD     		pop	{r3, pc}
 4893              		.cfi_endproc
 4894              	.LFE204:
 4896              		.section	.text.VL53L0X_WaitDeviceReadyForNewMeasurement,"ax",%progbits
 4897              		.align	1
 4898              		.global	VL53L0X_WaitDeviceReadyForNewMeasurement
 4899              		.syntax unified
 4900              		.thumb
 4901              		.thumb_func
 4902              		.fpu fpv4-sp-d16
 4904              	VL53L0X_WaitDeviceReadyForNewMeasurement:
 4905              	.LVL523:
 4906              	.LFB209:
2159:Core/Src/vl53l0x_api.c **** 
2160:Core/Src/vl53l0x_api.c **** VL53L0X_Error VL53L0X_CheckAndLoadInterruptSettings(VL53L0X_DEV Dev,
2161:Core/Src/vl53l0x_api.c **** 	uint8_t StartNotStopFlag)
2162:Core/Src/vl53l0x_api.c **** {
2163:Core/Src/vl53l0x_api.c **** 	uint8_t InterruptConfig;
2164:Core/Src/vl53l0x_api.c **** 	FixPoint1616_t ThresholdLow;
2165:Core/Src/vl53l0x_api.c **** 	FixPoint1616_t ThresholdHigh;
2166:Core/Src/vl53l0x_api.c **** 	VL53L0X_Error Status = VL53L0X_ERROR_NONE;
ARM GAS  C:\Users\anmh1\AppData\Local\Temp\ccBPLcM2.s 			page 132


2167:Core/Src/vl53l0x_api.c **** 
2168:Core/Src/vl53l0x_api.c **** 	InterruptConfig = VL53L0X_GETDEVICESPECIFICPARAMETER(Dev,
2169:Core/Src/vl53l0x_api.c **** 		Pin0GpioFunctionality);
2170:Core/Src/vl53l0x_api.c **** 
2171:Core/Src/vl53l0x_api.c **** 	if ((InterruptConfig ==
2172:Core/Src/vl53l0x_api.c **** 		VL53L0X_GPIOFUNCTIONALITY_THRESHOLD_CROSSED_LOW) ||
2173:Core/Src/vl53l0x_api.c **** 		(InterruptConfig ==
2174:Core/Src/vl53l0x_api.c **** 		VL53L0X_GPIOFUNCTIONALITY_THRESHOLD_CROSSED_HIGH) ||
2175:Core/Src/vl53l0x_api.c **** 		(InterruptConfig ==
2176:Core/Src/vl53l0x_api.c **** 		VL53L0X_GPIOFUNCTIONALITY_THRESHOLD_CROSSED_OUT)) {
2177:Core/Src/vl53l0x_api.c **** 
2178:Core/Src/vl53l0x_api.c **** 		Status = VL53L0X_GetInterruptThresholds(Dev,
2179:Core/Src/vl53l0x_api.c **** 			VL53L0X_DEVICEMODE_CONTINUOUS_RANGING,
2180:Core/Src/vl53l0x_api.c **** 			&ThresholdLow, &ThresholdHigh);
2181:Core/Src/vl53l0x_api.c **** 
2182:Core/Src/vl53l0x_api.c **** 		if (((ThresholdLow > 255*65536) ||
2183:Core/Src/vl53l0x_api.c **** 			(ThresholdHigh > 255*65536)) &&
2184:Core/Src/vl53l0x_api.c **** 			(Status == VL53L0X_ERROR_NONE)) {
2185:Core/Src/vl53l0x_api.c **** 
2186:Core/Src/vl53l0x_api.c **** 			if (StartNotStopFlag != 0) {
2187:Core/Src/vl53l0x_api.c **** 				Status = VL53L0X_load_tuning_settings(Dev,
2188:Core/Src/vl53l0x_api.c **** 					InterruptThresholdSettings);
2189:Core/Src/vl53l0x_api.c **** 			} else {
2190:Core/Src/vl53l0x_api.c **** 				Status |= VL53L0X_WrByte(Dev, 0xFF, 0x04);
2191:Core/Src/vl53l0x_api.c **** 				Status |= VL53L0X_WrByte(Dev, 0x70, 0x00);
2192:Core/Src/vl53l0x_api.c **** 				Status |= VL53L0X_WrByte(Dev, 0xFF, 0x00);
2193:Core/Src/vl53l0x_api.c **** 				Status |= VL53L0X_WrByte(Dev, 0x80, 0x00);
2194:Core/Src/vl53l0x_api.c **** 			}
2195:Core/Src/vl53l0x_api.c **** 
2196:Core/Src/vl53l0x_api.c **** 		}
2197:Core/Src/vl53l0x_api.c **** 
2198:Core/Src/vl53l0x_api.c **** 
2199:Core/Src/vl53l0x_api.c **** 	}
2200:Core/Src/vl53l0x_api.c **** 
2201:Core/Src/vl53l0x_api.c **** 	return Status;
2202:Core/Src/vl53l0x_api.c **** 
2203:Core/Src/vl53l0x_api.c **** }
2204:Core/Src/vl53l0x_api.c **** 
2205:Core/Src/vl53l0x_api.c **** 
2206:Core/Src/vl53l0x_api.c **** VL53L0X_Error VL53L0X_StartMeasurement(VL53L0X_DEV Dev)
2207:Core/Src/vl53l0x_api.c **** {
2208:Core/Src/vl53l0x_api.c **** 	VL53L0X_Error Status = VL53L0X_ERROR_NONE;
2209:Core/Src/vl53l0x_api.c **** 	VL53L0X_DeviceModes DeviceMode;
2210:Core/Src/vl53l0x_api.c **** 	uint8_t Byte;
2211:Core/Src/vl53l0x_api.c **** 	uint8_t StartStopByte = VL53L0X_REG_SYSRANGE_MODE_START_STOP;
2212:Core/Src/vl53l0x_api.c **** 	uint32_t LoopNb;
2213:Core/Src/vl53l0x_api.c **** 	LOG_FUNCTION_START("");
2214:Core/Src/vl53l0x_api.c **** 
2215:Core/Src/vl53l0x_api.c **** 	/* Get Current DeviceMode */
2216:Core/Src/vl53l0x_api.c **** 	VL53L0X_GetDeviceMode(Dev, &DeviceMode);
2217:Core/Src/vl53l0x_api.c **** 
2218:Core/Src/vl53l0x_api.c **** 	Status = VL53L0X_WrByte(Dev, 0x80, 0x01);
2219:Core/Src/vl53l0x_api.c **** 	Status = VL53L0X_WrByte(Dev, 0xFF, 0x01);
2220:Core/Src/vl53l0x_api.c **** 	Status = VL53L0X_WrByte(Dev, 0x00, 0x00);
2221:Core/Src/vl53l0x_api.c **** 	Status = VL53L0X_WrByte(Dev, 0x91, PALDevDataGet(Dev, StopVariable));
2222:Core/Src/vl53l0x_api.c **** 	Status = VL53L0X_WrByte(Dev, 0x00, 0x01);
2223:Core/Src/vl53l0x_api.c **** 	Status = VL53L0X_WrByte(Dev, 0xFF, 0x00);
ARM GAS  C:\Users\anmh1\AppData\Local\Temp\ccBPLcM2.s 			page 133


2224:Core/Src/vl53l0x_api.c **** 	Status = VL53L0X_WrByte(Dev, 0x80, 0x00);
2225:Core/Src/vl53l0x_api.c **** 
2226:Core/Src/vl53l0x_api.c **** 	switch (DeviceMode) {
2227:Core/Src/vl53l0x_api.c **** 	case VL53L0X_DEVICEMODE_SINGLE_RANGING:
2228:Core/Src/vl53l0x_api.c **** 		Status = VL53L0X_WrByte(Dev, VL53L0X_REG_SYSRANGE_START, 0x01);
2229:Core/Src/vl53l0x_api.c **** 
2230:Core/Src/vl53l0x_api.c **** 		Byte = StartStopByte;
2231:Core/Src/vl53l0x_api.c **** 		if (Status == VL53L0X_ERROR_NONE) {
2232:Core/Src/vl53l0x_api.c **** 			/* Wait until start bit has been cleared */
2233:Core/Src/vl53l0x_api.c **** 			LoopNb = 0;
2234:Core/Src/vl53l0x_api.c **** 			do {
2235:Core/Src/vl53l0x_api.c **** 				if (LoopNb > 0)
2236:Core/Src/vl53l0x_api.c **** 					Status = VL53L0X_RdByte(Dev,
2237:Core/Src/vl53l0x_api.c **** 					VL53L0X_REG_SYSRANGE_START, &Byte);
2238:Core/Src/vl53l0x_api.c **** 				LoopNb = LoopNb + 1;
2239:Core/Src/vl53l0x_api.c **** 			} while (((Byte & StartStopByte) == StartStopByte)
2240:Core/Src/vl53l0x_api.c **** 				&& (Status == VL53L0X_ERROR_NONE)
2241:Core/Src/vl53l0x_api.c **** 				&& (LoopNb < VL53L0X_DEFAULT_MAX_LOOP));
2242:Core/Src/vl53l0x_api.c **** 
2243:Core/Src/vl53l0x_api.c **** 			if (LoopNb >= VL53L0X_DEFAULT_MAX_LOOP)
2244:Core/Src/vl53l0x_api.c **** 				Status = VL53L0X_ERROR_TIME_OUT;
2245:Core/Src/vl53l0x_api.c **** 
2246:Core/Src/vl53l0x_api.c **** 		}
2247:Core/Src/vl53l0x_api.c **** 
2248:Core/Src/vl53l0x_api.c **** 		break;
2249:Core/Src/vl53l0x_api.c **** 	case VL53L0X_DEVICEMODE_CONTINUOUS_RANGING:
2250:Core/Src/vl53l0x_api.c **** 		/* Back-to-back mode */
2251:Core/Src/vl53l0x_api.c **** 
2252:Core/Src/vl53l0x_api.c **** 		/* Check if need to apply interrupt settings */
2253:Core/Src/vl53l0x_api.c **** 		if (Status == VL53L0X_ERROR_NONE)
2254:Core/Src/vl53l0x_api.c **** 			Status = VL53L0X_CheckAndLoadInterruptSettings(Dev, 1);
2255:Core/Src/vl53l0x_api.c **** 
2256:Core/Src/vl53l0x_api.c **** 		Status = VL53L0X_WrByte(Dev,
2257:Core/Src/vl53l0x_api.c **** 		VL53L0X_REG_SYSRANGE_START,
2258:Core/Src/vl53l0x_api.c **** 		VL53L0X_REG_SYSRANGE_MODE_BACKTOBACK);
2259:Core/Src/vl53l0x_api.c **** 		if (Status == VL53L0X_ERROR_NONE) {
2260:Core/Src/vl53l0x_api.c **** 			/* Set PAL State to Running */
2261:Core/Src/vl53l0x_api.c **** 			PALDevDataSet(Dev, PalState, VL53L0X_STATE_RUNNING);
2262:Core/Src/vl53l0x_api.c **** 		}
2263:Core/Src/vl53l0x_api.c **** 		break;
2264:Core/Src/vl53l0x_api.c **** 	case VL53L0X_DEVICEMODE_CONTINUOUS_TIMED_RANGING:
2265:Core/Src/vl53l0x_api.c **** 		/* Continuous mode */
2266:Core/Src/vl53l0x_api.c **** 		/* Check if need to apply interrupt settings */
2267:Core/Src/vl53l0x_api.c **** 		if (Status == VL53L0X_ERROR_NONE)
2268:Core/Src/vl53l0x_api.c **** 			Status = VL53L0X_CheckAndLoadInterruptSettings(Dev, 1);
2269:Core/Src/vl53l0x_api.c **** 
2270:Core/Src/vl53l0x_api.c **** 		Status = VL53L0X_WrByte(Dev,
2271:Core/Src/vl53l0x_api.c **** 		VL53L0X_REG_SYSRANGE_START,
2272:Core/Src/vl53l0x_api.c **** 		VL53L0X_REG_SYSRANGE_MODE_TIMED);
2273:Core/Src/vl53l0x_api.c **** 
2274:Core/Src/vl53l0x_api.c **** 		if (Status == VL53L0X_ERROR_NONE) {
2275:Core/Src/vl53l0x_api.c **** 			/* Set PAL State to Running */
2276:Core/Src/vl53l0x_api.c **** 			PALDevDataSet(Dev, PalState, VL53L0X_STATE_RUNNING);
2277:Core/Src/vl53l0x_api.c **** 		}
2278:Core/Src/vl53l0x_api.c **** 		break;
2279:Core/Src/vl53l0x_api.c **** 	default:
2280:Core/Src/vl53l0x_api.c **** 		/* Selected mode not supported */
ARM GAS  C:\Users\anmh1\AppData\Local\Temp\ccBPLcM2.s 			page 134


2281:Core/Src/vl53l0x_api.c **** 		Status = VL53L0X_ERROR_MODE_NOT_SUPPORTED;
2282:Core/Src/vl53l0x_api.c **** 	}
2283:Core/Src/vl53l0x_api.c **** 
2284:Core/Src/vl53l0x_api.c **** 
2285:Core/Src/vl53l0x_api.c **** 	LOG_FUNCTION_END(Status);
2286:Core/Src/vl53l0x_api.c **** 	return Status;
2287:Core/Src/vl53l0x_api.c **** }
2288:Core/Src/vl53l0x_api.c **** 
2289:Core/Src/vl53l0x_api.c **** VL53L0X_Error VL53L0X_StopMeasurement(VL53L0X_DEV Dev)
2290:Core/Src/vl53l0x_api.c **** {
2291:Core/Src/vl53l0x_api.c **** 	VL53L0X_Error Status = VL53L0X_ERROR_NONE;
2292:Core/Src/vl53l0x_api.c **** 	LOG_FUNCTION_START("");
2293:Core/Src/vl53l0x_api.c **** 
2294:Core/Src/vl53l0x_api.c **** 	Status = VL53L0X_WrByte(Dev, VL53L0X_REG_SYSRANGE_START,
2295:Core/Src/vl53l0x_api.c **** 	VL53L0X_REG_SYSRANGE_MODE_SINGLESHOT);
2296:Core/Src/vl53l0x_api.c **** 
2297:Core/Src/vl53l0x_api.c **** 	Status = VL53L0X_WrByte(Dev, 0xFF, 0x01);
2298:Core/Src/vl53l0x_api.c **** 	Status = VL53L0X_WrByte(Dev, 0x00, 0x00);
2299:Core/Src/vl53l0x_api.c **** 	Status = VL53L0X_WrByte(Dev, 0x91, 0x00);
2300:Core/Src/vl53l0x_api.c **** 	Status = VL53L0X_WrByte(Dev, 0x00, 0x01);
2301:Core/Src/vl53l0x_api.c **** 	Status = VL53L0X_WrByte(Dev, 0xFF, 0x00);
2302:Core/Src/vl53l0x_api.c **** 
2303:Core/Src/vl53l0x_api.c **** 	if (Status == VL53L0X_ERROR_NONE) {
2304:Core/Src/vl53l0x_api.c **** 		/* Set PAL State to Idle */
2305:Core/Src/vl53l0x_api.c **** 		PALDevDataSet(Dev, PalState, VL53L0X_STATE_IDLE);
2306:Core/Src/vl53l0x_api.c **** 	}
2307:Core/Src/vl53l0x_api.c **** 
2308:Core/Src/vl53l0x_api.c **** 	/* Check if need to apply interrupt settings */
2309:Core/Src/vl53l0x_api.c **** 	if (Status == VL53L0X_ERROR_NONE)
2310:Core/Src/vl53l0x_api.c **** 		Status = VL53L0X_CheckAndLoadInterruptSettings(Dev, 0);
2311:Core/Src/vl53l0x_api.c **** 
2312:Core/Src/vl53l0x_api.c **** 	LOG_FUNCTION_END(Status);
2313:Core/Src/vl53l0x_api.c **** 	return Status;
2314:Core/Src/vl53l0x_api.c **** }
2315:Core/Src/vl53l0x_api.c **** 
2316:Core/Src/vl53l0x_api.c **** VL53L0X_Error VL53L0X_GetMeasurementDataReady(VL53L0X_DEV Dev,
2317:Core/Src/vl53l0x_api.c **** 	uint8_t *pMeasurementDataReady)
2318:Core/Src/vl53l0x_api.c **** {
2319:Core/Src/vl53l0x_api.c **** 	VL53L0X_Error Status = VL53L0X_ERROR_NONE;
2320:Core/Src/vl53l0x_api.c **** 	uint8_t SysRangeStatusRegister;
2321:Core/Src/vl53l0x_api.c **** 	uint8_t InterruptConfig;
2322:Core/Src/vl53l0x_api.c **** 	uint32_t InterruptMask;
2323:Core/Src/vl53l0x_api.c **** 	LOG_FUNCTION_START("");
2324:Core/Src/vl53l0x_api.c **** 
2325:Core/Src/vl53l0x_api.c **** 	InterruptConfig = VL53L0X_GETDEVICESPECIFICPARAMETER(Dev,
2326:Core/Src/vl53l0x_api.c **** 		Pin0GpioFunctionality);
2327:Core/Src/vl53l0x_api.c **** 
2328:Core/Src/vl53l0x_api.c **** 	if (InterruptConfig ==
2329:Core/Src/vl53l0x_api.c **** 		VL53L0X_REG_SYSTEM_INTERRUPT_GPIO_NEW_SAMPLE_READY) {
2330:Core/Src/vl53l0x_api.c **** 		Status = VL53L0X_GetInterruptMaskStatus(Dev, &InterruptMask);
2331:Core/Src/vl53l0x_api.c **** 		if (InterruptMask ==
2332:Core/Src/vl53l0x_api.c **** 		VL53L0X_REG_SYSTEM_INTERRUPT_GPIO_NEW_SAMPLE_READY)
2333:Core/Src/vl53l0x_api.c **** 			*pMeasurementDataReady = 1;
2334:Core/Src/vl53l0x_api.c **** 		else
2335:Core/Src/vl53l0x_api.c **** 			*pMeasurementDataReady = 0;
2336:Core/Src/vl53l0x_api.c **** 	} else {
2337:Core/Src/vl53l0x_api.c **** 		Status = VL53L0X_RdByte(Dev, VL53L0X_REG_RESULT_RANGE_STATUS,
ARM GAS  C:\Users\anmh1\AppData\Local\Temp\ccBPLcM2.s 			page 135


2338:Core/Src/vl53l0x_api.c **** 			&SysRangeStatusRegister);
2339:Core/Src/vl53l0x_api.c **** 		if (Status == VL53L0X_ERROR_NONE) {
2340:Core/Src/vl53l0x_api.c **** 			if (SysRangeStatusRegister & 0x01)
2341:Core/Src/vl53l0x_api.c **** 				*pMeasurementDataReady = 1;
2342:Core/Src/vl53l0x_api.c **** 			else
2343:Core/Src/vl53l0x_api.c **** 				*pMeasurementDataReady = 0;
2344:Core/Src/vl53l0x_api.c **** 		}
2345:Core/Src/vl53l0x_api.c **** 	}
2346:Core/Src/vl53l0x_api.c **** 
2347:Core/Src/vl53l0x_api.c **** 	LOG_FUNCTION_END(Status);
2348:Core/Src/vl53l0x_api.c **** 	return Status;
2349:Core/Src/vl53l0x_api.c **** }
2350:Core/Src/vl53l0x_api.c **** 
2351:Core/Src/vl53l0x_api.c **** VL53L0X_Error VL53L0X_WaitDeviceReadyForNewMeasurement(VL53L0X_DEV Dev,
2352:Core/Src/vl53l0x_api.c **** 	uint32_t MaxLoop)
2353:Core/Src/vl53l0x_api.c **** {
 4907              		.loc 1 2353 1 is_stmt 1 view -0
 4908              		.cfi_startproc
 4909              		@ args = 0, pretend = 0, frame = 0
 4910              		@ frame_needed = 0, uses_anonymous_args = 0
 4911              		@ link register save eliminated.
2354:Core/Src/vl53l0x_api.c **** 	VL53L0X_Error Status = VL53L0X_ERROR_NOT_IMPLEMENTED;
 4912              		.loc 1 2354 2 view .LVU1479
2355:Core/Src/vl53l0x_api.c **** 	LOG_FUNCTION_START("");
 4913              		.loc 1 2355 2 view .LVU1480
2356:Core/Src/vl53l0x_api.c **** 
2357:Core/Src/vl53l0x_api.c **** 	/* not implemented for VL53L0X */
2358:Core/Src/vl53l0x_api.c **** 
2359:Core/Src/vl53l0x_api.c **** 	LOG_FUNCTION_END(Status);
 4914              		.loc 1 2359 2 view .LVU1481
2360:Core/Src/vl53l0x_api.c **** 	return Status;
 4915              		.loc 1 2360 2 view .LVU1482
2361:Core/Src/vl53l0x_api.c **** }
 4916              		.loc 1 2361 1 is_stmt 0 view .LVU1483
 4917 0000 6FF06200 		mvn	r0, #98
 4918              	.LVL524:
 4919              		.loc 1 2361 1 view .LVU1484
 4920 0004 7047     		bx	lr
 4921              		.cfi_endproc
 4922              	.LFE209:
 4924              		.section	.text.VL53L0X_GetRangingMeasurementData,"ax",%progbits
 4925              		.align	1
 4926              		.global	VL53L0X_GetRangingMeasurementData
 4927              		.syntax unified
 4928              		.thumb
 4929              		.thumb_func
 4930              		.fpu fpv4-sp-d16
 4932              	VL53L0X_GetRangingMeasurementData:
 4933              	.LVL525:
 4934              	.LFB210:
2362:Core/Src/vl53l0x_api.c **** 
2363:Core/Src/vl53l0x_api.c **** 
2364:Core/Src/vl53l0x_api.c **** VL53L0X_Error VL53L0X_GetRangingMeasurementData(VL53L0X_DEV Dev,
2365:Core/Src/vl53l0x_api.c **** 	VL53L0X_RangingMeasurementData_t *pRangingMeasurementData)
2366:Core/Src/vl53l0x_api.c **** {
 4935              		.loc 1 2366 1 is_stmt 1 view -0
 4936              		.cfi_startproc
ARM GAS  C:\Users\anmh1\AppData\Local\Temp\ccBPLcM2.s 			page 136


 4937              		@ args = 0, pretend = 0, frame = 48
 4938              		@ frame_needed = 0, uses_anonymous_args = 0
 4939              		.loc 1 2366 1 is_stmt 0 view .LVU1486
 4940 0000 2DE9F041 		push	{r4, r5, r6, r7, r8, lr}
 4941              		.cfi_def_cfa_offset 24
 4942              		.cfi_offset 4, -24
 4943              		.cfi_offset 5, -20
 4944              		.cfi_offset 6, -16
 4945              		.cfi_offset 7, -12
 4946              		.cfi_offset 8, -8
 4947              		.cfi_offset 14, -4
 4948 0004 8EB0     		sub	sp, sp, #56
 4949              		.cfi_def_cfa_offset 80
 4950 0006 0546     		mov	r5, r0
 4951 0008 0C46     		mov	r4, r1
2367:Core/Src/vl53l0x_api.c **** 	VL53L0X_Error Status = VL53L0X_ERROR_NONE;
 4952              		.loc 1 2367 2 is_stmt 1 view .LVU1487
 4953              	.LVL526:
2368:Core/Src/vl53l0x_api.c **** 	uint8_t DeviceRangeStatus;
 4954              		.loc 1 2368 2 view .LVU1488
2369:Core/Src/vl53l0x_api.c **** 	uint8_t RangeFractionalEnable;
 4955              		.loc 1 2369 2 view .LVU1489
2370:Core/Src/vl53l0x_api.c **** 	uint8_t PalRangeStatus;
 4956              		.loc 1 2370 2 view .LVU1490
2371:Core/Src/vl53l0x_api.c **** 	uint8_t XTalkCompensationEnable;
 4957              		.loc 1 2371 2 view .LVU1491
2372:Core/Src/vl53l0x_api.c **** 	uint16_t AmbientRate;
 4958              		.loc 1 2372 2 view .LVU1492
2373:Core/Src/vl53l0x_api.c **** 	FixPoint1616_t SignalRate;
 4959              		.loc 1 2373 2 view .LVU1493
2374:Core/Src/vl53l0x_api.c **** 	uint16_t XTalkCompensationRateMegaCps;
 4960              		.loc 1 2374 2 view .LVU1494
2375:Core/Src/vl53l0x_api.c **** 	uint16_t EffectiveSpadRtnCount;
 4961              		.loc 1 2375 2 view .LVU1495
2376:Core/Src/vl53l0x_api.c **** 	uint16_t tmpuint16;
 4962              		.loc 1 2376 2 view .LVU1496
2377:Core/Src/vl53l0x_api.c **** 	uint16_t XtalkRangeMilliMeter;
 4963              		.loc 1 2377 2 view .LVU1497
2378:Core/Src/vl53l0x_api.c **** 	uint16_t LinearityCorrectiveGain;
 4964              		.loc 1 2378 2 view .LVU1498
2379:Core/Src/vl53l0x_api.c **** 	uint8_t localBuffer[12];
 4965              		.loc 1 2379 2 view .LVU1499
2380:Core/Src/vl53l0x_api.c **** 	VL53L0X_RangingMeasurementData_t LastRangeDataBuffer;
 4966              		.loc 1 2380 2 view .LVU1500
2381:Core/Src/vl53l0x_api.c **** 
2382:Core/Src/vl53l0x_api.c **** 	LOG_FUNCTION_START("");
 4967              		.loc 1 2382 2 view .LVU1501
2383:Core/Src/vl53l0x_api.c **** 
2384:Core/Src/vl53l0x_api.c **** 	/*
2385:Core/Src/vl53l0x_api.c **** 	 * use multi read even if some registers are not useful, result will
2386:Core/Src/vl53l0x_api.c **** 	 * be more efficient
2387:Core/Src/vl53l0x_api.c **** 	 * start reading at 0x14 dec20
2388:Core/Src/vl53l0x_api.c **** 	 * end reading at 0x21 dec33 total 14 bytes to read
2389:Core/Src/vl53l0x_api.c **** 	 */
2390:Core/Src/vl53l0x_api.c **** 	Status = VL53L0X_ReadMulti(Dev, 0x14, localBuffer, 12);
 4968              		.loc 1 2390 2 view .LVU1502
 4969              		.loc 1 2390 11 is_stmt 0 view .LVU1503
ARM GAS  C:\Users\anmh1\AppData\Local\Temp\ccBPLcM2.s 			page 137


 4970 000a 0C23     		movs	r3, #12
 4971 000c 0AAA     		add	r2, sp, #40
 4972 000e 1421     		movs	r1, #20
 4973              	.LVL527:
 4974              		.loc 1 2390 11 view .LVU1504
 4975 0010 FFF7FEFF 		bl	VL53L0X_ReadMulti
 4976              	.LVL528:
2391:Core/Src/vl53l0x_api.c **** 
2392:Core/Src/vl53l0x_api.c **** 	if (Status == VL53L0X_ERROR_NONE) {
 4977              		.loc 1 2392 2 is_stmt 1 view .LVU1505
 4978              		.loc 1 2392 5 is_stmt 0 view .LVU1506
 4979 0014 0746     		mov	r7, r0
 4980 0016 0028     		cmp	r0, #0
 4981 0018 65D1     		bne	.L337
2393:Core/Src/vl53l0x_api.c **** 
2394:Core/Src/vl53l0x_api.c **** 		pRangingMeasurementData->ZoneId = 0; /* Only one zone */
 4982              		.loc 1 2394 3 is_stmt 1 view .LVU1507
 4983              		.loc 1 2394 35 is_stmt 0 view .LVU1508
 4984 001a 0023     		movs	r3, #0
 4985 001c A375     		strb	r3, [r4, #22]
2395:Core/Src/vl53l0x_api.c **** 		pRangingMeasurementData->TimeStamp = 0; /* Not Implemented */
 4986              		.loc 1 2395 3 is_stmt 1 view .LVU1509
 4987              		.loc 1 2395 38 is_stmt 0 view .LVU1510
 4988 001e 2360     		str	r3, [r4]
2396:Core/Src/vl53l0x_api.c **** 
2397:Core/Src/vl53l0x_api.c **** 		tmpuint16 = VL53L0X_MAKEUINT16(localBuffer[11], localBuffer[10]);
 4989              		.loc 1 2397 3 is_stmt 1 view .LVU1511
 4990              		.loc 1 2397 15 is_stmt 0 view .LVU1512
 4991 0020 9DF83220 		ldrb	r2, [sp, #50]	@ zero_extendqisi2
 4992 0024 9DF83300 		ldrb	r0, [sp, #51]	@ zero_extendqisi2
 4993              	.LVL529:
 4994              		.loc 1 2397 13 view .LVU1513
 4995 0028 00EB0220 		add	r0, r0, r2, lsl #8
 4996 002c 80B2     		uxth	r0, r0
 4997              	.LVL530:
2398:Core/Src/vl53l0x_api.c **** 		/* cut1.1 if SYSTEM__RANGE_CONFIG if 1 range is 2bits fractional
2399:Core/Src/vl53l0x_api.c **** 		 *(format 11.2) else no fractional
2400:Core/Src/vl53l0x_api.c **** 		 */
2401:Core/Src/vl53l0x_api.c **** 
2402:Core/Src/vl53l0x_api.c **** 		pRangingMeasurementData->MeasurementTimeUsec = 0;
 4998              		.loc 1 2402 3 is_stmt 1 view .LVU1514
 4999              		.loc 1 2402 48 is_stmt 0 view .LVU1515
 5000 002e 6360     		str	r3, [r4, #4]
2403:Core/Src/vl53l0x_api.c **** 
2404:Core/Src/vl53l0x_api.c **** 		SignalRate = VL53L0X_FIXPOINT97TOFIXPOINT1616(
 5001              		.loc 1 2404 3 is_stmt 1 view .LVU1516
 5002              		.loc 1 2404 16 is_stmt 0 view .LVU1517
 5003 0030 9DF82E30 		ldrb	r3, [sp, #46]	@ zero_extendqisi2
 5004 0034 9DF82F20 		ldrb	r2, [sp, #47]	@ zero_extendqisi2
 5005 0038 02EB0322 		add	r2, r2, r3, lsl #8
 5006 003c 92B2     		uxth	r2, r2
 5007 003e 5202     		lsls	r2, r2, #9
 5008              	.LVL531:
2405:Core/Src/vl53l0x_api.c **** 			VL53L0X_MAKEUINT16(localBuffer[7], localBuffer[6]));
2406:Core/Src/vl53l0x_api.c **** 		/* peak_signal_count_rate_rtn_mcps */
2407:Core/Src/vl53l0x_api.c **** 		pRangingMeasurementData->SignalRateRtnMegaCps = SignalRate;
 5009              		.loc 1 2407 3 is_stmt 1 view .LVU1518
ARM GAS  C:\Users\anmh1\AppData\Local\Temp\ccBPLcM2.s 			page 138


 5010              		.loc 1 2407 49 is_stmt 0 view .LVU1519
 5011 0040 E260     		str	r2, [r4, #12]
2408:Core/Src/vl53l0x_api.c **** 
2409:Core/Src/vl53l0x_api.c **** 		AmbientRate = VL53L0X_MAKEUINT16(localBuffer[9], localBuffer[8]);
 5012              		.loc 1 2409 3 is_stmt 1 view .LVU1520
 5013              		.loc 1 2409 17 is_stmt 0 view .LVU1521
 5014 0042 9DF83010 		ldrb	r1, [sp, #48]	@ zero_extendqisi2
 5015 0046 9DF83130 		ldrb	r3, [sp, #49]	@ zero_extendqisi2
 5016              		.loc 1 2409 15 view .LVU1522
 5017 004a 03EB0123 		add	r3, r3, r1, lsl #8
 5018 004e 9BB2     		uxth	r3, r3
 5019              	.LVL532:
2410:Core/Src/vl53l0x_api.c **** 		pRangingMeasurementData->AmbientRateRtnMegaCps =
 5020              		.loc 1 2410 3 is_stmt 1 view .LVU1523
2411:Core/Src/vl53l0x_api.c **** 			VL53L0X_FIXPOINT97TOFIXPOINT1616(AmbientRate);
 5021              		.loc 1 2411 4 is_stmt 0 view .LVU1524
 5022 0050 5B02     		lsls	r3, r3, #9
 5023              	.LVL533:
2410:Core/Src/vl53l0x_api.c **** 		pRangingMeasurementData->AmbientRateRtnMegaCps =
 5024              		.loc 1 2410 50 view .LVU1525
 5025 0052 2361     		str	r3, [r4, #16]
 5026              	.LVL534:
2412:Core/Src/vl53l0x_api.c **** 
2413:Core/Src/vl53l0x_api.c **** 		EffectiveSpadRtnCount = VL53L0X_MAKEUINT16(localBuffer[3],
 5027              		.loc 1 2413 3 is_stmt 1 view .LVU1526
 5028              		.loc 1 2413 27 is_stmt 0 view .LVU1527
 5029 0054 9DF82A10 		ldrb	r1, [sp, #42]	@ zero_extendqisi2
 5030              		.loc 1 2413 27 view .LVU1528
 5031 0058 9DF82B30 		ldrb	r3, [sp, #43]	@ zero_extendqisi2
 5032              		.loc 1 2413 25 view .LVU1529
 5033 005c 03EB0123 		add	r3, r3, r1, lsl #8
 5034 0060 9BB2     		uxth	r3, r3
 5035              	.LVL535:
2414:Core/Src/vl53l0x_api.c **** 			localBuffer[2]);
2415:Core/Src/vl53l0x_api.c **** 		/* EffectiveSpadRtnCount is 8.8 format */
2416:Core/Src/vl53l0x_api.c **** 		pRangingMeasurementData->EffectiveSpadRtnCount =
 5036              		.loc 1 2416 3 is_stmt 1 view .LVU1530
 5037              		.loc 1 2416 50 is_stmt 0 view .LVU1531
 5038 0062 A382     		strh	r3, [r4, #20]	@ movhi
2417:Core/Src/vl53l0x_api.c **** 			EffectiveSpadRtnCount;
2418:Core/Src/vl53l0x_api.c **** 
2419:Core/Src/vl53l0x_api.c **** 		DeviceRangeStatus = localBuffer[0];
 5039              		.loc 1 2419 3 is_stmt 1 view .LVU1532
 5040              		.loc 1 2419 21 is_stmt 0 view .LVU1533
 5041 0064 9DF82810 		ldrb	r1, [sp, #40]	@ zero_extendqisi2
 5042              	.LVL536:
2420:Core/Src/vl53l0x_api.c **** 
2421:Core/Src/vl53l0x_api.c **** 		/* Get Linearity Corrective Gain */
2422:Core/Src/vl53l0x_api.c **** 		LinearityCorrectiveGain = PALDevDataGet(Dev,
 5043              		.loc 1 2422 3 is_stmt 1 view .LVU1534
 5044              		.loc 1 2422 27 is_stmt 0 view .LVU1535
 5045 0068 B5F85261 		ldrh	r6, [r5, #338]
 5046              	.LVL537:
2423:Core/Src/vl53l0x_api.c **** 			LinearityCorrectiveGain);
2424:Core/Src/vl53l0x_api.c **** 
2425:Core/Src/vl53l0x_api.c **** 		/* Get ranging configuration */
2426:Core/Src/vl53l0x_api.c **** 		RangeFractionalEnable = PALDevDataGet(Dev,
ARM GAS  C:\Users\anmh1\AppData\Local\Temp\ccBPLcM2.s 			page 139


 5047              		.loc 1 2426 3 is_stmt 1 view .LVU1536
 5048              		.loc 1 2426 25 is_stmt 0 view .LVU1537
 5049 006c 95F831C1 		ldrb	ip, [r5, #305]	@ zero_extendqisi2
 5050              	.LVL538:
2427:Core/Src/vl53l0x_api.c **** 			RangeFractionalEnable);
2428:Core/Src/vl53l0x_api.c **** 
2429:Core/Src/vl53l0x_api.c **** 		if (LinearityCorrectiveGain != 1000) {
 5051              		.loc 1 2429 3 is_stmt 1 view .LVU1538
 5052              		.loc 1 2429 6 is_stmt 0 view .LVU1539
 5053 0070 B6F57A7F 		cmp	r6, #1000
 5054 0074 22D0     		beq	.L338
2430:Core/Src/vl53l0x_api.c **** 
2431:Core/Src/vl53l0x_api.c **** 			tmpuint16 = (uint16_t)((LinearityCorrectiveGain
 5055              		.loc 1 2431 4 is_stmt 1 view .LVU1540
2432:Core/Src/vl53l0x_api.c **** 				* tmpuint16 + 500) / 1000);
 5056              		.loc 1 2432 5 is_stmt 0 view .LVU1541
 5057 0076 00FB06F0 		mul	r0, r0, r6
 5058              	.LVL539:
 5059              		.loc 1 2432 17 view .LVU1542
 5060 007a 00F5FA70 		add	r0, r0, #500
 5061              		.loc 1 2432 24 view .LVU1543
 5062 007e 374E     		ldr	r6, .L346
 5063              	.LVL540:
 5064              		.loc 1 2432 24 view .LVU1544
 5065 0080 86FB00E6 		smull	lr, r6, r6, r0
 5066 0084 C017     		asrs	r0, r0, #31
 5067 0086 C0EBA616 		rsb	r6, r0, r6, asr #6
2431:Core/Src/vl53l0x_api.c **** 				* tmpuint16 + 500) / 1000);
 5068              		.loc 1 2431 14 view .LVU1545
 5069 008a B0B2     		uxth	r0, r6
 5070              	.LVL541:
2433:Core/Src/vl53l0x_api.c **** 
2434:Core/Src/vl53l0x_api.c **** 			/* Implement Xtalk */
2435:Core/Src/vl53l0x_api.c **** 			VL53L0X_GETPARAMETERFIELD(Dev,
 5071              		.loc 1 2435 4 is_stmt 1 view .LVU1546
 5072 008c D5F820E0 		ldr	lr, [r5, #32]
 5073              	.LVL542:
2436:Core/Src/vl53l0x_api.c **** 				XTalkCompensationRateMegaCps,
2437:Core/Src/vl53l0x_api.c **** 				XTalkCompensationRateMegaCps);
2438:Core/Src/vl53l0x_api.c **** 			VL53L0X_GETPARAMETERFIELD(Dev, XTalkCompensationEnable,
 5074              		.loc 1 2438 4 view .LVU1547
 5075 0090 95F81C80 		ldrb	r8, [r5, #28]	@ zero_extendqisi2
 5076              	.LVL543:
2439:Core/Src/vl53l0x_api.c **** 				XTalkCompensationEnable);
2440:Core/Src/vl53l0x_api.c **** 
2441:Core/Src/vl53l0x_api.c **** 			if (XTalkCompensationEnable) {
 5077              		.loc 1 2441 4 view .LVU1548
 5078              		.loc 1 2441 7 is_stmt 0 view .LVU1549
 5079 0094 B8F1000F 		cmp	r8, #0
 5080 0098 10D0     		beq	.L338
2442:Core/Src/vl53l0x_api.c **** 
2443:Core/Src/vl53l0x_api.c **** 				if ((SignalRate
 5081              		.loc 1 2443 5 is_stmt 1 view .LVU1550
2444:Core/Src/vl53l0x_api.c **** 					- ((XTalkCompensationRateMegaCps
2445:Core/Src/vl53l0x_api.c **** 					* EffectiveSpadRtnCount) >> 8))
 5082              		.loc 1 2445 6 is_stmt 0 view .LVU1551
 5083 009a 1FFA8EFE 		uxth	lr, lr
ARM GAS  C:\Users\anmh1\AppData\Local\Temp\ccBPLcM2.s 			page 140


 5084              		.loc 1 2445 6 view .LVU1552
 5085 009e 03FB0EFE 		mul	lr, r3, lr
 5086              	.LVL544:
 5087              		.loc 1 2445 31 view .LVU1553
 5088 00a2 4FEA2E28 		asr	r8, lr, #8
 5089              	.LVL545:
2443:Core/Src/vl53l0x_api.c **** 					- ((XTalkCompensationRateMegaCps
 5090              		.loc 1 2443 8 view .LVU1554
 5091 00a6 B2EB2E2F 		cmp	r2, lr, asr #8
 5092 00aa 49D0     		beq	.L345
2446:Core/Src/vl53l0x_api.c **** 					<= 0) {
2447:Core/Src/vl53l0x_api.c **** 					if (RangeFractionalEnable)
2448:Core/Src/vl53l0x_api.c **** 						XtalkRangeMilliMeter = 8888;
2449:Core/Src/vl53l0x_api.c **** 					else
2450:Core/Src/vl53l0x_api.c **** 						XtalkRangeMilliMeter = 8888
2451:Core/Src/vl53l0x_api.c **** 							<< 2;
2452:Core/Src/vl53l0x_api.c **** 				} else {
2453:Core/Src/vl53l0x_api.c **** 					XtalkRangeMilliMeter =
 5093              		.loc 1 2453 6 is_stmt 1 view .LVU1555
2454:Core/Src/vl53l0x_api.c **** 					(tmpuint16 * SignalRate)
 5094              		.loc 1 2454 17 is_stmt 0 view .LVU1556
 5095 00ac B0B2     		uxth	r0, r6
 5096              		.loc 1 2454 17 view .LVU1557
 5097 00ae 02FB00F0 		mul	r0, r2, r0
 5098              	.LVL546:
2455:Core/Src/vl53l0x_api.c **** 						/ (SignalRate
2456:Core/Src/vl53l0x_api.c **** 						- ((XTalkCompensationRateMegaCps
 5099              		.loc 1 2456 7 view .LVU1558
 5100 00b2 A2EB0808 		sub	r8, r2, r8
2455:Core/Src/vl53l0x_api.c **** 						/ (SignalRate
 5101              		.loc 1 2455 7 view .LVU1559
 5102 00b6 B0FBF8F0 		udiv	r0, r0, r8
2453:Core/Src/vl53l0x_api.c **** 					(tmpuint16 * SignalRate)
 5103              		.loc 1 2453 27 view .LVU1560
 5104 00ba 80B2     		uxth	r0, r0
 5105              	.LVL547:
 5106              	.L338:
2457:Core/Src/vl53l0x_api.c **** 						* EffectiveSpadRtnCount)
2458:Core/Src/vl53l0x_api.c **** 						>> 8));
2459:Core/Src/vl53l0x_api.c **** 				}
2460:Core/Src/vl53l0x_api.c **** 
2461:Core/Src/vl53l0x_api.c **** 				tmpuint16 = XtalkRangeMilliMeter;
2462:Core/Src/vl53l0x_api.c **** 			}
2463:Core/Src/vl53l0x_api.c **** 
2464:Core/Src/vl53l0x_api.c **** 		}
2465:Core/Src/vl53l0x_api.c **** 
2466:Core/Src/vl53l0x_api.c **** 		if (RangeFractionalEnable) {
 5107              		.loc 1 2466 3 is_stmt 1 view .LVU1561
 5108              		.loc 1 2466 6 is_stmt 0 view .LVU1562
 5109 00bc BCF1000F 		cmp	ip, #0
 5110 00c0 47D0     		beq	.L340
2467:Core/Src/vl53l0x_api.c **** 			pRangingMeasurementData->RangeMilliMeter =
 5111              		.loc 1 2467 4 is_stmt 1 view .LVU1563
2468:Core/Src/vl53l0x_api.c **** 				(uint16_t)((tmpuint16) >> 2);
 5112              		.loc 1 2468 5 is_stmt 0 view .LVU1564
 5113 00c2 8608     		lsrs	r6, r0, #2
2467:Core/Src/vl53l0x_api.c **** 			pRangingMeasurementData->RangeMilliMeter =
ARM GAS  C:\Users\anmh1\AppData\Local\Temp\ccBPLcM2.s 			page 141


 5114              		.loc 1 2467 45 view .LVU1565
 5115 00c4 2681     		strh	r6, [r4, #8]	@ movhi
 5116              	.LVL548:
2469:Core/Src/vl53l0x_api.c **** 			pRangingMeasurementData->RangeFractionalPart =
 5117              		.loc 1 2469 4 is_stmt 1 view .LVU1566
2470:Core/Src/vl53l0x_api.c **** 				(uint8_t)((tmpuint16 & 0x03) << 6);
 5118              		.loc 1 2470 26 is_stmt 0 view .LVU1567
 5119 00c6 C0B2     		uxtb	r0, r0
 5120              	.LVL549:
 5121              		.loc 1 2470 5 view .LVU1568
 5122 00c8 8001     		lsls	r0, r0, #6
2469:Core/Src/vl53l0x_api.c **** 			pRangingMeasurementData->RangeFractionalPart =
 5123              		.loc 1 2469 49 view .LVU1569
 5124 00ca E075     		strb	r0, [r4, #23]
 5125              	.L341:
2471:Core/Src/vl53l0x_api.c **** 		} else {
2472:Core/Src/vl53l0x_api.c **** 			pRangingMeasurementData->RangeMilliMeter = tmpuint16;
2473:Core/Src/vl53l0x_api.c **** 			pRangingMeasurementData->RangeFractionalPart = 0;
2474:Core/Src/vl53l0x_api.c **** 		}
2475:Core/Src/vl53l0x_api.c **** 
2476:Core/Src/vl53l0x_api.c **** 		/*
2477:Core/Src/vl53l0x_api.c **** 		 * For a standard definition of RangeStatus, this should
2478:Core/Src/vl53l0x_api.c **** 		 * return 0 in case of good result after a ranging
2479:Core/Src/vl53l0x_api.c **** 		 * The range status depends on the device so call a device
2480:Core/Src/vl53l0x_api.c **** 		 * specific function to obtain the right Status.
2481:Core/Src/vl53l0x_api.c **** 		 */
2482:Core/Src/vl53l0x_api.c **** 		Status |= VL53L0X_get_pal_range_status(Dev, DeviceRangeStatus,
 5126              		.loc 1 2482 3 is_stmt 1 view .LVU1570
 5127              		.loc 1 2482 13 is_stmt 0 view .LVU1571
 5128 00cc 0DF13700 		add	r0, sp, #55
 5129 00d0 0190     		str	r0, [sp, #4]
 5130 00d2 0094     		str	r4, [sp]
 5131 00d4 2846     		mov	r0, r5
 5132 00d6 FFF7FEFF 		bl	VL53L0X_get_pal_range_status
 5133              	.LVL550:
 5134              		.loc 1 2482 10 view .LVU1572
 5135 00da 0743     		orrs	r7, r7, r0
 5136 00dc 7FB2     		sxtb	r7, r7
 5137              	.LVL551:
2483:Core/Src/vl53l0x_api.c **** 			SignalRate, EffectiveSpadRtnCount,
2484:Core/Src/vl53l0x_api.c **** 			pRangingMeasurementData, &PalRangeStatus);
2485:Core/Src/vl53l0x_api.c **** 
2486:Core/Src/vl53l0x_api.c **** 		if (Status == VL53L0X_ERROR_NONE)
 5138              		.loc 1 2486 3 is_stmt 1 view .LVU1573
 5139              		.loc 1 2486 6 is_stmt 0 view .LVU1574
 5140 00de 17B9     		cbnz	r7, .L337
2487:Core/Src/vl53l0x_api.c **** 			pRangingMeasurementData->RangeStatus = PalRangeStatus;
 5141              		.loc 1 2487 4 is_stmt 1 view .LVU1575
 5142              		.loc 1 2487 41 is_stmt 0 view .LVU1576
 5143 00e0 9DF83730 		ldrb	r3, [sp, #55]	@ zero_extendqisi2
 5144 00e4 2376     		strb	r3, [r4, #24]
 5145              	.LVL552:
 5146              	.L337:
2488:Core/Src/vl53l0x_api.c **** 
2489:Core/Src/vl53l0x_api.c **** 	}
2490:Core/Src/vl53l0x_api.c **** 
2491:Core/Src/vl53l0x_api.c **** 	if (Status == VL53L0X_ERROR_NONE) {
ARM GAS  C:\Users\anmh1\AppData\Local\Temp\ccBPLcM2.s 			page 142


 5147              		.loc 1 2491 2 is_stmt 1 view .LVU1577
 5148              		.loc 1 2491 5 is_stmt 0 view .LVU1578
 5149 00e6 3FBB     		cbnz	r7, .L342
2492:Core/Src/vl53l0x_api.c **** 		/* Copy last read data into Dev buffer */
2493:Core/Src/vl53l0x_api.c **** 		LastRangeDataBuffer = PALDevDataGet(Dev, LastRangeMeasure);
 5150              		.loc 1 2493 3 is_stmt 1 view .LVU1579
 5151              		.loc 1 2493 23 is_stmt 0 view .LVU1580
 5152 00e8 03AE     		add	r6, sp, #12
 5153 00ea 05F1500C 		add	ip, r5, #80
 5154 00ee BCE80F00 		ldmia	ip!, {r0, r1, r2, r3}
 5155 00f2 0FC6     		stmia	r6!, {r0, r1, r2, r3}
 5156 00f4 9CE80700 		ldm	ip, {r0, r1, r2}
 5157 00f8 86E80700 		stm	r6, {r0, r1, r2}
2494:Core/Src/vl53l0x_api.c **** 
2495:Core/Src/vl53l0x_api.c **** 		LastRangeDataBuffer.RangeMilliMeter =
 5158              		.loc 1 2495 3 is_stmt 1 view .LVU1581
2496:Core/Src/vl53l0x_api.c **** 			pRangingMeasurementData->RangeMilliMeter;
 5159              		.loc 1 2496 27 is_stmt 0 view .LVU1582
 5160 00fc 2389     		ldrh	r3, [r4, #8]
2495:Core/Src/vl53l0x_api.c **** 			pRangingMeasurementData->RangeMilliMeter;
 5161              		.loc 1 2495 39 view .LVU1583
 5162 00fe ADF81430 		strh	r3, [sp, #20]	@ movhi
2497:Core/Src/vl53l0x_api.c **** 		LastRangeDataBuffer.RangeFractionalPart =
 5163              		.loc 1 2497 3 is_stmt 1 view .LVU1584
2498:Core/Src/vl53l0x_api.c **** 			pRangingMeasurementData->RangeFractionalPart;
 5164              		.loc 1 2498 27 is_stmt 0 view .LVU1585
 5165 0102 E37D     		ldrb	r3, [r4, #23]	@ zero_extendqisi2
2497:Core/Src/vl53l0x_api.c **** 		LastRangeDataBuffer.RangeFractionalPart =
 5166              		.loc 1 2497 43 view .LVU1586
 5167 0104 8DF82330 		strb	r3, [sp, #35]
2499:Core/Src/vl53l0x_api.c **** 		LastRangeDataBuffer.RangeDMaxMilliMeter =
 5168              		.loc 1 2499 3 is_stmt 1 view .LVU1587
2500:Core/Src/vl53l0x_api.c **** 			pRangingMeasurementData->RangeDMaxMilliMeter;
 5169              		.loc 1 2500 27 is_stmt 0 view .LVU1588
 5170 0108 6389     		ldrh	r3, [r4, #10]
2499:Core/Src/vl53l0x_api.c **** 		LastRangeDataBuffer.RangeDMaxMilliMeter =
 5171              		.loc 1 2499 43 view .LVU1589
 5172 010a ADF81630 		strh	r3, [sp, #22]	@ movhi
2501:Core/Src/vl53l0x_api.c **** 		LastRangeDataBuffer.MeasurementTimeUsec =
 5173              		.loc 1 2501 3 is_stmt 1 view .LVU1590
2502:Core/Src/vl53l0x_api.c **** 			pRangingMeasurementData->MeasurementTimeUsec;
 5174              		.loc 1 2502 27 is_stmt 0 view .LVU1591
 5175 010e 6368     		ldr	r3, [r4, #4]
2501:Core/Src/vl53l0x_api.c **** 		LastRangeDataBuffer.MeasurementTimeUsec =
 5176              		.loc 1 2501 43 view .LVU1592
 5177 0110 0493     		str	r3, [sp, #16]
2503:Core/Src/vl53l0x_api.c **** 		LastRangeDataBuffer.SignalRateRtnMegaCps =
 5178              		.loc 1 2503 3 is_stmt 1 view .LVU1593
2504:Core/Src/vl53l0x_api.c **** 			pRangingMeasurementData->SignalRateRtnMegaCps;
 5179              		.loc 1 2504 27 is_stmt 0 view .LVU1594
 5180 0112 E368     		ldr	r3, [r4, #12]
2503:Core/Src/vl53l0x_api.c **** 		LastRangeDataBuffer.SignalRateRtnMegaCps =
 5181              		.loc 1 2503 44 view .LVU1595
 5182 0114 0693     		str	r3, [sp, #24]
2505:Core/Src/vl53l0x_api.c **** 		LastRangeDataBuffer.AmbientRateRtnMegaCps =
 5183              		.loc 1 2505 3 is_stmt 1 view .LVU1596
2506:Core/Src/vl53l0x_api.c **** 			pRangingMeasurementData->AmbientRateRtnMegaCps;
ARM GAS  C:\Users\anmh1\AppData\Local\Temp\ccBPLcM2.s 			page 143


 5184              		.loc 1 2506 27 is_stmt 0 view .LVU1597
 5185 0116 2369     		ldr	r3, [r4, #16]
2505:Core/Src/vl53l0x_api.c **** 		LastRangeDataBuffer.AmbientRateRtnMegaCps =
 5186              		.loc 1 2505 45 view .LVU1598
 5187 0118 0793     		str	r3, [sp, #28]
2507:Core/Src/vl53l0x_api.c **** 		LastRangeDataBuffer.EffectiveSpadRtnCount =
 5188              		.loc 1 2507 3 is_stmt 1 view .LVU1599
2508:Core/Src/vl53l0x_api.c **** 			pRangingMeasurementData->EffectiveSpadRtnCount;
 5189              		.loc 1 2508 27 is_stmt 0 view .LVU1600
 5190 011a A38A     		ldrh	r3, [r4, #20]
2507:Core/Src/vl53l0x_api.c **** 		LastRangeDataBuffer.EffectiveSpadRtnCount =
 5191              		.loc 1 2507 45 view .LVU1601
 5192 011c ADF82030 		strh	r3, [sp, #32]	@ movhi
2509:Core/Src/vl53l0x_api.c **** 		LastRangeDataBuffer.RangeStatus =
 5193              		.loc 1 2509 3 is_stmt 1 view .LVU1602
2510:Core/Src/vl53l0x_api.c **** 			pRangingMeasurementData->RangeStatus;
 5194              		.loc 1 2510 27 is_stmt 0 view .LVU1603
 5195 0120 237E     		ldrb	r3, [r4, #24]	@ zero_extendqisi2
2509:Core/Src/vl53l0x_api.c **** 		LastRangeDataBuffer.RangeStatus =
 5196              		.loc 1 2509 35 view .LVU1604
 5197 0122 8DF82430 		strb	r3, [sp, #36]
2511:Core/Src/vl53l0x_api.c **** 
2512:Core/Src/vl53l0x_api.c **** 		PALDevDataSet(Dev, LastRangeMeasure, LastRangeDataBuffer);
 5198              		.loc 1 2512 3 is_stmt 1 view .LVU1605
 5199 0126 05F15004 		add	r4, r5, #80
 5200              	.LVL553:
 5201              		.loc 1 2512 3 is_stmt 0 view .LVU1606
 5202 012a 03AD     		add	r5, sp, #12
 5203              	.LVL554:
 5204              		.loc 1 2512 3 view .LVU1607
 5205 012c 0FCD     		ldmia	r5!, {r0, r1, r2, r3}
 5206 012e 0FC4     		stmia	r4!, {r0, r1, r2, r3}
 5207              	.LVL555:
 5208              		.loc 1 2512 3 view .LVU1608
 5209 0130 95E80700 		ldm	r5, {r0, r1, r2}
 5210 0134 84E80700 		stm	r4, {r0, r1, r2}
 5211              	.LVL556:
 5212              	.L342:
2513:Core/Src/vl53l0x_api.c **** 	}
2514:Core/Src/vl53l0x_api.c **** 
2515:Core/Src/vl53l0x_api.c **** 	LOG_FUNCTION_END(Status);
 5213              		.loc 1 2515 2 is_stmt 1 view .LVU1609
2516:Core/Src/vl53l0x_api.c **** 	return Status;
 5214              		.loc 1 2516 2 view .LVU1610
2517:Core/Src/vl53l0x_api.c **** }
 5215              		.loc 1 2517 1 is_stmt 0 view .LVU1611
 5216 0138 3846     		mov	r0, r7
 5217 013a 0EB0     		add	sp, sp, #56
 5218              		.cfi_remember_state
 5219              		.cfi_def_cfa_offset 24
 5220              		@ sp needed
 5221 013c BDE8F081 		pop	{r4, r5, r6, r7, r8, pc}
 5222              	.LVL557:
 5223              	.L345:
 5224              		.cfi_restore_state
2447:Core/Src/vl53l0x_api.c **** 						XtalkRangeMilliMeter = 8888;
 5225              		.loc 1 2447 6 is_stmt 1 view .LVU1612
ARM GAS  C:\Users\anmh1\AppData\Local\Temp\ccBPLcM2.s 			page 144


2447:Core/Src/vl53l0x_api.c **** 						XtalkRangeMilliMeter = 8888;
 5226              		.loc 1 2447 9 is_stmt 0 view .LVU1613
 5227 0140 BCF1000F 		cmp	ip, #0
 5228 0144 02D0     		beq	.L343
2448:Core/Src/vl53l0x_api.c **** 					else
 5229              		.loc 1 2448 28 view .LVU1614
 5230 0146 42F2B820 		movw	r0, #8888
 5231              	.LVL558:
2448:Core/Src/vl53l0x_api.c **** 					else
 5232              		.loc 1 2448 28 view .LVU1615
 5233 014a B7E7     		b	.L338
 5234              	.LVL559:
 5235              	.L343:
2450:Core/Src/vl53l0x_api.c **** 							<< 2;
 5236              		.loc 1 2450 28 view .LVU1616
 5237 014c 48F6E020 		movw	r0, #35552
 5238              	.LVL560:
2450:Core/Src/vl53l0x_api.c **** 							<< 2;
 5239              		.loc 1 2450 28 view .LVU1617
 5240 0150 B4E7     		b	.L338
 5241              	.LVL561:
 5242              	.L340:
2472:Core/Src/vl53l0x_api.c **** 			pRangingMeasurementData->RangeFractionalPart = 0;
 5243              		.loc 1 2472 4 is_stmt 1 view .LVU1618
2472:Core/Src/vl53l0x_api.c **** 			pRangingMeasurementData->RangeFractionalPart = 0;
 5244              		.loc 1 2472 45 is_stmt 0 view .LVU1619
 5245 0152 2081     		strh	r0, [r4, #8]	@ movhi
 5246              	.LVL562:
2473:Core/Src/vl53l0x_api.c **** 		}
 5247              		.loc 1 2473 4 is_stmt 1 view .LVU1620
2473:Core/Src/vl53l0x_api.c **** 		}
 5248              		.loc 1 2473 49 is_stmt 0 view .LVU1621
 5249 0154 0020     		movs	r0, #0
 5250              	.LVL563:
2473:Core/Src/vl53l0x_api.c **** 		}
 5251              		.loc 1 2473 49 view .LVU1622
 5252 0156 E075     		strb	r0, [r4, #23]
 5253 0158 B8E7     		b	.L341
 5254              	.L347:
 5255 015a 00BF     		.align	2
 5256              	.L346:
 5257 015c D34D6210 		.word	274877907
 5258              		.cfi_endproc
 5259              	.LFE210:
 5261              		.section	.text.VL53L0X_GetMeasurementRefSignal,"ax",%progbits
 5262              		.align	1
 5263              		.global	VL53L0X_GetMeasurementRefSignal
 5264              		.syntax unified
 5265              		.thumb
 5266              		.thumb_func
 5267              		.fpu fpv4-sp-d16
 5269              	VL53L0X_GetMeasurementRefSignal:
 5270              	.LVL564:
 5271              	.LFB211:
2518:Core/Src/vl53l0x_api.c **** 
2519:Core/Src/vl53l0x_api.c **** VL53L0X_Error VL53L0X_GetMeasurementRefSignal(VL53L0X_DEV Dev,
2520:Core/Src/vl53l0x_api.c **** 	FixPoint1616_t *pMeasurementRefSignal)
ARM GAS  C:\Users\anmh1\AppData\Local\Temp\ccBPLcM2.s 			page 145


2521:Core/Src/vl53l0x_api.c **** {
 5272              		.loc 1 2521 1 is_stmt 1 view -0
 5273              		.cfi_startproc
 5274              		@ args = 0, pretend = 0, frame = 8
 5275              		@ frame_needed = 0, uses_anonymous_args = 0
 5276              		.loc 1 2521 1 is_stmt 0 view .LVU1624
 5277 0000 30B5     		push	{r4, r5, lr}
 5278              		.cfi_def_cfa_offset 12
 5279              		.cfi_offset 4, -12
 5280              		.cfi_offset 5, -8
 5281              		.cfi_offset 14, -4
 5282 0002 83B0     		sub	sp, sp, #12
 5283              		.cfi_def_cfa_offset 24
 5284 0004 0546     		mov	r5, r0
 5285 0006 0C46     		mov	r4, r1
2522:Core/Src/vl53l0x_api.c **** 	VL53L0X_Error Status = VL53L0X_ERROR_NONE;
 5286              		.loc 1 2522 2 is_stmt 1 view .LVU1625
 5287              	.LVL565:
2523:Core/Src/vl53l0x_api.c **** 	uint8_t SignalRefClipLimitCheckEnable = 0;
 5288              		.loc 1 2523 2 view .LVU1626
 5289              		.loc 1 2523 10 is_stmt 0 view .LVU1627
 5290 0008 0023     		movs	r3, #0
 5291 000a 8DF80730 		strb	r3, [sp, #7]
2524:Core/Src/vl53l0x_api.c **** 	LOG_FUNCTION_START("");
 5292              		.loc 1 2524 2 is_stmt 1 view .LVU1628
2525:Core/Src/vl53l0x_api.c **** 
2526:Core/Src/vl53l0x_api.c **** 	Status = VL53L0X_GetLimitCheckEnable(Dev,
 5293              		.loc 1 2526 2 view .LVU1629
 5294              		.loc 1 2526 11 is_stmt 0 view .LVU1630
 5295 000e 0DF10702 		add	r2, sp, #7
 5296 0012 0221     		movs	r1, #2
 5297              	.LVL566:
 5298              		.loc 1 2526 11 view .LVU1631
 5299 0014 FFF7FEFF 		bl	VL53L0X_GetLimitCheckEnable
 5300              	.LVL567:
2527:Core/Src/vl53l0x_api.c **** 			VL53L0X_CHECKENABLE_SIGNAL_REF_CLIP,
2528:Core/Src/vl53l0x_api.c **** 			&SignalRefClipLimitCheckEnable);
2529:Core/Src/vl53l0x_api.c **** 	if (SignalRefClipLimitCheckEnable != 0) {
 5301              		.loc 1 2529 2 is_stmt 1 view .LVU1632
 5302              		.loc 1 2529 36 is_stmt 0 view .LVU1633
 5303 0018 9DF80730 		ldrb	r3, [sp, #7]	@ zero_extendqisi2
 5304              		.loc 1 2529 5 view .LVU1634
 5305 001c 23B1     		cbz	r3, .L350
2530:Core/Src/vl53l0x_api.c **** 		*pMeasurementRefSignal = PALDevDataGet(Dev, LastSignalRefMcps);
 5306              		.loc 1 2530 3 is_stmt 1 view .LVU1635
 5307              		.loc 1 2530 28 is_stmt 0 view .LVU1636
 5308 001e D5F84831 		ldr	r3, [r5, #328]
 5309              		.loc 1 2530 26 view .LVU1637
 5310 0022 2360     		str	r3, [r4]
 5311              	.LVL568:
 5312              	.L349:
2531:Core/Src/vl53l0x_api.c **** 	} else {
2532:Core/Src/vl53l0x_api.c **** 		Status = VL53L0X_ERROR_INVALID_COMMAND;
2533:Core/Src/vl53l0x_api.c **** 	}
2534:Core/Src/vl53l0x_api.c **** 	LOG_FUNCTION_END(Status);
 5313              		.loc 1 2534 2 is_stmt 1 view .LVU1638
2535:Core/Src/vl53l0x_api.c **** 
ARM GAS  C:\Users\anmh1\AppData\Local\Temp\ccBPLcM2.s 			page 146


2536:Core/Src/vl53l0x_api.c **** 	return Status;
 5314              		.loc 1 2536 2 view .LVU1639
2537:Core/Src/vl53l0x_api.c **** }
 5315              		.loc 1 2537 1 is_stmt 0 view .LVU1640
 5316 0024 03B0     		add	sp, sp, #12
 5317              		.cfi_remember_state
 5318              		.cfi_def_cfa_offset 12
 5319              		@ sp needed
 5320 0026 30BD     		pop	{r4, r5, pc}
 5321              	.LVL569:
 5322              	.L350:
 5323              		.cfi_restore_state
2532:Core/Src/vl53l0x_api.c **** 	}
 5324              		.loc 1 2532 10 view .LVU1641
 5325 0028 6FF01D00 		mvn	r0, #29
 5326              	.LVL570:
2532:Core/Src/vl53l0x_api.c **** 	}
 5327              		.loc 1 2532 10 view .LVU1642
 5328 002c FAE7     		b	.L349
 5329              		.cfi_endproc
 5330              	.LFE211:
 5332              		.section	.text.VL53L0X_GetHistogramMeasurementData,"ax",%progbits
 5333              		.align	1
 5334              		.global	VL53L0X_GetHistogramMeasurementData
 5335              		.syntax unified
 5336              		.thumb
 5337              		.thumb_func
 5338              		.fpu fpv4-sp-d16
 5340              	VL53L0X_GetHistogramMeasurementData:
 5341              	.LVL571:
 5342              	.LFB212:
2538:Core/Src/vl53l0x_api.c **** 
2539:Core/Src/vl53l0x_api.c **** VL53L0X_Error VL53L0X_GetHistogramMeasurementData(VL53L0X_DEV Dev,
2540:Core/Src/vl53l0x_api.c **** 	VL53L0X_HistogramMeasurementData_t *pHistogramMeasurementData)
2541:Core/Src/vl53l0x_api.c **** {
 5343              		.loc 1 2541 1 is_stmt 1 view -0
 5344              		.cfi_startproc
 5345              		@ args = 0, pretend = 0, frame = 0
 5346              		@ frame_needed = 0, uses_anonymous_args = 0
 5347              		@ link register save eliminated.
2542:Core/Src/vl53l0x_api.c **** 	VL53L0X_Error Status = VL53L0X_ERROR_NOT_IMPLEMENTED;
 5348              		.loc 1 2542 2 view .LVU1644
2543:Core/Src/vl53l0x_api.c **** 	LOG_FUNCTION_START("");
 5349              		.loc 1 2543 2 view .LVU1645
2544:Core/Src/vl53l0x_api.c **** 
2545:Core/Src/vl53l0x_api.c **** 	LOG_FUNCTION_END(Status);
 5350              		.loc 1 2545 2 view .LVU1646
2546:Core/Src/vl53l0x_api.c **** 	return Status;
 5351              		.loc 1 2546 2 view .LVU1647
2547:Core/Src/vl53l0x_api.c **** }
 5352              		.loc 1 2547 1 is_stmt 0 view .LVU1648
 5353 0000 6FF06200 		mvn	r0, #98
 5354              	.LVL572:
 5355              		.loc 1 2547 1 view .LVU1649
 5356 0004 7047     		bx	lr
 5357              		.cfi_endproc
 5358              	.LFE212:
ARM GAS  C:\Users\anmh1\AppData\Local\Temp\ccBPLcM2.s 			page 147


 5360              		.section	.text.VL53L0X_SetNumberOfROIZones,"ax",%progbits
 5361              		.align	1
 5362              		.global	VL53L0X_SetNumberOfROIZones
 5363              		.syntax unified
 5364              		.thumb
 5365              		.thumb_func
 5366              		.fpu fpv4-sp-d16
 5368              	VL53L0X_SetNumberOfROIZones:
 5369              	.LVL573:
 5370              	.LFB214:
2548:Core/Src/vl53l0x_api.c **** 
2549:Core/Src/vl53l0x_api.c **** VL53L0X_Error VL53L0X_PerformSingleRangingMeasurement(VL53L0X_DEV Dev,
2550:Core/Src/vl53l0x_api.c **** 	VL53L0X_RangingMeasurementData_t *pRangingMeasurementData)
2551:Core/Src/vl53l0x_api.c **** {
2552:Core/Src/vl53l0x_api.c **** 	VL53L0X_Error Status = VL53L0X_ERROR_NONE;
2553:Core/Src/vl53l0x_api.c **** 
2554:Core/Src/vl53l0x_api.c **** 	LOG_FUNCTION_START("");
2555:Core/Src/vl53l0x_api.c **** 
2556:Core/Src/vl53l0x_api.c **** 	/* This function will do a complete single ranging
2557:Core/Src/vl53l0x_api.c **** 	 * Here we fix the mode! */
2558:Core/Src/vl53l0x_api.c **** 	Status = VL53L0X_SetDeviceMode(Dev, VL53L0X_DEVICEMODE_SINGLE_RANGING);
2559:Core/Src/vl53l0x_api.c **** 
2560:Core/Src/vl53l0x_api.c **** 	if (Status == VL53L0X_ERROR_NONE)
2561:Core/Src/vl53l0x_api.c **** 		Status = VL53L0X_PerformSingleMeasurement(Dev);
2562:Core/Src/vl53l0x_api.c **** 
2563:Core/Src/vl53l0x_api.c **** 
2564:Core/Src/vl53l0x_api.c **** 	if (Status == VL53L0X_ERROR_NONE)
2565:Core/Src/vl53l0x_api.c **** 		Status = VL53L0X_GetRangingMeasurementData(Dev,
2566:Core/Src/vl53l0x_api.c **** 			pRangingMeasurementData);
2567:Core/Src/vl53l0x_api.c **** 
2568:Core/Src/vl53l0x_api.c **** 
2569:Core/Src/vl53l0x_api.c **** 	if (Status == VL53L0X_ERROR_NONE)
2570:Core/Src/vl53l0x_api.c **** 		Status = VL53L0X_ClearInterruptMask(Dev, 0);
2571:Core/Src/vl53l0x_api.c **** 
2572:Core/Src/vl53l0x_api.c **** 
2573:Core/Src/vl53l0x_api.c **** 	LOG_FUNCTION_END(Status);
2574:Core/Src/vl53l0x_api.c **** 	return Status;
2575:Core/Src/vl53l0x_api.c **** }
2576:Core/Src/vl53l0x_api.c **** 
2577:Core/Src/vl53l0x_api.c **** VL53L0X_Error VL53L0X_SetNumberOfROIZones(VL53L0X_DEV Dev,
2578:Core/Src/vl53l0x_api.c **** 	uint8_t NumberOfROIZones)
2579:Core/Src/vl53l0x_api.c **** {
 5371              		.loc 1 2579 1 is_stmt 1 view -0
 5372              		.cfi_startproc
 5373              		@ args = 0, pretend = 0, frame = 0
 5374              		@ frame_needed = 0, uses_anonymous_args = 0
 5375              		@ link register save eliminated.
2580:Core/Src/vl53l0x_api.c **** 	VL53L0X_Error Status = VL53L0X_ERROR_NONE;
 5376              		.loc 1 2580 2 view .LVU1651
2581:Core/Src/vl53l0x_api.c **** 
2582:Core/Src/vl53l0x_api.c **** 	LOG_FUNCTION_START("");
 5377              		.loc 1 2582 2 view .LVU1652
2583:Core/Src/vl53l0x_api.c **** 
2584:Core/Src/vl53l0x_api.c **** 	if (NumberOfROIZones != 1)
 5378              		.loc 1 2584 2 view .LVU1653
 5379              		.loc 1 2584 5 is_stmt 0 view .LVU1654
 5380 0000 0129     		cmp	r1, #1
ARM GAS  C:\Users\anmh1\AppData\Local\Temp\ccBPLcM2.s 			page 148


 5381 0002 01D1     		bne	.L355
2580:Core/Src/vl53l0x_api.c **** 
 5382              		.loc 1 2580 16 view .LVU1655
 5383 0004 0020     		movs	r0, #0
 5384              	.LVL574:
2580:Core/Src/vl53l0x_api.c **** 
 5385              		.loc 1 2580 16 view .LVU1656
 5386 0006 7047     		bx	lr
 5387              	.LVL575:
 5388              	.L355:
2585:Core/Src/vl53l0x_api.c **** 		Status = VL53L0X_ERROR_INVALID_PARAMS;
 5389              		.loc 1 2585 10 view .LVU1657
 5390 0008 6FF00300 		mvn	r0, #3
 5391              	.LVL576:
2586:Core/Src/vl53l0x_api.c **** 
2587:Core/Src/vl53l0x_api.c **** 
2588:Core/Src/vl53l0x_api.c **** 	LOG_FUNCTION_END(Status);
 5392              		.loc 1 2588 2 is_stmt 1 view .LVU1658
2589:Core/Src/vl53l0x_api.c **** 	return Status;
 5393              		.loc 1 2589 2 view .LVU1659
2590:Core/Src/vl53l0x_api.c **** }
 5394              		.loc 1 2590 1 is_stmt 0 view .LVU1660
 5395 000c 7047     		bx	lr
 5396              		.cfi_endproc
 5397              	.LFE214:
 5399              		.section	.text.VL53L0X_GetNumberOfROIZones,"ax",%progbits
 5400              		.align	1
 5401              		.global	VL53L0X_GetNumberOfROIZones
 5402              		.syntax unified
 5403              		.thumb
 5404              		.thumb_func
 5405              		.fpu fpv4-sp-d16
 5407              	VL53L0X_GetNumberOfROIZones:
 5408              	.LVL577:
 5409              	.LFB215:
2591:Core/Src/vl53l0x_api.c **** 
2592:Core/Src/vl53l0x_api.c **** VL53L0X_Error VL53L0X_GetNumberOfROIZones(VL53L0X_DEV Dev,
2593:Core/Src/vl53l0x_api.c **** 	uint8_t *pNumberOfROIZones)
2594:Core/Src/vl53l0x_api.c **** {
 5410              		.loc 1 2594 1 is_stmt 1 view -0
 5411              		.cfi_startproc
 5412              		@ args = 0, pretend = 0, frame = 0
 5413              		@ frame_needed = 0, uses_anonymous_args = 0
 5414              		@ link register save eliminated.
2595:Core/Src/vl53l0x_api.c **** 	VL53L0X_Error Status = VL53L0X_ERROR_NONE;
 5415              		.loc 1 2595 2 view .LVU1662
2596:Core/Src/vl53l0x_api.c **** 
2597:Core/Src/vl53l0x_api.c **** 	LOG_FUNCTION_START("");
 5416              		.loc 1 2597 2 view .LVU1663
2598:Core/Src/vl53l0x_api.c **** 
2599:Core/Src/vl53l0x_api.c **** 	*pNumberOfROIZones = 1;
 5417              		.loc 1 2599 2 view .LVU1664
 5418              		.loc 1 2599 21 is_stmt 0 view .LVU1665
 5419 0000 0123     		movs	r3, #1
 5420 0002 0B70     		strb	r3, [r1]
2600:Core/Src/vl53l0x_api.c **** 
2601:Core/Src/vl53l0x_api.c **** 	LOG_FUNCTION_END(Status);
ARM GAS  C:\Users\anmh1\AppData\Local\Temp\ccBPLcM2.s 			page 149


 5421              		.loc 1 2601 2 is_stmt 1 view .LVU1666
2602:Core/Src/vl53l0x_api.c **** 	return Status;
 5422              		.loc 1 2602 2 view .LVU1667
2603:Core/Src/vl53l0x_api.c **** }
 5423              		.loc 1 2603 1 is_stmt 0 view .LVU1668
 5424 0004 0020     		movs	r0, #0
 5425              	.LVL578:
 5426              		.loc 1 2603 1 view .LVU1669
 5427 0006 7047     		bx	lr
 5428              		.cfi_endproc
 5429              	.LFE215:
 5431              		.section	.text.VL53L0X_GetMaxNumberOfROIZones,"ax",%progbits
 5432              		.align	1
 5433              		.global	VL53L0X_GetMaxNumberOfROIZones
 5434              		.syntax unified
 5435              		.thumb
 5436              		.thumb_func
 5437              		.fpu fpv4-sp-d16
 5439              	VL53L0X_GetMaxNumberOfROIZones:
 5440              	.LVL579:
 5441              	.LFB216:
2604:Core/Src/vl53l0x_api.c **** 
2605:Core/Src/vl53l0x_api.c **** VL53L0X_Error VL53L0X_GetMaxNumberOfROIZones(VL53L0X_DEV Dev,
2606:Core/Src/vl53l0x_api.c **** 	uint8_t *pMaxNumberOfROIZones)
2607:Core/Src/vl53l0x_api.c **** {
 5442              		.loc 1 2607 1 is_stmt 1 view -0
 5443              		.cfi_startproc
 5444              		@ args = 0, pretend = 0, frame = 0
 5445              		@ frame_needed = 0, uses_anonymous_args = 0
 5446              		@ link register save eliminated.
2608:Core/Src/vl53l0x_api.c **** 	VL53L0X_Error Status = VL53L0X_ERROR_NONE;
 5447              		.loc 1 2608 2 view .LVU1671
2609:Core/Src/vl53l0x_api.c **** 
2610:Core/Src/vl53l0x_api.c **** 	LOG_FUNCTION_START("");
 5448              		.loc 1 2610 2 view .LVU1672
2611:Core/Src/vl53l0x_api.c **** 
2612:Core/Src/vl53l0x_api.c **** 	*pMaxNumberOfROIZones = 1;
 5449              		.loc 1 2612 2 view .LVU1673
 5450              		.loc 1 2612 24 is_stmt 0 view .LVU1674
 5451 0000 0123     		movs	r3, #1
 5452 0002 0B70     		strb	r3, [r1]
2613:Core/Src/vl53l0x_api.c **** 
2614:Core/Src/vl53l0x_api.c **** 	LOG_FUNCTION_END(Status);
 5453              		.loc 1 2614 2 is_stmt 1 view .LVU1675
2615:Core/Src/vl53l0x_api.c **** 	return Status;
 5454              		.loc 1 2615 2 view .LVU1676
2616:Core/Src/vl53l0x_api.c **** }
 5455              		.loc 1 2616 1 is_stmt 0 view .LVU1677
 5456 0004 0020     		movs	r0, #0
 5457              	.LVL580:
 5458              		.loc 1 2616 1 view .LVU1678
 5459 0006 7047     		bx	lr
 5460              		.cfi_endproc
 5461              	.LFE216:
 5463              		.section	.text.VL53L0X_GetGpioConfig,"ax",%progbits
 5464              		.align	1
 5465              		.global	VL53L0X_GetGpioConfig
ARM GAS  C:\Users\anmh1\AppData\Local\Temp\ccBPLcM2.s 			page 150


 5466              		.syntax unified
 5467              		.thumb
 5468              		.thumb_func
 5469              		.fpu fpv4-sp-d16
 5471              	VL53L0X_GetGpioConfig:
 5472              	.LVL581:
 5473              	.LFB218:
2617:Core/Src/vl53l0x_api.c **** 
2618:Core/Src/vl53l0x_api.c **** /* End Group PAL Measurement Functions */
2619:Core/Src/vl53l0x_api.c **** 
2620:Core/Src/vl53l0x_api.c **** VL53L0X_Error VL53L0X_SetGpioConfig(VL53L0X_DEV Dev, uint8_t Pin,
2621:Core/Src/vl53l0x_api.c **** 	VL53L0X_DeviceModes DeviceMode, VL53L0X_GpioFunctionality Functionality,
2622:Core/Src/vl53l0x_api.c **** 	VL53L0X_InterruptPolarity Polarity)
2623:Core/Src/vl53l0x_api.c **** {
2624:Core/Src/vl53l0x_api.c **** 	VL53L0X_Error Status = VL53L0X_ERROR_NONE;
2625:Core/Src/vl53l0x_api.c **** 	uint8_t data;
2626:Core/Src/vl53l0x_api.c **** 
2627:Core/Src/vl53l0x_api.c **** 	LOG_FUNCTION_START("");
2628:Core/Src/vl53l0x_api.c **** 
2629:Core/Src/vl53l0x_api.c **** 	if (Pin != 0) {
2630:Core/Src/vl53l0x_api.c **** 		Status = VL53L0X_ERROR_GPIO_NOT_EXISTING;
2631:Core/Src/vl53l0x_api.c **** 	} else if (DeviceMode == VL53L0X_DEVICEMODE_GPIO_DRIVE) {
2632:Core/Src/vl53l0x_api.c **** 		if (Polarity == VL53L0X_INTERRUPTPOLARITY_LOW)
2633:Core/Src/vl53l0x_api.c **** 			data = 0x10;
2634:Core/Src/vl53l0x_api.c **** 		else
2635:Core/Src/vl53l0x_api.c **** 			data = 1;
2636:Core/Src/vl53l0x_api.c **** 
2637:Core/Src/vl53l0x_api.c **** 		Status = VL53L0X_WrByte(Dev,
2638:Core/Src/vl53l0x_api.c **** 		VL53L0X_REG_GPIO_HV_MUX_ACTIVE_HIGH, data);
2639:Core/Src/vl53l0x_api.c **** 
2640:Core/Src/vl53l0x_api.c **** 	} else if (DeviceMode == VL53L0X_DEVICEMODE_GPIO_OSC) {
2641:Core/Src/vl53l0x_api.c **** 
2642:Core/Src/vl53l0x_api.c **** 		Status |= VL53L0X_WrByte(Dev, 0xff, 0x01);
2643:Core/Src/vl53l0x_api.c **** 		Status |= VL53L0X_WrByte(Dev, 0x00, 0x00);
2644:Core/Src/vl53l0x_api.c **** 
2645:Core/Src/vl53l0x_api.c **** 		Status |= VL53L0X_WrByte(Dev, 0xff, 0x00);
2646:Core/Src/vl53l0x_api.c **** 		Status |= VL53L0X_WrByte(Dev, 0x80, 0x01);
2647:Core/Src/vl53l0x_api.c **** 		Status |= VL53L0X_WrByte(Dev, 0x85, 0x02);
2648:Core/Src/vl53l0x_api.c **** 
2649:Core/Src/vl53l0x_api.c **** 		Status |= VL53L0X_WrByte(Dev, 0xff, 0x04);
2650:Core/Src/vl53l0x_api.c **** 		Status |= VL53L0X_WrByte(Dev, 0xcd, 0x00);
2651:Core/Src/vl53l0x_api.c **** 		Status |= VL53L0X_WrByte(Dev, 0xcc, 0x11);
2652:Core/Src/vl53l0x_api.c **** 
2653:Core/Src/vl53l0x_api.c **** 		Status |= VL53L0X_WrByte(Dev, 0xff, 0x07);
2654:Core/Src/vl53l0x_api.c **** 		Status |= VL53L0X_WrByte(Dev, 0xbe, 0x00);
2655:Core/Src/vl53l0x_api.c **** 
2656:Core/Src/vl53l0x_api.c **** 		Status |= VL53L0X_WrByte(Dev, 0xff, 0x06);
2657:Core/Src/vl53l0x_api.c **** 		Status |= VL53L0X_WrByte(Dev, 0xcc, 0x09);
2658:Core/Src/vl53l0x_api.c **** 
2659:Core/Src/vl53l0x_api.c **** 		Status |= VL53L0X_WrByte(Dev, 0xff, 0x00);
2660:Core/Src/vl53l0x_api.c **** 		Status |= VL53L0X_WrByte(Dev, 0xff, 0x01);
2661:Core/Src/vl53l0x_api.c **** 		Status |= VL53L0X_WrByte(Dev, 0x00, 0x00);
2662:Core/Src/vl53l0x_api.c **** 
2663:Core/Src/vl53l0x_api.c **** 	} else {
2664:Core/Src/vl53l0x_api.c **** 
2665:Core/Src/vl53l0x_api.c **** 		if (Status == VL53L0X_ERROR_NONE) {
2666:Core/Src/vl53l0x_api.c **** 			switch (Functionality) {
ARM GAS  C:\Users\anmh1\AppData\Local\Temp\ccBPLcM2.s 			page 151


2667:Core/Src/vl53l0x_api.c **** 			case VL53L0X_GPIOFUNCTIONALITY_OFF:
2668:Core/Src/vl53l0x_api.c **** 				data = 0x00;
2669:Core/Src/vl53l0x_api.c **** 				break;
2670:Core/Src/vl53l0x_api.c **** 			case VL53L0X_GPIOFUNCTIONALITY_THRESHOLD_CROSSED_LOW:
2671:Core/Src/vl53l0x_api.c **** 				data = 0x01;
2672:Core/Src/vl53l0x_api.c **** 				break;
2673:Core/Src/vl53l0x_api.c **** 			case VL53L0X_GPIOFUNCTIONALITY_THRESHOLD_CROSSED_HIGH:
2674:Core/Src/vl53l0x_api.c **** 				data = 0x02;
2675:Core/Src/vl53l0x_api.c **** 				break;
2676:Core/Src/vl53l0x_api.c **** 			case VL53L0X_GPIOFUNCTIONALITY_THRESHOLD_CROSSED_OUT:
2677:Core/Src/vl53l0x_api.c **** 				data = 0x03;
2678:Core/Src/vl53l0x_api.c **** 				break;
2679:Core/Src/vl53l0x_api.c **** 			case VL53L0X_GPIOFUNCTIONALITY_NEW_MEASURE_READY:
2680:Core/Src/vl53l0x_api.c **** 				data = 0x04;
2681:Core/Src/vl53l0x_api.c **** 				break;
2682:Core/Src/vl53l0x_api.c **** 			default:
2683:Core/Src/vl53l0x_api.c **** 				Status =
2684:Core/Src/vl53l0x_api.c **** 				VL53L0X_ERROR_GPIO_FUNCTIONALITY_NOT_SUPPORTED;
2685:Core/Src/vl53l0x_api.c **** 			}
2686:Core/Src/vl53l0x_api.c **** 		}
2687:Core/Src/vl53l0x_api.c **** 
2688:Core/Src/vl53l0x_api.c **** 		if (Status == VL53L0X_ERROR_NONE)
2689:Core/Src/vl53l0x_api.c **** 			Status = VL53L0X_WrByte(Dev,
2690:Core/Src/vl53l0x_api.c **** 			VL53L0X_REG_SYSTEM_INTERRUPT_CONFIG_GPIO, data);
2691:Core/Src/vl53l0x_api.c **** 
2692:Core/Src/vl53l0x_api.c **** 		if (Status == VL53L0X_ERROR_NONE) {
2693:Core/Src/vl53l0x_api.c **** 			if (Polarity == VL53L0X_INTERRUPTPOLARITY_LOW)
2694:Core/Src/vl53l0x_api.c **** 				data = 0;
2695:Core/Src/vl53l0x_api.c **** 			else
2696:Core/Src/vl53l0x_api.c **** 				data = (uint8_t)(1 << 4);
2697:Core/Src/vl53l0x_api.c **** 
2698:Core/Src/vl53l0x_api.c **** 			Status = VL53L0X_UpdateByte(Dev,
2699:Core/Src/vl53l0x_api.c **** 			VL53L0X_REG_GPIO_HV_MUX_ACTIVE_HIGH, 0xEF, data);
2700:Core/Src/vl53l0x_api.c **** 		}
2701:Core/Src/vl53l0x_api.c **** 
2702:Core/Src/vl53l0x_api.c **** 		if (Status == VL53L0X_ERROR_NONE)
2703:Core/Src/vl53l0x_api.c **** 			VL53L0X_SETDEVICESPECIFICPARAMETER(Dev,
2704:Core/Src/vl53l0x_api.c **** 				Pin0GpioFunctionality, Functionality);
2705:Core/Src/vl53l0x_api.c **** 
2706:Core/Src/vl53l0x_api.c **** 		if (Status == VL53L0X_ERROR_NONE)
2707:Core/Src/vl53l0x_api.c **** 			Status = VL53L0X_ClearInterruptMask(Dev, 0);
2708:Core/Src/vl53l0x_api.c **** 
2709:Core/Src/vl53l0x_api.c **** 	}
2710:Core/Src/vl53l0x_api.c **** 
2711:Core/Src/vl53l0x_api.c **** 	LOG_FUNCTION_END(Status);
2712:Core/Src/vl53l0x_api.c **** 	return Status;
2713:Core/Src/vl53l0x_api.c **** }
2714:Core/Src/vl53l0x_api.c **** 
2715:Core/Src/vl53l0x_api.c **** VL53L0X_Error VL53L0X_GetGpioConfig(VL53L0X_DEV Dev, uint8_t Pin,
2716:Core/Src/vl53l0x_api.c **** 	VL53L0X_DeviceModes *pDeviceMode,
2717:Core/Src/vl53l0x_api.c **** 	VL53L0X_GpioFunctionality *pFunctionality,
2718:Core/Src/vl53l0x_api.c **** 	VL53L0X_InterruptPolarity *pPolarity)
2719:Core/Src/vl53l0x_api.c **** {
 5474              		.loc 1 2719 1 is_stmt 1 view -0
 5475              		.cfi_startproc
 5476              		@ args = 4, pretend = 0, frame = 8
 5477              		@ frame_needed = 0, uses_anonymous_args = 0
ARM GAS  C:\Users\anmh1\AppData\Local\Temp\ccBPLcM2.s 			page 152


 5478              		.loc 1 2719 1 is_stmt 0 view .LVU1680
 5479 0000 F0B5     		push	{r4, r5, r6, r7, lr}
 5480              		.cfi_def_cfa_offset 20
 5481              		.cfi_offset 4, -20
 5482              		.cfi_offset 5, -16
 5483              		.cfi_offset 6, -12
 5484              		.cfi_offset 7, -8
 5485              		.cfi_offset 14, -4
 5486 0002 83B0     		sub	sp, sp, #12
 5487              		.cfi_def_cfa_offset 32
 5488 0004 0446     		mov	r4, r0
 5489 0006 0E46     		mov	r6, r1
 5490 0008 1D46     		mov	r5, r3
 5491 000a 0027     		movs	r7, #0
2720:Core/Src/vl53l0x_api.c **** 	VL53L0X_Error Status = VL53L0X_ERROR_NONE;
 5492              		.loc 1 2720 2 is_stmt 1 view .LVU1681
 5493              	.LVL582:
2721:Core/Src/vl53l0x_api.c **** 	VL53L0X_GpioFunctionality GpioFunctionality;
 5494              		.loc 1 2721 2 view .LVU1682
2722:Core/Src/vl53l0x_api.c **** 	uint8_t data;
 5495              		.loc 1 2722 2 view .LVU1683
2723:Core/Src/vl53l0x_api.c **** 
2724:Core/Src/vl53l0x_api.c **** 	LOG_FUNCTION_START("");
 5496              		.loc 1 2724 2 view .LVU1684
2725:Core/Src/vl53l0x_api.c **** 
2726:Core/Src/vl53l0x_api.c **** 	/* pDeviceMode not managed by Ewok it return the current mode */
2727:Core/Src/vl53l0x_api.c **** 
2728:Core/Src/vl53l0x_api.c **** 	Status = VL53L0X_GetDeviceMode(Dev, pDeviceMode);
 5497              		.loc 1 2728 2 view .LVU1685
 5498              		.loc 1 2728 11 is_stmt 0 view .LVU1686
 5499 000c 1146     		mov	r1, r2
 5500              	.LVL583:
 5501              		.loc 1 2728 11 view .LVU1687
 5502 000e FFF7FEFF 		bl	VL53L0X_GetDeviceMode
 5503              	.LVL584:
2729:Core/Src/vl53l0x_api.c **** 
2730:Core/Src/vl53l0x_api.c **** 	if (Status == VL53L0X_ERROR_NONE) {
 5504              		.loc 1 2730 2 is_stmt 1 view .LVU1688
 5505              		.loc 1 2730 5 is_stmt 0 view .LVU1689
 5506 0012 C0B9     		cbnz	r0, .L359
2731:Core/Src/vl53l0x_api.c **** 		if (Pin != 0) {
 5507              		.loc 1 2731 3 is_stmt 1 view .LVU1690
 5508              		.loc 1 2731 6 is_stmt 0 view .LVU1691
 5509 0014 8EB1     		cbz	r6, .L370
2732:Core/Src/vl53l0x_api.c **** 			Status = VL53L0X_ERROR_GPIO_NOT_EXISTING;
 5510              		.loc 1 2732 11 view .LVU1692
 5511 0016 6FF00900 		mvn	r0, #9
 5512              	.LVL585:
 5513              	.L360:
2733:Core/Src/vl53l0x_api.c **** 		} else {
2734:Core/Src/vl53l0x_api.c **** 			Status = VL53L0X_RdByte(Dev,
2735:Core/Src/vl53l0x_api.c **** 			VL53L0X_REG_SYSTEM_INTERRUPT_CONFIG_GPIO, &data);
2736:Core/Src/vl53l0x_api.c **** 		}
2737:Core/Src/vl53l0x_api.c **** 	}
2738:Core/Src/vl53l0x_api.c **** 
2739:Core/Src/vl53l0x_api.c **** 	if (Status == VL53L0X_ERROR_NONE) {
2740:Core/Src/vl53l0x_api.c **** 		switch (data & 0x07) {
ARM GAS  C:\Users\anmh1\AppData\Local\Temp\ccBPLcM2.s 			page 153


2741:Core/Src/vl53l0x_api.c **** 		case 0x00:
2742:Core/Src/vl53l0x_api.c **** 			GpioFunctionality = VL53L0X_GPIOFUNCTIONALITY_OFF;
2743:Core/Src/vl53l0x_api.c **** 			break;
2744:Core/Src/vl53l0x_api.c **** 		case 0x01:
2745:Core/Src/vl53l0x_api.c **** 			GpioFunctionality =
2746:Core/Src/vl53l0x_api.c **** 			VL53L0X_GPIOFUNCTIONALITY_THRESHOLD_CROSSED_LOW;
2747:Core/Src/vl53l0x_api.c **** 			break;
2748:Core/Src/vl53l0x_api.c **** 		case 0x02:
2749:Core/Src/vl53l0x_api.c **** 			GpioFunctionality =
2750:Core/Src/vl53l0x_api.c **** 			VL53L0X_GPIOFUNCTIONALITY_THRESHOLD_CROSSED_HIGH;
2751:Core/Src/vl53l0x_api.c **** 			break;
2752:Core/Src/vl53l0x_api.c **** 		case 0x03:
2753:Core/Src/vl53l0x_api.c **** 			GpioFunctionality =
2754:Core/Src/vl53l0x_api.c **** 			VL53L0X_GPIOFUNCTIONALITY_THRESHOLD_CROSSED_OUT;
2755:Core/Src/vl53l0x_api.c **** 			break;
2756:Core/Src/vl53l0x_api.c **** 		case 0x04:
2757:Core/Src/vl53l0x_api.c **** 			GpioFunctionality =
2758:Core/Src/vl53l0x_api.c **** 			VL53L0X_GPIOFUNCTIONALITY_NEW_MEASURE_READY;
2759:Core/Src/vl53l0x_api.c **** 			break;
2760:Core/Src/vl53l0x_api.c **** 		default:
2761:Core/Src/vl53l0x_api.c **** 			Status = VL53L0X_ERROR_GPIO_FUNCTIONALITY_NOT_SUPPORTED;
2762:Core/Src/vl53l0x_api.c **** 		}
2763:Core/Src/vl53l0x_api.c **** 	}
2764:Core/Src/vl53l0x_api.c **** 
2765:Core/Src/vl53l0x_api.c **** 	if (Status == VL53L0X_ERROR_NONE)
 5514              		.loc 1 2765 2 is_stmt 1 view .LVU1693
 5515              		.loc 1 2765 5 is_stmt 0 view .LVU1694
 5516 001a 18B3     		cbz	r0, .L371
 5517              	.LVL586:
 5518              	.L361:
2766:Core/Src/vl53l0x_api.c **** 		Status = VL53L0X_RdByte(Dev, VL53L0X_REG_GPIO_HV_MUX_ACTIVE_HIGH,
2767:Core/Src/vl53l0x_api.c **** 			&data);
2768:Core/Src/vl53l0x_api.c **** 
2769:Core/Src/vl53l0x_api.c **** 	if (Status == VL53L0X_ERROR_NONE) {
 5519              		.loc 1 2769 2 is_stmt 1 view .LVU1695
 5520              		.loc 1 2769 5 is_stmt 0 view .LVU1696
 5521 001c 38B9     		cbnz	r0, .L363
2770:Core/Src/vl53l0x_api.c **** 		if ((data & (uint8_t)(1 << 4)) == 0)
 5522              		.loc 1 2770 3 is_stmt 1 view .LVU1697
 5523              		.loc 1 2770 13 is_stmt 0 view .LVU1698
 5524 001e 9DF80730 		ldrb	r3, [sp, #7]	@ zero_extendqisi2
 5525              		.loc 1 2770 6 view .LVU1699
 5526 0022 13F0100F 		tst	r3, #16
 5527 0026 27D1     		bne	.L364
2771:Core/Src/vl53l0x_api.c **** 			*pPolarity = VL53L0X_INTERRUPTPOLARITY_LOW;
 5528              		.loc 1 2771 4 is_stmt 1 view .LVU1700
 5529              		.loc 1 2771 15 is_stmt 0 view .LVU1701
 5530 0028 0023     		movs	r3, #0
 5531 002a 089A     		ldr	r2, [sp, #32]
 5532 002c 1370     		strb	r3, [r2]
 5533              	.L363:
2772:Core/Src/vl53l0x_api.c **** 		else
2773:Core/Src/vl53l0x_api.c **** 			*pPolarity = VL53L0X_INTERRUPTPOLARITY_HIGH;
2774:Core/Src/vl53l0x_api.c **** 	}
2775:Core/Src/vl53l0x_api.c **** 
2776:Core/Src/vl53l0x_api.c **** 	if (Status == VL53L0X_ERROR_NONE) {
 5534              		.loc 1 2776 2 is_stmt 1 view .LVU1702
ARM GAS  C:\Users\anmh1\AppData\Local\Temp\ccBPLcM2.s 			page 154


 5535              		.loc 1 2776 5 is_stmt 0 view .LVU1703
 5536 002e 10B9     		cbnz	r0, .L365
2777:Core/Src/vl53l0x_api.c **** 		*pFunctionality = GpioFunctionality;
 5537              		.loc 1 2777 3 is_stmt 1 view .LVU1704
 5538              		.loc 1 2777 19 is_stmt 0 view .LVU1705
 5539 0030 2F70     		strb	r7, [r5]
2778:Core/Src/vl53l0x_api.c **** 		VL53L0X_SETDEVICESPECIFICPARAMETER(Dev, Pin0GpioFunctionality,
 5540              		.loc 1 2778 3 is_stmt 1 view .LVU1706
 5541 0032 84F8DA70 		strb	r7, [r4, #218]
 5542              	.L365:
2779:Core/Src/vl53l0x_api.c **** 			GpioFunctionality);
2780:Core/Src/vl53l0x_api.c **** 	}
2781:Core/Src/vl53l0x_api.c **** 
2782:Core/Src/vl53l0x_api.c **** 	LOG_FUNCTION_END(Status);
 5543              		.loc 1 2782 2 view .LVU1707
2783:Core/Src/vl53l0x_api.c **** 	return Status;
 5544              		.loc 1 2783 2 view .LVU1708
2784:Core/Src/vl53l0x_api.c **** }
 5545              		.loc 1 2784 1 is_stmt 0 view .LVU1709
 5546 0036 03B0     		add	sp, sp, #12
 5547              		.cfi_remember_state
 5548              		.cfi_def_cfa_offset 20
 5549              		@ sp needed
 5550 0038 F0BD     		pop	{r4, r5, r6, r7, pc}
 5551              	.LVL587:
 5552              	.L370:
 5553              		.cfi_restore_state
2734:Core/Src/vl53l0x_api.c **** 			VL53L0X_REG_SYSTEM_INTERRUPT_CONFIG_GPIO, &data);
 5554              		.loc 1 2734 4 is_stmt 1 view .LVU1710
2734:Core/Src/vl53l0x_api.c **** 			VL53L0X_REG_SYSTEM_INTERRUPT_CONFIG_GPIO, &data);
 5555              		.loc 1 2734 13 is_stmt 0 view .LVU1711
 5556 003a 0DF10702 		add	r2, sp, #7
 5557 003e 0A21     		movs	r1, #10
 5558 0040 2046     		mov	r0, r4
 5559 0042 FFF7FEFF 		bl	VL53L0X_RdByte
 5560              	.LVL588:
 5561              	.L359:
2739:Core/Src/vl53l0x_api.c **** 		switch (data & 0x07) {
 5562              		.loc 1 2739 2 is_stmt 1 view .LVU1712
2739:Core/Src/vl53l0x_api.c **** 		switch (data & 0x07) {
 5563              		.loc 1 2739 5 is_stmt 0 view .LVU1713
 5564 0046 0028     		cmp	r0, #0
 5565 0048 E7D1     		bne	.L360
2740:Core/Src/vl53l0x_api.c **** 		case 0x00:
 5566              		.loc 1 2740 3 is_stmt 1 view .LVU1714
2740:Core/Src/vl53l0x_api.c **** 		case 0x00:
 5567              		.loc 1 2740 16 is_stmt 0 view .LVU1715
 5568 004a 9DF80730 		ldrb	r3, [sp, #7]	@ zero_extendqisi2
 5569 004e 03F00703 		and	r3, r3, #7
 5570 0052 042B     		cmp	r3, #4
 5571 0054 0DD8     		bhi	.L367
 5572 0056 DFE803F0 		tbb	[pc, r3]
 5573              	.L362:
 5574 005a 03       		.byte	(.L368-.L362)/2
 5575 005b 03       		.byte	(.L368-.L362)/2
 5576 005c 03       		.byte	(.L368-.L362)/2
 5577 005d 03       		.byte	(.L368-.L362)/2
ARM GAS  C:\Users\anmh1\AppData\Local\Temp\ccBPLcM2.s 			page 155


 5578 005e 03       		.byte	(.L368-.L362)/2
 5579 005f 00       		.p2align 1
 5580              	.L368:
2745:Core/Src/vl53l0x_api.c **** 			VL53L0X_GPIOFUNCTIONALITY_THRESHOLD_CROSSED_LOW;
 5581              		.loc 1 2745 22 view .LVU1716
 5582 0060 1F46     		mov	r7, r3
 5583 0062 DAE7     		b	.L360
 5584              	.LVL589:
 5585              	.L371:
2766:Core/Src/vl53l0x_api.c **** 			&data);
 5586              		.loc 1 2766 3 is_stmt 1 view .LVU1717
2766:Core/Src/vl53l0x_api.c **** 			&data);
 5587              		.loc 1 2766 12 is_stmt 0 view .LVU1718
 5588 0064 0DF10702 		add	r2, sp, #7
 5589 0068 8421     		movs	r1, #132
 5590 006a 2046     		mov	r0, r4
 5591              	.LVL590:
2766:Core/Src/vl53l0x_api.c **** 			&data);
 5592              		.loc 1 2766 12 view .LVU1719
 5593 006c FFF7FEFF 		bl	VL53L0X_RdByte
 5594              	.LVL591:
2766:Core/Src/vl53l0x_api.c **** 			&data);
 5595              		.loc 1 2766 12 view .LVU1720
 5596 0070 D4E7     		b	.L361
 5597              	.LVL592:
 5598              	.L367:
2740:Core/Src/vl53l0x_api.c **** 		case 0x00:
 5599              		.loc 1 2740 16 view .LVU1721
 5600 0072 6FF00A00 		mvn	r0, #10
 5601              	.LVL593:
2740:Core/Src/vl53l0x_api.c **** 		case 0x00:
 5602              		.loc 1 2740 16 view .LVU1722
 5603 0076 D1E7     		b	.L361
 5604              	.LVL594:
 5605              	.L364:
2773:Core/Src/vl53l0x_api.c **** 	}
 5606              		.loc 1 2773 4 is_stmt 1 view .LVU1723
2773:Core/Src/vl53l0x_api.c **** 	}
 5607              		.loc 1 2773 15 is_stmt 0 view .LVU1724
 5608 0078 0123     		movs	r3, #1
 5609 007a 089A     		ldr	r2, [sp, #32]
 5610 007c 1370     		strb	r3, [r2]
 5611 007e D6E7     		b	.L363
 5612              		.cfi_endproc
 5613              	.LFE218:
 5615              		.section	.text.VL53L0X_SetInterruptThresholds,"ax",%progbits
 5616              		.align	1
 5617              		.global	VL53L0X_SetInterruptThresholds
 5618              		.syntax unified
 5619              		.thumb
 5620              		.thumb_func
 5621              		.fpu fpv4-sp-d16
 5623              	VL53L0X_SetInterruptThresholds:
 5624              	.LVL595:
 5625              	.LFB219:
2785:Core/Src/vl53l0x_api.c **** 
2786:Core/Src/vl53l0x_api.c **** VL53L0X_Error VL53L0X_SetInterruptThresholds(VL53L0X_DEV Dev,
ARM GAS  C:\Users\anmh1\AppData\Local\Temp\ccBPLcM2.s 			page 156


2787:Core/Src/vl53l0x_api.c **** 	VL53L0X_DeviceModes DeviceMode, FixPoint1616_t ThresholdLow,
2788:Core/Src/vl53l0x_api.c **** 	FixPoint1616_t ThresholdHigh)
2789:Core/Src/vl53l0x_api.c **** {
 5626              		.loc 1 2789 1 is_stmt 1 view -0
 5627              		.cfi_startproc
 5628              		@ args = 0, pretend = 0, frame = 0
 5629              		@ frame_needed = 0, uses_anonymous_args = 0
 5630              		.loc 1 2789 1 is_stmt 0 view .LVU1726
 5631 0000 38B5     		push	{r3, r4, r5, lr}
 5632              		.cfi_def_cfa_offset 16
 5633              		.cfi_offset 3, -16
 5634              		.cfi_offset 4, -12
 5635              		.cfi_offset 5, -8
 5636              		.cfi_offset 14, -4
 5637 0002 0446     		mov	r4, r0
 5638 0004 1D46     		mov	r5, r3
2790:Core/Src/vl53l0x_api.c **** 	VL53L0X_Error Status = VL53L0X_ERROR_NONE;
 5639              		.loc 1 2790 2 is_stmt 1 view .LVU1727
 5640              	.LVL596:
2791:Core/Src/vl53l0x_api.c **** 	uint16_t Threshold16;
 5641              		.loc 1 2791 2 view .LVU1728
2792:Core/Src/vl53l0x_api.c **** 	LOG_FUNCTION_START("");
 5642              		.loc 1 2792 2 view .LVU1729
2793:Core/Src/vl53l0x_api.c **** 
2794:Core/Src/vl53l0x_api.c **** 	/* no dependency on DeviceMode for Ewok */
2795:Core/Src/vl53l0x_api.c **** 	/* Need to divide by 2 because the FW will apply a x2 */
2796:Core/Src/vl53l0x_api.c **** 	Threshold16 = (uint16_t)((ThresholdLow >> 17) & 0x00fff);
 5643              		.loc 1 2796 2 view .LVU1730
2797:Core/Src/vl53l0x_api.c **** 	Status = VL53L0X_WrWord(Dev, VL53L0X_REG_SYSTEM_THRESH_LOW, Threshold16);
 5644              		.loc 1 2797 2 view .LVU1731
 5645              		.loc 1 2797 11 is_stmt 0 view .LVU1732
 5646 0006 C2F34B42 		ubfx	r2, r2, #17, #12
 5647              	.LVL597:
 5648              		.loc 1 2797 11 view .LVU1733
 5649 000a 0E21     		movs	r1, #14
 5650              	.LVL598:
 5651              		.loc 1 2797 11 view .LVU1734
 5652 000c FFF7FEFF 		bl	VL53L0X_WrWord
 5653              	.LVL599:
2798:Core/Src/vl53l0x_api.c **** 
2799:Core/Src/vl53l0x_api.c **** 	if (Status == VL53L0X_ERROR_NONE) {
 5654              		.loc 1 2799 2 is_stmt 1 view .LVU1735
 5655              		.loc 1 2799 5 is_stmt 0 view .LVU1736
 5656 0010 00B1     		cbz	r0, .L375
 5657              	.LVL600:
 5658              	.L373:
2800:Core/Src/vl53l0x_api.c **** 		/* Need to divide by 2 because the FW will apply a x2 */
2801:Core/Src/vl53l0x_api.c **** 		Threshold16 = (uint16_t)((ThresholdHigh >> 17) & 0x00fff);
2802:Core/Src/vl53l0x_api.c **** 		Status = VL53L0X_WrWord(Dev, VL53L0X_REG_SYSTEM_THRESH_HIGH,
2803:Core/Src/vl53l0x_api.c **** 			Threshold16);
2804:Core/Src/vl53l0x_api.c **** 	}
2805:Core/Src/vl53l0x_api.c **** 
2806:Core/Src/vl53l0x_api.c **** 	LOG_FUNCTION_END(Status);
 5659              		.loc 1 2806 2 is_stmt 1 view .LVU1737
2807:Core/Src/vl53l0x_api.c **** 	return Status;
 5660              		.loc 1 2807 2 view .LVU1738
2808:Core/Src/vl53l0x_api.c **** }
ARM GAS  C:\Users\anmh1\AppData\Local\Temp\ccBPLcM2.s 			page 157


 5661              		.loc 1 2808 1 is_stmt 0 view .LVU1739
 5662 0012 38BD     		pop	{r3, r4, r5, pc}
 5663              	.LVL601:
 5664              	.L375:
2801:Core/Src/vl53l0x_api.c **** 		Status = VL53L0X_WrWord(Dev, VL53L0X_REG_SYSTEM_THRESH_HIGH,
 5665              		.loc 1 2801 3 is_stmt 1 view .LVU1740
2802:Core/Src/vl53l0x_api.c **** 			Threshold16);
 5666              		.loc 1 2802 3 view .LVU1741
2802:Core/Src/vl53l0x_api.c **** 			Threshold16);
 5667              		.loc 1 2802 12 is_stmt 0 view .LVU1742
 5668 0014 C5F34B42 		ubfx	r2, r5, #17, #12
 5669 0018 0C21     		movs	r1, #12
 5670 001a 2046     		mov	r0, r4
 5671 001c FFF7FEFF 		bl	VL53L0X_WrWord
 5672              	.LVL602:
2802:Core/Src/vl53l0x_api.c **** 			Threshold16);
 5673              		.loc 1 2802 12 view .LVU1743
 5674 0020 F7E7     		b	.L373
 5675              		.cfi_endproc
 5676              	.LFE219:
 5678              		.section	.text.VL53L0X_GetInterruptThresholds,"ax",%progbits
 5679              		.align	1
 5680              		.global	VL53L0X_GetInterruptThresholds
 5681              		.syntax unified
 5682              		.thumb
 5683              		.thumb_func
 5684              		.fpu fpv4-sp-d16
 5686              	VL53L0X_GetInterruptThresholds:
 5687              	.LVL603:
 5688              	.LFB220:
2809:Core/Src/vl53l0x_api.c **** 
2810:Core/Src/vl53l0x_api.c **** VL53L0X_Error VL53L0X_GetInterruptThresholds(VL53L0X_DEV Dev,
2811:Core/Src/vl53l0x_api.c **** 	VL53L0X_DeviceModes DeviceMode, FixPoint1616_t *pThresholdLow,
2812:Core/Src/vl53l0x_api.c **** 	FixPoint1616_t *pThresholdHigh)
2813:Core/Src/vl53l0x_api.c **** {
 5689              		.loc 1 2813 1 is_stmt 1 view -0
 5690              		.cfi_startproc
 5691              		@ args = 0, pretend = 0, frame = 8
 5692              		@ frame_needed = 0, uses_anonymous_args = 0
 5693              		.loc 1 2813 1 is_stmt 0 view .LVU1745
 5694 0000 70B5     		push	{r4, r5, r6, lr}
 5695              		.cfi_def_cfa_offset 16
 5696              		.cfi_offset 4, -16
 5697              		.cfi_offset 5, -12
 5698              		.cfi_offset 6, -8
 5699              		.cfi_offset 14, -4
 5700 0002 82B0     		sub	sp, sp, #8
 5701              		.cfi_def_cfa_offset 24
 5702 0004 0646     		mov	r6, r0
 5703 0006 1446     		mov	r4, r2
 5704 0008 1D46     		mov	r5, r3
2814:Core/Src/vl53l0x_api.c **** 	VL53L0X_Error Status = VL53L0X_ERROR_NONE;
 5705              		.loc 1 2814 2 is_stmt 1 view .LVU1746
 5706              	.LVL604:
2815:Core/Src/vl53l0x_api.c **** 	uint16_t Threshold16;
 5707              		.loc 1 2815 2 view .LVU1747
2816:Core/Src/vl53l0x_api.c **** 	LOG_FUNCTION_START("");
ARM GAS  C:\Users\anmh1\AppData\Local\Temp\ccBPLcM2.s 			page 158


 5708              		.loc 1 2816 2 view .LVU1748
2817:Core/Src/vl53l0x_api.c **** 
2818:Core/Src/vl53l0x_api.c **** 	/* no dependency on DeviceMode for Ewok */
2819:Core/Src/vl53l0x_api.c **** 
2820:Core/Src/vl53l0x_api.c **** 	Status = VL53L0X_RdWord(Dev, VL53L0X_REG_SYSTEM_THRESH_LOW, &Threshold16);
 5709              		.loc 1 2820 2 view .LVU1749
 5710              		.loc 1 2820 11 is_stmt 0 view .LVU1750
 5711 000a 0DF10602 		add	r2, sp, #6
 5712              	.LVL605:
 5713              		.loc 1 2820 11 view .LVU1751
 5714 000e 0E21     		movs	r1, #14
 5715              	.LVL606:
 5716              		.loc 1 2820 11 view .LVU1752
 5717 0010 FFF7FEFF 		bl	VL53L0X_RdWord
 5718              	.LVL607:
2821:Core/Src/vl53l0x_api.c **** 	/* Need to multiply by 2 because the FW will apply a x2 */
2822:Core/Src/vl53l0x_api.c **** 	*pThresholdLow = (FixPoint1616_t)((0x00fff & Threshold16) << 17);
 5719              		.loc 1 2822 2 is_stmt 1 view .LVU1753
 5720              		.loc 1 2822 45 is_stmt 0 view .LVU1754
 5721 0014 BDF80610 		ldrh	r1, [sp, #6]
 5722              		.loc 1 2822 19 view .LVU1755
 5723 0018 094A     		ldr	r2, .L380
 5724 001a 02EA4142 		and	r2, r2, r1, lsl #17
 5725              		.loc 1 2822 17 view .LVU1756
 5726 001e 2260     		str	r2, [r4]
2823:Core/Src/vl53l0x_api.c **** 
2824:Core/Src/vl53l0x_api.c **** 	if (Status == VL53L0X_ERROR_NONE) {
 5727              		.loc 1 2824 2 is_stmt 1 view .LVU1757
 5728              		.loc 1 2824 5 is_stmt 0 view .LVU1758
 5729 0020 08B1     		cbz	r0, .L379
 5730              	.LVL608:
 5731              	.L377:
2825:Core/Src/vl53l0x_api.c **** 		Status = VL53L0X_RdWord(Dev, VL53L0X_REG_SYSTEM_THRESH_HIGH,
2826:Core/Src/vl53l0x_api.c **** 			&Threshold16);
2827:Core/Src/vl53l0x_api.c **** 		/* Need to multiply by 2 because the FW will apply a x2 */
2828:Core/Src/vl53l0x_api.c **** 		*pThresholdHigh =
2829:Core/Src/vl53l0x_api.c **** 			(FixPoint1616_t)((0x00fff & Threshold16) << 17);
2830:Core/Src/vl53l0x_api.c **** 	}
2831:Core/Src/vl53l0x_api.c **** 
2832:Core/Src/vl53l0x_api.c **** 	LOG_FUNCTION_END(Status);
 5732              		.loc 1 2832 2 is_stmt 1 view .LVU1759
2833:Core/Src/vl53l0x_api.c **** 	return Status;
 5733              		.loc 1 2833 2 view .LVU1760
2834:Core/Src/vl53l0x_api.c **** }
 5734              		.loc 1 2834 1 is_stmt 0 view .LVU1761
 5735 0022 02B0     		add	sp, sp, #8
 5736              		.cfi_remember_state
 5737              		.cfi_def_cfa_offset 16
 5738              		@ sp needed
 5739 0024 70BD     		pop	{r4, r5, r6, pc}
 5740              	.LVL609:
 5741              	.L379:
 5742              		.cfi_restore_state
2825:Core/Src/vl53l0x_api.c **** 		Status = VL53L0X_RdWord(Dev, VL53L0X_REG_SYSTEM_THRESH_HIGH,
 5743              		.loc 1 2825 3 is_stmt 1 view .LVU1762
2825:Core/Src/vl53l0x_api.c **** 		Status = VL53L0X_RdWord(Dev, VL53L0X_REG_SYSTEM_THRESH_HIGH,
 5744              		.loc 1 2825 12 is_stmt 0 view .LVU1763
ARM GAS  C:\Users\anmh1\AppData\Local\Temp\ccBPLcM2.s 			page 159


 5745 0026 0DF10602 		add	r2, sp, #6
 5746 002a 0C21     		movs	r1, #12
 5747 002c 3046     		mov	r0, r6
 5748 002e FFF7FEFF 		bl	VL53L0X_RdWord
 5749              	.LVL610:
2828:Core/Src/vl53l0x_api.c **** 			(FixPoint1616_t)((0x00fff & Threshold16) << 17);
 5750              		.loc 1 2828 3 is_stmt 1 view .LVU1764
2829:Core/Src/vl53l0x_api.c **** 	}
 5751              		.loc 1 2829 30 is_stmt 0 view .LVU1765
 5752 0032 BDF80620 		ldrh	r2, [sp, #6]
2829:Core/Src/vl53l0x_api.c **** 	}
 5753              		.loc 1 2829 4 view .LVU1766
 5754 0036 024B     		ldr	r3, .L380
 5755 0038 03EA4243 		and	r3, r3, r2, lsl #17
2828:Core/Src/vl53l0x_api.c **** 			(FixPoint1616_t)((0x00fff & Threshold16) << 17);
 5756              		.loc 1 2828 19 view .LVU1767
 5757 003c 2B60     		str	r3, [r5]
 5758 003e F0E7     		b	.L377
 5759              	.L381:
 5760              		.align	2
 5761              	.L380:
 5762 0040 0000FE1F 		.word	536739840
 5763              		.cfi_endproc
 5764              	.LFE220:
 5766              		.section	.text.VL53L0X_CheckAndLoadInterruptSettings,"ax",%progbits
 5767              		.align	1
 5768              		.global	VL53L0X_CheckAndLoadInterruptSettings
 5769              		.syntax unified
 5770              		.thumb
 5771              		.thumb_func
 5772              		.fpu fpv4-sp-d16
 5774              	VL53L0X_CheckAndLoadInterruptSettings:
 5775              	.LVL611:
 5776              	.LFB205:
2162:Core/Src/vl53l0x_api.c **** 	uint8_t InterruptConfig;
 5777              		.loc 1 2162 1 is_stmt 1 view -0
 5778              		.cfi_startproc
 5779              		@ args = 0, pretend = 0, frame = 8
 5780              		@ frame_needed = 0, uses_anonymous_args = 0
2162:Core/Src/vl53l0x_api.c **** 	uint8_t InterruptConfig;
 5781              		.loc 1 2162 1 is_stmt 0 view .LVU1769
 5782 0000 70B5     		push	{r4, r5, r6, lr}
 5783              		.cfi_def_cfa_offset 16
 5784              		.cfi_offset 4, -16
 5785              		.cfi_offset 5, -12
 5786              		.cfi_offset 6, -8
 5787              		.cfi_offset 14, -4
 5788 0002 82B0     		sub	sp, sp, #8
 5789              		.cfi_def_cfa_offset 24
2163:Core/Src/vl53l0x_api.c **** 	FixPoint1616_t ThresholdLow;
 5790              		.loc 1 2163 2 is_stmt 1 view .LVU1770
2164:Core/Src/vl53l0x_api.c **** 	FixPoint1616_t ThresholdHigh;
 5791              		.loc 1 2164 2 view .LVU1771
2165:Core/Src/vl53l0x_api.c **** 	VL53L0X_Error Status = VL53L0X_ERROR_NONE;
 5792              		.loc 1 2165 2 view .LVU1772
2166:Core/Src/vl53l0x_api.c **** 
 5793              		.loc 1 2166 2 view .LVU1773
ARM GAS  C:\Users\anmh1\AppData\Local\Temp\ccBPLcM2.s 			page 160


 5794              	.LVL612:
2168:Core/Src/vl53l0x_api.c **** 		Pin0GpioFunctionality);
 5795              		.loc 1 2168 2 view .LVU1774
2168:Core/Src/vl53l0x_api.c **** 		Pin0GpioFunctionality);
 5796              		.loc 1 2168 18 is_stmt 0 view .LVU1775
 5797 0004 90F8DA30 		ldrb	r3, [r0, #218]	@ zero_extendqisi2
 5798              	.LVL613:
2171:Core/Src/vl53l0x_api.c **** 		VL53L0X_GPIOFUNCTIONALITY_THRESHOLD_CROSSED_LOW) ||
 5799              		.loc 1 2171 2 is_stmt 1 view .LVU1776
2174:Core/Src/vl53l0x_api.c **** 		(InterruptConfig ==
 5800              		.loc 1 2174 53 is_stmt 0 view .LVU1777
 5801 0008 013B     		subs	r3, r3, #1
 5802              	.LVL614:
2174:Core/Src/vl53l0x_api.c **** 		(InterruptConfig ==
 5803              		.loc 1 2174 53 view .LVU1778
 5804 000a DBB2     		uxtb	r3, r3
 5805              	.LVL615:
2171:Core/Src/vl53l0x_api.c **** 		VL53L0X_GPIOFUNCTIONALITY_THRESHOLD_CROSSED_LOW) ||
 5806              		.loc 1 2171 5 view .LVU1779
 5807 000c 022B     		cmp	r3, #2
 5808 000e 03D9     		bls	.L388
2166:Core/Src/vl53l0x_api.c **** 
 5809              		.loc 1 2166 16 view .LVU1780
 5810 0010 0025     		movs	r5, #0
 5811              	.LVL616:
 5812              	.L383:
2201:Core/Src/vl53l0x_api.c **** 
 5813              		.loc 1 2201 2 is_stmt 1 view .LVU1781
2203:Core/Src/vl53l0x_api.c **** 
 5814              		.loc 1 2203 1 is_stmt 0 view .LVU1782
 5815 0012 2846     		mov	r0, r5
 5816 0014 02B0     		add	sp, sp, #8
 5817              		.cfi_remember_state
 5818              		.cfi_def_cfa_offset 16
 5819              		@ sp needed
 5820 0016 70BD     		pop	{r4, r5, r6, pc}
 5821              	.LVL617:
 5822              	.L388:
 5823              		.cfi_restore_state
2203:Core/Src/vl53l0x_api.c **** 
 5824              		.loc 1 2203 1 view .LVU1783
 5825 0018 0446     		mov	r4, r0
 5826 001a 0E46     		mov	r6, r1
2178:Core/Src/vl53l0x_api.c **** 			VL53L0X_DEVICEMODE_CONTINUOUS_RANGING,
 5827              		.loc 1 2178 3 is_stmt 1 view .LVU1784
2178:Core/Src/vl53l0x_api.c **** 			VL53L0X_DEVICEMODE_CONTINUOUS_RANGING,
 5828              		.loc 1 2178 12 is_stmt 0 view .LVU1785
 5829 001c 6B46     		mov	r3, sp
 5830 001e 01AA     		add	r2, sp, #4
 5831 0020 0121     		movs	r1, #1
 5832              	.LVL618:
2178:Core/Src/vl53l0x_api.c **** 			VL53L0X_DEVICEMODE_CONTINUOUS_RANGING,
 5833              		.loc 1 2178 12 view .LVU1786
 5834 0022 FFF7FEFF 		bl	VL53L0X_GetInterruptThresholds
 5835              	.LVL619:
2178:Core/Src/vl53l0x_api.c **** 			VL53L0X_DEVICEMODE_CONTINUOUS_RANGING,
 5836              		.loc 1 2178 12 view .LVU1787
ARM GAS  C:\Users\anmh1\AppData\Local\Temp\ccBPLcM2.s 			page 161


 5837 0026 0546     		mov	r5, r0
 5838              	.LVL620:
2182:Core/Src/vl53l0x_api.c **** 			(ThresholdHigh > 255*65536)) &&
 5839              		.loc 1 2182 3 is_stmt 1 view .LVU1788
2182:Core/Src/vl53l0x_api.c **** 			(ThresholdHigh > 255*65536)) &&
 5840              		.loc 1 2182 22 is_stmt 0 view .LVU1789
 5841 0028 019B     		ldr	r3, [sp, #4]
2182:Core/Src/vl53l0x_api.c **** 			(ThresholdHigh > 255*65536)) &&
 5842              		.loc 1 2182 6 view .LVU1790
 5843 002a B3F57F0F 		cmp	r3, #16711680
 5844 002e 03D8     		bhi	.L384
2183:Core/Src/vl53l0x_api.c **** 			(Status == VL53L0X_ERROR_NONE)) {
 5845              		.loc 1 2183 19 discriminator 1 view .LVU1791
 5846 0030 009B     		ldr	r3, [sp]
2182:Core/Src/vl53l0x_api.c **** 			(ThresholdHigh > 255*65536)) &&
 5847              		.loc 1 2182 35 discriminator 1 view .LVU1792
 5848 0032 B3F57F0F 		cmp	r3, #16711680
 5849 0036 ECD9     		bls	.L383
 5850              	.L384:
2183:Core/Src/vl53l0x_api.c **** 			(Status == VL53L0X_ERROR_NONE)) {
 5851              		.loc 1 2183 33 view .LVU1793
 5852 0038 002D     		cmp	r5, #0
 5853 003a EAD1     		bne	.L383
2186:Core/Src/vl53l0x_api.c **** 				Status = VL53L0X_load_tuning_settings(Dev,
 5854              		.loc 1 2186 4 is_stmt 1 view .LVU1794
2186:Core/Src/vl53l0x_api.c **** 				Status = VL53L0X_load_tuning_settings(Dev,
 5855              		.loc 1 2186 7 is_stmt 0 view .LVU1795
 5856 003c 2EB1     		cbz	r6, .L385
2187:Core/Src/vl53l0x_api.c **** 					InterruptThresholdSettings);
 5857              		.loc 1 2187 5 is_stmt 1 view .LVU1796
2187:Core/Src/vl53l0x_api.c **** 					InterruptThresholdSettings);
 5858              		.loc 1 2187 14 is_stmt 0 view .LVU1797
 5859 003e 1149     		ldr	r1, .L389
 5860 0040 2046     		mov	r0, r4
 5861 0042 FFF7FEFF 		bl	VL53L0X_load_tuning_settings
 5862              	.LVL621:
 5863 0046 0546     		mov	r5, r0
 5864              	.LVL622:
2187:Core/Src/vl53l0x_api.c **** 					InterruptThresholdSettings);
 5865              		.loc 1 2187 14 view .LVU1798
 5866 0048 E3E7     		b	.L383
 5867              	.L385:
2190:Core/Src/vl53l0x_api.c **** 				Status |= VL53L0X_WrByte(Dev, 0x70, 0x00);
 5868              		.loc 1 2190 5 is_stmt 1 view .LVU1799
2190:Core/Src/vl53l0x_api.c **** 				Status |= VL53L0X_WrByte(Dev, 0x70, 0x00);
 5869              		.loc 1 2190 15 is_stmt 0 view .LVU1800
 5870 004a 0422     		movs	r2, #4
 5871 004c FF21     		movs	r1, #255
 5872 004e 2046     		mov	r0, r4
 5873 0050 FFF7FEFF 		bl	VL53L0X_WrByte
 5874              	.LVL623:
2190:Core/Src/vl53l0x_api.c **** 				Status |= VL53L0X_WrByte(Dev, 0x70, 0x00);
 5875              		.loc 1 2190 12 view .LVU1801
 5876 0054 0543     		orrs	r5, r5, r0
 5877              	.LVL624:
2190:Core/Src/vl53l0x_api.c **** 				Status |= VL53L0X_WrByte(Dev, 0x70, 0x00);
 5878              		.loc 1 2190 12 view .LVU1802
ARM GAS  C:\Users\anmh1\AppData\Local\Temp\ccBPLcM2.s 			page 162


 5879 0056 6DB2     		sxtb	r5, r5
 5880              	.LVL625:
2191:Core/Src/vl53l0x_api.c **** 				Status |= VL53L0X_WrByte(Dev, 0xFF, 0x00);
 5881              		.loc 1 2191 5 is_stmt 1 view .LVU1803
2191:Core/Src/vl53l0x_api.c **** 				Status |= VL53L0X_WrByte(Dev, 0xFF, 0x00);
 5882              		.loc 1 2191 15 is_stmt 0 view .LVU1804
 5883 0058 0022     		movs	r2, #0
 5884 005a 7021     		movs	r1, #112
 5885 005c 2046     		mov	r0, r4
 5886 005e FFF7FEFF 		bl	VL53L0X_WrByte
 5887              	.LVL626:
2191:Core/Src/vl53l0x_api.c **** 				Status |= VL53L0X_WrByte(Dev, 0xFF, 0x00);
 5888              		.loc 1 2191 12 view .LVU1805
 5889 0062 0543     		orrs	r5, r5, r0
 5890              	.LVL627:
2191:Core/Src/vl53l0x_api.c **** 				Status |= VL53L0X_WrByte(Dev, 0xFF, 0x00);
 5891              		.loc 1 2191 12 view .LVU1806
 5892 0064 6DB2     		sxtb	r5, r5
 5893              	.LVL628:
2192:Core/Src/vl53l0x_api.c **** 				Status |= VL53L0X_WrByte(Dev, 0x80, 0x00);
 5894              		.loc 1 2192 5 is_stmt 1 view .LVU1807
2192:Core/Src/vl53l0x_api.c **** 				Status |= VL53L0X_WrByte(Dev, 0x80, 0x00);
 5895              		.loc 1 2192 15 is_stmt 0 view .LVU1808
 5896 0066 0022     		movs	r2, #0
 5897 0068 FF21     		movs	r1, #255
 5898 006a 2046     		mov	r0, r4
 5899 006c FFF7FEFF 		bl	VL53L0X_WrByte
 5900              	.LVL629:
2192:Core/Src/vl53l0x_api.c **** 				Status |= VL53L0X_WrByte(Dev, 0x80, 0x00);
 5901              		.loc 1 2192 12 view .LVU1809
 5902 0070 0543     		orrs	r5, r5, r0
 5903              	.LVL630:
2192:Core/Src/vl53l0x_api.c **** 				Status |= VL53L0X_WrByte(Dev, 0x80, 0x00);
 5904              		.loc 1 2192 12 view .LVU1810
 5905 0072 6DB2     		sxtb	r5, r5
 5906              	.LVL631:
2193:Core/Src/vl53l0x_api.c **** 			}
 5907              		.loc 1 2193 5 is_stmt 1 view .LVU1811
2193:Core/Src/vl53l0x_api.c **** 			}
 5908              		.loc 1 2193 15 is_stmt 0 view .LVU1812
 5909 0074 0022     		movs	r2, #0
 5910 0076 8021     		movs	r1, #128
 5911 0078 2046     		mov	r0, r4
 5912 007a FFF7FEFF 		bl	VL53L0X_WrByte
 5913              	.LVL632:
2193:Core/Src/vl53l0x_api.c **** 			}
 5914              		.loc 1 2193 12 view .LVU1813
 5915 007e 0543     		orrs	r5, r5, r0
 5916              	.LVL633:
2193:Core/Src/vl53l0x_api.c **** 			}
 5917              		.loc 1 2193 12 view .LVU1814
 5918 0080 6DB2     		sxtb	r5, r5
 5919              	.LVL634:
2193:Core/Src/vl53l0x_api.c **** 			}
 5920              		.loc 1 2193 12 view .LVU1815
 5921 0082 C6E7     		b	.L383
 5922              	.L390:
ARM GAS  C:\Users\anmh1\AppData\Local\Temp\ccBPLcM2.s 			page 163


 5923              		.align	2
 5924              	.L389:
 5925 0084 00000000 		.word	.LANCHOR0
 5926              		.cfi_endproc
 5927              	.LFE205:
 5929              		.section	.text.VL53L0X_StartMeasurement,"ax",%progbits
 5930              		.align	1
 5931              		.global	VL53L0X_StartMeasurement
 5932              		.syntax unified
 5933              		.thumb
 5934              		.thumb_func
 5935              		.fpu fpv4-sp-d16
 5937              	VL53L0X_StartMeasurement:
 5938              	.LVL635:
 5939              	.LFB206:
2207:Core/Src/vl53l0x_api.c **** 	VL53L0X_Error Status = VL53L0X_ERROR_NONE;
 5940              		.loc 1 2207 1 is_stmt 1 view -0
 5941              		.cfi_startproc
 5942              		@ args = 0, pretend = 0, frame = 8
 5943              		@ frame_needed = 0, uses_anonymous_args = 0
2207:Core/Src/vl53l0x_api.c **** 	VL53L0X_Error Status = VL53L0X_ERROR_NONE;
 5944              		.loc 1 2207 1 is_stmt 0 view .LVU1817
 5945 0000 30B5     		push	{r4, r5, lr}
 5946              		.cfi_def_cfa_offset 12
 5947              		.cfi_offset 4, -12
 5948              		.cfi_offset 5, -8
 5949              		.cfi_offset 14, -4
 5950 0002 83B0     		sub	sp, sp, #12
 5951              		.cfi_def_cfa_offset 24
 5952 0004 0446     		mov	r4, r0
2208:Core/Src/vl53l0x_api.c **** 	VL53L0X_DeviceModes DeviceMode;
 5953              		.loc 1 2208 2 is_stmt 1 view .LVU1818
 5954              	.LVL636:
2209:Core/Src/vl53l0x_api.c **** 	uint8_t Byte;
 5955              		.loc 1 2209 2 view .LVU1819
2210:Core/Src/vl53l0x_api.c **** 	uint8_t StartStopByte = VL53L0X_REG_SYSRANGE_MODE_START_STOP;
 5956              		.loc 1 2210 2 view .LVU1820
2211:Core/Src/vl53l0x_api.c **** 	uint32_t LoopNb;
 5957              		.loc 1 2211 2 view .LVU1821
2212:Core/Src/vl53l0x_api.c **** 	LOG_FUNCTION_START("");
 5958              		.loc 1 2212 2 view .LVU1822
2213:Core/Src/vl53l0x_api.c **** 
 5959              		.loc 1 2213 2 view .LVU1823
2216:Core/Src/vl53l0x_api.c **** 
 5960              		.loc 1 2216 2 view .LVU1824
 5961 0006 0DF10701 		add	r1, sp, #7
 5962 000a FFF7FEFF 		bl	VL53L0X_GetDeviceMode
 5963              	.LVL637:
2218:Core/Src/vl53l0x_api.c **** 	Status = VL53L0X_WrByte(Dev, 0xFF, 0x01);
 5964              		.loc 1 2218 2 view .LVU1825
2218:Core/Src/vl53l0x_api.c **** 	Status = VL53L0X_WrByte(Dev, 0xFF, 0x01);
 5965              		.loc 1 2218 11 is_stmt 0 view .LVU1826
 5966 000e 0122     		movs	r2, #1
 5967 0010 8021     		movs	r1, #128
 5968 0012 2046     		mov	r0, r4
 5969 0014 FFF7FEFF 		bl	VL53L0X_WrByte
 5970              	.LVL638:
ARM GAS  C:\Users\anmh1\AppData\Local\Temp\ccBPLcM2.s 			page 164


2219:Core/Src/vl53l0x_api.c **** 	Status = VL53L0X_WrByte(Dev, 0x00, 0x00);
 5971              		.loc 1 2219 2 is_stmt 1 view .LVU1827
2219:Core/Src/vl53l0x_api.c **** 	Status = VL53L0X_WrByte(Dev, 0x00, 0x00);
 5972              		.loc 1 2219 11 is_stmt 0 view .LVU1828
 5973 0018 0122     		movs	r2, #1
 5974 001a FF21     		movs	r1, #255
 5975 001c 2046     		mov	r0, r4
 5976 001e FFF7FEFF 		bl	VL53L0X_WrByte
 5977              	.LVL639:
2220:Core/Src/vl53l0x_api.c **** 	Status = VL53L0X_WrByte(Dev, 0x91, PALDevDataGet(Dev, StopVariable));
 5978              		.loc 1 2220 2 is_stmt 1 view .LVU1829
2220:Core/Src/vl53l0x_api.c **** 	Status = VL53L0X_WrByte(Dev, 0x91, PALDevDataGet(Dev, StopVariable));
 5979              		.loc 1 2220 11 is_stmt 0 view .LVU1830
 5980 0022 0022     		movs	r2, #0
 5981 0024 1146     		mov	r1, r2
 5982 0026 2046     		mov	r0, r4
 5983 0028 FFF7FEFF 		bl	VL53L0X_WrByte
 5984              	.LVL640:
2221:Core/Src/vl53l0x_api.c **** 	Status = VL53L0X_WrByte(Dev, 0x00, 0x01);
 5985              		.loc 1 2221 2 is_stmt 1 view .LVU1831
2221:Core/Src/vl53l0x_api.c **** 	Status = VL53L0X_WrByte(Dev, 0x00, 0x01);
 5986              		.loc 1 2221 11 is_stmt 0 view .LVU1832
 5987 002c 94F83A21 		ldrb	r2, [r4, #314]	@ zero_extendqisi2
 5988 0030 9121     		movs	r1, #145
 5989 0032 2046     		mov	r0, r4
 5990 0034 FFF7FEFF 		bl	VL53L0X_WrByte
 5991              	.LVL641:
2222:Core/Src/vl53l0x_api.c **** 	Status = VL53L0X_WrByte(Dev, 0xFF, 0x00);
 5992              		.loc 1 2222 2 is_stmt 1 view .LVU1833
2222:Core/Src/vl53l0x_api.c **** 	Status = VL53L0X_WrByte(Dev, 0xFF, 0x00);
 5993              		.loc 1 2222 11 is_stmt 0 view .LVU1834
 5994 0038 0122     		movs	r2, #1
 5995 003a 0021     		movs	r1, #0
 5996 003c 2046     		mov	r0, r4
 5997 003e FFF7FEFF 		bl	VL53L0X_WrByte
 5998              	.LVL642:
2223:Core/Src/vl53l0x_api.c **** 	Status = VL53L0X_WrByte(Dev, 0x80, 0x00);
 5999              		.loc 1 2223 2 is_stmt 1 view .LVU1835
2223:Core/Src/vl53l0x_api.c **** 	Status = VL53L0X_WrByte(Dev, 0x80, 0x00);
 6000              		.loc 1 2223 11 is_stmt 0 view .LVU1836
 6001 0042 0022     		movs	r2, #0
 6002 0044 FF21     		movs	r1, #255
 6003 0046 2046     		mov	r0, r4
 6004 0048 FFF7FEFF 		bl	VL53L0X_WrByte
 6005              	.LVL643:
2224:Core/Src/vl53l0x_api.c **** 
 6006              		.loc 1 2224 2 is_stmt 1 view .LVU1837
2224:Core/Src/vl53l0x_api.c **** 
 6007              		.loc 1 2224 11 is_stmt 0 view .LVU1838
 6008 004c 0022     		movs	r2, #0
 6009 004e 8021     		movs	r1, #128
 6010 0050 2046     		mov	r0, r4
 6011 0052 FFF7FEFF 		bl	VL53L0X_WrByte
 6012              	.LVL644:
2226:Core/Src/vl53l0x_api.c **** 	case VL53L0X_DEVICEMODE_SINGLE_RANGING:
 6013              		.loc 1 2226 2 is_stmt 1 view .LVU1839
 6014 0056 9DF80730 		ldrb	r3, [sp, #7]	@ zero_extendqisi2
ARM GAS  C:\Users\anmh1\AppData\Local\Temp\ccBPLcM2.s 			page 165


 6015 005a 012B     		cmp	r3, #1
 6016 005c 2BD0     		beq	.L392
 6017 005e 032B     		cmp	r3, #3
 6018 0060 3AD0     		beq	.L393
 6019 0062 1BB1     		cbz	r3, .L403
 6020 0064 6FF00700 		mvn	r0, #7
 6021              	.LVL645:
 6022              	.L394:
2285:Core/Src/vl53l0x_api.c **** 	return Status;
 6023              		.loc 1 2285 2 view .LVU1840
2286:Core/Src/vl53l0x_api.c **** }
 6024              		.loc 1 2286 2 view .LVU1841
2287:Core/Src/vl53l0x_api.c **** 
 6025              		.loc 1 2287 1 is_stmt 0 view .LVU1842
 6026 0068 03B0     		add	sp, sp, #12
 6027              		.cfi_remember_state
 6028              		.cfi_def_cfa_offset 12
 6029              		@ sp needed
 6030 006a 30BD     		pop	{r4, r5, pc}
 6031              	.LVL646:
 6032              	.L403:
 6033              		.cfi_restore_state
2228:Core/Src/vl53l0x_api.c **** 
 6034              		.loc 1 2228 3 is_stmt 1 view .LVU1843
2228:Core/Src/vl53l0x_api.c **** 
 6035              		.loc 1 2228 12 is_stmt 0 view .LVU1844
 6036 006c 0122     		movs	r2, #1
 6037 006e 0021     		movs	r1, #0
 6038 0070 2046     		mov	r0, r4
 6039              	.LVL647:
2228:Core/Src/vl53l0x_api.c **** 
 6040              		.loc 1 2228 12 view .LVU1845
 6041 0072 FFF7FEFF 		bl	VL53L0X_WrByte
 6042              	.LVL648:
2230:Core/Src/vl53l0x_api.c **** 		if (Status == VL53L0X_ERROR_NONE) {
 6043              		.loc 1 2230 3 is_stmt 1 view .LVU1846
2230:Core/Src/vl53l0x_api.c **** 		if (Status == VL53L0X_ERROR_NONE) {
 6044              		.loc 1 2230 8 is_stmt 0 view .LVU1847
 6045 0076 0122     		movs	r2, #1
 6046 0078 8DF80620 		strb	r2, [sp, #6]
2231:Core/Src/vl53l0x_api.c **** 			/* Wait until start bit has been cleared */
 6047              		.loc 1 2231 3 is_stmt 1 view .LVU1848
2231:Core/Src/vl53l0x_api.c **** 			/* Wait until start bit has been cleared */
 6048              		.loc 1 2231 6 is_stmt 0 view .LVU1849
 6049 007c 0028     		cmp	r0, #0
 6050 007e F3D1     		bne	.L394
2233:Core/Src/vl53l0x_api.c **** 			do {
 6051              		.loc 1 2233 11 view .LVU1850
 6052 0080 0025     		movs	r5, #0
 6053 0082 0FE0     		b	.L397
 6054              	.LVL649:
 6055              	.L404:
2236:Core/Src/vl53l0x_api.c **** 					VL53L0X_REG_SYSRANGE_START, &Byte);
 6056              		.loc 1 2236 6 is_stmt 1 view .LVU1851
2236:Core/Src/vl53l0x_api.c **** 					VL53L0X_REG_SYSRANGE_START, &Byte);
 6057              		.loc 1 2236 15 is_stmt 0 view .LVU1852
 6058 0084 0DF10602 		add	r2, sp, #6
ARM GAS  C:\Users\anmh1\AppData\Local\Temp\ccBPLcM2.s 			page 166


 6059 0088 0021     		movs	r1, #0
 6060 008a 2046     		mov	r0, r4
 6061              	.LVL650:
2236:Core/Src/vl53l0x_api.c **** 					VL53L0X_REG_SYSRANGE_START, &Byte);
 6062              		.loc 1 2236 15 view .LVU1853
 6063 008c FFF7FEFF 		bl	VL53L0X_RdByte
 6064              	.LVL651:
 6065              	.L395:
2238:Core/Src/vl53l0x_api.c **** 			} while (((Byte & StartStopByte) == StartStopByte)
 6066              		.loc 1 2238 5 is_stmt 1 view .LVU1854
2238:Core/Src/vl53l0x_api.c **** 			} while (((Byte & StartStopByte) == StartStopByte)
 6067              		.loc 1 2238 12 is_stmt 0 view .LVU1855
 6068 0090 0135     		adds	r5, r5, #1
 6069              	.LVL652:
2239:Core/Src/vl53l0x_api.c **** 				&& (Status == VL53L0X_ERROR_NONE)
 6070              		.loc 1 2239 12 is_stmt 1 view .LVU1856
2239:Core/Src/vl53l0x_api.c **** 				&& (Status == VL53L0X_ERROR_NONE)
 6071              		.loc 1 2239 37 is_stmt 0 view .LVU1857
 6072 0092 9DF80630 		ldrb	r3, [sp, #6]	@ zero_extendqisi2
2241:Core/Src/vl53l0x_api.c **** 
 6073              		.loc 1 2241 5 view .LVU1858
 6074 0096 13F0010F 		tst	r3, #1
 6075 009a 06D0     		beq	.L396
2240:Core/Src/vl53l0x_api.c **** 				&& (LoopNb < VL53L0X_DEFAULT_MAX_LOOP));
 6076              		.loc 1 2240 5 view .LVU1859
 6077 009c 28B9     		cbnz	r0, .L396
2241:Core/Src/vl53l0x_api.c **** 
 6078              		.loc 1 2241 5 view .LVU1860
 6079 009e B5F5FA6F 		cmp	r5, #2000
 6080 00a2 02D2     		bcs	.L396
 6081              	.LVL653:
 6082              	.L397:
2234:Core/Src/vl53l0x_api.c **** 				if (LoopNb > 0)
 6083              		.loc 1 2234 4 is_stmt 1 view .LVU1861
2235:Core/Src/vl53l0x_api.c **** 					Status = VL53L0X_RdByte(Dev,
 6084              		.loc 1 2235 5 view .LVU1862
2235:Core/Src/vl53l0x_api.c **** 					Status = VL53L0X_RdByte(Dev,
 6085              		.loc 1 2235 8 is_stmt 0 view .LVU1863
 6086 00a4 002D     		cmp	r5, #0
 6087 00a6 F3D0     		beq	.L395
2235:Core/Src/vl53l0x_api.c **** 					Status = VL53L0X_RdByte(Dev,
 6088              		.loc 1 2235 8 view .LVU1864
 6089 00a8 ECE7     		b	.L404
 6090              	.L396:
2243:Core/Src/vl53l0x_api.c **** 				Status = VL53L0X_ERROR_TIME_OUT;
 6091              		.loc 1 2243 4 is_stmt 1 view .LVU1865
2243:Core/Src/vl53l0x_api.c **** 				Status = VL53L0X_ERROR_TIME_OUT;
 6092              		.loc 1 2243 7 is_stmt 0 view .LVU1866
 6093 00aa B5F5FA6F 		cmp	r5, #2000
 6094 00ae DBD3     		bcc	.L394
2244:Core/Src/vl53l0x_api.c **** 
 6095              		.loc 1 2244 12 view .LVU1867
 6096 00b0 6FF00600 		mvn	r0, #6
 6097              	.LVL654:
2244:Core/Src/vl53l0x_api.c **** 
 6098              		.loc 1 2244 12 view .LVU1868
 6099 00b4 D8E7     		b	.L394
ARM GAS  C:\Users\anmh1\AppData\Local\Temp\ccBPLcM2.s 			page 167


 6100              	.LVL655:
 6101              	.L392:
2253:Core/Src/vl53l0x_api.c **** 			Status = VL53L0X_CheckAndLoadInterruptSettings(Dev, 1);
 6102              		.loc 1 2253 3 is_stmt 1 view .LVU1869
2253:Core/Src/vl53l0x_api.c **** 			Status = VL53L0X_CheckAndLoadInterruptSettings(Dev, 1);
 6103              		.loc 1 2253 6 is_stmt 0 view .LVU1870
 6104 00b6 50B1     		cbz	r0, .L405
 6105              	.LVL656:
 6106              	.L398:
2256:Core/Src/vl53l0x_api.c **** 		VL53L0X_REG_SYSRANGE_START,
 6107              		.loc 1 2256 3 is_stmt 1 view .LVU1871
2256:Core/Src/vl53l0x_api.c **** 		VL53L0X_REG_SYSRANGE_START,
 6108              		.loc 1 2256 12 is_stmt 0 view .LVU1872
 6109 00b8 0222     		movs	r2, #2
 6110 00ba 0021     		movs	r1, #0
 6111 00bc 2046     		mov	r0, r4
 6112 00be FFF7FEFF 		bl	VL53L0X_WrByte
 6113              	.LVL657:
2259:Core/Src/vl53l0x_api.c **** 			/* Set PAL State to Running */
 6114              		.loc 1 2259 3 is_stmt 1 view .LVU1873
2259:Core/Src/vl53l0x_api.c **** 			/* Set PAL State to Running */
 6115              		.loc 1 2259 6 is_stmt 0 view .LVU1874
 6116 00c2 0028     		cmp	r0, #0
 6117 00c4 D0D1     		bne	.L394
2261:Core/Src/vl53l0x_api.c **** 		}
 6118              		.loc 1 2261 4 is_stmt 1 view .LVU1875
 6119 00c6 0423     		movs	r3, #4
 6120 00c8 84F83231 		strb	r3, [r4, #306]
 6121 00cc CCE7     		b	.L394
 6122              	.L405:
2254:Core/Src/vl53l0x_api.c **** 
 6123              		.loc 1 2254 4 view .LVU1876
2254:Core/Src/vl53l0x_api.c **** 
 6124              		.loc 1 2254 13 is_stmt 0 view .LVU1877
 6125 00ce 0121     		movs	r1, #1
 6126 00d0 2046     		mov	r0, r4
 6127              	.LVL658:
2254:Core/Src/vl53l0x_api.c **** 
 6128              		.loc 1 2254 13 view .LVU1878
 6129 00d2 FFF7FEFF 		bl	VL53L0X_CheckAndLoadInterruptSettings
 6130              	.LVL659:
2254:Core/Src/vl53l0x_api.c **** 
 6131              		.loc 1 2254 13 view .LVU1879
 6132 00d6 EFE7     		b	.L398
 6133              	.LVL660:
 6134              	.L393:
2267:Core/Src/vl53l0x_api.c **** 			Status = VL53L0X_CheckAndLoadInterruptSettings(Dev, 1);
 6135              		.loc 1 2267 3 is_stmt 1 view .LVU1880
2267:Core/Src/vl53l0x_api.c **** 			Status = VL53L0X_CheckAndLoadInterruptSettings(Dev, 1);
 6136              		.loc 1 2267 6 is_stmt 0 view .LVU1881
 6137 00d8 50B1     		cbz	r0, .L406
 6138              	.LVL661:
 6139              	.L399:
2270:Core/Src/vl53l0x_api.c **** 		VL53L0X_REG_SYSRANGE_START,
 6140              		.loc 1 2270 3 is_stmt 1 view .LVU1882
2270:Core/Src/vl53l0x_api.c **** 		VL53L0X_REG_SYSRANGE_START,
 6141              		.loc 1 2270 12 is_stmt 0 view .LVU1883
ARM GAS  C:\Users\anmh1\AppData\Local\Temp\ccBPLcM2.s 			page 168


 6142 00da 0422     		movs	r2, #4
 6143 00dc 0021     		movs	r1, #0
 6144 00de 2046     		mov	r0, r4
 6145 00e0 FFF7FEFF 		bl	VL53L0X_WrByte
 6146              	.LVL662:
2274:Core/Src/vl53l0x_api.c **** 			/* Set PAL State to Running */
 6147              		.loc 1 2274 3 is_stmt 1 view .LVU1884
2274:Core/Src/vl53l0x_api.c **** 			/* Set PAL State to Running */
 6148              		.loc 1 2274 6 is_stmt 0 view .LVU1885
 6149 00e4 0028     		cmp	r0, #0
 6150 00e6 BFD1     		bne	.L394
2276:Core/Src/vl53l0x_api.c **** 		}
 6151              		.loc 1 2276 4 is_stmt 1 view .LVU1886
 6152 00e8 0423     		movs	r3, #4
 6153 00ea 84F83231 		strb	r3, [r4, #306]
 6154 00ee BBE7     		b	.L394
 6155              	.L406:
2268:Core/Src/vl53l0x_api.c **** 
 6156              		.loc 1 2268 4 view .LVU1887
2268:Core/Src/vl53l0x_api.c **** 
 6157              		.loc 1 2268 13 is_stmt 0 view .LVU1888
 6158 00f0 0121     		movs	r1, #1
 6159 00f2 2046     		mov	r0, r4
 6160              	.LVL663:
2268:Core/Src/vl53l0x_api.c **** 
 6161              		.loc 1 2268 13 view .LVU1889
 6162 00f4 FFF7FEFF 		bl	VL53L0X_CheckAndLoadInterruptSettings
 6163              	.LVL664:
2268:Core/Src/vl53l0x_api.c **** 
 6164              		.loc 1 2268 13 view .LVU1890
 6165 00f8 EFE7     		b	.L399
 6166              		.cfi_endproc
 6167              	.LFE206:
 6169              		.section	.text.VL53L0X_PerformSingleMeasurement,"ax",%progbits
 6170              		.align	1
 6171              		.global	VL53L0X_PerformSingleMeasurement
 6172              		.syntax unified
 6173              		.thumb
 6174              		.thumb_func
 6175              		.fpu fpv4-sp-d16
 6177              	VL53L0X_PerformSingleMeasurement:
 6178              	.LVL665:
 6179              	.LFB199:
2065:Core/Src/vl53l0x_api.c **** 	VL53L0X_Error Status = VL53L0X_ERROR_NONE;
 6180              		.loc 1 2065 1 is_stmt 1 view -0
 6181              		.cfi_startproc
 6182              		@ args = 0, pretend = 0, frame = 8
 6183              		@ frame_needed = 0, uses_anonymous_args = 0
2065:Core/Src/vl53l0x_api.c **** 	VL53L0X_Error Status = VL53L0X_ERROR_NONE;
 6184              		.loc 1 2065 1 is_stmt 0 view .LVU1892
 6185 0000 10B5     		push	{r4, lr}
 6186              		.cfi_def_cfa_offset 8
 6187              		.cfi_offset 4, -8
 6188              		.cfi_offset 14, -4
 6189 0002 82B0     		sub	sp, sp, #8
 6190              		.cfi_def_cfa_offset 16
 6191 0004 0446     		mov	r4, r0
ARM GAS  C:\Users\anmh1\AppData\Local\Temp\ccBPLcM2.s 			page 169


2066:Core/Src/vl53l0x_api.c **** 	VL53L0X_DeviceModes DeviceMode;
 6192              		.loc 1 2066 2 is_stmt 1 view .LVU1893
 6193              	.LVL666:
2067:Core/Src/vl53l0x_api.c **** 
 6194              		.loc 1 2067 2 view .LVU1894
2069:Core/Src/vl53l0x_api.c **** 
 6195              		.loc 1 2069 2 view .LVU1895
2072:Core/Src/vl53l0x_api.c **** 
 6196              		.loc 1 2072 2 view .LVU1896
2072:Core/Src/vl53l0x_api.c **** 
 6197              		.loc 1 2072 11 is_stmt 0 view .LVU1897
 6198 0006 0DF10701 		add	r1, sp, #7
 6199 000a FFF7FEFF 		bl	VL53L0X_GetDeviceMode
 6200              	.LVL667:
2076:Core/Src/vl53l0x_api.c **** 		&& DeviceMode == VL53L0X_DEVICEMODE_SINGLE_RANGING)
 6201              		.loc 1 2076 2 is_stmt 1 view .LVU1898
2076:Core/Src/vl53l0x_api.c **** 		&& DeviceMode == VL53L0X_DEVICEMODE_SINGLE_RANGING)
 6202              		.loc 1 2076 5 is_stmt 0 view .LVU1899
 6203 000e 10B9     		cbnz	r0, .L408
2077:Core/Src/vl53l0x_api.c **** 		Status = VL53L0X_StartMeasurement(Dev);
 6204              		.loc 1 2077 17 view .LVU1900
 6205 0010 9DF80730 		ldrb	r3, [sp, #7]	@ zero_extendqisi2
2077:Core/Src/vl53l0x_api.c **** 		Status = VL53L0X_StartMeasurement(Dev);
 6206              		.loc 1 2077 3 view .LVU1901
 6207 0014 4BB1     		cbz	r3, .L412
 6208              	.L408:
 6209              	.LVL668:
2081:Core/Src/vl53l0x_api.c **** 		Status = VL53L0X_measurement_poll_for_completion(Dev);
 6210              		.loc 1 2081 2 is_stmt 1 view .LVU1902
2081:Core/Src/vl53l0x_api.c **** 		Status = VL53L0X_measurement_poll_for_completion(Dev);
 6211              		.loc 1 2081 5 is_stmt 0 view .LVU1903
 6212 0016 60B1     		cbz	r0, .L413
 6213              	.L409:
2086:Core/Src/vl53l0x_api.c **** 		&& DeviceMode == VL53L0X_DEVICEMODE_SINGLE_RANGING)
 6214              		.loc 1 2086 2 is_stmt 1 view .LVU1904
2086:Core/Src/vl53l0x_api.c **** 		&& DeviceMode == VL53L0X_DEVICEMODE_SINGLE_RANGING)
 6215              		.loc 1 2086 5 is_stmt 0 view .LVU1905
 6216 0018 28B9     		cbnz	r0, .L410
2087:Core/Src/vl53l0x_api.c **** 		PALDevDataSet(Dev, PalState, VL53L0X_STATE_IDLE);
 6217              		.loc 1 2087 17 view .LVU1906
 6218 001a 9DF80730 		ldrb	r3, [sp, #7]	@ zero_extendqisi2
2087:Core/Src/vl53l0x_api.c **** 		PALDevDataSet(Dev, PalState, VL53L0X_STATE_IDLE);
 6219              		.loc 1 2087 3 view .LVU1907
 6220 001e 13B9     		cbnz	r3, .L410
2088:Core/Src/vl53l0x_api.c **** 
 6221              		.loc 1 2088 3 is_stmt 1 view .LVU1908
 6222 0020 0323     		movs	r3, #3
 6223 0022 84F83231 		strb	r3, [r4, #306]
 6224              	.L410:
2091:Core/Src/vl53l0x_api.c **** 	return Status;
 6225              		.loc 1 2091 2 view .LVU1909
2092:Core/Src/vl53l0x_api.c **** }
 6226              		.loc 1 2092 2 view .LVU1910
2093:Core/Src/vl53l0x_api.c **** 
 6227              		.loc 1 2093 1 is_stmt 0 view .LVU1911
 6228 0026 02B0     		add	sp, sp, #8
 6229              		.cfi_remember_state
ARM GAS  C:\Users\anmh1\AppData\Local\Temp\ccBPLcM2.s 			page 170


 6230              		.cfi_def_cfa_offset 8
 6231              		@ sp needed
 6232 0028 10BD     		pop	{r4, pc}
 6233              	.LVL669:
 6234              	.L412:
 6235              		.cfi_restore_state
2078:Core/Src/vl53l0x_api.c **** 
 6236              		.loc 1 2078 3 is_stmt 1 view .LVU1912
2078:Core/Src/vl53l0x_api.c **** 
 6237              		.loc 1 2078 12 is_stmt 0 view .LVU1913
 6238 002a 2046     		mov	r0, r4
 6239 002c FFF7FEFF 		bl	VL53L0X_StartMeasurement
 6240              	.LVL670:
2078:Core/Src/vl53l0x_api.c **** 
 6241              		.loc 1 2078 12 view .LVU1914
 6242 0030 F1E7     		b	.L408
 6243              	.L413:
2082:Core/Src/vl53l0x_api.c **** 
 6244              		.loc 1 2082 3 is_stmt 1 view .LVU1915
2082:Core/Src/vl53l0x_api.c **** 
 6245              		.loc 1 2082 12 is_stmt 0 view .LVU1916
 6246 0032 2046     		mov	r0, r4
 6247              	.LVL671:
2082:Core/Src/vl53l0x_api.c **** 
 6248              		.loc 1 2082 12 view .LVU1917
 6249 0034 FFF7FEFF 		bl	VL53L0X_measurement_poll_for_completion
 6250              	.LVL672:
2082:Core/Src/vl53l0x_api.c **** 
 6251              		.loc 1 2082 12 view .LVU1918
 6252 0038 EEE7     		b	.L409
 6253              		.cfi_endproc
 6254              	.LFE199:
 6256              		.section	.text.VL53L0X_StopMeasurement,"ax",%progbits
 6257              		.align	1
 6258              		.global	VL53L0X_StopMeasurement
 6259              		.syntax unified
 6260              		.thumb
 6261              		.thumb_func
 6262              		.fpu fpv4-sp-d16
 6264              	VL53L0X_StopMeasurement:
 6265              	.LVL673:
 6266              	.LFB207:
2290:Core/Src/vl53l0x_api.c **** 	VL53L0X_Error Status = VL53L0X_ERROR_NONE;
 6267              		.loc 1 2290 1 is_stmt 1 view -0
 6268              		.cfi_startproc
 6269              		@ args = 0, pretend = 0, frame = 0
 6270              		@ frame_needed = 0, uses_anonymous_args = 0
2290:Core/Src/vl53l0x_api.c **** 	VL53L0X_Error Status = VL53L0X_ERROR_NONE;
 6271              		.loc 1 2290 1 is_stmt 0 view .LVU1920
 6272 0000 10B5     		push	{r4, lr}
 6273              		.cfi_def_cfa_offset 8
 6274              		.cfi_offset 4, -8
 6275              		.cfi_offset 14, -4
 6276 0002 0446     		mov	r4, r0
2291:Core/Src/vl53l0x_api.c **** 	LOG_FUNCTION_START("");
 6277              		.loc 1 2291 2 is_stmt 1 view .LVU1921
 6278              	.LVL674:
ARM GAS  C:\Users\anmh1\AppData\Local\Temp\ccBPLcM2.s 			page 171


2292:Core/Src/vl53l0x_api.c **** 
 6279              		.loc 1 2292 2 view .LVU1922
2294:Core/Src/vl53l0x_api.c **** 	VL53L0X_REG_SYSRANGE_MODE_SINGLESHOT);
 6280              		.loc 1 2294 2 view .LVU1923
2294:Core/Src/vl53l0x_api.c **** 	VL53L0X_REG_SYSRANGE_MODE_SINGLESHOT);
 6281              		.loc 1 2294 11 is_stmt 0 view .LVU1924
 6282 0004 0022     		movs	r2, #0
 6283 0006 1146     		mov	r1, r2
 6284 0008 FFF7FEFF 		bl	VL53L0X_WrByte
 6285              	.LVL675:
2297:Core/Src/vl53l0x_api.c **** 	Status = VL53L0X_WrByte(Dev, 0x00, 0x00);
 6286              		.loc 1 2297 2 is_stmt 1 view .LVU1925
2297:Core/Src/vl53l0x_api.c **** 	Status = VL53L0X_WrByte(Dev, 0x00, 0x00);
 6287              		.loc 1 2297 11 is_stmt 0 view .LVU1926
 6288 000c 0122     		movs	r2, #1
 6289 000e FF21     		movs	r1, #255
 6290 0010 2046     		mov	r0, r4
 6291 0012 FFF7FEFF 		bl	VL53L0X_WrByte
 6292              	.LVL676:
2298:Core/Src/vl53l0x_api.c **** 	Status = VL53L0X_WrByte(Dev, 0x91, 0x00);
 6293              		.loc 1 2298 2 is_stmt 1 view .LVU1927
2298:Core/Src/vl53l0x_api.c **** 	Status = VL53L0X_WrByte(Dev, 0x91, 0x00);
 6294              		.loc 1 2298 11 is_stmt 0 view .LVU1928
 6295 0016 0022     		movs	r2, #0
 6296 0018 1146     		mov	r1, r2
 6297 001a 2046     		mov	r0, r4
 6298 001c FFF7FEFF 		bl	VL53L0X_WrByte
 6299              	.LVL677:
2299:Core/Src/vl53l0x_api.c **** 	Status = VL53L0X_WrByte(Dev, 0x00, 0x01);
 6300              		.loc 1 2299 2 is_stmt 1 view .LVU1929
2299:Core/Src/vl53l0x_api.c **** 	Status = VL53L0X_WrByte(Dev, 0x00, 0x01);
 6301              		.loc 1 2299 11 is_stmt 0 view .LVU1930
 6302 0020 0022     		movs	r2, #0
 6303 0022 9121     		movs	r1, #145
 6304 0024 2046     		mov	r0, r4
 6305 0026 FFF7FEFF 		bl	VL53L0X_WrByte
 6306              	.LVL678:
2300:Core/Src/vl53l0x_api.c **** 	Status = VL53L0X_WrByte(Dev, 0xFF, 0x00);
 6307              		.loc 1 2300 2 is_stmt 1 view .LVU1931
2300:Core/Src/vl53l0x_api.c **** 	Status = VL53L0X_WrByte(Dev, 0xFF, 0x00);
 6308              		.loc 1 2300 11 is_stmt 0 view .LVU1932
 6309 002a 0122     		movs	r2, #1
 6310 002c 0021     		movs	r1, #0
 6311 002e 2046     		mov	r0, r4
 6312 0030 FFF7FEFF 		bl	VL53L0X_WrByte
 6313              	.LVL679:
2301:Core/Src/vl53l0x_api.c **** 
 6314              		.loc 1 2301 2 is_stmt 1 view .LVU1933
2301:Core/Src/vl53l0x_api.c **** 
 6315              		.loc 1 2301 11 is_stmt 0 view .LVU1934
 6316 0034 0022     		movs	r2, #0
 6317 0036 FF21     		movs	r1, #255
 6318 0038 2046     		mov	r0, r4
 6319 003a FFF7FEFF 		bl	VL53L0X_WrByte
 6320              	.LVL680:
2303:Core/Src/vl53l0x_api.c **** 		/* Set PAL State to Idle */
 6321              		.loc 1 2303 2 is_stmt 1 view .LVU1935
ARM GAS  C:\Users\anmh1\AppData\Local\Temp\ccBPLcM2.s 			page 172


2303:Core/Src/vl53l0x_api.c **** 		/* Set PAL State to Idle */
 6322              		.loc 1 2303 5 is_stmt 0 view .LVU1936
 6323 003e 10B9     		cbnz	r0, .L415
2305:Core/Src/vl53l0x_api.c **** 	}
 6324              		.loc 1 2305 3 is_stmt 1 view .LVU1937
 6325 0040 0323     		movs	r3, #3
 6326 0042 84F83231 		strb	r3, [r4, #306]
 6327              	.L415:
2309:Core/Src/vl53l0x_api.c **** 		Status = VL53L0X_CheckAndLoadInterruptSettings(Dev, 0);
 6328              		.loc 1 2309 2 view .LVU1938
2309:Core/Src/vl53l0x_api.c **** 		Status = VL53L0X_CheckAndLoadInterruptSettings(Dev, 0);
 6329              		.loc 1 2309 5 is_stmt 0 view .LVU1939
 6330 0046 00B1     		cbz	r0, .L418
 6331              	.L416:
 6332              	.LVL681:
2312:Core/Src/vl53l0x_api.c **** 	return Status;
 6333              		.loc 1 2312 2 is_stmt 1 view .LVU1940
2313:Core/Src/vl53l0x_api.c **** }
 6334              		.loc 1 2313 2 view .LVU1941
2314:Core/Src/vl53l0x_api.c **** 
 6335              		.loc 1 2314 1 is_stmt 0 view .LVU1942
 6336 0048 10BD     		pop	{r4, pc}
 6337              	.LVL682:
 6338              	.L418:
2310:Core/Src/vl53l0x_api.c **** 
 6339              		.loc 1 2310 3 is_stmt 1 view .LVU1943
2310:Core/Src/vl53l0x_api.c **** 
 6340              		.loc 1 2310 12 is_stmt 0 view .LVU1944
 6341 004a 0021     		movs	r1, #0
 6342 004c 2046     		mov	r0, r4
 6343 004e FFF7FEFF 		bl	VL53L0X_CheckAndLoadInterruptSettings
 6344              	.LVL683:
2310:Core/Src/vl53l0x_api.c **** 
 6345              		.loc 1 2310 12 view .LVU1945
 6346 0052 F9E7     		b	.L416
 6347              		.cfi_endproc
 6348              	.LFE207:
 6350              		.section	.text.VL53L0X_GetStopCompletedStatus,"ax",%progbits
 6351              		.align	1
 6352              		.global	VL53L0X_GetStopCompletedStatus
 6353              		.syntax unified
 6354              		.thumb
 6355              		.thumb_func
 6356              		.fpu fpv4-sp-d16
 6358              	VL53L0X_GetStopCompletedStatus:
 6359              	.LVL684:
 6360              	.LFB221:
2835:Core/Src/vl53l0x_api.c **** 
2836:Core/Src/vl53l0x_api.c **** VL53L0X_Error VL53L0X_GetStopCompletedStatus(VL53L0X_DEV Dev,
2837:Core/Src/vl53l0x_api.c **** 	uint32_t *pStopStatus)
2838:Core/Src/vl53l0x_api.c **** {
 6361              		.loc 1 2838 1 is_stmt 1 view -0
 6362              		.cfi_startproc
 6363              		@ args = 0, pretend = 0, frame = 8
 6364              		@ frame_needed = 0, uses_anonymous_args = 0
 6365              		.loc 1 2838 1 is_stmt 0 view .LVU1947
 6366 0000 30B5     		push	{r4, r5, lr}
ARM GAS  C:\Users\anmh1\AppData\Local\Temp\ccBPLcM2.s 			page 173


 6367              		.cfi_def_cfa_offset 12
 6368              		.cfi_offset 4, -12
 6369              		.cfi_offset 5, -8
 6370              		.cfi_offset 14, -4
 6371 0002 83B0     		sub	sp, sp, #12
 6372              		.cfi_def_cfa_offset 24
 6373 0004 0446     		mov	r4, r0
 6374 0006 0D46     		mov	r5, r1
2839:Core/Src/vl53l0x_api.c **** 	VL53L0X_Error Status = VL53L0X_ERROR_NONE;
 6375              		.loc 1 2839 2 is_stmt 1 view .LVU1948
 6376              	.LVL685:
2840:Core/Src/vl53l0x_api.c **** 	uint8_t Byte = 0;
 6377              		.loc 1 2840 2 view .LVU1949
 6378              		.loc 1 2840 10 is_stmt 0 view .LVU1950
 6379 0008 0023     		movs	r3, #0
 6380 000a 8DF80730 		strb	r3, [sp, #7]
2841:Core/Src/vl53l0x_api.c **** 	LOG_FUNCTION_START("");
 6381              		.loc 1 2841 2 is_stmt 1 view .LVU1951
2842:Core/Src/vl53l0x_api.c **** 
2843:Core/Src/vl53l0x_api.c **** 	Status = VL53L0X_WrByte(Dev, 0xFF, 0x01);
 6382              		.loc 1 2843 2 view .LVU1952
 6383              		.loc 1 2843 11 is_stmt 0 view .LVU1953
 6384 000e 0122     		movs	r2, #1
 6385 0010 FF21     		movs	r1, #255
 6386              	.LVL686:
 6387              		.loc 1 2843 11 view .LVU1954
 6388 0012 FFF7FEFF 		bl	VL53L0X_WrByte
 6389              	.LVL687:
2844:Core/Src/vl53l0x_api.c **** 
2845:Core/Src/vl53l0x_api.c **** 	if (Status == VL53L0X_ERROR_NONE)
 6390              		.loc 1 2845 2 is_stmt 1 view .LVU1955
 6391              		.loc 1 2845 5 is_stmt 0 view .LVU1956
 6392 0016 30B1     		cbz	r0, .L424
 6393              	.LVL688:
 6394              	.L420:
2846:Core/Src/vl53l0x_api.c **** 		Status = VL53L0X_RdByte(Dev, 0x04, &Byte);
2847:Core/Src/vl53l0x_api.c **** 
2848:Core/Src/vl53l0x_api.c **** 	if (Status == VL53L0X_ERROR_NONE)
 6395              		.loc 1 2848 2 is_stmt 1 view .LVU1957
 6396              		.loc 1 2848 5 is_stmt 0 view .LVU1958
 6397 0018 60B1     		cbz	r0, .L425
 6398              	.L421:
2849:Core/Src/vl53l0x_api.c **** 		Status = VL53L0X_WrByte(Dev, 0xFF, 0x0);
2850:Core/Src/vl53l0x_api.c **** 
2851:Core/Src/vl53l0x_api.c **** 	*pStopStatus = Byte;
 6399              		.loc 1 2851 2 is_stmt 1 view .LVU1959
 6400              		.loc 1 2851 15 is_stmt 0 view .LVU1960
 6401 001a 9DF80730 		ldrb	r3, [sp, #7]	@ zero_extendqisi2
 6402 001e 2B60     		str	r3, [r5]
2852:Core/Src/vl53l0x_api.c **** 
2853:Core/Src/vl53l0x_api.c **** 	if (Byte == 0) {
 6403              		.loc 1 2853 2 is_stmt 1 view .LVU1961
 6404              		.loc 1 2853 5 is_stmt 0 view .LVU1962
 6405 0020 73B1     		cbz	r3, .L426
 6406              	.L422:
2854:Core/Src/vl53l0x_api.c **** 		Status = VL53L0X_WrByte(Dev, 0x80, 0x01);
2855:Core/Src/vl53l0x_api.c **** 		Status = VL53L0X_WrByte(Dev, 0xFF, 0x01);
ARM GAS  C:\Users\anmh1\AppData\Local\Temp\ccBPLcM2.s 			page 174


2856:Core/Src/vl53l0x_api.c **** 		Status = VL53L0X_WrByte(Dev, 0x00, 0x00);
2857:Core/Src/vl53l0x_api.c **** 		Status = VL53L0X_WrByte(Dev, 0x91,
2858:Core/Src/vl53l0x_api.c **** 			PALDevDataGet(Dev, StopVariable));
2859:Core/Src/vl53l0x_api.c **** 		Status = VL53L0X_WrByte(Dev, 0x00, 0x01);
2860:Core/Src/vl53l0x_api.c **** 		Status = VL53L0X_WrByte(Dev, 0xFF, 0x00);
2861:Core/Src/vl53l0x_api.c **** 		Status = VL53L0X_WrByte(Dev, 0x80, 0x00);
2862:Core/Src/vl53l0x_api.c **** 	}
2863:Core/Src/vl53l0x_api.c **** 
2864:Core/Src/vl53l0x_api.c **** 	LOG_FUNCTION_END(Status);
 6407              		.loc 1 2864 2 is_stmt 1 view .LVU1963
2865:Core/Src/vl53l0x_api.c **** 	return Status;
 6408              		.loc 1 2865 2 view .LVU1964
2866:Core/Src/vl53l0x_api.c **** }
 6409              		.loc 1 2866 1 is_stmt 0 view .LVU1965
 6410 0022 03B0     		add	sp, sp, #12
 6411              		.cfi_remember_state
 6412              		.cfi_def_cfa_offset 12
 6413              		@ sp needed
 6414 0024 30BD     		pop	{r4, r5, pc}
 6415              	.LVL689:
 6416              	.L424:
 6417              		.cfi_restore_state
2846:Core/Src/vl53l0x_api.c **** 
 6418              		.loc 1 2846 3 is_stmt 1 view .LVU1966
2846:Core/Src/vl53l0x_api.c **** 
 6419              		.loc 1 2846 12 is_stmt 0 view .LVU1967
 6420 0026 0DF10702 		add	r2, sp, #7
 6421 002a 0421     		movs	r1, #4
 6422 002c 2046     		mov	r0, r4
 6423 002e FFF7FEFF 		bl	VL53L0X_RdByte
 6424              	.LVL690:
2846:Core/Src/vl53l0x_api.c **** 
 6425              		.loc 1 2846 12 view .LVU1968
 6426 0032 F1E7     		b	.L420
 6427              	.L425:
2849:Core/Src/vl53l0x_api.c **** 
 6428              		.loc 1 2849 3 is_stmt 1 view .LVU1969
2849:Core/Src/vl53l0x_api.c **** 
 6429              		.loc 1 2849 12 is_stmt 0 view .LVU1970
 6430 0034 0022     		movs	r2, #0
 6431 0036 FF21     		movs	r1, #255
 6432 0038 2046     		mov	r0, r4
 6433              	.LVL691:
2849:Core/Src/vl53l0x_api.c **** 
 6434              		.loc 1 2849 12 view .LVU1971
 6435 003a FFF7FEFF 		bl	VL53L0X_WrByte
 6436              	.LVL692:
2849:Core/Src/vl53l0x_api.c **** 
 6437              		.loc 1 2849 12 view .LVU1972
 6438 003e ECE7     		b	.L421
 6439              	.L426:
2854:Core/Src/vl53l0x_api.c **** 		Status = VL53L0X_WrByte(Dev, 0xFF, 0x01);
 6440              		.loc 1 2854 3 is_stmt 1 view .LVU1973
2854:Core/Src/vl53l0x_api.c **** 		Status = VL53L0X_WrByte(Dev, 0xFF, 0x01);
 6441              		.loc 1 2854 12 is_stmt 0 view .LVU1974
 6442 0040 0122     		movs	r2, #1
 6443 0042 8021     		movs	r1, #128
ARM GAS  C:\Users\anmh1\AppData\Local\Temp\ccBPLcM2.s 			page 175


 6444 0044 2046     		mov	r0, r4
 6445              	.LVL693:
2854:Core/Src/vl53l0x_api.c **** 		Status = VL53L0X_WrByte(Dev, 0xFF, 0x01);
 6446              		.loc 1 2854 12 view .LVU1975
 6447 0046 FFF7FEFF 		bl	VL53L0X_WrByte
 6448              	.LVL694:
2855:Core/Src/vl53l0x_api.c **** 		Status = VL53L0X_WrByte(Dev, 0x00, 0x00);
 6449              		.loc 1 2855 3 is_stmt 1 view .LVU1976
2855:Core/Src/vl53l0x_api.c **** 		Status = VL53L0X_WrByte(Dev, 0x00, 0x00);
 6450              		.loc 1 2855 12 is_stmt 0 view .LVU1977
 6451 004a 0122     		movs	r2, #1
 6452 004c FF21     		movs	r1, #255
 6453 004e 2046     		mov	r0, r4
 6454 0050 FFF7FEFF 		bl	VL53L0X_WrByte
 6455              	.LVL695:
2856:Core/Src/vl53l0x_api.c **** 		Status = VL53L0X_WrByte(Dev, 0x91,
 6456              		.loc 1 2856 3 is_stmt 1 view .LVU1978
2856:Core/Src/vl53l0x_api.c **** 		Status = VL53L0X_WrByte(Dev, 0x91,
 6457              		.loc 1 2856 12 is_stmt 0 view .LVU1979
 6458 0054 0022     		movs	r2, #0
 6459 0056 1146     		mov	r1, r2
 6460 0058 2046     		mov	r0, r4
 6461 005a FFF7FEFF 		bl	VL53L0X_WrByte
 6462              	.LVL696:
2857:Core/Src/vl53l0x_api.c **** 			PALDevDataGet(Dev, StopVariable));
 6463              		.loc 1 2857 3 is_stmt 1 view .LVU1980
2857:Core/Src/vl53l0x_api.c **** 			PALDevDataGet(Dev, StopVariable));
 6464              		.loc 1 2857 12 is_stmt 0 view .LVU1981
 6465 005e 94F83A21 		ldrb	r2, [r4, #314]	@ zero_extendqisi2
 6466 0062 9121     		movs	r1, #145
 6467 0064 2046     		mov	r0, r4
 6468 0066 FFF7FEFF 		bl	VL53L0X_WrByte
 6469              	.LVL697:
2859:Core/Src/vl53l0x_api.c **** 		Status = VL53L0X_WrByte(Dev, 0xFF, 0x00);
 6470              		.loc 1 2859 3 is_stmt 1 view .LVU1982
2859:Core/Src/vl53l0x_api.c **** 		Status = VL53L0X_WrByte(Dev, 0xFF, 0x00);
 6471              		.loc 1 2859 12 is_stmt 0 view .LVU1983
 6472 006a 0122     		movs	r2, #1
 6473 006c 0021     		movs	r1, #0
 6474 006e 2046     		mov	r0, r4
 6475 0070 FFF7FEFF 		bl	VL53L0X_WrByte
 6476              	.LVL698:
2860:Core/Src/vl53l0x_api.c **** 		Status = VL53L0X_WrByte(Dev, 0x80, 0x00);
 6477              		.loc 1 2860 3 is_stmt 1 view .LVU1984
2860:Core/Src/vl53l0x_api.c **** 		Status = VL53L0X_WrByte(Dev, 0x80, 0x00);
 6478              		.loc 1 2860 12 is_stmt 0 view .LVU1985
 6479 0074 0022     		movs	r2, #0
 6480 0076 FF21     		movs	r1, #255
 6481 0078 2046     		mov	r0, r4
 6482 007a FFF7FEFF 		bl	VL53L0X_WrByte
 6483              	.LVL699:
2861:Core/Src/vl53l0x_api.c **** 	}
 6484              		.loc 1 2861 3 is_stmt 1 view .LVU1986
2861:Core/Src/vl53l0x_api.c **** 	}
 6485              		.loc 1 2861 12 is_stmt 0 view .LVU1987
 6486 007e 0022     		movs	r2, #0
 6487 0080 8021     		movs	r1, #128
ARM GAS  C:\Users\anmh1\AppData\Local\Temp\ccBPLcM2.s 			page 176


 6488 0082 2046     		mov	r0, r4
 6489 0084 FFF7FEFF 		bl	VL53L0X_WrByte
 6490              	.LVL700:
2861:Core/Src/vl53l0x_api.c **** 	}
 6491              		.loc 1 2861 12 view .LVU1988
 6492 0088 CBE7     		b	.L422
 6493              		.cfi_endproc
 6494              	.LFE221:
 6496              		.section	.text.VL53L0X_ClearInterruptMask,"ax",%progbits
 6497              		.align	1
 6498              		.global	VL53L0X_ClearInterruptMask
 6499              		.syntax unified
 6500              		.thumb
 6501              		.thumb_func
 6502              		.fpu fpv4-sp-d16
 6504              	VL53L0X_ClearInterruptMask:
 6505              	.LVL701:
 6506              	.LFB222:
2867:Core/Src/vl53l0x_api.c **** 
2868:Core/Src/vl53l0x_api.c **** /* Group PAL Interrupt Functions */
2869:Core/Src/vl53l0x_api.c **** VL53L0X_Error VL53L0X_ClearInterruptMask(VL53L0X_DEV Dev, uint32_t InterruptMask)
2870:Core/Src/vl53l0x_api.c **** {
 6507              		.loc 1 2870 1 is_stmt 1 view -0
 6508              		.cfi_startproc
 6509              		@ args = 0, pretend = 0, frame = 8
 6510              		@ frame_needed = 0, uses_anonymous_args = 0
 6511              		.loc 1 2870 1 is_stmt 0 view .LVU1990
 6512 0000 70B5     		push	{r4, r5, r6, lr}
 6513              		.cfi_def_cfa_offset 16
 6514              		.cfi_offset 4, -16
 6515              		.cfi_offset 5, -12
 6516              		.cfi_offset 6, -8
 6517              		.cfi_offset 14, -4
 6518 0002 82B0     		sub	sp, sp, #8
 6519              		.cfi_def_cfa_offset 24
 6520 0004 0646     		mov	r6, r0
2871:Core/Src/vl53l0x_api.c **** 	VL53L0X_Error Status = VL53L0X_ERROR_NONE;
 6521              		.loc 1 2871 2 is_stmt 1 view .LVU1991
 6522              	.LVL702:
2872:Core/Src/vl53l0x_api.c **** 	uint8_t LoopCount;
 6523              		.loc 1 2872 2 view .LVU1992
2873:Core/Src/vl53l0x_api.c **** 	uint8_t Byte;
 6524              		.loc 1 2873 2 view .LVU1993
2874:Core/Src/vl53l0x_api.c **** 	LOG_FUNCTION_START("");
 6525              		.loc 1 2874 2 view .LVU1994
2875:Core/Src/vl53l0x_api.c **** 
2876:Core/Src/vl53l0x_api.c **** 	/* clear bit 0 range interrupt, bit 1 error interrupt */
2877:Core/Src/vl53l0x_api.c **** 	LoopCount = 0;
 6526              		.loc 1 2877 2 view .LVU1995
 6527              		.loc 1 2877 12 is_stmt 0 view .LVU1996
 6528 0006 0025     		movs	r5, #0
 6529              	.LVL703:
 6530              	.L429:
2878:Core/Src/vl53l0x_api.c **** 	do {
 6531              		.loc 1 2878 2 is_stmt 1 discriminator 1 view .LVU1997
2879:Core/Src/vl53l0x_api.c **** 		Status = VL53L0X_WrByte(Dev,
 6532              		.loc 1 2879 3 discriminator 1 view .LVU1998
ARM GAS  C:\Users\anmh1\AppData\Local\Temp\ccBPLcM2.s 			page 177


 6533              		.loc 1 2879 12 is_stmt 0 discriminator 1 view .LVU1999
 6534 0008 0122     		movs	r2, #1
 6535 000a 0B21     		movs	r1, #11
 6536 000c 3046     		mov	r0, r6
 6537 000e FFF7FEFF 		bl	VL53L0X_WrByte
 6538              	.LVL704:
 6539 0012 0446     		mov	r4, r0
 6540              	.LVL705:
2880:Core/Src/vl53l0x_api.c **** 			VL53L0X_REG_SYSTEM_INTERRUPT_CLEAR, 0x01);
2881:Core/Src/vl53l0x_api.c **** 		Status |= VL53L0X_WrByte(Dev,
 6541              		.loc 1 2881 3 is_stmt 1 discriminator 1 view .LVU2000
 6542              		.loc 1 2881 13 is_stmt 0 discriminator 1 view .LVU2001
 6543 0014 0022     		movs	r2, #0
 6544 0016 0B21     		movs	r1, #11
 6545 0018 3046     		mov	r0, r6
 6546 001a FFF7FEFF 		bl	VL53L0X_WrByte
 6547              	.LVL706:
 6548              		.loc 1 2881 10 discriminator 1 view .LVU2002
 6549 001e 0443     		orrs	r4, r4, r0
 6550              	.LVL707:
 6551              		.loc 1 2881 10 discriminator 1 view .LVU2003
 6552 0020 64B2     		sxtb	r4, r4
 6553              	.LVL708:
2882:Core/Src/vl53l0x_api.c **** 			VL53L0X_REG_SYSTEM_INTERRUPT_CLEAR, 0x00);
2883:Core/Src/vl53l0x_api.c **** 		Status |= VL53L0X_RdByte(Dev,
 6554              		.loc 1 2883 3 is_stmt 1 discriminator 1 view .LVU2004
 6555              		.loc 1 2883 13 is_stmt 0 discriminator 1 view .LVU2005
 6556 0022 0DF10702 		add	r2, sp, #7
 6557 0026 1321     		movs	r1, #19
 6558 0028 3046     		mov	r0, r6
 6559 002a FFF7FEFF 		bl	VL53L0X_RdByte
 6560              	.LVL709:
 6561              		.loc 1 2883 10 discriminator 1 view .LVU2006
 6562 002e 2043     		orrs	r0, r0, r4
 6563 0030 40B2     		sxtb	r0, r0
 6564              	.LVL710:
2884:Core/Src/vl53l0x_api.c **** 			VL53L0X_REG_RESULT_INTERRUPT_STATUS, &Byte);
2885:Core/Src/vl53l0x_api.c **** 		LoopCount++;
 6565              		.loc 1 2885 3 is_stmt 1 discriminator 1 view .LVU2007
 6566              		.loc 1 2885 12 is_stmt 0 discriminator 1 view .LVU2008
 6567 0032 0135     		adds	r5, r5, #1
 6568              	.LVL711:
 6569              		.loc 1 2885 12 discriminator 1 view .LVU2009
 6570 0034 EDB2     		uxtb	r5, r5
 6571              	.LVL712:
2886:Core/Src/vl53l0x_api.c **** 	} while (((Byte & 0x07) != 0x00)
 6572              		.loc 1 2886 10 is_stmt 1 discriminator 1 view .LVU2010
 6573              		.loc 1 2886 18 is_stmt 0 discriminator 1 view .LVU2011
 6574 0036 9DF80730 		ldrb	r3, [sp, #7]	@ zero_extendqisi2
2887:Core/Src/vl53l0x_api.c **** 			&& (LoopCount < 3)
2888:Core/Src/vl53l0x_api.c **** 			&& (Status == VL53L0X_ERROR_NONE));
 6575              		.loc 1 2888 4 discriminator 1 view .LVU2012
 6576 003a 13F0070F 		tst	r3, #7
 6577 003e 03D0     		beq	.L428
2887:Core/Src/vl53l0x_api.c **** 			&& (LoopCount < 3)
 6578              		.loc 1 2887 4 view .LVU2013
 6579 0040 022D     		cmp	r5, #2
ARM GAS  C:\Users\anmh1\AppData\Local\Temp\ccBPLcM2.s 			page 178


 6580 0042 01D8     		bhi	.L428
 6581              		.loc 1 2888 4 view .LVU2014
 6582 0044 0028     		cmp	r0, #0
 6583 0046 DFD0     		beq	.L429
 6584              	.L428:
2889:Core/Src/vl53l0x_api.c **** 
2890:Core/Src/vl53l0x_api.c **** 
2891:Core/Src/vl53l0x_api.c **** 	if (LoopCount >= 3)
 6585              		.loc 1 2891 2 is_stmt 1 view .LVU2015
 6586              		.loc 1 2891 5 is_stmt 0 view .LVU2016
 6587 0048 022D     		cmp	r5, #2
 6588 004a 01D8     		bhi	.L433
 6589              	.LVL713:
 6590              	.L430:
2892:Core/Src/vl53l0x_api.c **** 		Status = VL53L0X_ERROR_INTERRUPT_NOT_CLEARED;
2893:Core/Src/vl53l0x_api.c **** 
2894:Core/Src/vl53l0x_api.c **** 	LOG_FUNCTION_END(Status);
 6591              		.loc 1 2894 2 is_stmt 1 view .LVU2017
2895:Core/Src/vl53l0x_api.c **** 	return Status;
 6592              		.loc 1 2895 2 view .LVU2018
2896:Core/Src/vl53l0x_api.c **** }
 6593              		.loc 1 2896 1 is_stmt 0 view .LVU2019
 6594 004c 02B0     		add	sp, sp, #8
 6595              		.cfi_remember_state
 6596              		.cfi_def_cfa_offset 16
 6597              		@ sp needed
 6598 004e 70BD     		pop	{r4, r5, r6, pc}
 6599              	.LVL714:
 6600              	.L433:
 6601              		.cfi_restore_state
2892:Core/Src/vl53l0x_api.c **** 		Status = VL53L0X_ERROR_INTERRUPT_NOT_CLEARED;
 6602              		.loc 1 2892 10 view .LVU2020
 6603 0050 6FF00B00 		mvn	r0, #11
 6604              	.LVL715:
2892:Core/Src/vl53l0x_api.c **** 		Status = VL53L0X_ERROR_INTERRUPT_NOT_CLEARED;
 6605              		.loc 1 2892 10 view .LVU2021
 6606 0054 FAE7     		b	.L430
 6607              		.cfi_endproc
 6608              	.LFE222:
 6610              		.section	.text.VL53L0X_PerformSingleRangingMeasurement,"ax",%progbits
 6611              		.align	1
 6612              		.global	VL53L0X_PerformSingleRangingMeasurement
 6613              		.syntax unified
 6614              		.thumb
 6615              		.thumb_func
 6616              		.fpu fpv4-sp-d16
 6618              	VL53L0X_PerformSingleRangingMeasurement:
 6619              	.LVL716:
 6620              	.LFB213:
2551:Core/Src/vl53l0x_api.c **** 	VL53L0X_Error Status = VL53L0X_ERROR_NONE;
 6621              		.loc 1 2551 1 is_stmt 1 view -0
 6622              		.cfi_startproc
 6623              		@ args = 0, pretend = 0, frame = 0
 6624              		@ frame_needed = 0, uses_anonymous_args = 0
2551:Core/Src/vl53l0x_api.c **** 	VL53L0X_Error Status = VL53L0X_ERROR_NONE;
 6625              		.loc 1 2551 1 is_stmt 0 view .LVU2023
 6626 0000 38B5     		push	{r3, r4, r5, lr}
ARM GAS  C:\Users\anmh1\AppData\Local\Temp\ccBPLcM2.s 			page 179


 6627              		.cfi_def_cfa_offset 16
 6628              		.cfi_offset 3, -16
 6629              		.cfi_offset 4, -12
 6630              		.cfi_offset 5, -8
 6631              		.cfi_offset 14, -4
 6632 0002 0446     		mov	r4, r0
 6633 0004 0D46     		mov	r5, r1
2552:Core/Src/vl53l0x_api.c **** 
 6634              		.loc 1 2552 2 is_stmt 1 view .LVU2024
 6635              	.LVL717:
2554:Core/Src/vl53l0x_api.c **** 
 6636              		.loc 1 2554 2 view .LVU2025
2558:Core/Src/vl53l0x_api.c **** 
 6637              		.loc 1 2558 2 view .LVU2026
2558:Core/Src/vl53l0x_api.c **** 
 6638              		.loc 1 2558 11 is_stmt 0 view .LVU2027
 6639 0006 0021     		movs	r1, #0
 6640              	.LVL718:
2558:Core/Src/vl53l0x_api.c **** 
 6641              		.loc 1 2558 11 view .LVU2028
 6642 0008 FFF7FEFF 		bl	VL53L0X_SetDeviceMode
 6643              	.LVL719:
2560:Core/Src/vl53l0x_api.c **** 		Status = VL53L0X_PerformSingleMeasurement(Dev);
 6644              		.loc 1 2560 2 is_stmt 1 view .LVU2029
2560:Core/Src/vl53l0x_api.c **** 		Status = VL53L0X_PerformSingleMeasurement(Dev);
 6645              		.loc 1 2560 5 is_stmt 0 view .LVU2030
 6646 000c 10B1     		cbz	r0, .L439
 6647              	.L435:
 6648              	.LVL720:
2564:Core/Src/vl53l0x_api.c **** 		Status = VL53L0X_GetRangingMeasurementData(Dev,
 6649              		.loc 1 2564 2 is_stmt 1 view .LVU2031
2564:Core/Src/vl53l0x_api.c **** 		Status = VL53L0X_GetRangingMeasurementData(Dev,
 6650              		.loc 1 2564 5 is_stmt 0 view .LVU2032
 6651 000e 28B1     		cbz	r0, .L440
 6652              	.L436:
2569:Core/Src/vl53l0x_api.c **** 		Status = VL53L0X_ClearInterruptMask(Dev, 0);
 6653              		.loc 1 2569 2 is_stmt 1 view .LVU2033
2569:Core/Src/vl53l0x_api.c **** 		Status = VL53L0X_ClearInterruptMask(Dev, 0);
 6654              		.loc 1 2569 5 is_stmt 0 view .LVU2034
 6655 0010 48B1     		cbz	r0, .L441
 6656              	.L437:
2573:Core/Src/vl53l0x_api.c **** 	return Status;
 6657              		.loc 1 2573 2 is_stmt 1 view .LVU2035
2574:Core/Src/vl53l0x_api.c **** }
 6658              		.loc 1 2574 2 view .LVU2036
2575:Core/Src/vl53l0x_api.c **** 
 6659              		.loc 1 2575 1 is_stmt 0 view .LVU2037
 6660 0012 38BD     		pop	{r3, r4, r5, pc}
 6661              	.LVL721:
 6662              	.L439:
2561:Core/Src/vl53l0x_api.c **** 
 6663              		.loc 1 2561 3 is_stmt 1 view .LVU2038
2561:Core/Src/vl53l0x_api.c **** 
 6664              		.loc 1 2561 12 is_stmt 0 view .LVU2039
 6665 0014 2046     		mov	r0, r4
 6666 0016 FFF7FEFF 		bl	VL53L0X_PerformSingleMeasurement
 6667              	.LVL722:
ARM GAS  C:\Users\anmh1\AppData\Local\Temp\ccBPLcM2.s 			page 180


2561:Core/Src/vl53l0x_api.c **** 
 6668              		.loc 1 2561 12 view .LVU2040
 6669 001a F8E7     		b	.L435
 6670              	.L440:
2565:Core/Src/vl53l0x_api.c **** 			pRangingMeasurementData);
 6671              		.loc 1 2565 3 is_stmt 1 view .LVU2041
2565:Core/Src/vl53l0x_api.c **** 			pRangingMeasurementData);
 6672              		.loc 1 2565 12 is_stmt 0 view .LVU2042
 6673 001c 2946     		mov	r1, r5
 6674 001e 2046     		mov	r0, r4
 6675              	.LVL723:
2565:Core/Src/vl53l0x_api.c **** 			pRangingMeasurementData);
 6676              		.loc 1 2565 12 view .LVU2043
 6677 0020 FFF7FEFF 		bl	VL53L0X_GetRangingMeasurementData
 6678              	.LVL724:
2565:Core/Src/vl53l0x_api.c **** 			pRangingMeasurementData);
 6679              		.loc 1 2565 12 view .LVU2044
 6680 0024 F4E7     		b	.L436
 6681              	.L441:
2570:Core/Src/vl53l0x_api.c **** 
 6682              		.loc 1 2570 3 is_stmt 1 view .LVU2045
2570:Core/Src/vl53l0x_api.c **** 
 6683              		.loc 1 2570 12 is_stmt 0 view .LVU2046
 6684 0026 0021     		movs	r1, #0
 6685 0028 2046     		mov	r0, r4
 6686              	.LVL725:
2570:Core/Src/vl53l0x_api.c **** 
 6687              		.loc 1 2570 12 view .LVU2047
 6688 002a FFF7FEFF 		bl	VL53L0X_ClearInterruptMask
 6689              	.LVL726:
2570:Core/Src/vl53l0x_api.c **** 
 6690              		.loc 1 2570 12 view .LVU2048
 6691 002e F0E7     		b	.L437
 6692              		.cfi_endproc
 6693              	.LFE213:
 6695              		.section	.text.VL53L0X_SetGpioConfig,"ax",%progbits
 6696              		.align	1
 6697              		.global	VL53L0X_SetGpioConfig
 6698              		.syntax unified
 6699              		.thumb
 6700              		.thumb_func
 6701              		.fpu fpv4-sp-d16
 6703              	VL53L0X_SetGpioConfig:
 6704              	.LVL727:
 6705              	.LFB217:
2623:Core/Src/vl53l0x_api.c **** 	VL53L0X_Error Status = VL53L0X_ERROR_NONE;
 6706              		.loc 1 2623 1 is_stmt 1 view -0
 6707              		.cfi_startproc
 6708              		@ args = 4, pretend = 0, frame = 0
 6709              		@ frame_needed = 0, uses_anonymous_args = 0
2623:Core/Src/vl53l0x_api.c **** 	VL53L0X_Error Status = VL53L0X_ERROR_NONE;
 6710              		.loc 1 2623 1 is_stmt 0 view .LVU2050
 6711 0000 70B5     		push	{r4, r5, r6, lr}
 6712              		.cfi_def_cfa_offset 16
 6713              		.cfi_offset 4, -16
 6714              		.cfi_offset 5, -12
 6715              		.cfi_offset 6, -8
ARM GAS  C:\Users\anmh1\AppData\Local\Temp\ccBPLcM2.s 			page 181


 6716              		.cfi_offset 14, -4
 6717 0002 9DF81060 		ldrb	r6, [sp, #16]	@ zero_extendqisi2
2624:Core/Src/vl53l0x_api.c **** 	uint8_t data;
 6718              		.loc 1 2624 2 is_stmt 1 view .LVU2051
 6719              	.LVL728:
2625:Core/Src/vl53l0x_api.c **** 
 6720              		.loc 1 2625 2 view .LVU2052
2627:Core/Src/vl53l0x_api.c **** 
 6721              		.loc 1 2627 2 view .LVU2053
2629:Core/Src/vl53l0x_api.c **** 		Status = VL53L0X_ERROR_GPIO_NOT_EXISTING;
 6722              		.loc 1 2629 2 view .LVU2054
2629:Core/Src/vl53l0x_api.c **** 		Status = VL53L0X_ERROR_GPIO_NOT_EXISTING;
 6723              		.loc 1 2629 5 is_stmt 0 view .LVU2055
 6724 0006 0029     		cmp	r1, #0
 6725 0008 40F09980 		bne	.L453
 6726 000c 0546     		mov	r5, r0
 6727 000e 1C46     		mov	r4, r3
2631:Core/Src/vl53l0x_api.c **** 		if (Polarity == VL53L0X_INTERRUPTPOLARITY_LOW)
 6728              		.loc 1 2631 9 is_stmt 1 view .LVU2056
2631:Core/Src/vl53l0x_api.c **** 		if (Polarity == VL53L0X_INTERRUPTPOLARITY_LOW)
 6729              		.loc 1 2631 12 is_stmt 0 view .LVU2057
 6730 0010 142A     		cmp	r2, #20
 6731 0012 09D0     		beq	.L458
2640:Core/Src/vl53l0x_api.c **** 
 6732              		.loc 1 2640 9 is_stmt 1 view .LVU2058
2640:Core/Src/vl53l0x_api.c **** 
 6733              		.loc 1 2640 12 is_stmt 0 view .LVU2059
 6734 0014 152A     		cmp	r2, #21
 6735 0016 10D0     		beq	.L459
2665:Core/Src/vl53l0x_api.c **** 			switch (Functionality) {
 6736              		.loc 1 2665 3 is_stmt 1 view .LVU2060
2666:Core/Src/vl53l0x_api.c **** 			case VL53L0X_GPIOFUNCTIONALITY_OFF:
 6737              		.loc 1 2666 4 view .LVU2061
 6738 0018 042C     		cmp	r4, #4
 6739 001a 00F28880 		bhi	.L455
 6740 001e DFE804F0 		tbb	[pc, r4]
 6741              	.LVL729:
 6742              	.L449:
 6743 0022 74       		.byte	(.L448-.L449)/2
 6744 0023 74       		.byte	(.L448-.L449)/2
 6745 0024 74       		.byte	(.L448-.L449)/2
 6746 0025 74       		.byte	(.L448-.L449)/2
 6747 0026 74       		.byte	(.L448-.L449)/2
 6748 0027 00       		.p2align 1
 6749              	.L458:
2632:Core/Src/vl53l0x_api.c **** 			data = 0x10;
 6750              		.loc 1 2632 3 view .LVU2062
2632:Core/Src/vl53l0x_api.c **** 			data = 0x10;
 6751              		.loc 1 2632 6 is_stmt 0 view .LVU2063
 6752 0028 2EB9     		cbnz	r6, .L454
2633:Core/Src/vl53l0x_api.c **** 		else
 6753              		.loc 1 2633 9 view .LVU2064
 6754 002a 1022     		movs	r2, #16
 6755              	.LVL730:
 6756              	.L445:
2637:Core/Src/vl53l0x_api.c **** 		VL53L0X_REG_GPIO_HV_MUX_ACTIVE_HIGH, data);
 6757              		.loc 1 2637 3 is_stmt 1 view .LVU2065
ARM GAS  C:\Users\anmh1\AppData\Local\Temp\ccBPLcM2.s 			page 182


2637:Core/Src/vl53l0x_api.c **** 		VL53L0X_REG_GPIO_HV_MUX_ACTIVE_HIGH, data);
 6758              		.loc 1 2637 12 is_stmt 0 view .LVU2066
 6759 002c 8421     		movs	r1, #132
 6760              	.LVL731:
2637:Core/Src/vl53l0x_api.c **** 		VL53L0X_REG_GPIO_HV_MUX_ACTIVE_HIGH, data);
 6761              		.loc 1 2637 12 view .LVU2067
 6762 002e 2846     		mov	r0, r5
 6763              	.LVL732:
2637:Core/Src/vl53l0x_api.c **** 		VL53L0X_REG_GPIO_HV_MUX_ACTIVE_HIGH, data);
 6764              		.loc 1 2637 12 view .LVU2068
 6765 0030 FFF7FEFF 		bl	VL53L0X_WrByte
 6766              	.LVL733:
2637:Core/Src/vl53l0x_api.c **** 		VL53L0X_REG_GPIO_HV_MUX_ACTIVE_HIGH, data);
 6767              		.loc 1 2637 12 view .LVU2069
 6768 0034 7AE0     		b	.L443
 6769              	.LVL734:
 6770              	.L454:
2635:Core/Src/vl53l0x_api.c **** 
 6771              		.loc 1 2635 9 view .LVU2070
 6772 0036 0122     		movs	r2, #1
 6773              	.LVL735:
2635:Core/Src/vl53l0x_api.c **** 
 6774              		.loc 1 2635 9 view .LVU2071
 6775 0038 F8E7     		b	.L445
 6776              	.LVL736:
 6777              	.L459:
2642:Core/Src/vl53l0x_api.c **** 		Status |= VL53L0X_WrByte(Dev, 0x00, 0x00);
 6778              		.loc 1 2642 3 is_stmt 1 view .LVU2072
2642:Core/Src/vl53l0x_api.c **** 		Status |= VL53L0X_WrByte(Dev, 0x00, 0x00);
 6779              		.loc 1 2642 13 is_stmt 0 view .LVU2073
 6780 003a 0122     		movs	r2, #1
 6781              	.LVL737:
2642:Core/Src/vl53l0x_api.c **** 		Status |= VL53L0X_WrByte(Dev, 0x00, 0x00);
 6782              		.loc 1 2642 13 view .LVU2074
 6783 003c FF21     		movs	r1, #255
 6784              	.LVL738:
2642:Core/Src/vl53l0x_api.c **** 		Status |= VL53L0X_WrByte(Dev, 0x00, 0x00);
 6785              		.loc 1 2642 13 view .LVU2075
 6786 003e FFF7FEFF 		bl	VL53L0X_WrByte
 6787              	.LVL739:
2642:Core/Src/vl53l0x_api.c **** 		Status |= VL53L0X_WrByte(Dev, 0x00, 0x00);
 6788              		.loc 1 2642 13 view .LVU2076
 6789 0042 0446     		mov	r4, r0
 6790              	.LVL740:
2643:Core/Src/vl53l0x_api.c **** 
 6791              		.loc 1 2643 3 is_stmt 1 view .LVU2077
2643:Core/Src/vl53l0x_api.c **** 
 6792              		.loc 1 2643 13 is_stmt 0 view .LVU2078
 6793 0044 0022     		movs	r2, #0
 6794 0046 1146     		mov	r1, r2
 6795 0048 2846     		mov	r0, r5
 6796 004a FFF7FEFF 		bl	VL53L0X_WrByte
 6797              	.LVL741:
2643:Core/Src/vl53l0x_api.c **** 
 6798              		.loc 1 2643 10 view .LVU2079
 6799 004e 0443     		orrs	r4, r4, r0
 6800              	.LVL742:
ARM GAS  C:\Users\anmh1\AppData\Local\Temp\ccBPLcM2.s 			page 183


2643:Core/Src/vl53l0x_api.c **** 
 6801              		.loc 1 2643 10 view .LVU2080
 6802 0050 64B2     		sxtb	r4, r4
 6803              	.LVL743:
2645:Core/Src/vl53l0x_api.c **** 		Status |= VL53L0X_WrByte(Dev, 0x80, 0x01);
 6804              		.loc 1 2645 3 is_stmt 1 view .LVU2081
2645:Core/Src/vl53l0x_api.c **** 		Status |= VL53L0X_WrByte(Dev, 0x80, 0x01);
 6805              		.loc 1 2645 13 is_stmt 0 view .LVU2082
 6806 0052 0022     		movs	r2, #0
 6807 0054 FF21     		movs	r1, #255
 6808 0056 2846     		mov	r0, r5
 6809 0058 FFF7FEFF 		bl	VL53L0X_WrByte
 6810              	.LVL744:
2645:Core/Src/vl53l0x_api.c **** 		Status |= VL53L0X_WrByte(Dev, 0x80, 0x01);
 6811              		.loc 1 2645 10 view .LVU2083
 6812 005c 0443     		orrs	r4, r4, r0
 6813              	.LVL745:
2645:Core/Src/vl53l0x_api.c **** 		Status |= VL53L0X_WrByte(Dev, 0x80, 0x01);
 6814              		.loc 1 2645 10 view .LVU2084
 6815 005e 64B2     		sxtb	r4, r4
 6816              	.LVL746:
2646:Core/Src/vl53l0x_api.c **** 		Status |= VL53L0X_WrByte(Dev, 0x85, 0x02);
 6817              		.loc 1 2646 3 is_stmt 1 view .LVU2085
2646:Core/Src/vl53l0x_api.c **** 		Status |= VL53L0X_WrByte(Dev, 0x85, 0x02);
 6818              		.loc 1 2646 13 is_stmt 0 view .LVU2086
 6819 0060 0122     		movs	r2, #1
 6820 0062 8021     		movs	r1, #128
 6821 0064 2846     		mov	r0, r5
 6822 0066 FFF7FEFF 		bl	VL53L0X_WrByte
 6823              	.LVL747:
2646:Core/Src/vl53l0x_api.c **** 		Status |= VL53L0X_WrByte(Dev, 0x85, 0x02);
 6824              		.loc 1 2646 10 view .LVU2087
 6825 006a 0443     		orrs	r4, r4, r0
 6826              	.LVL748:
2646:Core/Src/vl53l0x_api.c **** 		Status |= VL53L0X_WrByte(Dev, 0x85, 0x02);
 6827              		.loc 1 2646 10 view .LVU2088
 6828 006c 64B2     		sxtb	r4, r4
 6829              	.LVL749:
2647:Core/Src/vl53l0x_api.c **** 
 6830              		.loc 1 2647 3 is_stmt 1 view .LVU2089
2647:Core/Src/vl53l0x_api.c **** 
 6831              		.loc 1 2647 13 is_stmt 0 view .LVU2090
 6832 006e 0222     		movs	r2, #2
 6833 0070 8521     		movs	r1, #133
 6834 0072 2846     		mov	r0, r5
 6835 0074 FFF7FEFF 		bl	VL53L0X_WrByte
 6836              	.LVL750:
2647:Core/Src/vl53l0x_api.c **** 
 6837              		.loc 1 2647 10 view .LVU2091
 6838 0078 0443     		orrs	r4, r4, r0
 6839              	.LVL751:
2647:Core/Src/vl53l0x_api.c **** 
 6840              		.loc 1 2647 10 view .LVU2092
 6841 007a 64B2     		sxtb	r4, r4
 6842              	.LVL752:
2649:Core/Src/vl53l0x_api.c **** 		Status |= VL53L0X_WrByte(Dev, 0xcd, 0x00);
 6843              		.loc 1 2649 3 is_stmt 1 view .LVU2093
ARM GAS  C:\Users\anmh1\AppData\Local\Temp\ccBPLcM2.s 			page 184


2649:Core/Src/vl53l0x_api.c **** 		Status |= VL53L0X_WrByte(Dev, 0xcd, 0x00);
 6844              		.loc 1 2649 13 is_stmt 0 view .LVU2094
 6845 007c 0422     		movs	r2, #4
 6846 007e FF21     		movs	r1, #255
 6847 0080 2846     		mov	r0, r5
 6848 0082 FFF7FEFF 		bl	VL53L0X_WrByte
 6849              	.LVL753:
2649:Core/Src/vl53l0x_api.c **** 		Status |= VL53L0X_WrByte(Dev, 0xcd, 0x00);
 6850              		.loc 1 2649 10 view .LVU2095
 6851 0086 0443     		orrs	r4, r4, r0
 6852              	.LVL754:
2649:Core/Src/vl53l0x_api.c **** 		Status |= VL53L0X_WrByte(Dev, 0xcd, 0x00);
 6853              		.loc 1 2649 10 view .LVU2096
 6854 0088 64B2     		sxtb	r4, r4
 6855              	.LVL755:
2650:Core/Src/vl53l0x_api.c **** 		Status |= VL53L0X_WrByte(Dev, 0xcc, 0x11);
 6856              		.loc 1 2650 3 is_stmt 1 view .LVU2097
2650:Core/Src/vl53l0x_api.c **** 		Status |= VL53L0X_WrByte(Dev, 0xcc, 0x11);
 6857              		.loc 1 2650 13 is_stmt 0 view .LVU2098
 6858 008a 0022     		movs	r2, #0
 6859 008c CD21     		movs	r1, #205
 6860 008e 2846     		mov	r0, r5
 6861 0090 FFF7FEFF 		bl	VL53L0X_WrByte
 6862              	.LVL756:
2650:Core/Src/vl53l0x_api.c **** 		Status |= VL53L0X_WrByte(Dev, 0xcc, 0x11);
 6863              		.loc 1 2650 10 view .LVU2099
 6864 0094 0443     		orrs	r4, r4, r0
 6865              	.LVL757:
2650:Core/Src/vl53l0x_api.c **** 		Status |= VL53L0X_WrByte(Dev, 0xcc, 0x11);
 6866              		.loc 1 2650 10 view .LVU2100
 6867 0096 64B2     		sxtb	r4, r4
 6868              	.LVL758:
2651:Core/Src/vl53l0x_api.c **** 
 6869              		.loc 1 2651 3 is_stmt 1 view .LVU2101
2651:Core/Src/vl53l0x_api.c **** 
 6870              		.loc 1 2651 13 is_stmt 0 view .LVU2102
 6871 0098 1122     		movs	r2, #17
 6872 009a CC21     		movs	r1, #204
 6873 009c 2846     		mov	r0, r5
 6874 009e FFF7FEFF 		bl	VL53L0X_WrByte
 6875              	.LVL759:
2651:Core/Src/vl53l0x_api.c **** 
 6876              		.loc 1 2651 10 view .LVU2103
 6877 00a2 0443     		orrs	r4, r4, r0
 6878              	.LVL760:
2651:Core/Src/vl53l0x_api.c **** 
 6879              		.loc 1 2651 10 view .LVU2104
 6880 00a4 64B2     		sxtb	r4, r4
 6881              	.LVL761:
2653:Core/Src/vl53l0x_api.c **** 		Status |= VL53L0X_WrByte(Dev, 0xbe, 0x00);
 6882              		.loc 1 2653 3 is_stmt 1 view .LVU2105
2653:Core/Src/vl53l0x_api.c **** 		Status |= VL53L0X_WrByte(Dev, 0xbe, 0x00);
 6883              		.loc 1 2653 13 is_stmt 0 view .LVU2106
 6884 00a6 0722     		movs	r2, #7
 6885 00a8 FF21     		movs	r1, #255
 6886 00aa 2846     		mov	r0, r5
 6887 00ac FFF7FEFF 		bl	VL53L0X_WrByte
ARM GAS  C:\Users\anmh1\AppData\Local\Temp\ccBPLcM2.s 			page 185


 6888              	.LVL762:
2653:Core/Src/vl53l0x_api.c **** 		Status |= VL53L0X_WrByte(Dev, 0xbe, 0x00);
 6889              		.loc 1 2653 10 view .LVU2107
 6890 00b0 0443     		orrs	r4, r4, r0
 6891              	.LVL763:
2653:Core/Src/vl53l0x_api.c **** 		Status |= VL53L0X_WrByte(Dev, 0xbe, 0x00);
 6892              		.loc 1 2653 10 view .LVU2108
 6893 00b2 64B2     		sxtb	r4, r4
 6894              	.LVL764:
2654:Core/Src/vl53l0x_api.c **** 
 6895              		.loc 1 2654 3 is_stmt 1 view .LVU2109
2654:Core/Src/vl53l0x_api.c **** 
 6896              		.loc 1 2654 13 is_stmt 0 view .LVU2110
 6897 00b4 0022     		movs	r2, #0
 6898 00b6 BE21     		movs	r1, #190
 6899 00b8 2846     		mov	r0, r5
 6900 00ba FFF7FEFF 		bl	VL53L0X_WrByte
 6901              	.LVL765:
2654:Core/Src/vl53l0x_api.c **** 
 6902              		.loc 1 2654 10 view .LVU2111
 6903 00be 0443     		orrs	r4, r4, r0
 6904              	.LVL766:
2654:Core/Src/vl53l0x_api.c **** 
 6905              		.loc 1 2654 10 view .LVU2112
 6906 00c0 64B2     		sxtb	r4, r4
 6907              	.LVL767:
2656:Core/Src/vl53l0x_api.c **** 		Status |= VL53L0X_WrByte(Dev, 0xcc, 0x09);
 6908              		.loc 1 2656 3 is_stmt 1 view .LVU2113
2656:Core/Src/vl53l0x_api.c **** 		Status |= VL53L0X_WrByte(Dev, 0xcc, 0x09);
 6909              		.loc 1 2656 13 is_stmt 0 view .LVU2114
 6910 00c2 0622     		movs	r2, #6
 6911 00c4 FF21     		movs	r1, #255
 6912 00c6 2846     		mov	r0, r5
 6913 00c8 FFF7FEFF 		bl	VL53L0X_WrByte
 6914              	.LVL768:
2656:Core/Src/vl53l0x_api.c **** 		Status |= VL53L0X_WrByte(Dev, 0xcc, 0x09);
 6915              		.loc 1 2656 10 view .LVU2115
 6916 00cc 0443     		orrs	r4, r4, r0
 6917              	.LVL769:
2656:Core/Src/vl53l0x_api.c **** 		Status |= VL53L0X_WrByte(Dev, 0xcc, 0x09);
 6918              		.loc 1 2656 10 view .LVU2116
 6919 00ce 64B2     		sxtb	r4, r4
 6920              	.LVL770:
2657:Core/Src/vl53l0x_api.c **** 
 6921              		.loc 1 2657 3 is_stmt 1 view .LVU2117
2657:Core/Src/vl53l0x_api.c **** 
 6922              		.loc 1 2657 13 is_stmt 0 view .LVU2118
 6923 00d0 0922     		movs	r2, #9
 6924 00d2 CC21     		movs	r1, #204
 6925 00d4 2846     		mov	r0, r5
 6926 00d6 FFF7FEFF 		bl	VL53L0X_WrByte
 6927              	.LVL771:
2657:Core/Src/vl53l0x_api.c **** 
 6928              		.loc 1 2657 10 view .LVU2119
 6929 00da 0443     		orrs	r4, r4, r0
 6930              	.LVL772:
2657:Core/Src/vl53l0x_api.c **** 
ARM GAS  C:\Users\anmh1\AppData\Local\Temp\ccBPLcM2.s 			page 186


 6931              		.loc 1 2657 10 view .LVU2120
 6932 00dc 64B2     		sxtb	r4, r4
 6933              	.LVL773:
2659:Core/Src/vl53l0x_api.c **** 		Status |= VL53L0X_WrByte(Dev, 0xff, 0x01);
 6934              		.loc 1 2659 3 is_stmt 1 view .LVU2121
2659:Core/Src/vl53l0x_api.c **** 		Status |= VL53L0X_WrByte(Dev, 0xff, 0x01);
 6935              		.loc 1 2659 13 is_stmt 0 view .LVU2122
 6936 00de 0022     		movs	r2, #0
 6937 00e0 FF21     		movs	r1, #255
 6938 00e2 2846     		mov	r0, r5
 6939 00e4 FFF7FEFF 		bl	VL53L0X_WrByte
 6940              	.LVL774:
2659:Core/Src/vl53l0x_api.c **** 		Status |= VL53L0X_WrByte(Dev, 0xff, 0x01);
 6941              		.loc 1 2659 10 view .LVU2123
 6942 00e8 0443     		orrs	r4, r4, r0
 6943              	.LVL775:
2659:Core/Src/vl53l0x_api.c **** 		Status |= VL53L0X_WrByte(Dev, 0xff, 0x01);
 6944              		.loc 1 2659 10 view .LVU2124
 6945 00ea 64B2     		sxtb	r4, r4
 6946              	.LVL776:
2660:Core/Src/vl53l0x_api.c **** 		Status |= VL53L0X_WrByte(Dev, 0x00, 0x00);
 6947              		.loc 1 2660 3 is_stmt 1 view .LVU2125
2660:Core/Src/vl53l0x_api.c **** 		Status |= VL53L0X_WrByte(Dev, 0x00, 0x00);
 6948              		.loc 1 2660 13 is_stmt 0 view .LVU2126
 6949 00ec 0122     		movs	r2, #1
 6950 00ee FF21     		movs	r1, #255
 6951 00f0 2846     		mov	r0, r5
 6952 00f2 FFF7FEFF 		bl	VL53L0X_WrByte
 6953              	.LVL777:
2660:Core/Src/vl53l0x_api.c **** 		Status |= VL53L0X_WrByte(Dev, 0x00, 0x00);
 6954              		.loc 1 2660 10 view .LVU2127
 6955 00f6 0443     		orrs	r4, r4, r0
 6956              	.LVL778:
2660:Core/Src/vl53l0x_api.c **** 		Status |= VL53L0X_WrByte(Dev, 0x00, 0x00);
 6957              		.loc 1 2660 10 view .LVU2128
 6958 00f8 64B2     		sxtb	r4, r4
 6959              	.LVL779:
2661:Core/Src/vl53l0x_api.c **** 
 6960              		.loc 1 2661 3 is_stmt 1 view .LVU2129
2661:Core/Src/vl53l0x_api.c **** 
 6961              		.loc 1 2661 13 is_stmt 0 view .LVU2130
 6962 00fa 0022     		movs	r2, #0
 6963 00fc 1146     		mov	r1, r2
 6964 00fe 2846     		mov	r0, r5
 6965 0100 FFF7FEFF 		bl	VL53L0X_WrByte
 6966              	.LVL780:
2661:Core/Src/vl53l0x_api.c **** 
 6967              		.loc 1 2661 10 view .LVU2131
 6968 0104 2043     		orrs	r0, r0, r4
 6969 0106 40B2     		sxtb	r0, r0
 6970              	.LVL781:
2661:Core/Src/vl53l0x_api.c **** 
 6971              		.loc 1 2661 10 view .LVU2132
 6972 0108 10E0     		b	.L443
 6973              	.LVL782:
 6974              	.L448:
2689:Core/Src/vl53l0x_api.c **** 			VL53L0X_REG_SYSTEM_INTERRUPT_CONFIG_GPIO, data);
ARM GAS  C:\Users\anmh1\AppData\Local\Temp\ccBPLcM2.s 			page 187


 6975              		.loc 1 2689 4 is_stmt 1 view .LVU2133
2689:Core/Src/vl53l0x_api.c **** 			VL53L0X_REG_SYSTEM_INTERRUPT_CONFIG_GPIO, data);
 6976              		.loc 1 2689 13 is_stmt 0 view .LVU2134
 6977 010a 2246     		mov	r2, r4
 6978              	.LVL783:
2689:Core/Src/vl53l0x_api.c **** 			VL53L0X_REG_SYSTEM_INTERRUPT_CONFIG_GPIO, data);
 6979              		.loc 1 2689 13 view .LVU2135
 6980 010c 0A21     		movs	r1, #10
 6981              	.LVL784:
2689:Core/Src/vl53l0x_api.c **** 			VL53L0X_REG_SYSTEM_INTERRUPT_CONFIG_GPIO, data);
 6982              		.loc 1 2689 13 view .LVU2136
 6983 010e FFF7FEFF 		bl	VL53L0X_WrByte
 6984              	.LVL785:
 6985              	.L447:
2692:Core/Src/vl53l0x_api.c **** 			if (Polarity == VL53L0X_INTERRUPTPOLARITY_LOW)
 6986              		.loc 1 2692 3 is_stmt 1 view .LVU2137
2692:Core/Src/vl53l0x_api.c **** 			if (Polarity == VL53L0X_INTERRUPTPOLARITY_LOW)
 6987              		.loc 1 2692 6 is_stmt 0 view .LVU2138
 6988 0112 38B9     		cbnz	r0, .L450
2693:Core/Src/vl53l0x_api.c **** 				data = 0;
 6989              		.loc 1 2693 4 is_stmt 1 view .LVU2139
2693:Core/Src/vl53l0x_api.c **** 				data = 0;
 6990              		.loc 1 2693 7 is_stmt 0 view .LVU2140
 6991 0114 06B1     		cbz	r6, .L451
2696:Core/Src/vl53l0x_api.c **** 
 6992              		.loc 1 2696 10 view .LVU2141
 6993 0116 1026     		movs	r6, #16
 6994              	.L451:
 6995              	.LVL786:
2698:Core/Src/vl53l0x_api.c **** 			VL53L0X_REG_GPIO_HV_MUX_ACTIVE_HIGH, 0xEF, data);
 6996              		.loc 1 2698 4 is_stmt 1 view .LVU2142
2698:Core/Src/vl53l0x_api.c **** 			VL53L0X_REG_GPIO_HV_MUX_ACTIVE_HIGH, 0xEF, data);
 6997              		.loc 1 2698 13 is_stmt 0 view .LVU2143
 6998 0118 3346     		mov	r3, r6
 6999 011a EF22     		movs	r2, #239
 7000 011c 8421     		movs	r1, #132
 7001 011e 2846     		mov	r0, r5
 7002              	.LVL787:
2698:Core/Src/vl53l0x_api.c **** 			VL53L0X_REG_GPIO_HV_MUX_ACTIVE_HIGH, 0xEF, data);
 7003              		.loc 1 2698 13 view .LVU2144
 7004 0120 FFF7FEFF 		bl	VL53L0X_UpdateByte
 7005              	.LVL788:
 7006              	.L450:
2702:Core/Src/vl53l0x_api.c **** 			VL53L0X_SETDEVICESPECIFICPARAMETER(Dev,
 7007              		.loc 1 2702 3 is_stmt 1 view .LVU2145
2702:Core/Src/vl53l0x_api.c **** 			VL53L0X_SETDEVICESPECIFICPARAMETER(Dev,
 7008              		.loc 1 2702 6 is_stmt 0 view .LVU2146
 7009 0124 08B9     		cbnz	r0, .L452
2703:Core/Src/vl53l0x_api.c **** 				Pin0GpioFunctionality, Functionality);
 7010              		.loc 1 2703 4 is_stmt 1 view .LVU2147
 7011 0126 85F8DA40 		strb	r4, [r5, #218]
 7012              	.L452:
2706:Core/Src/vl53l0x_api.c **** 			Status = VL53L0X_ClearInterruptMask(Dev, 0);
 7013              		.loc 1 2706 3 view .LVU2148
2706:Core/Src/vl53l0x_api.c **** 			Status = VL53L0X_ClearInterruptMask(Dev, 0);
 7014              		.loc 1 2706 6 is_stmt 0 view .LVU2149
 7015 012a 18B1     		cbz	r0, .L460
ARM GAS  C:\Users\anmh1\AppData\Local\Temp\ccBPLcM2.s 			page 188


 7016              	.LVL789:
 7017              	.L443:
2711:Core/Src/vl53l0x_api.c **** 	return Status;
 7018              		.loc 1 2711 2 is_stmt 1 view .LVU2150
2712:Core/Src/vl53l0x_api.c **** }
 7019              		.loc 1 2712 2 view .LVU2151
2713:Core/Src/vl53l0x_api.c **** 
 7020              		.loc 1 2713 1 is_stmt 0 view .LVU2152
 7021 012c 70BD     		pop	{r4, r5, r6, pc}
 7022              	.LVL790:
 7023              	.L455:
2640:Core/Src/vl53l0x_api.c **** 
 7024              		.loc 1 2640 12 view .LVU2153
 7025 012e 6FF00A00 		mvn	r0, #10
 7026              	.LVL791:
2640:Core/Src/vl53l0x_api.c **** 
 7027              		.loc 1 2640 12 view .LVU2154
 7028 0132 EEE7     		b	.L447
 7029              	.LVL792:
 7030              	.L460:
2707:Core/Src/vl53l0x_api.c **** 
 7031              		.loc 1 2707 4 is_stmt 1 view .LVU2155
2707:Core/Src/vl53l0x_api.c **** 
 7032              		.loc 1 2707 13 is_stmt 0 view .LVU2156
 7033 0134 0021     		movs	r1, #0
 7034 0136 2846     		mov	r0, r5
 7035              	.LVL793:
2707:Core/Src/vl53l0x_api.c **** 
 7036              		.loc 1 2707 13 view .LVU2157
 7037 0138 FFF7FEFF 		bl	VL53L0X_ClearInterruptMask
 7038              	.LVL794:
2707:Core/Src/vl53l0x_api.c **** 
 7039              		.loc 1 2707 13 view .LVU2158
 7040 013c F6E7     		b	.L443
 7041              	.LVL795:
 7042              	.L453:
2630:Core/Src/vl53l0x_api.c **** 	} else if (DeviceMode == VL53L0X_DEVICEMODE_GPIO_DRIVE) {
 7043              		.loc 1 2630 10 view .LVU2159
 7044 013e 6FF00900 		mvn	r0, #9
 7045              	.LVL796:
2630:Core/Src/vl53l0x_api.c **** 	} else if (DeviceMode == VL53L0X_DEVICEMODE_GPIO_DRIVE) {
 7046              		.loc 1 2630 10 view .LVU2160
 7047 0142 F3E7     		b	.L443
 7048              		.cfi_endproc
 7049              	.LFE217:
 7051              		.section	.text.VL53L0X_StaticInit,"ax",%progbits
 7052              		.align	1
 7053              		.global	VL53L0X_StaticInit
 7054              		.syntax unified
 7055              		.thumb
 7056              		.thumb_func
 7057              		.fpu fpv4-sp-d16
 7059              	VL53L0X_StaticInit:
 7060              	.LVL797:
 7061              	.LFB156:
 551:Core/Src/vl53l0x_api.c **** 	VL53L0X_Error Status = VL53L0X_ERROR_NONE;
 7062              		.loc 1 551 1 is_stmt 1 view -0
ARM GAS  C:\Users\anmh1\AppData\Local\Temp\ccBPLcM2.s 			page 189


 7063              		.cfi_startproc
 7064              		@ args = 0, pretend = 0, frame = 80
 7065              		@ frame_needed = 0, uses_anonymous_args = 0
 551:Core/Src/vl53l0x_api.c **** 	VL53L0X_Error Status = VL53L0X_ERROR_NONE;
 7066              		.loc 1 551 1 is_stmt 0 view .LVU2162
 7067 0000 F0B5     		push	{r4, r5, r6, r7, lr}
 7068              		.cfi_def_cfa_offset 20
 7069              		.cfi_offset 4, -20
 7070              		.cfi_offset 5, -16
 7071              		.cfi_offset 6, -12
 7072              		.cfi_offset 7, -8
 7073              		.cfi_offset 14, -4
 7074 0002 97B0     		sub	sp, sp, #92
 7075              		.cfi_def_cfa_offset 112
 7076 0004 0746     		mov	r7, r0
 552:Core/Src/vl53l0x_api.c **** 	VL53L0X_DeviceParameters_t CurrentParameters = {0};
 7077              		.loc 1 552 2 is_stmt 1 view .LVU2163
 7078              	.LVL798:
 553:Core/Src/vl53l0x_api.c **** 	uint8_t *pTuningSettingBuffer;
 7079              		.loc 1 553 2 view .LVU2164
 553:Core/Src/vl53l0x_api.c **** 	uint8_t *pTuningSettingBuffer;
 7080              		.loc 1 553 29 is_stmt 0 view .LVU2165
 7081 0006 4022     		movs	r2, #64
 7082 0008 0021     		movs	r1, #0
 7083 000a 06A8     		add	r0, sp, #24
 7084              	.LVL799:
 553:Core/Src/vl53l0x_api.c **** 	uint8_t *pTuningSettingBuffer;
 7085              		.loc 1 553 29 view .LVU2166
 7086 000c FFF7FEFF 		bl	memset
 7087              	.LVL800:
 554:Core/Src/vl53l0x_api.c **** 	uint16_t tempword = 0;
 7088              		.loc 1 554 2 is_stmt 1 view .LVU2167
 555:Core/Src/vl53l0x_api.c **** 	uint8_t tempbyte = 0;
 7089              		.loc 1 555 2 view .LVU2168
 555:Core/Src/vl53l0x_api.c **** 	uint8_t tempbyte = 0;
 7090              		.loc 1 555 11 is_stmt 0 view .LVU2169
 7091 0010 0023     		movs	r3, #0
 7092 0012 ADF81630 		strh	r3, [sp, #22]	@ movhi
 556:Core/Src/vl53l0x_api.c **** 	uint8_t UseInternalTuningSettings = 0;
 7093              		.loc 1 556 2 is_stmt 1 view .LVU2170
 556:Core/Src/vl53l0x_api.c **** 	uint8_t UseInternalTuningSettings = 0;
 7094              		.loc 1 556 10 is_stmt 0 view .LVU2171
 7095 0016 8DF81530 		strb	r3, [sp, #21]
 557:Core/Src/vl53l0x_api.c **** 	uint32_t count = 0;
 7096              		.loc 1 557 2 is_stmt 1 view .LVU2172
 7097              	.LVL801:
 558:Core/Src/vl53l0x_api.c **** 	uint8_t isApertureSpads = 0;
 7098              		.loc 1 558 2 view .LVU2173
 559:Core/Src/vl53l0x_api.c **** 	uint32_t refSpadCount = 0;
 7099              		.loc 1 559 2 view .LVU2174
 559:Core/Src/vl53l0x_api.c **** 	uint32_t refSpadCount = 0;
 7100              		.loc 1 559 10 is_stmt 0 view .LVU2175
 7101 001a 8DF81430 		strb	r3, [sp, #20]
 560:Core/Src/vl53l0x_api.c **** 	uint8_t ApertureSpads = 0;
 7102              		.loc 1 560 2 is_stmt 1 view .LVU2176
 560:Core/Src/vl53l0x_api.c **** 	uint8_t ApertureSpads = 0;
 7103              		.loc 1 560 11 is_stmt 0 view .LVU2177
ARM GAS  C:\Users\anmh1\AppData\Local\Temp\ccBPLcM2.s 			page 190


 7104 001e 0493     		str	r3, [sp, #16]
 561:Core/Src/vl53l0x_api.c **** 	uint8_t vcselPulsePeriodPCLK;
 7105              		.loc 1 561 2 is_stmt 1 view .LVU2178
 7106              	.LVL802:
 562:Core/Src/vl53l0x_api.c **** 	uint32_t seqTimeoutMicroSecs;
 7107              		.loc 1 562 2 view .LVU2179
 563:Core/Src/vl53l0x_api.c **** 
 7108              		.loc 1 563 2 view .LVU2180
 565:Core/Src/vl53l0x_api.c **** 
 7109              		.loc 1 565 2 view .LVU2181
 567:Core/Src/vl53l0x_api.c **** 
 7110              		.loc 1 567 2 view .LVU2182
 567:Core/Src/vl53l0x_api.c **** 
 7111              		.loc 1 567 11 is_stmt 0 view .LVU2183
 7112 0020 0121     		movs	r1, #1
 7113 0022 3846     		mov	r0, r7
 7114 0024 FFF7FEFF 		bl	VL53L0X_get_info_from_device
 7115              	.LVL803:
 570:Core/Src/vl53l0x_api.c **** 		ReferenceSpadCount);
 7116              		.loc 1 570 2 is_stmt 1 view .LVU2184
 570:Core/Src/vl53l0x_api.c **** 		ReferenceSpadCount);
 7117              		.loc 1 570 20 is_stmt 0 view .LVU2185
 7118 0028 97F81311 		ldrb	r1, [r7, #275]	@ zero_extendqisi2
 7119              	.LVL804:
 572:Core/Src/vl53l0x_api.c **** 		ReferenceSpadType);
 7120              		.loc 1 572 2 is_stmt 1 view .LVU2186
 572:Core/Src/vl53l0x_api.c **** 		ReferenceSpadType);
 7121              		.loc 1 572 16 is_stmt 0 view .LVU2187
 7122 002c 97F81421 		ldrb	r2, [r7, #276]	@ zero_extendqisi2
 7123              	.LVL805:
 576:Core/Src/vl53l0x_api.c **** 		((ApertureSpads == 1) && (count > 32)) ||
 7124              		.loc 1 576 2 is_stmt 1 view .LVU2188
 576:Core/Src/vl53l0x_api.c **** 		((ApertureSpads == 1) && (count > 32)) ||
 7125              		.loc 1 576 5 is_stmt 0 view .LVU2189
 7126 0030 012A     		cmp	r2, #1
 7127 0032 03D8     		bhi	.L462
 576:Core/Src/vl53l0x_api.c **** 		((ApertureSpads == 1) && (count > 32)) ||
 7128              		.loc 1 576 26 discriminator 1 view .LVU2190
 7129 0034 10D0     		beq	.L489
 7130              	.L463:
 577:Core/Src/vl53l0x_api.c **** 		((ApertureSpads == 0) && (count > 12)))
 7131              		.loc 1 577 42 discriminator 1 view .LVU2191
 7132 0036 92B9     		cbnz	r2, .L464
 578:Core/Src/vl53l0x_api.c **** 		Status = VL53L0X_perform_ref_spad_management(Dev, &refSpadCount,
 7133              		.loc 1 578 25 view .LVU2192
 7134 0038 0C29     		cmp	r1, #12
 7135 003a 10D9     		bls	.L464
 7136              	.L462:
 579:Core/Src/vl53l0x_api.c **** 			&isApertureSpads);
 7137              		.loc 1 579 3 is_stmt 1 view .LVU2193
 579:Core/Src/vl53l0x_api.c **** 			&isApertureSpads);
 7138              		.loc 1 579 12 is_stmt 0 view .LVU2194
 7139 003c 05AA     		add	r2, sp, #20
 7140              	.LVL806:
 579:Core/Src/vl53l0x_api.c **** 			&isApertureSpads);
 7141              		.loc 1 579 12 view .LVU2195
 7142 003e 04A9     		add	r1, sp, #16
ARM GAS  C:\Users\anmh1\AppData\Local\Temp\ccBPLcM2.s 			page 191


 7143              	.LVL807:
 579:Core/Src/vl53l0x_api.c **** 			&isApertureSpads);
 7144              		.loc 1 579 12 view .LVU2196
 7145 0040 3846     		mov	r0, r7
 7146 0042 FFF7FEFF 		bl	VL53L0X_perform_ref_spad_management
 7147              	.LVL808:
 579:Core/Src/vl53l0x_api.c **** 			&isApertureSpads);
 7148              		.loc 1 579 12 view .LVU2197
 7149 0046 0446     		mov	r4, r0
 7150              	.LVL809:
 7151              	.L465:
 586:Core/Src/vl53l0x_api.c **** 
 7152              		.loc 1 586 2 is_stmt 1 view .LVU2198
 588:Core/Src/vl53l0x_api.c **** 		UseInternalTuningSettings = PALDevDataGet(Dev,
 7153              		.loc 1 588 2 view .LVU2199
 588:Core/Src/vl53l0x_api.c **** 		UseInternalTuningSettings = PALDevDataGet(Dev,
 7154              		.loc 1 588 5 is_stmt 0 view .LVU2200
 7155 0048 74B9     		cbnz	r4, .L486
 589:Core/Src/vl53l0x_api.c **** 			UseInternalTuningSettings);
 7156              		.loc 1 589 3 is_stmt 1 view .LVU2201
 589:Core/Src/vl53l0x_api.c **** 			UseInternalTuningSettings);
 7157              		.loc 1 589 29 is_stmt 0 view .LVU2202
 7158 004a 97F85031 		ldrb	r3, [r7, #336]	@ zero_extendqisi2
 7159              	.LVL810:
 592:Core/Src/vl53l0x_api.c **** 			pTuningSettingBuffer = PALDevDataGet(Dev,
 7160              		.loc 1 592 3 is_stmt 1 view .LVU2203
 592:Core/Src/vl53l0x_api.c **** 			pTuningSettingBuffer = PALDevDataGet(Dev,
 7161              		.loc 1 592 6 is_stmt 0 view .LVU2204
 7162 004e 002B     		cmp	r3, #0
 7163 0050 50D1     		bne	.L487
 593:Core/Src/vl53l0x_api.c **** 				pTuningSettingsPointer);
 7164              		.loc 1 593 4 is_stmt 1 view .LVU2205
 593:Core/Src/vl53l0x_api.c **** 				pTuningSettingsPointer);
 7165              		.loc 1 593 25 is_stmt 0 view .LVU2206
 7166 0052 D7F84C11 		ldr	r1, [r7, #332]
 7167              	.LVL811:
 593:Core/Src/vl53l0x_api.c **** 				pTuningSettingsPointer);
 7168              		.loc 1 593 25 view .LVU2207
 7169 0056 08E0     		b	.L466
 7170              	.LVL812:
 7171              	.L489:
 577:Core/Src/vl53l0x_api.c **** 		((ApertureSpads == 0) && (count > 12)))
 7172              		.loc 1 577 25 view .LVU2208
 7173 0058 2029     		cmp	r1, #32
 7174 005a EFD8     		bhi	.L462
 7175 005c EBE7     		b	.L463
 7176              	.L464:
 582:Core/Src/vl53l0x_api.c **** 
 7177              		.loc 1 582 3 is_stmt 1 view .LVU2209
 582:Core/Src/vl53l0x_api.c **** 
 7178              		.loc 1 582 12 is_stmt 0 view .LVU2210
 7179 005e 3846     		mov	r0, r7
 7180 0060 FFF7FEFF 		bl	VL53L0X_set_reference_spads
 7181              	.LVL813:
 582:Core/Src/vl53l0x_api.c **** 
 7182              		.loc 1 582 12 view .LVU2211
 7183 0064 0446     		mov	r4, r0
ARM GAS  C:\Users\anmh1\AppData\Local\Temp\ccBPLcM2.s 			page 192


 7184              	.LVL814:
 582:Core/Src/vl53l0x_api.c **** 
 7185              		.loc 1 582 12 view .LVU2212
 7186 0066 EFE7     		b	.L465
 7187              	.LVL815:
 7188              	.L486:
 586:Core/Src/vl53l0x_api.c **** 
 7189              		.loc 1 586 23 view .LVU2213
 7190 0068 5C49     		ldr	r1, .L502
 7191              	.LVL816:
 7192              	.L466:
 600:Core/Src/vl53l0x_api.c **** 		Status = VL53L0X_load_tuning_settings(Dev, pTuningSettingBuffer);
 7193              		.loc 1 600 2 is_stmt 1 view .LVU2214
 600:Core/Src/vl53l0x_api.c **** 		Status = VL53L0X_load_tuning_settings(Dev, pTuningSettingBuffer);
 7194              		.loc 1 600 5 is_stmt 0 view .LVU2215
 7195 006a 002C     		cmp	r4, #0
 7196 006c 44D0     		beq	.L490
 7197              	.LVL817:
 7198              	.L467:
 605:Core/Src/vl53l0x_api.c **** 		Status = VL53L0X_SetGpioConfig(Dev, 0, 0,
 7199              		.loc 1 605 2 is_stmt 1 view .LVU2216
 605:Core/Src/vl53l0x_api.c **** 		Status = VL53L0X_SetGpioConfig(Dev, 0, 0,
 7200              		.loc 1 605 5 is_stmt 0 view .LVU2217
 7201 006e 002C     		cmp	r4, #0
 7202 0070 47D0     		beq	.L491
 7203              	.L468:
 611:Core/Src/vl53l0x_api.c **** 		Status = VL53L0X_WrByte(Dev, 0xFF, 0x01);
 7204              		.loc 1 611 2 is_stmt 1 view .LVU2218
 611:Core/Src/vl53l0x_api.c **** 		Status = VL53L0X_WrByte(Dev, 0xFF, 0x01);
 7205              		.loc 1 611 5 is_stmt 0 view .LVU2219
 7206 0072 002C     		cmp	r4, #0
 7207 0074 4ED0     		beq	.L492
 7208              	.L469:
 617:Core/Src/vl53l0x_api.c **** 		VL53L0X_SETDEVICESPECIFICPARAMETER(Dev, OscFrequencyMHz,
 7209              		.loc 1 617 2 is_stmt 1 view .LVU2220
 617:Core/Src/vl53l0x_api.c **** 		VL53L0X_SETDEVICESPECIFICPARAMETER(Dev, OscFrequencyMHz,
 7210              		.loc 1 617 5 is_stmt 0 view .LVU2221
 7211 0076 24B9     		cbnz	r4, .L470
 618:Core/Src/vl53l0x_api.c **** 			VL53L0X_FIXPOINT412TOFIXPOINT1616(tempword));
 7212              		.loc 1 618 3 is_stmt 1 view .LVU2222
 7213 0078 BDF81630 		ldrh	r3, [sp, #22]
 7214 007c 1B01     		lsls	r3, r3, #4
 7215 007e C7F8D430 		str	r3, [r7, #212]
 7216              	.L470:
 624:Core/Src/vl53l0x_api.c **** 		Status = VL53L0X_GetDeviceParameters(Dev, &CurrentParameters);
 7217              		.loc 1 624 2 view .LVU2223
 624:Core/Src/vl53l0x_api.c **** 		Status = VL53L0X_GetDeviceParameters(Dev, &CurrentParameters);
 7218              		.loc 1 624 5 is_stmt 0 view .LVU2224
 7219 0082 002C     		cmp	r4, #0
 7220 0084 5CD0     		beq	.L493
 7221              	.L471:
 628:Core/Src/vl53l0x_api.c **** 		Status = VL53L0X_GetFractionEnable(Dev, &tempbyte);
 7222              		.loc 1 628 2 is_stmt 1 view .LVU2225
 628:Core/Src/vl53l0x_api.c **** 		Status = VL53L0X_GetFractionEnable(Dev, &tempbyte);
 7223              		.loc 1 628 5 is_stmt 0 view .LVU2226
 7224 0086 002C     		cmp	r4, #0
 7225 0088 60D0     		beq	.L494
ARM GAS  C:\Users\anmh1\AppData\Local\Temp\ccBPLcM2.s 			page 193


 7226              	.LVL818:
 7227              	.L472:
 635:Core/Src/vl53l0x_api.c **** 		PALDevDataSet(Dev, CurrentParameters, CurrentParameters);
 7228              		.loc 1 635 2 is_stmt 1 view .LVU2227
 635:Core/Src/vl53l0x_api.c **** 		PALDevDataSet(Dev, CurrentParameters, CurrentParameters);
 7229              		.loc 1 635 5 is_stmt 0 view .LVU2228
 7230 008a 64B9     		cbnz	r4, .L473
 636:Core/Src/vl53l0x_api.c **** 
 7231              		.loc 1 636 3 is_stmt 1 view .LVU2229
 7232 008c 07F11005 		add	r5, r7, #16
 7233 0090 06AE     		add	r6, sp, #24
 7234 0092 0FCE     		ldmia	r6!, {r0, r1, r2, r3}
 7235 0094 0FC5     		stmia	r5!, {r0, r1, r2, r3}
 7236 0096 0FCE     		ldmia	r6!, {r0, r1, r2, r3}
 7237 0098 0FC5     		stmia	r5!, {r0, r1, r2, r3}
 7238 009a 0FCE     		ldmia	r6!, {r0, r1, r2, r3}
 7239 009c 0FC5     		stmia	r5!, {r0, r1, r2, r3}
 7240 009e 96E80F00 		ldm	r6, {r0, r1, r2, r3}
 7241 00a2 85E80F00 		stm	r5, {r0, r1, r2, r3}
 7242              	.L473:
 640:Core/Src/vl53l0x_api.c **** 		Status = VL53L0X_RdByte(Dev,
 7243              		.loc 1 640 2 view .LVU2230
 640:Core/Src/vl53l0x_api.c **** 		Status = VL53L0X_RdByte(Dev,
 7244              		.loc 1 640 5 is_stmt 0 view .LVU2231
 7245 00a6 002C     		cmp	r4, #0
 7246 00a8 5DD0     		beq	.L495
 7247              	.LVL819:
 7248              	.L474:
 649:Core/Src/vl53l0x_api.c **** 		Status = VL53L0X_SetSequenceStepEnable(Dev,
 7249              		.loc 1 649 2 is_stmt 1 view .LVU2232
 649:Core/Src/vl53l0x_api.c **** 		Status = VL53L0X_SetSequenceStepEnable(Dev,
 7250              		.loc 1 649 5 is_stmt 0 view .LVU2233
 7251 00aa 002C     		cmp	r4, #0
 7252 00ac 69D0     		beq	.L496
 7253              	.L475:
 654:Core/Src/vl53l0x_api.c **** 		Status = VL53L0X_SetSequenceStepEnable(Dev,
 7254              		.loc 1 654 2 is_stmt 1 view .LVU2234
 654:Core/Src/vl53l0x_api.c **** 		Status = VL53L0X_SetSequenceStepEnable(Dev,
 7255              		.loc 1 654 5 is_stmt 0 view .LVU2235
 7256 00ae 002C     		cmp	r4, #0
 7257 00b0 6ED0     		beq	.L497
 7258              	.L476:
 660:Core/Src/vl53l0x_api.c **** 		PALDevDataSet(Dev, PalState, VL53L0X_STATE_IDLE);
 7259              		.loc 1 660 2 is_stmt 1 view .LVU2236
 660:Core/Src/vl53l0x_api.c **** 		PALDevDataSet(Dev, PalState, VL53L0X_STATE_IDLE);
 7260              		.loc 1 660 5 is_stmt 0 view .LVU2237
 7261 00b2 14B9     		cbnz	r4, .L477
 661:Core/Src/vl53l0x_api.c **** 
 7262              		.loc 1 661 3 is_stmt 1 view .LVU2238
 7263 00b4 0323     		movs	r3, #3
 7264 00b6 87F83231 		strb	r3, [r7, #306]
 7265              	.L477:
 666:Core/Src/vl53l0x_api.c **** 		Status = VL53L0X_GetVcselPulsePeriod(
 7266              		.loc 1 666 2 view .LVU2239
 666:Core/Src/vl53l0x_api.c **** 		Status = VL53L0X_GetVcselPulsePeriod(
 7267              		.loc 1 666 5 is_stmt 0 view .LVU2240
 7268 00ba 002C     		cmp	r4, #0
ARM GAS  C:\Users\anmh1\AppData\Local\Temp\ccBPLcM2.s 			page 194


 7269 00bc 6FD0     		beq	.L498
 7270              	.L478:
 673:Core/Src/vl53l0x_api.c **** 			VL53L0X_SETDEVICESPECIFICPARAMETER(
 7271              		.loc 1 673 2 is_stmt 1 view .LVU2241
 673:Core/Src/vl53l0x_api.c **** 			VL53L0X_SETDEVICESPECIFICPARAMETER(
 7272              		.loc 1 673 5 is_stmt 0 view .LVU2242
 7273 00be 1CB9     		cbnz	r4, .L479
 674:Core/Src/vl53l0x_api.c **** 				Dev,
 7274              		.loc 1 674 4 is_stmt 1 view .LVU2243
 7275 00c0 9DF80F30 		ldrb	r3, [sp, #15]	@ zero_extendqisi2
 7276 00c4 87F8E830 		strb	r3, [r7, #232]
 7277              	.L479:
 681:Core/Src/vl53l0x_api.c **** 		Status = VL53L0X_GetVcselPulsePeriod(
 7278              		.loc 1 681 2 view .LVU2244
 681:Core/Src/vl53l0x_api.c **** 		Status = VL53L0X_GetVcselPulsePeriod(
 7279              		.loc 1 681 5 is_stmt 0 view .LVU2245
 7280 00c8 002C     		cmp	r4, #0
 7281 00ca 70D0     		beq	.L499
 7282              	.L480:
 688:Core/Src/vl53l0x_api.c **** 			VL53L0X_SETDEVICESPECIFICPARAMETER(
 7283              		.loc 1 688 2 is_stmt 1 view .LVU2246
 688:Core/Src/vl53l0x_api.c **** 			VL53L0X_SETDEVICESPECIFICPARAMETER(
 7284              		.loc 1 688 5 is_stmt 0 view .LVU2247
 7285 00cc 1CB9     		cbnz	r4, .L481
 689:Core/Src/vl53l0x_api.c **** 				Dev,
 7286              		.loc 1 689 4 is_stmt 1 view .LVU2248
 7287 00ce 9DF80F30 		ldrb	r3, [sp, #15]	@ zero_extendqisi2
 7288 00d2 87F8E030 		strb	r3, [r7, #224]
 7289              	.L481:
 696:Core/Src/vl53l0x_api.c **** 		Status = get_sequence_step_timeout(
 7290              		.loc 1 696 2 view .LVU2249
 696:Core/Src/vl53l0x_api.c **** 		Status = get_sequence_step_timeout(
 7291              		.loc 1 696 5 is_stmt 0 view .LVU2250
 7292 00d6 002C     		cmp	r4, #0
 7293 00d8 71D0     		beq	.L500
 7294              	.L482:
 703:Core/Src/vl53l0x_api.c **** 		VL53L0X_SETDEVICESPECIFICPARAMETER(
 7295              		.loc 1 703 2 is_stmt 1 view .LVU2251
 703:Core/Src/vl53l0x_api.c **** 		VL53L0X_SETDEVICESPECIFICPARAMETER(
 7296              		.loc 1 703 5 is_stmt 0 view .LVU2252
 7297 00da 14B9     		cbnz	r4, .L483
 704:Core/Src/vl53l0x_api.c **** 			Dev,
 7298              		.loc 1 704 3 is_stmt 1 view .LVU2253
 7299 00dc 029B     		ldr	r3, [sp, #8]
 7300 00de C7F8E430 		str	r3, [r7, #228]
 7301              	.L483:
 711:Core/Src/vl53l0x_api.c **** 		Status = get_sequence_step_timeout(
 7302              		.loc 1 711 2 view .LVU2254
 711:Core/Src/vl53l0x_api.c **** 		Status = get_sequence_step_timeout(
 7303              		.loc 1 711 5 is_stmt 0 view .LVU2255
 7304 00e2 002C     		cmp	r4, #0
 7305 00e4 72D0     		beq	.L501
 7306              	.L484:
 718:Core/Src/vl53l0x_api.c **** 		VL53L0X_SETDEVICESPECIFICPARAMETER(
 7307              		.loc 1 718 2 is_stmt 1 view .LVU2256
 718:Core/Src/vl53l0x_api.c **** 		VL53L0X_SETDEVICESPECIFICPARAMETER(
 7308              		.loc 1 718 5 is_stmt 0 view .LVU2257
ARM GAS  C:\Users\anmh1\AppData\Local\Temp\ccBPLcM2.s 			page 195


 7309 00e6 14B9     		cbnz	r4, .L485
 719:Core/Src/vl53l0x_api.c **** 			Dev,
 7310              		.loc 1 719 3 is_stmt 1 view .LVU2258
 7311 00e8 029B     		ldr	r3, [sp, #8]
 7312 00ea C7F8DC30 		str	r3, [r7, #220]
 7313              	.L485:
 725:Core/Src/vl53l0x_api.c **** 	return Status;
 7314              		.loc 1 725 2 view .LVU2259
 726:Core/Src/vl53l0x_api.c **** }
 7315              		.loc 1 726 2 view .LVU2260
 727:Core/Src/vl53l0x_api.c **** 
 7316              		.loc 1 727 1 is_stmt 0 view .LVU2261
 7317 00ee 2046     		mov	r0, r4
 7318 00f0 17B0     		add	sp, sp, #92
 7319              		.cfi_remember_state
 7320              		.cfi_def_cfa_offset 20
 7321              		@ sp needed
 7322 00f2 F0BD     		pop	{r4, r5, r6, r7, pc}
 7323              	.LVL820:
 7324              	.L487:
 7325              		.cfi_restore_state
 596:Core/Src/vl53l0x_api.c **** 
 7326              		.loc 1 596 25 view .LVU2262
 7327 00f4 3949     		ldr	r1, .L502
 7328 00f6 B8E7     		b	.L466
 7329              	.LVL821:
 7330              	.L490:
 601:Core/Src/vl53l0x_api.c **** 
 7331              		.loc 1 601 3 is_stmt 1 view .LVU2263
 601:Core/Src/vl53l0x_api.c **** 
 7332              		.loc 1 601 12 is_stmt 0 view .LVU2264
 7333 00f8 3846     		mov	r0, r7
 7334 00fa FFF7FEFF 		bl	VL53L0X_load_tuning_settings
 7335              	.LVL822:
 601:Core/Src/vl53l0x_api.c **** 
 7336              		.loc 1 601 12 view .LVU2265
 7337 00fe 0446     		mov	r4, r0
 7338              	.LVL823:
 601:Core/Src/vl53l0x_api.c **** 
 7339              		.loc 1 601 12 view .LVU2266
 7340 0100 B5E7     		b	.L467
 7341              	.L491:
 606:Core/Src/vl53l0x_api.c **** 		VL53L0X_REG_SYSTEM_INTERRUPT_GPIO_NEW_SAMPLE_READY,
 7342              		.loc 1 606 3 is_stmt 1 view .LVU2267
 606:Core/Src/vl53l0x_api.c **** 		VL53L0X_REG_SYSTEM_INTERRUPT_GPIO_NEW_SAMPLE_READY,
 7343              		.loc 1 606 12 is_stmt 0 view .LVU2268
 7344 0102 0021     		movs	r1, #0
 7345 0104 0091     		str	r1, [sp]
 7346 0106 0423     		movs	r3, #4
 7347 0108 0A46     		mov	r2, r1
 7348 010a 3846     		mov	r0, r7
 7349 010c FFF7FEFF 		bl	VL53L0X_SetGpioConfig
 7350              	.LVL824:
 7351 0110 0446     		mov	r4, r0
 7352              	.LVL825:
 606:Core/Src/vl53l0x_api.c **** 		VL53L0X_REG_SYSTEM_INTERRUPT_GPIO_NEW_SAMPLE_READY,
 7353              		.loc 1 606 12 view .LVU2269
ARM GAS  C:\Users\anmh1\AppData\Local\Temp\ccBPLcM2.s 			page 196


 7354 0112 AEE7     		b	.L468
 7355              	.L492:
 612:Core/Src/vl53l0x_api.c **** 		Status |= VL53L0X_RdWord(Dev, 0x84, &tempword);
 7356              		.loc 1 612 3 is_stmt 1 view .LVU2270
 612:Core/Src/vl53l0x_api.c **** 		Status |= VL53L0X_RdWord(Dev, 0x84, &tempword);
 7357              		.loc 1 612 12 is_stmt 0 view .LVU2271
 7358 0114 0122     		movs	r2, #1
 7359 0116 FF21     		movs	r1, #255
 7360 0118 3846     		mov	r0, r7
 7361 011a FFF7FEFF 		bl	VL53L0X_WrByte
 7362              	.LVL826:
 7363 011e 0446     		mov	r4, r0
 7364              	.LVL827:
 613:Core/Src/vl53l0x_api.c **** 		Status |= VL53L0X_WrByte(Dev, 0xFF, 0x00);
 7365              		.loc 1 613 3 is_stmt 1 view .LVU2272
 613:Core/Src/vl53l0x_api.c **** 		Status |= VL53L0X_WrByte(Dev, 0xFF, 0x00);
 7366              		.loc 1 613 13 is_stmt 0 view .LVU2273
 7367 0120 0DF11602 		add	r2, sp, #22
 7368 0124 8421     		movs	r1, #132
 7369 0126 3846     		mov	r0, r7
 7370 0128 FFF7FEFF 		bl	VL53L0X_RdWord
 7371              	.LVL828:
 613:Core/Src/vl53l0x_api.c **** 		Status |= VL53L0X_WrByte(Dev, 0xFF, 0x00);
 7372              		.loc 1 613 10 view .LVU2274
 7373 012c 0443     		orrs	r4, r4, r0
 7374              	.LVL829:
 613:Core/Src/vl53l0x_api.c **** 		Status |= VL53L0X_WrByte(Dev, 0xFF, 0x00);
 7375              		.loc 1 613 10 view .LVU2275
 7376 012e 64B2     		sxtb	r4, r4
 7377              	.LVL830:
 614:Core/Src/vl53l0x_api.c **** 	}
 7378              		.loc 1 614 3 is_stmt 1 view .LVU2276
 614:Core/Src/vl53l0x_api.c **** 	}
 7379              		.loc 1 614 13 is_stmt 0 view .LVU2277
 7380 0130 0022     		movs	r2, #0
 7381 0132 FF21     		movs	r1, #255
 7382 0134 3846     		mov	r0, r7
 7383 0136 FFF7FEFF 		bl	VL53L0X_WrByte
 7384              	.LVL831:
 614:Core/Src/vl53l0x_api.c **** 	}
 7385              		.loc 1 614 10 view .LVU2278
 7386 013a 2043     		orrs	r0, r0, r4
 7387 013c 44B2     		sxtb	r4, r0
 7388              	.LVL832:
 614:Core/Src/vl53l0x_api.c **** 	}
 7389              		.loc 1 614 10 view .LVU2279
 7390 013e 9AE7     		b	.L469
 7391              	.L493:
 625:Core/Src/vl53l0x_api.c **** 
 7392              		.loc 1 625 3 is_stmt 1 view .LVU2280
 625:Core/Src/vl53l0x_api.c **** 
 7393              		.loc 1 625 12 is_stmt 0 view .LVU2281
 7394 0140 06A9     		add	r1, sp, #24
 7395 0142 3846     		mov	r0, r7
 7396 0144 FFF7FEFF 		bl	VL53L0X_GetDeviceParameters
 7397              	.LVL833:
 7398 0148 0446     		mov	r4, r0
ARM GAS  C:\Users\anmh1\AppData\Local\Temp\ccBPLcM2.s 			page 197


 7399              	.LVL834:
 625:Core/Src/vl53l0x_api.c **** 
 7400              		.loc 1 625 12 view .LVU2282
 7401 014a 9CE7     		b	.L471
 7402              	.L494:
 629:Core/Src/vl53l0x_api.c **** 		if (Status == VL53L0X_ERROR_NONE)
 7403              		.loc 1 629 3 is_stmt 1 view .LVU2283
 629:Core/Src/vl53l0x_api.c **** 		if (Status == VL53L0X_ERROR_NONE)
 7404              		.loc 1 629 12 is_stmt 0 view .LVU2284
 7405 014c 0DF11501 		add	r1, sp, #21
 7406 0150 3846     		mov	r0, r7
 7407 0152 FFF7FEFF 		bl	VL53L0X_GetFractionEnable
 7408              	.LVL835:
 630:Core/Src/vl53l0x_api.c **** 			PALDevDataSet(Dev, RangeFractionalEnable, tempbyte);
 7409              		.loc 1 630 3 is_stmt 1 view .LVU2285
 630:Core/Src/vl53l0x_api.c **** 			PALDevDataSet(Dev, RangeFractionalEnable, tempbyte);
 7410              		.loc 1 630 6 is_stmt 0 view .LVU2286
 7411 0156 0446     		mov	r4, r0
 7412 0158 0028     		cmp	r0, #0
 7413 015a 96D1     		bne	.L472
 631:Core/Src/vl53l0x_api.c **** 
 7414              		.loc 1 631 4 is_stmt 1 view .LVU2287
 7415 015c 9DF81530 		ldrb	r3, [sp, #21]	@ zero_extendqisi2
 7416 0160 87F83131 		strb	r3, [r7, #305]
 7417 0164 91E7     		b	.L472
 7418              	.LVL836:
 7419              	.L495:
 641:Core/Src/vl53l0x_api.c **** 		VL53L0X_REG_SYSTEM_SEQUENCE_CONFIG, &tempbyte);
 7420              		.loc 1 641 3 view .LVU2288
 641:Core/Src/vl53l0x_api.c **** 		VL53L0X_REG_SYSTEM_SEQUENCE_CONFIG, &tempbyte);
 7421              		.loc 1 641 12 is_stmt 0 view .LVU2289
 7422 0166 0DF11502 		add	r2, sp, #21
 7423 016a 0121     		movs	r1, #1
 7424 016c 3846     		mov	r0, r7
 7425 016e FFF7FEFF 		bl	VL53L0X_RdByte
 7426              	.LVL837:
 643:Core/Src/vl53l0x_api.c **** 			PALDevDataSet(Dev, SequenceConfig, tempbyte);
 7427              		.loc 1 643 3 is_stmt 1 view .LVU2290
 643:Core/Src/vl53l0x_api.c **** 			PALDevDataSet(Dev, SequenceConfig, tempbyte);
 7428              		.loc 1 643 6 is_stmt 0 view .LVU2291
 7429 0172 0446     		mov	r4, r0
 7430 0174 0028     		cmp	r0, #0
 7431 0176 98D1     		bne	.L474
 644:Core/Src/vl53l0x_api.c **** 
 7432              		.loc 1 644 4 is_stmt 1 view .LVU2292
 7433 0178 9DF81530 		ldrb	r3, [sp, #21]	@ zero_extendqisi2
 7434 017c 87F83031 		strb	r3, [r7, #304]
 7435 0180 93E7     		b	.L474
 7436              	.LVL838:
 7437              	.L496:
 650:Core/Src/vl53l0x_api.c **** 					VL53L0X_SEQUENCESTEP_TCC, 0);
 7438              		.loc 1 650 3 view .LVU2293
 650:Core/Src/vl53l0x_api.c **** 					VL53L0X_SEQUENCESTEP_TCC, 0);
 7439              		.loc 1 650 12 is_stmt 0 view .LVU2294
 7440 0182 0022     		movs	r2, #0
 7441 0184 1146     		mov	r1, r2
 7442 0186 3846     		mov	r0, r7
ARM GAS  C:\Users\anmh1\AppData\Local\Temp\ccBPLcM2.s 			page 198


 7443 0188 FFF7FEFF 		bl	VL53L0X_SetSequenceStepEnable
 7444              	.LVL839:
 7445 018c 0446     		mov	r4, r0
 7446              	.LVL840:
 650:Core/Src/vl53l0x_api.c **** 					VL53L0X_SEQUENCESTEP_TCC, 0);
 7447              		.loc 1 650 12 view .LVU2295
 7448 018e 8EE7     		b	.L475
 7449              	.L497:
 655:Core/Src/vl53l0x_api.c **** 		VL53L0X_SEQUENCESTEP_MSRC, 0);
 7450              		.loc 1 655 3 is_stmt 1 view .LVU2296
 655:Core/Src/vl53l0x_api.c **** 		VL53L0X_SEQUENCESTEP_MSRC, 0);
 7451              		.loc 1 655 12 is_stmt 0 view .LVU2297
 7452 0190 0022     		movs	r2, #0
 7453 0192 0221     		movs	r1, #2
 7454 0194 3846     		mov	r0, r7
 7455 0196 FFF7FEFF 		bl	VL53L0X_SetSequenceStepEnable
 7456              	.LVL841:
 7457 019a 0446     		mov	r4, r0
 7458              	.LVL842:
 655:Core/Src/vl53l0x_api.c **** 		VL53L0X_SEQUENCESTEP_MSRC, 0);
 7459              		.loc 1 655 12 view .LVU2298
 7460 019c 89E7     		b	.L476
 7461              	.L498:
 667:Core/Src/vl53l0x_api.c **** 			Dev,
 7462              		.loc 1 667 3 is_stmt 1 view .LVU2299
 667:Core/Src/vl53l0x_api.c **** 			Dev,
 7463              		.loc 1 667 12 is_stmt 0 view .LVU2300
 7464 019e 0DF10F02 		add	r2, sp, #15
 7465 01a2 0021     		movs	r1, #0
 7466 01a4 3846     		mov	r0, r7
 7467 01a6 FFF7FEFF 		bl	VL53L0X_GetVcselPulsePeriod
 7468              	.LVL843:
 7469 01aa 0446     		mov	r4, r0
 7470              	.LVL844:
 667:Core/Src/vl53l0x_api.c **** 			Dev,
 7471              		.loc 1 667 12 view .LVU2301
 7472 01ac 87E7     		b	.L478
 7473              	.L499:
 682:Core/Src/vl53l0x_api.c **** 			Dev,
 7474              		.loc 1 682 3 is_stmt 1 view .LVU2302
 682:Core/Src/vl53l0x_api.c **** 			Dev,
 7475              		.loc 1 682 12 is_stmt 0 view .LVU2303
 7476 01ae 0DF10F02 		add	r2, sp, #15
 7477 01b2 0121     		movs	r1, #1
 7478 01b4 3846     		mov	r0, r7
 7479 01b6 FFF7FEFF 		bl	VL53L0X_GetVcselPulsePeriod
 7480              	.LVL845:
 7481 01ba 0446     		mov	r4, r0
 7482              	.LVL846:
 682:Core/Src/vl53l0x_api.c **** 			Dev,
 7483              		.loc 1 682 12 view .LVU2304
 7484 01bc 86E7     		b	.L480
 7485              	.L500:
 697:Core/Src/vl53l0x_api.c **** 			Dev,
 7486              		.loc 1 697 3 is_stmt 1 view .LVU2305
 697:Core/Src/vl53l0x_api.c **** 			Dev,
 7487              		.loc 1 697 12 is_stmt 0 view .LVU2306
ARM GAS  C:\Users\anmh1\AppData\Local\Temp\ccBPLcM2.s 			page 199


 7488 01be 02AA     		add	r2, sp, #8
 7489 01c0 0321     		movs	r1, #3
 7490 01c2 3846     		mov	r0, r7
 7491 01c4 FFF7FEFF 		bl	get_sequence_step_timeout
 7492              	.LVL847:
 7493 01c8 0446     		mov	r4, r0
 7494              	.LVL848:
 697:Core/Src/vl53l0x_api.c **** 			Dev,
 7495              		.loc 1 697 12 view .LVU2307
 7496 01ca 86E7     		b	.L482
 7497              	.L501:
 712:Core/Src/vl53l0x_api.c **** 			Dev,
 7498              		.loc 1 712 3 is_stmt 1 view .LVU2308
 712:Core/Src/vl53l0x_api.c **** 			Dev,
 7499              		.loc 1 712 12 is_stmt 0 view .LVU2309
 7500 01cc 02AA     		add	r2, sp, #8
 7501 01ce 0421     		movs	r1, #4
 7502 01d0 3846     		mov	r0, r7
 7503 01d2 FFF7FEFF 		bl	get_sequence_step_timeout
 7504              	.LVL849:
 7505 01d6 0446     		mov	r4, r0
 7506              	.LVL850:
 712:Core/Src/vl53l0x_api.c **** 			Dev,
 7507              		.loc 1 712 12 view .LVU2310
 7508 01d8 85E7     		b	.L484
 7509              	.L503:
 7510 01da 00BF     		.align	2
 7511              	.L502:
 7512 01dc 00000000 		.word	.LANCHOR1
 7513              		.cfi_endproc
 7514              	.LFE156:
 7516              		.section	.text.VL53L0X_SetPowerMode,"ax",%progbits
 7517              		.align	1
 7518              		.global	VL53L0X_SetPowerMode
 7519              		.syntax unified
 7520              		.thumb
 7521              		.thumb_func
 7522              		.fpu fpv4-sp-d16
 7524              	VL53L0X_SetPowerMode:
 7525              	.LVL851:
 7526              	.LFB143:
 194:Core/Src/vl53l0x_api.c **** 	VL53L0X_Error Status = VL53L0X_ERROR_NONE;
 7527              		.loc 1 194 1 is_stmt 1 view -0
 7528              		.cfi_startproc
 7529              		@ args = 0, pretend = 0, frame = 0
 7530              		@ frame_needed = 0, uses_anonymous_args = 0
 194:Core/Src/vl53l0x_api.c **** 	VL53L0X_Error Status = VL53L0X_ERROR_NONE;
 7531              		.loc 1 194 1 is_stmt 0 view .LVU2312
 7532 0000 10B5     		push	{r4, lr}
 7533              		.cfi_def_cfa_offset 8
 7534              		.cfi_offset 4, -8
 7535              		.cfi_offset 14, -4
 7536 0002 0446     		mov	r4, r0
 195:Core/Src/vl53l0x_api.c **** 	LOG_FUNCTION_START("");
 7537              		.loc 1 195 2 is_stmt 1 view .LVU2313
 7538              	.LVL852:
 196:Core/Src/vl53l0x_api.c **** 
ARM GAS  C:\Users\anmh1\AppData\Local\Temp\ccBPLcM2.s 			page 200


 7539              		.loc 1 196 2 view .LVU2314
 199:Core/Src/vl53l0x_api.c **** 		&& (PowerMode != VL53L0X_POWERMODE_IDLE_LEVEL1)) {
 7540              		.loc 1 199 2 view .LVU2315
 199:Core/Src/vl53l0x_api.c **** 		&& (PowerMode != VL53L0X_POWERMODE_IDLE_LEVEL1)) {
 7541              		.loc 1 199 5 is_stmt 0 view .LVU2316
 7542 0004 0B46     		mov	r3, r1
 7543 0006 09B1     		cbz	r1, .L505
 200:Core/Src/vl53l0x_api.c **** 		Status = VL53L0X_ERROR_MODE_NOT_SUPPORTED;
 7544              		.loc 1 200 3 view .LVU2317
 7545 0008 0229     		cmp	r1, #2
 7546 000a 1DD1     		bne	.L509
 7547              	.L505:
 202:Core/Src/vl53l0x_api.c **** 		/* set the standby level1 of power mode */
 7548              		.loc 1 202 9 is_stmt 1 view .LVU2318
 202:Core/Src/vl53l0x_api.c **** 		/* set the standby level1 of power mode */
 7549              		.loc 1 202 12 is_stmt 0 view .LVU2319
 7550 000c 63B9     		cbnz	r3, .L507
 204:Core/Src/vl53l0x_api.c **** 		if (Status == VL53L0X_ERROR_NONE) {
 7551              		.loc 1 204 3 is_stmt 1 view .LVU2320
 204:Core/Src/vl53l0x_api.c **** 		if (Status == VL53L0X_ERROR_NONE) {
 7552              		.loc 1 204 12 is_stmt 0 view .LVU2321
 7553 000e 0022     		movs	r2, #0
 7554 0010 8021     		movs	r1, #128
 7555              	.LVL853:
 204:Core/Src/vl53l0x_api.c **** 		if (Status == VL53L0X_ERROR_NONE) {
 7556              		.loc 1 204 12 view .LVU2322
 7557 0012 2046     		mov	r0, r4
 7558              	.LVL854:
 204:Core/Src/vl53l0x_api.c **** 		if (Status == VL53L0X_ERROR_NONE) {
 7559              		.loc 1 204 12 view .LVU2323
 7560 0014 FFF7FEFF 		bl	VL53L0X_WrByte
 7561              	.LVL855:
 205:Core/Src/vl53l0x_api.c **** 			/* Set PAL State to standby */
 7562              		.loc 1 205 3 is_stmt 1 view .LVU2324
 205:Core/Src/vl53l0x_api.c **** 			/* Set PAL State to standby */
 7563              		.loc 1 205 6 is_stmt 0 view .LVU2325
 7564 0018 28B9     		cbnz	r0, .L506
 207:Core/Src/vl53l0x_api.c **** 			PALDevDataSet(Dev, PowerMode,
 7565              		.loc 1 207 4 is_stmt 1 view .LVU2326
 7566 001a 0223     		movs	r3, #2
 7567 001c 84F83231 		strb	r3, [r4, #306]
 208:Core/Src/vl53l0x_api.c **** 				VL53L0X_POWERMODE_STANDBY_LEVEL1);
 7568              		.loc 1 208 4 view .LVU2327
 7569 0020 0023     		movs	r3, #0
 7570 0022 84F83331 		strb	r3, [r4, #307]
 7571              	.LVL856:
 7572              	.L506:
 224:Core/Src/vl53l0x_api.c **** 	return Status;
 7573              		.loc 1 224 2 view .LVU2328
 225:Core/Src/vl53l0x_api.c **** }
 7574              		.loc 1 225 2 view .LVU2329
 226:Core/Src/vl53l0x_api.c **** 
 7575              		.loc 1 226 1 is_stmt 0 view .LVU2330
 7576 0026 10BD     		pop	{r4, pc}
 7577              	.LVL857:
 7578              	.L507:
 214:Core/Src/vl53l0x_api.c **** 		if (Status == VL53L0X_ERROR_NONE)
ARM GAS  C:\Users\anmh1\AppData\Local\Temp\ccBPLcM2.s 			page 201


 7579              		.loc 1 214 3 is_stmt 1 view .LVU2331
 214:Core/Src/vl53l0x_api.c **** 		if (Status == VL53L0X_ERROR_NONE)
 7580              		.loc 1 214 12 is_stmt 0 view .LVU2332
 7581 0028 0022     		movs	r2, #0
 7582 002a 8021     		movs	r1, #128
 7583              	.LVL858:
 214:Core/Src/vl53l0x_api.c **** 		if (Status == VL53L0X_ERROR_NONE)
 7584              		.loc 1 214 12 view .LVU2333
 7585 002c 2046     		mov	r0, r4
 7586              	.LVL859:
 214:Core/Src/vl53l0x_api.c **** 		if (Status == VL53L0X_ERROR_NONE)
 7587              		.loc 1 214 12 view .LVU2334
 7588 002e FFF7FEFF 		bl	VL53L0X_WrByte
 7589              	.LVL860:
 215:Core/Src/vl53l0x_api.c **** 			Status = VL53L0X_StaticInit(Dev);
 7590              		.loc 1 215 3 is_stmt 1 view .LVU2335
 215:Core/Src/vl53l0x_api.c **** 			Status = VL53L0X_StaticInit(Dev);
 7591              		.loc 1 215 6 is_stmt 0 view .LVU2336
 7592 0032 28B1     		cbz	r0, .L511
 7593              	.L508:
 218:Core/Src/vl53l0x_api.c **** 			PALDevDataSet(Dev, PowerMode,
 7594              		.loc 1 218 3 is_stmt 1 view .LVU2337
 218:Core/Src/vl53l0x_api.c **** 			PALDevDataSet(Dev, PowerMode,
 7595              		.loc 1 218 6 is_stmt 0 view .LVU2338
 7596 0034 0028     		cmp	r0, #0
 7597 0036 F6D1     		bne	.L506
 219:Core/Src/vl53l0x_api.c **** 				VL53L0X_POWERMODE_IDLE_LEVEL1);
 7598              		.loc 1 219 4 is_stmt 1 view .LVU2339
 7599 0038 0223     		movs	r3, #2
 7600 003a 84F83331 		strb	r3, [r4, #307]
 7601 003e F2E7     		b	.L506
 7602              	.L511:
 216:Core/Src/vl53l0x_api.c **** 
 7603              		.loc 1 216 4 view .LVU2340
 216:Core/Src/vl53l0x_api.c **** 
 7604              		.loc 1 216 13 is_stmt 0 view .LVU2341
 7605 0040 2046     		mov	r0, r4
 7606              	.LVL861:
 216:Core/Src/vl53l0x_api.c **** 
 7607              		.loc 1 216 13 view .LVU2342
 7608 0042 FFF7FEFF 		bl	VL53L0X_StaticInit
 7609              	.LVL862:
 216:Core/Src/vl53l0x_api.c **** 
 7610              		.loc 1 216 13 view .LVU2343
 7611 0046 F5E7     		b	.L508
 7612              	.LVL863:
 7613              	.L509:
 201:Core/Src/vl53l0x_api.c **** 	} else if (PowerMode == VL53L0X_POWERMODE_STANDBY_LEVEL1) {
 7614              		.loc 1 201 10 view .LVU2344
 7615 0048 6FF00700 		mvn	r0, #7
 7616              	.LVL864:
 201:Core/Src/vl53l0x_api.c **** 	} else if (PowerMode == VL53L0X_POWERMODE_STANDBY_LEVEL1) {
 7617              		.loc 1 201 10 view .LVU2345
 7618 004c EBE7     		b	.L506
 7619              		.cfi_endproc
 7620              	.LFE143:
 7622              		.section	.text.VL53L0X_GetInterruptMaskStatus,"ax",%progbits
ARM GAS  C:\Users\anmh1\AppData\Local\Temp\ccBPLcM2.s 			page 202


 7623              		.align	1
 7624              		.global	VL53L0X_GetInterruptMaskStatus
 7625              		.syntax unified
 7626              		.thumb
 7627              		.thumb_func
 7628              		.fpu fpv4-sp-d16
 7630              	VL53L0X_GetInterruptMaskStatus:
 7631              	.LVL865:
 7632              	.LFB223:
2897:Core/Src/vl53l0x_api.c **** 
2898:Core/Src/vl53l0x_api.c **** VL53L0X_Error VL53L0X_GetInterruptMaskStatus(VL53L0X_DEV Dev,
2899:Core/Src/vl53l0x_api.c **** 	uint32_t *pInterruptMaskStatus)
2900:Core/Src/vl53l0x_api.c **** {
 7633              		.loc 1 2900 1 is_stmt 1 view -0
 7634              		.cfi_startproc
 7635              		@ args = 0, pretend = 0, frame = 8
 7636              		@ frame_needed = 0, uses_anonymous_args = 0
 7637              		.loc 1 2900 1 is_stmt 0 view .LVU2347
 7638 0000 10B5     		push	{r4, lr}
 7639              		.cfi_def_cfa_offset 8
 7640              		.cfi_offset 4, -8
 7641              		.cfi_offset 14, -4
 7642 0002 82B0     		sub	sp, sp, #8
 7643              		.cfi_def_cfa_offset 16
 7644 0004 0C46     		mov	r4, r1
2901:Core/Src/vl53l0x_api.c **** 	VL53L0X_Error Status = VL53L0X_ERROR_NONE;
 7645              		.loc 1 2901 2 is_stmt 1 view .LVU2348
 7646              	.LVL866:
2902:Core/Src/vl53l0x_api.c **** 	uint8_t Byte;
 7647              		.loc 1 2902 2 view .LVU2349
2903:Core/Src/vl53l0x_api.c **** 	LOG_FUNCTION_START("");
 7648              		.loc 1 2903 2 view .LVU2350
2904:Core/Src/vl53l0x_api.c **** 
2905:Core/Src/vl53l0x_api.c **** 	Status = VL53L0X_RdByte(Dev, VL53L0X_REG_RESULT_INTERRUPT_STATUS, &Byte);
 7649              		.loc 1 2905 2 view .LVU2351
 7650              		.loc 1 2905 11 is_stmt 0 view .LVU2352
 7651 0006 0DF10702 		add	r2, sp, #7
 7652 000a 1321     		movs	r1, #19
 7653              	.LVL867:
 7654              		.loc 1 2905 11 view .LVU2353
 7655 000c FFF7FEFF 		bl	VL53L0X_RdByte
 7656              	.LVL868:
2906:Core/Src/vl53l0x_api.c **** 	*pInterruptMaskStatus = Byte & 0x07;
 7657              		.loc 1 2906 2 is_stmt 1 view .LVU2354
 7658              		.loc 1 2906 31 is_stmt 0 view .LVU2355
 7659 0010 9DF80730 		ldrb	r3, [sp, #7]	@ zero_extendqisi2
 7660 0014 03F00702 		and	r2, r3, #7
 7661              		.loc 1 2906 24 view .LVU2356
 7662 0018 2260     		str	r2, [r4]
2907:Core/Src/vl53l0x_api.c **** 
2908:Core/Src/vl53l0x_api.c **** 	if (Byte & 0x18)
 7663              		.loc 1 2908 2 is_stmt 1 view .LVU2357
 7664              		.loc 1 2908 5 is_stmt 0 view .LVU2358
 7665 001a 13F0180F 		tst	r3, #24
 7666 001e 01D1     		bne	.L516
 7667              	.LVL869:
 7668              	.L513:
ARM GAS  C:\Users\anmh1\AppData\Local\Temp\ccBPLcM2.s 			page 203


2909:Core/Src/vl53l0x_api.c **** 		Status = VL53L0X_ERROR_RANGE_ERROR;
2910:Core/Src/vl53l0x_api.c **** 
2911:Core/Src/vl53l0x_api.c **** 	LOG_FUNCTION_END(Status);
 7669              		.loc 1 2911 2 is_stmt 1 view .LVU2359
2912:Core/Src/vl53l0x_api.c **** 	return Status;
 7670              		.loc 1 2912 2 view .LVU2360
2913:Core/Src/vl53l0x_api.c **** }
 7671              		.loc 1 2913 1 is_stmt 0 view .LVU2361
 7672 0020 02B0     		add	sp, sp, #8
 7673              		.cfi_remember_state
 7674              		.cfi_def_cfa_offset 8
 7675              		@ sp needed
 7676 0022 10BD     		pop	{r4, pc}
 7677              	.LVL870:
 7678              	.L516:
 7679              		.cfi_restore_state
2909:Core/Src/vl53l0x_api.c **** 		Status = VL53L0X_ERROR_RANGE_ERROR;
 7680              		.loc 1 2909 10 view .LVU2362
 7681 0024 6FF00500 		mvn	r0, #5
 7682              	.LVL871:
2909:Core/Src/vl53l0x_api.c **** 		Status = VL53L0X_ERROR_RANGE_ERROR;
 7683              		.loc 1 2909 10 view .LVU2363
 7684 0028 FAE7     		b	.L513
 7685              		.cfi_endproc
 7686              	.LFE223:
 7688              		.section	.text.VL53L0X_GetMeasurementDataReady,"ax",%progbits
 7689              		.align	1
 7690              		.global	VL53L0X_GetMeasurementDataReady
 7691              		.syntax unified
 7692              		.thumb
 7693              		.thumb_func
 7694              		.fpu fpv4-sp-d16
 7696              	VL53L0X_GetMeasurementDataReady:
 7697              	.LVL872:
 7698              	.LFB208:
2318:Core/Src/vl53l0x_api.c **** 	VL53L0X_Error Status = VL53L0X_ERROR_NONE;
 7699              		.loc 1 2318 1 is_stmt 1 view -0
 7700              		.cfi_startproc
 7701              		@ args = 0, pretend = 0, frame = 8
 7702              		@ frame_needed = 0, uses_anonymous_args = 0
2318:Core/Src/vl53l0x_api.c **** 	VL53L0X_Error Status = VL53L0X_ERROR_NONE;
 7703              		.loc 1 2318 1 is_stmt 0 view .LVU2365
 7704 0000 10B5     		push	{r4, lr}
 7705              		.cfi_def_cfa_offset 8
 7706              		.cfi_offset 4, -8
 7707              		.cfi_offset 14, -4
 7708 0002 82B0     		sub	sp, sp, #8
 7709              		.cfi_def_cfa_offset 16
 7710 0004 0C46     		mov	r4, r1
2319:Core/Src/vl53l0x_api.c **** 	uint8_t SysRangeStatusRegister;
 7711              		.loc 1 2319 2 is_stmt 1 view .LVU2366
 7712              	.LVL873:
2320:Core/Src/vl53l0x_api.c **** 	uint8_t InterruptConfig;
 7713              		.loc 1 2320 2 view .LVU2367
2321:Core/Src/vl53l0x_api.c **** 	uint32_t InterruptMask;
 7714              		.loc 1 2321 2 view .LVU2368
2322:Core/Src/vl53l0x_api.c **** 	LOG_FUNCTION_START("");
ARM GAS  C:\Users\anmh1\AppData\Local\Temp\ccBPLcM2.s 			page 204


 7715              		.loc 1 2322 2 view .LVU2369
2323:Core/Src/vl53l0x_api.c **** 
 7716              		.loc 1 2323 2 view .LVU2370
2325:Core/Src/vl53l0x_api.c **** 		Pin0GpioFunctionality);
 7717              		.loc 1 2325 2 view .LVU2371
2325:Core/Src/vl53l0x_api.c **** 		Pin0GpioFunctionality);
 7718              		.loc 1 2325 18 is_stmt 0 view .LVU2372
 7719 0006 90F8DA30 		ldrb	r3, [r0, #218]	@ zero_extendqisi2
 7720              	.LVL874:
2328:Core/Src/vl53l0x_api.c **** 		VL53L0X_REG_SYSTEM_INTERRUPT_GPIO_NEW_SAMPLE_READY) {
 7721              		.loc 1 2328 2 is_stmt 1 view .LVU2373
2328:Core/Src/vl53l0x_api.c **** 		VL53L0X_REG_SYSTEM_INTERRUPT_GPIO_NEW_SAMPLE_READY) {
 7722              		.loc 1 2328 5 is_stmt 0 view .LVU2374
 7723 000a 042B     		cmp	r3, #4
 7724 000c 0DD0     		beq	.L523
2337:Core/Src/vl53l0x_api.c **** 			&SysRangeStatusRegister);
 7725              		.loc 1 2337 3 is_stmt 1 view .LVU2375
2337:Core/Src/vl53l0x_api.c **** 			&SysRangeStatusRegister);
 7726              		.loc 1 2337 12 is_stmt 0 view .LVU2376
 7727 000e 0DF10702 		add	r2, sp, #7
 7728 0012 1421     		movs	r1, #20
 7729              	.LVL875:
2337:Core/Src/vl53l0x_api.c **** 			&SysRangeStatusRegister);
 7730              		.loc 1 2337 12 view .LVU2377
 7731 0014 FFF7FEFF 		bl	VL53L0X_RdByte
 7732              	.LVL876:
2339:Core/Src/vl53l0x_api.c **** 			if (SysRangeStatusRegister & 0x01)
 7733              		.loc 1 2339 3 is_stmt 1 view .LVU2378
2339:Core/Src/vl53l0x_api.c **** 			if (SysRangeStatusRegister & 0x01)
 7734              		.loc 1 2339 6 is_stmt 0 view .LVU2379
 7735 0018 78B9     		cbnz	r0, .L520
2340:Core/Src/vl53l0x_api.c **** 				*pMeasurementDataReady = 1;
 7736              		.loc 1 2340 4 is_stmt 1 view .LVU2380
2340:Core/Src/vl53l0x_api.c **** 				*pMeasurementDataReady = 1;
 7737              		.loc 1 2340 31 is_stmt 0 view .LVU2381
 7738 001a 9DF80730 		ldrb	r3, [sp, #7]	@ zero_extendqisi2
2340:Core/Src/vl53l0x_api.c **** 				*pMeasurementDataReady = 1;
 7739              		.loc 1 2340 7 view .LVU2382
 7740 001e 13F0010F 		tst	r3, #1
 7741 0022 0FD0     		beq	.L521
2341:Core/Src/vl53l0x_api.c **** 			else
 7742              		.loc 1 2341 5 is_stmt 1 view .LVU2383
2341:Core/Src/vl53l0x_api.c **** 			else
 7743              		.loc 1 2341 28 is_stmt 0 view .LVU2384
 7744 0024 0123     		movs	r3, #1
 7745 0026 2370     		strb	r3, [r4]
 7746 0028 07E0     		b	.L520
 7747              	.LVL877:
 7748              	.L523:
2330:Core/Src/vl53l0x_api.c **** 		if (InterruptMask ==
 7749              		.loc 1 2330 3 is_stmt 1 view .LVU2385
2330:Core/Src/vl53l0x_api.c **** 		if (InterruptMask ==
 7750              		.loc 1 2330 12 is_stmt 0 view .LVU2386
 7751 002a 6946     		mov	r1, sp
 7752              	.LVL878:
2330:Core/Src/vl53l0x_api.c **** 		if (InterruptMask ==
 7753              		.loc 1 2330 12 view .LVU2387
ARM GAS  C:\Users\anmh1\AppData\Local\Temp\ccBPLcM2.s 			page 205


 7754 002c FFF7FEFF 		bl	VL53L0X_GetInterruptMaskStatus
 7755              	.LVL879:
2331:Core/Src/vl53l0x_api.c **** 		VL53L0X_REG_SYSTEM_INTERRUPT_GPIO_NEW_SAMPLE_READY)
 7756              		.loc 1 2331 3 is_stmt 1 view .LVU2388
2331:Core/Src/vl53l0x_api.c **** 		VL53L0X_REG_SYSTEM_INTERRUPT_GPIO_NEW_SAMPLE_READY)
 7757              		.loc 1 2331 21 is_stmt 0 view .LVU2389
 7758 0030 009B     		ldr	r3, [sp]
2331:Core/Src/vl53l0x_api.c **** 		VL53L0X_REG_SYSTEM_INTERRUPT_GPIO_NEW_SAMPLE_READY)
 7759              		.loc 1 2331 6 view .LVU2390
 7760 0032 042B     		cmp	r3, #4
 7761 0034 03D0     		beq	.L524
2335:Core/Src/vl53l0x_api.c **** 	} else {
 7762              		.loc 1 2335 4 is_stmt 1 view .LVU2391
2335:Core/Src/vl53l0x_api.c **** 	} else {
 7763              		.loc 1 2335 27 is_stmt 0 view .LVU2392
 7764 0036 0023     		movs	r3, #0
 7765 0038 2370     		strb	r3, [r4]
 7766              	.L520:
2347:Core/Src/vl53l0x_api.c **** 	return Status;
 7767              		.loc 1 2347 2 is_stmt 1 view .LVU2393
2348:Core/Src/vl53l0x_api.c **** }
 7768              		.loc 1 2348 2 view .LVU2394
2349:Core/Src/vl53l0x_api.c **** 
 7769              		.loc 1 2349 1 is_stmt 0 view .LVU2395
 7770 003a 02B0     		add	sp, sp, #8
 7771              		.cfi_remember_state
 7772              		.cfi_def_cfa_offset 8
 7773              		@ sp needed
 7774 003c 10BD     		pop	{r4, pc}
 7775              	.LVL880:
 7776              	.L524:
 7777              		.cfi_restore_state
2333:Core/Src/vl53l0x_api.c **** 		else
 7778              		.loc 1 2333 4 is_stmt 1 view .LVU2396
2333:Core/Src/vl53l0x_api.c **** 		else
 7779              		.loc 1 2333 27 is_stmt 0 view .LVU2397
 7780 003e 0123     		movs	r3, #1
 7781 0040 2370     		strb	r3, [r4]
 7782 0042 FAE7     		b	.L520
 7783              	.L521:
2343:Core/Src/vl53l0x_api.c **** 		}
 7784              		.loc 1 2343 5 is_stmt 1 view .LVU2398
2343:Core/Src/vl53l0x_api.c **** 		}
 7785              		.loc 1 2343 28 is_stmt 0 view .LVU2399
 7786 0044 0023     		movs	r3, #0
 7787 0046 2370     		strb	r3, [r4]
 7788 0048 F7E7     		b	.L520
 7789              		.cfi_endproc
 7790              	.LFE208:
 7792              		.section	.text.VL53L0X_EnableInterruptMask,"ax",%progbits
 7793              		.align	1
 7794              		.global	VL53L0X_EnableInterruptMask
 7795              		.syntax unified
 7796              		.thumb
 7797              		.thumb_func
 7798              		.fpu fpv4-sp-d16
 7800              	VL53L0X_EnableInterruptMask:
ARM GAS  C:\Users\anmh1\AppData\Local\Temp\ccBPLcM2.s 			page 206


 7801              	.LVL881:
 7802              	.LFB224:
2914:Core/Src/vl53l0x_api.c **** 
2915:Core/Src/vl53l0x_api.c **** VL53L0X_Error VL53L0X_EnableInterruptMask(VL53L0X_DEV Dev, uint32_t InterruptMask)
2916:Core/Src/vl53l0x_api.c **** {
 7803              		.loc 1 2916 1 is_stmt 1 view -0
 7804              		.cfi_startproc
 7805              		@ args = 0, pretend = 0, frame = 0
 7806              		@ frame_needed = 0, uses_anonymous_args = 0
 7807              		@ link register save eliminated.
2917:Core/Src/vl53l0x_api.c **** 	VL53L0X_Error Status = VL53L0X_ERROR_NOT_IMPLEMENTED;
 7808              		.loc 1 2917 2 view .LVU2401
2918:Core/Src/vl53l0x_api.c **** 	LOG_FUNCTION_START("");
 7809              		.loc 1 2918 2 view .LVU2402
2919:Core/Src/vl53l0x_api.c **** 
2920:Core/Src/vl53l0x_api.c **** 	/* not implemented for VL53L0X */
2921:Core/Src/vl53l0x_api.c **** 
2922:Core/Src/vl53l0x_api.c **** 	LOG_FUNCTION_END(Status);
 7810              		.loc 1 2922 2 view .LVU2403
2923:Core/Src/vl53l0x_api.c **** 	return Status;
 7811              		.loc 1 2923 2 view .LVU2404
2924:Core/Src/vl53l0x_api.c **** }
 7812              		.loc 1 2924 1 is_stmt 0 view .LVU2405
 7813 0000 6FF06200 		mvn	r0, #98
 7814              	.LVL882:
 7815              		.loc 1 2924 1 view .LVU2406
 7816 0004 7047     		bx	lr
 7817              		.cfi_endproc
 7818              	.LFE224:
 7820              		.section	.text.VL53L0X_SetSpadAmbientDamperThreshold,"ax",%progbits
 7821              		.align	1
 7822              		.global	VL53L0X_SetSpadAmbientDamperThreshold
 7823              		.syntax unified
 7824              		.thumb
 7825              		.thumb_func
 7826              		.fpu fpv4-sp-d16
 7828              	VL53L0X_SetSpadAmbientDamperThreshold:
 7829              	.LVL883:
 7830              	.LFB225:
2925:Core/Src/vl53l0x_api.c **** 
2926:Core/Src/vl53l0x_api.c **** /* End Group PAL Interrupt Functions */
2927:Core/Src/vl53l0x_api.c **** 
2928:Core/Src/vl53l0x_api.c **** /* Group SPAD functions */
2929:Core/Src/vl53l0x_api.c **** 
2930:Core/Src/vl53l0x_api.c **** VL53L0X_Error VL53L0X_SetSpadAmbientDamperThreshold(VL53L0X_DEV Dev,
2931:Core/Src/vl53l0x_api.c **** 	uint16_t SpadAmbientDamperThreshold)
2932:Core/Src/vl53l0x_api.c **** {
 7831              		.loc 1 2932 1 is_stmt 1 view -0
 7832              		.cfi_startproc
 7833              		@ args = 0, pretend = 0, frame = 0
 7834              		@ frame_needed = 0, uses_anonymous_args = 0
 7835              		.loc 1 2932 1 is_stmt 0 view .LVU2408
 7836 0000 70B5     		push	{r4, r5, r6, lr}
 7837              		.cfi_def_cfa_offset 16
 7838              		.cfi_offset 4, -16
 7839              		.cfi_offset 5, -12
 7840              		.cfi_offset 6, -8
ARM GAS  C:\Users\anmh1\AppData\Local\Temp\ccBPLcM2.s 			page 207


 7841              		.cfi_offset 14, -4
 7842 0002 0546     		mov	r5, r0
 7843 0004 0E46     		mov	r6, r1
2933:Core/Src/vl53l0x_api.c **** 	VL53L0X_Error Status = VL53L0X_ERROR_NONE;
 7844              		.loc 1 2933 2 is_stmt 1 view .LVU2409
 7845              	.LVL884:
2934:Core/Src/vl53l0x_api.c **** 	LOG_FUNCTION_START("");
 7846              		.loc 1 2934 2 view .LVU2410
2935:Core/Src/vl53l0x_api.c **** 
2936:Core/Src/vl53l0x_api.c **** 	Status = VL53L0X_WrByte(Dev, 0xFF, 0x01);
 7847              		.loc 1 2936 2 view .LVU2411
 7848              		.loc 1 2936 11 is_stmt 0 view .LVU2412
 7849 0006 0122     		movs	r2, #1
 7850 0008 FF21     		movs	r1, #255
 7851              	.LVL885:
 7852              		.loc 1 2936 11 view .LVU2413
 7853 000a FFF7FEFF 		bl	VL53L0X_WrByte
 7854              	.LVL886:
 7855              		.loc 1 2936 11 view .LVU2414
 7856 000e 0446     		mov	r4, r0
 7857              	.LVL887:
2937:Core/Src/vl53l0x_api.c **** 	Status |= VL53L0X_WrWord(Dev, 0x40, SpadAmbientDamperThreshold);
 7858              		.loc 1 2937 2 is_stmt 1 view .LVU2415
 7859              		.loc 1 2937 12 is_stmt 0 view .LVU2416
 7860 0010 3246     		mov	r2, r6
 7861 0012 4021     		movs	r1, #64
 7862 0014 2846     		mov	r0, r5
 7863 0016 FFF7FEFF 		bl	VL53L0X_WrWord
 7864              	.LVL888:
 7865              		.loc 1 2937 9 view .LVU2417
 7866 001a 0443     		orrs	r4, r4, r0
 7867              	.LVL889:
 7868              		.loc 1 2937 9 view .LVU2418
 7869 001c 64B2     		sxtb	r4, r4
 7870              	.LVL890:
2938:Core/Src/vl53l0x_api.c **** 	Status |= VL53L0X_WrByte(Dev, 0xFF, 0x00);
 7871              		.loc 1 2938 2 is_stmt 1 view .LVU2419
 7872              		.loc 1 2938 12 is_stmt 0 view .LVU2420
 7873 001e 0022     		movs	r2, #0
 7874 0020 FF21     		movs	r1, #255
 7875 0022 2846     		mov	r0, r5
 7876 0024 FFF7FEFF 		bl	VL53L0X_WrByte
 7877              	.LVL891:
 7878              		.loc 1 2938 9 view .LVU2421
 7879 0028 2043     		orrs	r0, r0, r4
 7880              	.LVL892:
2939:Core/Src/vl53l0x_api.c **** 
2940:Core/Src/vl53l0x_api.c **** 	LOG_FUNCTION_END(Status);
 7881              		.loc 1 2940 2 is_stmt 1 view .LVU2422
2941:Core/Src/vl53l0x_api.c **** 	return Status;
 7882              		.loc 1 2941 2 view .LVU2423
2942:Core/Src/vl53l0x_api.c **** }
 7883              		.loc 1 2942 1 is_stmt 0 view .LVU2424
 7884 002a 40B2     		sxtb	r0, r0
 7885              		.loc 1 2942 1 view .LVU2425
 7886 002c 70BD     		pop	{r4, r5, r6, pc}
 7887              		.loc 1 2942 1 view .LVU2426
ARM GAS  C:\Users\anmh1\AppData\Local\Temp\ccBPLcM2.s 			page 208


 7888              		.cfi_endproc
 7889              	.LFE225:
 7891              		.section	.text.VL53L0X_GetSpadAmbientDamperThreshold,"ax",%progbits
 7892              		.align	1
 7893              		.global	VL53L0X_GetSpadAmbientDamperThreshold
 7894              		.syntax unified
 7895              		.thumb
 7896              		.thumb_func
 7897              		.fpu fpv4-sp-d16
 7899              	VL53L0X_GetSpadAmbientDamperThreshold:
 7900              	.LVL893:
 7901              	.LFB226:
2943:Core/Src/vl53l0x_api.c **** 
2944:Core/Src/vl53l0x_api.c **** VL53L0X_Error VL53L0X_GetSpadAmbientDamperThreshold(VL53L0X_DEV Dev,
2945:Core/Src/vl53l0x_api.c **** 	uint16_t *pSpadAmbientDamperThreshold)
2946:Core/Src/vl53l0x_api.c **** {
 7902              		.loc 1 2946 1 is_stmt 1 view -0
 7903              		.cfi_startproc
 7904              		@ args = 0, pretend = 0, frame = 0
 7905              		@ frame_needed = 0, uses_anonymous_args = 0
 7906              		.loc 1 2946 1 is_stmt 0 view .LVU2428
 7907 0000 70B5     		push	{r4, r5, r6, lr}
 7908              		.cfi_def_cfa_offset 16
 7909              		.cfi_offset 4, -16
 7910              		.cfi_offset 5, -12
 7911              		.cfi_offset 6, -8
 7912              		.cfi_offset 14, -4
 7913 0002 0546     		mov	r5, r0
 7914 0004 0E46     		mov	r6, r1
2947:Core/Src/vl53l0x_api.c **** 	VL53L0X_Error Status = VL53L0X_ERROR_NONE;
 7915              		.loc 1 2947 2 is_stmt 1 view .LVU2429
 7916              	.LVL894:
2948:Core/Src/vl53l0x_api.c **** 	LOG_FUNCTION_START("");
 7917              		.loc 1 2948 2 view .LVU2430
2949:Core/Src/vl53l0x_api.c **** 
2950:Core/Src/vl53l0x_api.c **** 	Status = VL53L0X_WrByte(Dev, 0xFF, 0x01);
 7918              		.loc 1 2950 2 view .LVU2431
 7919              		.loc 1 2950 11 is_stmt 0 view .LVU2432
 7920 0006 0122     		movs	r2, #1
 7921 0008 FF21     		movs	r1, #255
 7922              	.LVL895:
 7923              		.loc 1 2950 11 view .LVU2433
 7924 000a FFF7FEFF 		bl	VL53L0X_WrByte
 7925              	.LVL896:
 7926              		.loc 1 2950 11 view .LVU2434
 7927 000e 0446     		mov	r4, r0
 7928              	.LVL897:
2951:Core/Src/vl53l0x_api.c **** 	Status |= VL53L0X_RdWord(Dev, 0x40, pSpadAmbientDamperThreshold);
 7929              		.loc 1 2951 2 is_stmt 1 view .LVU2435
 7930              		.loc 1 2951 12 is_stmt 0 view .LVU2436
 7931 0010 3246     		mov	r2, r6
 7932 0012 4021     		movs	r1, #64
 7933 0014 2846     		mov	r0, r5
 7934 0016 FFF7FEFF 		bl	VL53L0X_RdWord
 7935              	.LVL898:
 7936              		.loc 1 2951 9 view .LVU2437
 7937 001a 0443     		orrs	r4, r4, r0
ARM GAS  C:\Users\anmh1\AppData\Local\Temp\ccBPLcM2.s 			page 209


 7938              	.LVL899:
 7939              		.loc 1 2951 9 view .LVU2438
 7940 001c 64B2     		sxtb	r4, r4
 7941              	.LVL900:
2952:Core/Src/vl53l0x_api.c **** 	Status |= VL53L0X_WrByte(Dev, 0xFF, 0x00);
 7942              		.loc 1 2952 2 is_stmt 1 view .LVU2439
 7943              		.loc 1 2952 12 is_stmt 0 view .LVU2440
 7944 001e 0022     		movs	r2, #0
 7945 0020 FF21     		movs	r1, #255
 7946 0022 2846     		mov	r0, r5
 7947 0024 FFF7FEFF 		bl	VL53L0X_WrByte
 7948              	.LVL901:
 7949              		.loc 1 2952 9 view .LVU2441
 7950 0028 2043     		orrs	r0, r0, r4
 7951              	.LVL902:
2953:Core/Src/vl53l0x_api.c **** 
2954:Core/Src/vl53l0x_api.c **** 	LOG_FUNCTION_END(Status);
 7952              		.loc 1 2954 2 is_stmt 1 view .LVU2442
2955:Core/Src/vl53l0x_api.c **** 	return Status;
 7953              		.loc 1 2955 2 view .LVU2443
2956:Core/Src/vl53l0x_api.c **** }
 7954              		.loc 1 2956 1 is_stmt 0 view .LVU2444
 7955 002a 40B2     		sxtb	r0, r0
 7956              		.loc 1 2956 1 view .LVU2445
 7957 002c 70BD     		pop	{r4, r5, r6, pc}
 7958              		.loc 1 2956 1 view .LVU2446
 7959              		.cfi_endproc
 7960              	.LFE226:
 7962              		.section	.text.VL53L0X_SetSpadAmbientDamperFactor,"ax",%progbits
 7963              		.align	1
 7964              		.global	VL53L0X_SetSpadAmbientDamperFactor
 7965              		.syntax unified
 7966              		.thumb
 7967              		.thumb_func
 7968              		.fpu fpv4-sp-d16
 7970              	VL53L0X_SetSpadAmbientDamperFactor:
 7971              	.LVL903:
 7972              	.LFB227:
2957:Core/Src/vl53l0x_api.c **** 
2958:Core/Src/vl53l0x_api.c **** VL53L0X_Error VL53L0X_SetSpadAmbientDamperFactor(VL53L0X_DEV Dev,
2959:Core/Src/vl53l0x_api.c **** 	uint16_t SpadAmbientDamperFactor)
2960:Core/Src/vl53l0x_api.c **** {
 7973              		.loc 1 2960 1 is_stmt 1 view -0
 7974              		.cfi_startproc
 7975              		@ args = 0, pretend = 0, frame = 0
 7976              		@ frame_needed = 0, uses_anonymous_args = 0
 7977              		.loc 1 2960 1 is_stmt 0 view .LVU2448
 7978 0000 70B5     		push	{r4, r5, r6, lr}
 7979              		.cfi_def_cfa_offset 16
 7980              		.cfi_offset 4, -16
 7981              		.cfi_offset 5, -12
 7982              		.cfi_offset 6, -8
 7983              		.cfi_offset 14, -4
 7984 0002 0546     		mov	r5, r0
2961:Core/Src/vl53l0x_api.c **** 	VL53L0X_Error Status = VL53L0X_ERROR_NONE;
 7985              		.loc 1 2961 2 is_stmt 1 view .LVU2449
 7986              	.LVL904:
ARM GAS  C:\Users\anmh1\AppData\Local\Temp\ccBPLcM2.s 			page 210


2962:Core/Src/vl53l0x_api.c **** 	uint8_t Byte;
 7987              		.loc 1 2962 2 view .LVU2450
2963:Core/Src/vl53l0x_api.c **** 	LOG_FUNCTION_START("");
 7988              		.loc 1 2963 2 view .LVU2451
2964:Core/Src/vl53l0x_api.c **** 
2965:Core/Src/vl53l0x_api.c **** 	Byte = (uint8_t)(SpadAmbientDamperFactor & 0x00FF);
 7989              		.loc 1 2965 2 view .LVU2452
 7990              		.loc 1 2965 7 is_stmt 0 view .LVU2453
 7991 0004 CEB2     		uxtb	r6, r1
 7992              	.LVL905:
2966:Core/Src/vl53l0x_api.c **** 
2967:Core/Src/vl53l0x_api.c **** 	Status = VL53L0X_WrByte(Dev, 0xFF, 0x01);
 7993              		.loc 1 2967 2 is_stmt 1 view .LVU2454
 7994              		.loc 1 2967 11 is_stmt 0 view .LVU2455
 7995 0006 0122     		movs	r2, #1
 7996 0008 FF21     		movs	r1, #255
 7997              	.LVL906:
 7998              		.loc 1 2967 11 view .LVU2456
 7999 000a FFF7FEFF 		bl	VL53L0X_WrByte
 8000              	.LVL907:
 8001              		.loc 1 2967 11 view .LVU2457
 8002 000e 0446     		mov	r4, r0
 8003              	.LVL908:
2968:Core/Src/vl53l0x_api.c **** 	Status |= VL53L0X_WrByte(Dev, 0x42, Byte);
 8004              		.loc 1 2968 2 is_stmt 1 view .LVU2458
 8005              		.loc 1 2968 12 is_stmt 0 view .LVU2459
 8006 0010 3246     		mov	r2, r6
 8007 0012 4221     		movs	r1, #66
 8008 0014 2846     		mov	r0, r5
 8009 0016 FFF7FEFF 		bl	VL53L0X_WrByte
 8010              	.LVL909:
 8011              		.loc 1 2968 9 view .LVU2460
 8012 001a 0443     		orrs	r4, r4, r0
 8013              	.LVL910:
 8014              		.loc 1 2968 9 view .LVU2461
 8015 001c 64B2     		sxtb	r4, r4
 8016              	.LVL911:
2969:Core/Src/vl53l0x_api.c **** 	Status |= VL53L0X_WrByte(Dev, 0xFF, 0x00);
 8017              		.loc 1 2969 2 is_stmt 1 view .LVU2462
 8018              		.loc 1 2969 12 is_stmt 0 view .LVU2463
 8019 001e 0022     		movs	r2, #0
 8020 0020 FF21     		movs	r1, #255
 8021 0022 2846     		mov	r0, r5
 8022 0024 FFF7FEFF 		bl	VL53L0X_WrByte
 8023              	.LVL912:
 8024              		.loc 1 2969 9 view .LVU2464
 8025 0028 2043     		orrs	r0, r0, r4
 8026              	.LVL913:
2970:Core/Src/vl53l0x_api.c **** 
2971:Core/Src/vl53l0x_api.c **** 	LOG_FUNCTION_END(Status);
 8027              		.loc 1 2971 2 is_stmt 1 view .LVU2465
2972:Core/Src/vl53l0x_api.c **** 	return Status;
 8028              		.loc 1 2972 2 view .LVU2466
2973:Core/Src/vl53l0x_api.c **** }
 8029              		.loc 1 2973 1 is_stmt 0 view .LVU2467
 8030 002a 40B2     		sxtb	r0, r0
 8031              		.loc 1 2973 1 view .LVU2468
ARM GAS  C:\Users\anmh1\AppData\Local\Temp\ccBPLcM2.s 			page 211


 8032 002c 70BD     		pop	{r4, r5, r6, pc}
 8033              		.loc 1 2973 1 view .LVU2469
 8034              		.cfi_endproc
 8035              	.LFE227:
 8037              		.section	.text.VL53L0X_GetSpadAmbientDamperFactor,"ax",%progbits
 8038              		.align	1
 8039              		.global	VL53L0X_GetSpadAmbientDamperFactor
 8040              		.syntax unified
 8041              		.thumb
 8042              		.thumb_func
 8043              		.fpu fpv4-sp-d16
 8045              	VL53L0X_GetSpadAmbientDamperFactor:
 8046              	.LVL914:
 8047              	.LFB228:
2974:Core/Src/vl53l0x_api.c **** 
2975:Core/Src/vl53l0x_api.c **** VL53L0X_Error VL53L0X_GetSpadAmbientDamperFactor(VL53L0X_DEV Dev,
2976:Core/Src/vl53l0x_api.c **** 	uint16_t *pSpadAmbientDamperFactor)
2977:Core/Src/vl53l0x_api.c **** {
 8048              		.loc 1 2977 1 is_stmt 1 view -0
 8049              		.cfi_startproc
 8050              		@ args = 0, pretend = 0, frame = 8
 8051              		@ frame_needed = 0, uses_anonymous_args = 0
 8052              		.loc 1 2977 1 is_stmt 0 view .LVU2471
 8053 0000 70B5     		push	{r4, r5, r6, lr}
 8054              		.cfi_def_cfa_offset 16
 8055              		.cfi_offset 4, -16
 8056              		.cfi_offset 5, -12
 8057              		.cfi_offset 6, -8
 8058              		.cfi_offset 14, -4
 8059 0002 82B0     		sub	sp, sp, #8
 8060              		.cfi_def_cfa_offset 24
 8061 0004 0546     		mov	r5, r0
 8062 0006 0E46     		mov	r6, r1
2978:Core/Src/vl53l0x_api.c **** 	VL53L0X_Error Status = VL53L0X_ERROR_NONE;
 8063              		.loc 1 2978 2 is_stmt 1 view .LVU2472
 8064              	.LVL915:
2979:Core/Src/vl53l0x_api.c **** 	uint8_t Byte;
 8065              		.loc 1 2979 2 view .LVU2473
2980:Core/Src/vl53l0x_api.c **** 	LOG_FUNCTION_START("");
 8066              		.loc 1 2980 2 view .LVU2474
2981:Core/Src/vl53l0x_api.c **** 
2982:Core/Src/vl53l0x_api.c **** 	Status = VL53L0X_WrByte(Dev, 0xFF, 0x01);
 8067              		.loc 1 2982 2 view .LVU2475
 8068              		.loc 1 2982 11 is_stmt 0 view .LVU2476
 8069 0008 0122     		movs	r2, #1
 8070 000a FF21     		movs	r1, #255
 8071              	.LVL916:
 8072              		.loc 1 2982 11 view .LVU2477
 8073 000c FFF7FEFF 		bl	VL53L0X_WrByte
 8074              	.LVL917:
 8075              		.loc 1 2982 11 view .LVU2478
 8076 0010 0446     		mov	r4, r0
 8077              	.LVL918:
2983:Core/Src/vl53l0x_api.c **** 	Status |= VL53L0X_RdByte(Dev, 0x42, &Byte);
 8078              		.loc 1 2983 2 is_stmt 1 view .LVU2479
 8079              		.loc 1 2983 12 is_stmt 0 view .LVU2480
 8080 0012 0DF10702 		add	r2, sp, #7
ARM GAS  C:\Users\anmh1\AppData\Local\Temp\ccBPLcM2.s 			page 212


 8081 0016 4221     		movs	r1, #66
 8082 0018 2846     		mov	r0, r5
 8083 001a FFF7FEFF 		bl	VL53L0X_RdByte
 8084              	.LVL919:
 8085              		.loc 1 2983 9 view .LVU2481
 8086 001e 0443     		orrs	r4, r4, r0
 8087              	.LVL920:
 8088              		.loc 1 2983 9 view .LVU2482
 8089 0020 64B2     		sxtb	r4, r4
 8090              	.LVL921:
2984:Core/Src/vl53l0x_api.c **** 	Status |= VL53L0X_WrByte(Dev, 0xFF, 0x00);
 8091              		.loc 1 2984 2 is_stmt 1 view .LVU2483
 8092              		.loc 1 2984 12 is_stmt 0 view .LVU2484
 8093 0022 0022     		movs	r2, #0
 8094 0024 FF21     		movs	r1, #255
 8095 0026 2846     		mov	r0, r5
 8096 0028 FFF7FEFF 		bl	VL53L0X_WrByte
 8097              	.LVL922:
 8098              		.loc 1 2984 9 view .LVU2485
 8099 002c 2043     		orrs	r0, r0, r4
 8100              	.LVL923:
2985:Core/Src/vl53l0x_api.c **** 	*pSpadAmbientDamperFactor = (uint16_t)Byte;
 8101              		.loc 1 2985 2 is_stmt 1 view .LVU2486
 8102              		.loc 1 2985 30 is_stmt 0 view .LVU2487
 8103 002e 9DF80730 		ldrb	r3, [sp, #7]	@ zero_extendqisi2
 8104              		.loc 1 2985 28 view .LVU2488
 8105 0032 3380     		strh	r3, [r6]	@ movhi
2986:Core/Src/vl53l0x_api.c **** 
2987:Core/Src/vl53l0x_api.c **** 	LOG_FUNCTION_END(Status);
 8106              		.loc 1 2987 2 is_stmt 1 view .LVU2489
2988:Core/Src/vl53l0x_api.c **** 	return Status;
 8107              		.loc 1 2988 2 view .LVU2490
2989:Core/Src/vl53l0x_api.c **** }
 8108              		.loc 1 2989 1 is_stmt 0 view .LVU2491
 8109 0034 40B2     		sxtb	r0, r0
 8110              		.loc 1 2989 1 view .LVU2492
 8111 0036 02B0     		add	sp, sp, #8
 8112              		.cfi_def_cfa_offset 16
 8113              		@ sp needed
 8114 0038 70BD     		pop	{r4, r5, r6, pc}
 8115              		.loc 1 2989 1 view .LVU2493
 8116              		.cfi_endproc
 8117              	.LFE228:
 8119              		.section	.text.VL53L0X_SetReferenceSpads,"ax",%progbits
 8120              		.align	1
 8121              		.global	VL53L0X_SetReferenceSpads
 8122              		.syntax unified
 8123              		.thumb
 8124              		.thumb_func
 8125              		.fpu fpv4-sp-d16
 8127              	VL53L0X_SetReferenceSpads:
 8128              	.LVL924:
 8129              	.LFB229:
2990:Core/Src/vl53l0x_api.c **** 
2991:Core/Src/vl53l0x_api.c **** /* END Group SPAD functions */
2992:Core/Src/vl53l0x_api.c **** 
2993:Core/Src/vl53l0x_api.c **** /*****************************************************************************
ARM GAS  C:\Users\anmh1\AppData\Local\Temp\ccBPLcM2.s 			page 213


2994:Core/Src/vl53l0x_api.c ****  * Internal functions
2995:Core/Src/vl53l0x_api.c ****  *****************************************************************************/
2996:Core/Src/vl53l0x_api.c **** 
2997:Core/Src/vl53l0x_api.c **** VL53L0X_Error VL53L0X_SetReferenceSpads(VL53L0X_DEV Dev, uint32_t count,
2998:Core/Src/vl53l0x_api.c **** 	uint8_t isApertureSpads)
2999:Core/Src/vl53l0x_api.c **** {
 8130              		.loc 1 2999 1 is_stmt 1 view -0
 8131              		.cfi_startproc
 8132              		@ args = 0, pretend = 0, frame = 0
 8133              		@ frame_needed = 0, uses_anonymous_args = 0
 8134              		.loc 1 2999 1 is_stmt 0 view .LVU2495
 8135 0000 08B5     		push	{r3, lr}
 8136              		.cfi_def_cfa_offset 8
 8137              		.cfi_offset 3, -8
 8138              		.cfi_offset 14, -4
3000:Core/Src/vl53l0x_api.c **** 	VL53L0X_Error Status = VL53L0X_ERROR_NONE;
 8139              		.loc 1 3000 2 is_stmt 1 view .LVU2496
 8140              	.LVL925:
3001:Core/Src/vl53l0x_api.c **** 	LOG_FUNCTION_START("");
 8141              		.loc 1 3001 2 view .LVU2497
3002:Core/Src/vl53l0x_api.c **** 
3003:Core/Src/vl53l0x_api.c **** 	Status = VL53L0X_set_reference_spads(Dev, count, isApertureSpads);
 8142              		.loc 1 3003 2 view .LVU2498
 8143              		.loc 1 3003 11 is_stmt 0 view .LVU2499
 8144 0002 FFF7FEFF 		bl	VL53L0X_set_reference_spads
 8145              	.LVL926:
3004:Core/Src/vl53l0x_api.c **** 
3005:Core/Src/vl53l0x_api.c **** 	LOG_FUNCTION_END(Status);
 8146              		.loc 1 3005 2 is_stmt 1 view .LVU2500
3006:Core/Src/vl53l0x_api.c **** 
3007:Core/Src/vl53l0x_api.c **** 	return Status;
 8147              		.loc 1 3007 2 view .LVU2501
3008:Core/Src/vl53l0x_api.c **** }
 8148              		.loc 1 3008 1 is_stmt 0 view .LVU2502
 8149 0006 08BD     		pop	{r3, pc}
 8150              		.cfi_endproc
 8151              	.LFE229:
 8153              		.section	.text.VL53L0X_GetReferenceSpads,"ax",%progbits
 8154              		.align	1
 8155              		.global	VL53L0X_GetReferenceSpads
 8156              		.syntax unified
 8157              		.thumb
 8158              		.thumb_func
 8159              		.fpu fpv4-sp-d16
 8161              	VL53L0X_GetReferenceSpads:
 8162              	.LVL927:
 8163              	.LFB230:
3009:Core/Src/vl53l0x_api.c **** 
3010:Core/Src/vl53l0x_api.c **** VL53L0X_Error VL53L0X_GetReferenceSpads(VL53L0X_DEV Dev, uint32_t *pSpadCount,
3011:Core/Src/vl53l0x_api.c **** 	uint8_t *pIsApertureSpads)
3012:Core/Src/vl53l0x_api.c **** {
 8164              		.loc 1 3012 1 is_stmt 1 view -0
 8165              		.cfi_startproc
 8166              		@ args = 0, pretend = 0, frame = 0
 8167              		@ frame_needed = 0, uses_anonymous_args = 0
 8168              		.loc 1 3012 1 is_stmt 0 view .LVU2504
 8169 0000 08B5     		push	{r3, lr}
ARM GAS  C:\Users\anmh1\AppData\Local\Temp\ccBPLcM2.s 			page 214


 8170              		.cfi_def_cfa_offset 8
 8171              		.cfi_offset 3, -8
 8172              		.cfi_offset 14, -4
3013:Core/Src/vl53l0x_api.c **** 	VL53L0X_Error Status = VL53L0X_ERROR_NONE;
 8173              		.loc 1 3013 2 is_stmt 1 view .LVU2505
 8174              	.LVL928:
3014:Core/Src/vl53l0x_api.c **** 	LOG_FUNCTION_START("");
 8175              		.loc 1 3014 2 view .LVU2506
3015:Core/Src/vl53l0x_api.c **** 
3016:Core/Src/vl53l0x_api.c **** 	Status = VL53L0X_get_reference_spads(Dev, pSpadCount, pIsApertureSpads);
 8176              		.loc 1 3016 2 view .LVU2507
 8177              		.loc 1 3016 11 is_stmt 0 view .LVU2508
 8178 0002 FFF7FEFF 		bl	VL53L0X_get_reference_spads
 8179              	.LVL929:
3017:Core/Src/vl53l0x_api.c **** 
3018:Core/Src/vl53l0x_api.c **** 	LOG_FUNCTION_END(Status);
 8180              		.loc 1 3018 2 is_stmt 1 view .LVU2509
3019:Core/Src/vl53l0x_api.c **** 
3020:Core/Src/vl53l0x_api.c **** 	return Status;
 8181              		.loc 1 3020 2 view .LVU2510
3021:Core/Src/vl53l0x_api.c **** }
 8182              		.loc 1 3021 1 is_stmt 0 view .LVU2511
 8183 0006 08BD     		pop	{r3, pc}
 8184              		.cfi_endproc
 8185              	.LFE230:
 8187              		.section	.text.VL53L0X_PerformRefSpadManagement,"ax",%progbits
 8188              		.align	1
 8189              		.global	VL53L0X_PerformRefSpadManagement
 8190              		.syntax unified
 8191              		.thumb
 8192              		.thumb_func
 8193              		.fpu fpv4-sp-d16
 8195              	VL53L0X_PerformRefSpadManagement:
 8196              	.LVL930:
 8197              	.LFB231:
3022:Core/Src/vl53l0x_api.c **** 
3023:Core/Src/vl53l0x_api.c **** VL53L0X_Error VL53L0X_PerformRefSpadManagement(VL53L0X_DEV Dev,
3024:Core/Src/vl53l0x_api.c **** 	uint32_t *refSpadCount, uint8_t *isApertureSpads)
3025:Core/Src/vl53l0x_api.c **** {
 8198              		.loc 1 3025 1 is_stmt 1 view -0
 8199              		.cfi_startproc
 8200              		@ args = 0, pretend = 0, frame = 0
 8201              		@ frame_needed = 0, uses_anonymous_args = 0
 8202              		.loc 1 3025 1 is_stmt 0 view .LVU2513
 8203 0000 08B5     		push	{r3, lr}
 8204              		.cfi_def_cfa_offset 8
 8205              		.cfi_offset 3, -8
 8206              		.cfi_offset 14, -4
3026:Core/Src/vl53l0x_api.c **** 	VL53L0X_Error Status = VL53L0X_ERROR_NONE;
 8207              		.loc 1 3026 2 is_stmt 1 view .LVU2514
 8208              	.LVL931:
3027:Core/Src/vl53l0x_api.c **** 	LOG_FUNCTION_START("");
 8209              		.loc 1 3027 2 view .LVU2515
3028:Core/Src/vl53l0x_api.c **** 
3029:Core/Src/vl53l0x_api.c **** 	Status = VL53L0X_perform_ref_spad_management(Dev, refSpadCount,
 8210              		.loc 1 3029 2 view .LVU2516
 8211              		.loc 1 3029 11 is_stmt 0 view .LVU2517
ARM GAS  C:\Users\anmh1\AppData\Local\Temp\ccBPLcM2.s 			page 215


 8212 0002 FFF7FEFF 		bl	VL53L0X_perform_ref_spad_management
 8213              	.LVL932:
3030:Core/Src/vl53l0x_api.c **** 		isApertureSpads);
3031:Core/Src/vl53l0x_api.c **** 
3032:Core/Src/vl53l0x_api.c **** 	LOG_FUNCTION_END(Status);
 8214              		.loc 1 3032 2 is_stmt 1 view .LVU2518
3033:Core/Src/vl53l0x_api.c **** 
3034:Core/Src/vl53l0x_api.c **** 	return Status;
 8215              		.loc 1 3034 2 view .LVU2519
3035:Core/Src/vl53l0x_api.c **** }
 8216              		.loc 1 3035 1 is_stmt 0 view .LVU2520
 8217 0006 08BD     		pop	{r3, pc}
 8218              		.cfi_endproc
 8219              	.LFE231:
 8221              		.global	InterruptThresholdSettings
 8222              		.global	DefaultTuningSettings
 8223              		.section	.data.DefaultTuningSettings,"aw"
 8224              		.align	2
 8225              		.set	.LANCHOR1,. + 0
 8228              	DefaultTuningSettings:
 8229 0000 01FF0101 		.ascii	"\001\377\001\001\000\000\001\377\000\001\011\000\001"
 8229      000001FF 
 8229      00010900 
 8229      01
 8230 000d 10000111 		.ascii	"\020\000\001\021\000\001$\001\001%\377\001u\000\001"
 8230      00012401 
 8230      0125FF01 
 8230      750001
 8231 001c FF01014E 		.ascii	"\377\001\001N,\001H\000\0010 \001\377\000\0010\011\001"
 8231      2C014800 
 8231      01302001 
 8231      FF000130 
 8231      0901
 8232 002e 54000131 		.ascii	"T\000\0011\004\0012\003\001@\203\001F%\001`\000\001"
 8232      04013203 
 8232      01408301 
 8232      46250160 
 8232      0001
 8233 0040 27000150 		.ascii	"'\000\001P\006\001Q\000\001R\226\001V\010\001W0\001"
 8233      06015100 
 8233      01529601 
 8233      56080157 
 8233      3001
 8234 0052 61000162 		.ascii	"a\000\001b\000\001d\000\001e\000\001f\240\001\377\001"
 8234      00016400 
 8234      01650001 
 8234      66A001FF 
 8234      01
 8235 0063 01223201 		.ascii	"\001\"2\001G\024\001I\377\001J\000\001\377\000\001z"
 8235      47140149 
 8235      FF014A00 
 8235      01FF0001 
 8235      7A
 8236 0074 0A017B00 		.ascii	"\012\001{\000\001x!\001\377\001\001#4\001B\000\001D"
 8236      01782101 
 8236      FF010123 
 8236      34014200 
ARM GAS  C:\Users\anmh1\AppData\Local\Temp\ccBPLcM2.s 			page 216


 8236      0144
 8237 0086 FF014526 		.ascii	"\377\001E&\001F\005\001@@\001\016\006\001 \032\001C"
 8237      01460501 
 8237      4040010E 
 8237      0601201A 
 8237      0143
 8238 0098 4001FF00 		.ascii	"@\001\377\000\0014\003\0015D\001\377\001\0011\004\001"
 8238      01340301 
 8238      354401FF 
 8238      01013104 
 8238      01
 8239 00a9 4B09014C 		.ascii	"K\011\001L\005\001M\004\001\377\000\001D\000\001E \001"
 8239      05014D04 
 8239      01FF0001 
 8239      44000145 
 8239      2001
 8240 00bb 47080148 		.ascii	"G\010\001H(\001g\000\001p\004\001q\001\001r\376\001"
 8240      28016700 
 8240      01700401 
 8240      71010172 
 8240      FE01
 8241 00cd 76000177 		.ascii	"v\000\001w\000\001\377\001\001\015\001\001\377\000\001"
 8241      0001FF01 
 8241      010D0101 
 8241      FF0001
 8242 00dc 80010101 		.ascii	"\200\001\001\001\370\001\377\001\001\216\001\001\000"
 8242      F801FF01 
 8242      018E0101 
 8242      00
 8243 00e9 0101FF00 		.ascii	"\001\001\377\000\001\200\000\000\000\000"
 8243      01800000 
 8243      0000
 8244              		.section	.data.InterruptThresholdSettings,"aw"
 8245              		.align	2
 8246              		.set	.LANCHOR0,. + 0
 8249              	InterruptThresholdSettings:
 8250 0000 01FF0001 		.ascii	"\001\377\000\001\200\001\001\377\001\001\000\000\001"
 8250      800101FF 
 8250      01010000 
 8250      01
 8251 000d FF01014F 		.ascii	"\377\001\001O\002\001\377\016\001\000\003\001\001\204"
 8251      0201FF0E 
 8251      01000301 
 8251      0184
 8252 001b 01020A01 		.ascii	"\001\002\012\001\003\003\001\004\010\001\005\310\001"
 8252      03030104 
 8252      080105C8 
 8252      01
 8253 0028 06030107 		.ascii	"\006\003\001\007\215\001\010\010\001\011\306\001\012"
 8253      8D010808 
 8253      0109C601 
 8253      0A
 8254 0035 01010B02 		.ascii	"\001\001\013\002\001\014\000\001\015\325\001\016\030"
 8254      010C0001 
 8254      0DD5010E 
 8254      18
 8255 0042 010F1201 		.ascii	"\001\017\022\001\020\001\001\021\202\001\022\000\001"
ARM GAS  C:\Users\anmh1\AppData\Local\Temp\ccBPLcM2.s 			page 217


 8255      10010111 
 8255      82011200 
 8255      01
 8256 004f 13D50114 		.ascii	"\023\325\001\024\030\001\025\023\001\026\003\001\027"
 8256      18011513 
 8256      01160301 
 8256      17
 8257 005c 8601180A 		.ascii	"\206\001\030\012\001\031\011\001\032\010\001\033\302"
 8257      01190901 
 8257      1A08011B 
 8257      C2
 8258 0069 011C0301 		.ascii	"\001\034\003\001\035\217\001\036\012\001\037\006\001"
 8258      1D8F011E 
 8258      0A011F06 
 8258      01
 8259 0076 20010121 		.ascii	" \001\001!\002\001\"\000\001#\325\001$\030\001%\"\001"
 8259      02012200 
 8259      0123D501 
 8259      24180125 
 8259      2201
 8260 0088 26010127 		.ascii	"&\001\001'\202\001(\000\001)\325\001*\030\001+\013\001"
 8260      82012800 
 8260      0129D501 
 8260      2A18012B 
 8260      0B01
 8261 009a 2C28012D 		.ascii	",(\001-x\001.(\001/\221\0010\000\0011\013\0012\000\001"
 8261      78012E28 
 8261      012F9101 
 8261      30000131 
 8261      0B013200 
 8262 00af 330B0134 		.ascii	"3\013\0014\000\0015\241\0016\000\0017\240\0018\000\001"
 8262      000135A1 
 8262      01360001 
 8262      37A00138 
 8262      0001
 8263 00c1 3904013A 		.ascii	"9\004\001:(\001;0\001<\014\001=\004\001>\017\001?y\001"
 8263      28013B30 
 8263      013C0C01 
 8263      3D04013E 
 8263      0F013F79 
 8264 00d6 40280141 		.ascii	"@(\001A\036\001B/\001C\207\001D\000\001E\013\001F\000"
 8264      1E01422F 
 8264      01438701 
 8264      44000145 
 8264      0B014600 
 8265 00ea 01470B01 		.ascii	"\001G\013\001H\000\001I\247\001J\000\001K\246\001L\000"
 8265      48000149 
 8265      A7014A00 
 8265      014BA601 
 8265      4C00
 8266 00fc 014D0401 		.ascii	"\001M\004\001N\001\001O\000\001P\000\001Q\200\001R\011"
 8266      4E01014F 
 8266      00015000 
 8266      01518001 
 8266      5209
 8267 010e 01530801 		.ascii	"\001S\010\001T\001\001U\000\001V\017\001Wy\001X\011"
 8267      54010155 
ARM GAS  C:\Users\anmh1\AppData\Local\Temp\ccBPLcM2.s 			page 218


 8267      0001560F 
 8267      01577901 
 8267      5809
 8268 0120 01590501 		.ascii	"\001Y\005\001Z\000\001[`\001\\\005\001]\321\001^\014"
 8268      5A00015B 
 8268      60015C05 
 8268      015DD101 
 8268      5E0C
 8269 0132 015F3C01 		.ascii	"\001_<\001`\000\001a\320\001b\013\001c\003\001d(\001"
 8269      60000161 
 8269      D001620B 
 8269      01630301 
 8269      642801
 8270 0145 65100166 		.ascii	"e\020\001f*\001g9\001h\013\001i\002\001j(\001k\020\001"
 8270      2A016739 
 8270      01680B01 
 8270      6902016A 
 8270      28016B10 
 8271 015a 6C2A016D 		.ascii	"l*\001ma\001n\014\001o\000\001p\017\001qy\001r\000\001"
 8271      61016E0C 
 8271      016F0001 
 8271      700F0171 
 8271      79017200 
 8272 016f 730B0174 		.ascii	"s\013\001t\000\001u\013\001v\000\001w\241\001x\000\001"
 8272      0001750B 
 8272      01760001 
 8272      77A10178 
 8272      0001
 8273 0181 79A0017A 		.ascii	"y\240\001z\000\001{\004\001\377\004\001y\035\001{'\001"
 8273      00017B04 
 8273      01FF0401 
 8273      791D017B 
 8273      2701
 8274 0193 960E0197 		.ascii	"\226\016\001\227\376\001\230\003\001\231\357\001\232"
 8274      FE019803 
 8274      0199EF01 
 8274      9A
 8275 01a0 02019B44 		.ascii	"\002\001\233D\001s\007\001p\001\001\377\001\001\000"
 8275      01730701 
 8275      700101FF 
 8275      010100
 8276 01af 0101FF00 		.ascii	"\001\001\377\000\000\000\000"
 8276      000000
 8277              		.text
 8278              	.Letext0:
 8279              		.file 2 "c:\\make\\test\\gcc-arm-none-eabi-9-2019-q4-major-win32\\arm-none-eabi\\include\\machine\
 8280              		.file 3 "c:\\make\\test\\gcc-arm-none-eabi-9-2019-q4-major-win32\\arm-none-eabi\\include\\sys\\_st
 8281              		.file 4 "Core/Inc/vl53l0x_types.h"
 8282              		.file 5 "Core/Inc/vl53l0x_device.h"
 8283              		.file 6 "Core/Inc/vl53l0x_def.h"
 8284              		.file 7 "c:\\make\\test\\gcc-arm-none-eabi-9-2019-q4-major-win32\\arm-none-eabi\\include\\sys\\loc
 8285              		.file 8 "c:\\make\\test\\gcc-arm-none-eabi-9-2019-q4-major-win32\\arm-none-eabi\\include\\sys\\_ty
 8286              		.file 9 "c:\\make\\test\\gcc-arm-none-eabi-9-2019-q4-major-win32\\lib\\gcc\\arm-none-eabi\\9.2.1\\
 8287              		.file 10 "c:\\make\\test\\gcc-arm-none-eabi-9-2019-q4-major-win32\\arm-none-eabi\\include\\sys\\re
 8288              		.file 11 "Drivers/CMSIS/Include/core_cm4.h"
 8289              		.file 12 "Drivers/CMSIS/Device/ST/STM32F4xx/Include/system_stm32f4xx.h"
 8290              		.file 13 "Drivers/CMSIS/Device/ST/STM32F4xx/Include/stm32f407xx.h"
ARM GAS  C:\Users\anmh1\AppData\Local\Temp\ccBPLcM2.s 			page 219


 8291              		.file 14 "Drivers/STM32F4xx_HAL_Driver/Inc/stm32f4xx_hal_def.h"
 8292              		.file 15 "Drivers/STM32F4xx_HAL_Driver/Inc/stm32f4xx_hal_dma.h"
 8293              		.file 16 "Drivers/STM32F4xx_HAL_Driver/Inc/stm32f4xx_hal_i2c.h"
 8294              		.file 17 "Drivers/STM32F4xx_HAL_Driver/Inc/stm32f4xx_hal.h"
 8295              		.file 18 "Core/Inc/vl53l0x_platform.h"
 8296              		.file 19 "Core/Inc/vl53l0x_tuning.h"
 8297              		.file 20 "Core/Inc/vl53l0x_interrupt_threshold_settings.h"
 8298              		.file 21 "c:\\make\\test\\gcc-arm-none-eabi-9-2019-q4-major-win32\\arm-none-eabi\\include\\stdlib.
 8299              		.file 22 "Core/Inc/vl53l0x_api_calibration.h"
 8300              		.file 23 "Core/Inc/vl53l0x_api_core.h"
 8301              		.file 24 "Core/Inc/vl53l0x_api_strings.h"
 8302              		.file 25 "<built-in>"
ARM GAS  C:\Users\anmh1\AppData\Local\Temp\ccBPLcM2.s 			page 220


DEFINED SYMBOLS
                            *ABS*:00000000 vl53l0x_api.c
C:\Users\anmh1\AppData\Local\Temp\ccBPLcM2.s:18     .text.VL53L0X_GetVersion:00000000 $t
C:\Users\anmh1\AppData\Local\Temp\ccBPLcM2.s:26     .text.VL53L0X_GetVersion:00000000 VL53L0X_GetVersion
C:\Users\anmh1\AppData\Local\Temp\ccBPLcM2.s:66     .text.VL53L0X_GetPalSpecVersion:00000000 $t
C:\Users\anmh1\AppData\Local\Temp\ccBPLcM2.s:73     .text.VL53L0X_GetPalSpecVersion:00000000 VL53L0X_GetPalSpecVersion
C:\Users\anmh1\AppData\Local\Temp\ccBPLcM2.s:110    .text.VL53L0X_GetProductRevision:00000000 $t
C:\Users\anmh1\AppData\Local\Temp\ccBPLcM2.s:117    .text.VL53L0X_GetProductRevision:00000000 VL53L0X_GetProductRevision
C:\Users\anmh1\AppData\Local\Temp\ccBPLcM2.s:170    .text.VL53L0X_GetDeviceInfo:00000000 $t
C:\Users\anmh1\AppData\Local\Temp\ccBPLcM2.s:177    .text.VL53L0X_GetDeviceInfo:00000000 VL53L0X_GetDeviceInfo
C:\Users\anmh1\AppData\Local\Temp\ccBPLcM2.s:204    .text.VL53L0X_GetDeviceErrorStatus:00000000 $t
C:\Users\anmh1\AppData\Local\Temp\ccBPLcM2.s:211    .text.VL53L0X_GetDeviceErrorStatus:00000000 VL53L0X_GetDeviceErrorStatus
C:\Users\anmh1\AppData\Local\Temp\ccBPLcM2.s:257    .text.VL53L0X_GetDeviceErrorString:00000000 $t
C:\Users\anmh1\AppData\Local\Temp\ccBPLcM2.s:264    .text.VL53L0X_GetDeviceErrorString:00000000 VL53L0X_GetDeviceErrorString
C:\Users\anmh1\AppData\Local\Temp\ccBPLcM2.s:291    .text.VL53L0X_GetRangeStatusString:00000000 $t
C:\Users\anmh1\AppData\Local\Temp\ccBPLcM2.s:298    .text.VL53L0X_GetRangeStatusString:00000000 VL53L0X_GetRangeStatusString
C:\Users\anmh1\AppData\Local\Temp\ccBPLcM2.s:325    .text.VL53L0X_GetPalErrorString:00000000 $t
C:\Users\anmh1\AppData\Local\Temp\ccBPLcM2.s:332    .text.VL53L0X_GetPalErrorString:00000000 VL53L0X_GetPalErrorString
C:\Users\anmh1\AppData\Local\Temp\ccBPLcM2.s:359    .text.VL53L0X_GetPalStateString:00000000 $t
C:\Users\anmh1\AppData\Local\Temp\ccBPLcM2.s:366    .text.VL53L0X_GetPalStateString:00000000 VL53L0X_GetPalStateString
C:\Users\anmh1\AppData\Local\Temp\ccBPLcM2.s:393    .text.VL53L0X_GetPalState:00000000 $t
C:\Users\anmh1\AppData\Local\Temp\ccBPLcM2.s:400    .text.VL53L0X_GetPalState:00000000 VL53L0X_GetPalState
C:\Users\anmh1\AppData\Local\Temp\ccBPLcM2.s:426    .text.VL53L0X_GetPowerMode:00000000 $t
C:\Users\anmh1\AppData\Local\Temp\ccBPLcM2.s:433    .text.VL53L0X_GetPowerMode:00000000 VL53L0X_GetPowerMode
C:\Users\anmh1\AppData\Local\Temp\ccBPLcM2.s:492    .text.VL53L0X_SetOffsetCalibrationDataMicroMeter:00000000 $t
C:\Users\anmh1\AppData\Local\Temp\ccBPLcM2.s:499    .text.VL53L0X_SetOffsetCalibrationDataMicroMeter:00000000 VL53L0X_SetOffsetCalibrationDataMicroMeter
C:\Users\anmh1\AppData\Local\Temp\ccBPLcM2.s:526    .text.VL53L0X_GetOffsetCalibrationDataMicroMeter:00000000 $t
C:\Users\anmh1\AppData\Local\Temp\ccBPLcM2.s:533    .text.VL53L0X_GetOffsetCalibrationDataMicroMeter:00000000 VL53L0X_GetOffsetCalibrationDataMicroMeter
C:\Users\anmh1\AppData\Local\Temp\ccBPLcM2.s:560    .text.VL53L0X_SetLinearityCorrectiveGain:00000000 $t
C:\Users\anmh1\AppData\Local\Temp\ccBPLcM2.s:567    .text.VL53L0X_SetLinearityCorrectiveGain:00000000 VL53L0X_SetLinearityCorrectiveGain
C:\Users\anmh1\AppData\Local\Temp\ccBPLcM2.s:625    .text.VL53L0X_GetLinearityCorrectiveGain:00000000 $t
C:\Users\anmh1\AppData\Local\Temp\ccBPLcM2.s:632    .text.VL53L0X_GetLinearityCorrectiveGain:00000000 VL53L0X_GetLinearityCorrectiveGain
C:\Users\anmh1\AppData\Local\Temp\ccBPLcM2.s:658    .text.VL53L0X_SetGroupParamHold:00000000 $t
C:\Users\anmh1\AppData\Local\Temp\ccBPLcM2.s:665    .text.VL53L0X_SetGroupParamHold:00000000 VL53L0X_SetGroupParamHold
C:\Users\anmh1\AppData\Local\Temp\ccBPLcM2.s:686    .text.VL53L0X_GetUpperLimitMilliMeter:00000000 $t
C:\Users\anmh1\AppData\Local\Temp\ccBPLcM2.s:693    .text.VL53L0X_GetUpperLimitMilliMeter:00000000 VL53L0X_GetUpperLimitMilliMeter
C:\Users\anmh1\AppData\Local\Temp\ccBPLcM2.s:714    .text.VL53L0X_GetTotalSignalRate:00000000 $t
C:\Users\anmh1\AppData\Local\Temp\ccBPLcM2.s:721    .text.VL53L0X_GetTotalSignalRate:00000000 VL53L0X_GetTotalSignalRate
C:\Users\anmh1\AppData\Local\Temp\ccBPLcM2.s:773    .text.VL53L0X_SetDeviceAddress:00000000 $t
C:\Users\anmh1\AppData\Local\Temp\ccBPLcM2.s:780    .text.VL53L0X_SetDeviceAddress:00000000 VL53L0X_SetDeviceAddress
C:\Users\anmh1\AppData\Local\Temp\ccBPLcM2.s:811    .text.VL53L0X_SetTuningSettingBuffer:00000000 $t
C:\Users\anmh1\AppData\Local\Temp\ccBPLcM2.s:818    .text.VL53L0X_SetTuningSettingBuffer:00000000 VL53L0X_SetTuningSettingBuffer
C:\Users\anmh1\AppData\Local\Temp\ccBPLcM2.s:870    .text.VL53L0X_GetTuningSettingBuffer:00000000 $t
C:\Users\anmh1\AppData\Local\Temp\ccBPLcM2.s:877    .text.VL53L0X_GetTuningSettingBuffer:00000000 VL53L0X_GetTuningSettingBuffer
C:\Users\anmh1\AppData\Local\Temp\ccBPLcM2.s:908    .text.VL53L0X_WaitDeviceBooted:00000000 $t
C:\Users\anmh1\AppData\Local\Temp\ccBPLcM2.s:915    .text.VL53L0X_WaitDeviceBooted:00000000 VL53L0X_WaitDeviceBooted
C:\Users\anmh1\AppData\Local\Temp\ccBPLcM2.s:936    .text.VL53L0X_ResetDevice:00000000 $t
C:\Users\anmh1\AppData\Local\Temp\ccBPLcM2.s:943    .text.VL53L0X_ResetDevice:00000000 VL53L0X_ResetDevice
C:\Users\anmh1\AppData\Local\Temp\ccBPLcM2.s:1048   .text.VL53L0X_SetDeviceMode:00000000 $t
C:\Users\anmh1\AppData\Local\Temp\ccBPLcM2.s:1055   .text.VL53L0X_SetDeviceMode:00000000 VL53L0X_SetDeviceMode
C:\Users\anmh1\AppData\Local\Temp\ccBPLcM2.s:1100   .text.VL53L0X_SetDeviceMode:00000020 $d
C:\Users\anmh1\AppData\Local\Temp\ccBPLcM2.s:1105   .text.VL53L0X_GetDeviceMode:00000000 $t
C:\Users\anmh1\AppData\Local\Temp\ccBPLcM2.s:1112   .text.VL53L0X_GetDeviceMode:00000000 VL53L0X_GetDeviceMode
C:\Users\anmh1\AppData\Local\Temp\ccBPLcM2.s:1136   .text.VL53L0X_SetRangeFractionEnable:00000000 $t
C:\Users\anmh1\AppData\Local\Temp\ccBPLcM2.s:1143   .text.VL53L0X_SetRangeFractionEnable:00000000 VL53L0X_SetRangeFractionEnable
C:\Users\anmh1\AppData\Local\Temp\ccBPLcM2.s:1185   .text.VL53L0X_GetFractionEnable:00000000 $t
C:\Users\anmh1\AppData\Local\Temp\ccBPLcM2.s:1192   .text.VL53L0X_GetFractionEnable:00000000 VL53L0X_GetFractionEnable
ARM GAS  C:\Users\anmh1\AppData\Local\Temp\ccBPLcM2.s 			page 221


C:\Users\anmh1\AppData\Local\Temp\ccBPLcM2.s:1236   .text.VL53L0X_SetHistogramMode:00000000 $t
C:\Users\anmh1\AppData\Local\Temp\ccBPLcM2.s:1243   .text.VL53L0X_SetHistogramMode:00000000 VL53L0X_SetHistogramMode
C:\Users\anmh1\AppData\Local\Temp\ccBPLcM2.s:1264   .text.VL53L0X_GetHistogramMode:00000000 $t
C:\Users\anmh1\AppData\Local\Temp\ccBPLcM2.s:1271   .text.VL53L0X_GetHistogramMode:00000000 VL53L0X_GetHistogramMode
C:\Users\anmh1\AppData\Local\Temp\ccBPLcM2.s:1292   .text.VL53L0X_SetMeasurementTimingBudgetMicroSeconds:00000000 $t
C:\Users\anmh1\AppData\Local\Temp\ccBPLcM2.s:1299   .text.VL53L0X_SetMeasurementTimingBudgetMicroSeconds:00000000 VL53L0X_SetMeasurementTimingBudgetMicroSeconds
C:\Users\anmh1\AppData\Local\Temp\ccBPLcM2.s:1326   .text.VL53L0X_GetMeasurementTimingBudgetMicroSeconds:00000000 $t
C:\Users\anmh1\AppData\Local\Temp\ccBPLcM2.s:1333   .text.VL53L0X_GetMeasurementTimingBudgetMicroSeconds:00000000 VL53L0X_GetMeasurementTimingBudgetMicroSeconds
C:\Users\anmh1\AppData\Local\Temp\ccBPLcM2.s:1360   .text.VL53L0X_SetVcselPulsePeriod:00000000 $t
C:\Users\anmh1\AppData\Local\Temp\ccBPLcM2.s:1367   .text.VL53L0X_SetVcselPulsePeriod:00000000 VL53L0X_SetVcselPulsePeriod
C:\Users\anmh1\AppData\Local\Temp\ccBPLcM2.s:1394   .text.VL53L0X_GetVcselPulsePeriod:00000000 $t
C:\Users\anmh1\AppData\Local\Temp\ccBPLcM2.s:1401   .text.VL53L0X_GetVcselPulsePeriod:00000000 VL53L0X_GetVcselPulsePeriod
C:\Users\anmh1\AppData\Local\Temp\ccBPLcM2.s:1428   .text.VL53L0X_SetSequenceStepEnable:00000000 $t
C:\Users\anmh1\AppData\Local\Temp\ccBPLcM2.s:1435   .text.VL53L0X_SetSequenceStepEnable:00000000 VL53L0X_SetSequenceStepEnable
C:\Users\anmh1\AppData\Local\Temp\ccBPLcM2.s:1492   .text.VL53L0X_SetSequenceStepEnable:0000002e $d
C:\Users\anmh1\AppData\Local\Temp\ccBPLcM2.s:1504   .text.VL53L0X_SetSequenceStepEnable:0000003c $d
C:\Users\anmh1\AppData\Local\Temp\ccBPLcM2.s:1660   .text.sequence_step_enabled:00000000 $t
C:\Users\anmh1\AppData\Local\Temp\ccBPLcM2.s:1667   .text.sequence_step_enabled:00000000 sequence_step_enabled
C:\Users\anmh1\AppData\Local\Temp\ccBPLcM2.s:1688   .text.sequence_step_enabled:0000000c $d
C:\Users\anmh1\AppData\Local\Temp\ccBPLcM2.s:1771   .text.VL53L0X_GetSequenceStepEnable:00000000 $t
C:\Users\anmh1\AppData\Local\Temp\ccBPLcM2.s:1778   .text.VL53L0X_GetSequenceStepEnable:00000000 VL53L0X_GetSequenceStepEnable
C:\Users\anmh1\AppData\Local\Temp\ccBPLcM2.s:1844   .text.VL53L0X_GetSequenceStepEnables:00000000 $t
C:\Users\anmh1\AppData\Local\Temp\ccBPLcM2.s:1851   .text.VL53L0X_GetSequenceStepEnables:00000000 VL53L0X_GetSequenceStepEnables
C:\Users\anmh1\AppData\Local\Temp\ccBPLcM2.s:1983   .text.VL53L0X_GetNumberOfSequenceSteps:00000000 $t
C:\Users\anmh1\AppData\Local\Temp\ccBPLcM2.s:1990   .text.VL53L0X_GetNumberOfSequenceSteps:00000000 VL53L0X_GetNumberOfSequenceSteps
C:\Users\anmh1\AppData\Local\Temp\ccBPLcM2.s:2015   .text.VL53L0X_GetSequenceStepsInfo:00000000 $t
C:\Users\anmh1\AppData\Local\Temp\ccBPLcM2.s:2022   .text.VL53L0X_GetSequenceStepsInfo:00000000 VL53L0X_GetSequenceStepsInfo
C:\Users\anmh1\AppData\Local\Temp\ccBPLcM2.s:2049   .text.VL53L0X_SetSequenceStepTimeout:00000000 $t
C:\Users\anmh1\AppData\Local\Temp\ccBPLcM2.s:2056   .text.VL53L0X_SetSequenceStepTimeout:00000000 VL53L0X_SetSequenceStepTimeout
C:\Users\anmh1\AppData\Local\Temp\ccBPLcM2.s:2177   .text.VL53L0X_GetSequenceStepTimeout:00000000 $t
C:\Users\anmh1\AppData\Local\Temp\ccBPLcM2.s:2184   .text.VL53L0X_GetSequenceStepTimeout:00000000 VL53L0X_GetSequenceStepTimeout
C:\Users\anmh1\AppData\Local\Temp\ccBPLcM2.s:2241   .text.VL53L0X_GetSequenceStepTimeout:00000028 $d
C:\Users\anmh1\AppData\Local\Temp\ccBPLcM2.s:2246   .text.VL53L0X_SetInterMeasurementPeriodMilliSeconds:00000000 $t
C:\Users\anmh1\AppData\Local\Temp\ccBPLcM2.s:2253   .text.VL53L0X_SetInterMeasurementPeriodMilliSeconds:00000000 VL53L0X_SetInterMeasurementPeriodMilliSeconds
C:\Users\anmh1\AppData\Local\Temp\ccBPLcM2.s:2328   .text.VL53L0X_GetInterMeasurementPeriodMilliSeconds:00000000 $t
C:\Users\anmh1\AppData\Local\Temp\ccBPLcM2.s:2335   .text.VL53L0X_GetInterMeasurementPeriodMilliSeconds:00000000 VL53L0X_GetInterMeasurementPeriodMilliSeconds
C:\Users\anmh1\AppData\Local\Temp\ccBPLcM2.s:2413   .text.VL53L0X_SetXTalkCompensationEnable:00000000 $t
C:\Users\anmh1\AppData\Local\Temp\ccBPLcM2.s:2420   .text.VL53L0X_SetXTalkCompensationEnable:00000000 VL53L0X_SetXTalkCompensationEnable
C:\Users\anmh1\AppData\Local\Temp\ccBPLcM2.s:2502   .text.VL53L0X_GetXTalkCompensationEnable:00000000 $t
C:\Users\anmh1\AppData\Local\Temp\ccBPLcM2.s:2509   .text.VL53L0X_GetXTalkCompensationEnable:00000000 VL53L0X_GetXTalkCompensationEnable
C:\Users\anmh1\AppData\Local\Temp\ccBPLcM2.s:2537   .text.VL53L0X_SetXTalkCompensationRateMegaCps:00000000 $t
C:\Users\anmh1\AppData\Local\Temp\ccBPLcM2.s:2544   .text.VL53L0X_SetXTalkCompensationRateMegaCps:00000000 VL53L0X_SetXTalkCompensationRateMegaCps
C:\Users\anmh1\AppData\Local\Temp\ccBPLcM2.s:2625   .text.VL53L0X_GetXTalkCompensationRateMegaCps:00000000 $t
C:\Users\anmh1\AppData\Local\Temp\ccBPLcM2.s:2632   .text.VL53L0X_GetXTalkCompensationRateMegaCps:00000000 VL53L0X_GetXTalkCompensationRateMegaCps
C:\Users\anmh1\AppData\Local\Temp\ccBPLcM2.s:2713   .text.VL53L0X_SetRefCalibration:00000000 $t
C:\Users\anmh1\AppData\Local\Temp\ccBPLcM2.s:2720   .text.VL53L0X_SetRefCalibration:00000000 VL53L0X_SetRefCalibration
C:\Users\anmh1\AppData\Local\Temp\ccBPLcM2.s:2747   .text.VL53L0X_GetRefCalibration:00000000 $t
C:\Users\anmh1\AppData\Local\Temp\ccBPLcM2.s:2754   .text.VL53L0X_GetRefCalibration:00000000 VL53L0X_GetRefCalibration
C:\Users\anmh1\AppData\Local\Temp\ccBPLcM2.s:2781   .text.VL53L0X_GetNumberOfLimitCheck:00000000 $t
C:\Users\anmh1\AppData\Local\Temp\ccBPLcM2.s:2788   .text.VL53L0X_GetNumberOfLimitCheck:00000000 VL53L0X_GetNumberOfLimitCheck
C:\Users\anmh1\AppData\Local\Temp\ccBPLcM2.s:2813   .text.VL53L0X_GetLimitCheckInfo:00000000 $t
C:\Users\anmh1\AppData\Local\Temp\ccBPLcM2.s:2820   .text.VL53L0X_GetLimitCheckInfo:00000000 VL53L0X_GetLimitCheckInfo
C:\Users\anmh1\AppData\Local\Temp\ccBPLcM2.s:2847   .text.VL53L0X_GetLimitCheckStatus:00000000 $t
C:\Users\anmh1\AppData\Local\Temp\ccBPLcM2.s:2854   .text.VL53L0X_GetLimitCheckStatus:00000000 VL53L0X_GetLimitCheckStatus
C:\Users\anmh1\AppData\Local\Temp\ccBPLcM2.s:2894   .text.VL53L0X_SetLimitCheckEnable:00000000 $t
C:\Users\anmh1\AppData\Local\Temp\ccBPLcM2.s:2901   .text.VL53L0X_SetLimitCheckEnable:00000000 VL53L0X_SetLimitCheckEnable
C:\Users\anmh1\AppData\Local\Temp\ccBPLcM2.s:2962   .text.VL53L0X_SetLimitCheckEnable:0000002c $d
ARM GAS  C:\Users\anmh1\AppData\Local\Temp\ccBPLcM2.s 			page 222


C:\Users\anmh1\AppData\Local\Temp\ccBPLcM2.s:2968   .text.VL53L0X_SetLimitCheckEnable:00000032 $t
C:\Users\anmh1\AppData\Local\Temp\ccBPLcM2.s:3093   .text.VL53L0X_GetLimitCheckEnable:00000000 $t
C:\Users\anmh1\AppData\Local\Temp\ccBPLcM2.s:3100   .text.VL53L0X_GetLimitCheckEnable:00000000 VL53L0X_GetLimitCheckEnable
C:\Users\anmh1\AppData\Local\Temp\ccBPLcM2.s:3147   .text.VL53L0X_SetLimitCheckValue:00000000 $t
C:\Users\anmh1\AppData\Local\Temp\ccBPLcM2.s:3154   .text.VL53L0X_SetLimitCheckValue:00000000 VL53L0X_SetLimitCheckValue
C:\Users\anmh1\AppData\Local\Temp\ccBPLcM2.s:3204   .text.VL53L0X_SetLimitCheckValue:00000024 $d
C:\Users\anmh1\AppData\Local\Temp\ccBPLcM2.s:3210   .text.VL53L0X_SetLimitCheckValue:0000002a $t
C:\Users\anmh1\AppData\Local\Temp\ccBPLcM2.s:3296   .text.VL53L0X_GetLimitCheckValue:00000000 $t
C:\Users\anmh1\AppData\Local\Temp\ccBPLcM2.s:3303   .text.VL53L0X_GetLimitCheckValue:00000000 VL53L0X_GetLimitCheckValue
C:\Users\anmh1\AppData\Local\Temp\ccBPLcM2.s:3334   .text.VL53L0X_GetLimitCheckValue:00000012 $d
C:\Users\anmh1\AppData\Local\Temp\ccBPLcM2.s:3340   .text.VL53L0X_GetLimitCheckValue:00000018 $t
C:\Users\anmh1\AppData\Local\Temp\ccBPLcM2.s:3510   .text.VL53L0X_GetLimitCheckCurrent:00000000 $t
C:\Users\anmh1\AppData\Local\Temp\ccBPLcM2.s:3517   .text.VL53L0X_GetLimitCheckCurrent:00000000 VL53L0X_GetLimitCheckCurrent
C:\Users\anmh1\AppData\Local\Temp\ccBPLcM2.s:3546   .text.VL53L0X_GetLimitCheckCurrent:00000012 $d
C:\Users\anmh1\AppData\Local\Temp\ccBPLcM2.s:3552   .text.VL53L0X_GetLimitCheckCurrent:00000018 $t
C:\Users\anmh1\AppData\Local\Temp\ccBPLcM2.s:3705   .text.VL53L0X_SetWrapAroundCheckEnable:00000000 $t
C:\Users\anmh1\AppData\Local\Temp\ccBPLcM2.s:3712   .text.VL53L0X_SetWrapAroundCheckEnable:00000000 VL53L0X_SetWrapAroundCheckEnable
C:\Users\anmh1\AppData\Local\Temp\ccBPLcM2.s:3795   .text.VL53L0X_SetDeviceParameters:00000000 $t
C:\Users\anmh1\AppData\Local\Temp\ccBPLcM2.s:3802   .text.VL53L0X_SetDeviceParameters:00000000 VL53L0X_SetDeviceParameters
C:\Users\anmh1\AppData\Local\Temp\ccBPLcM2.s:3969   .text.VL53L0X_GetWrapAroundCheckEnable:00000000 $t
C:\Users\anmh1\AppData\Local\Temp\ccBPLcM2.s:3976   .text.VL53L0X_GetWrapAroundCheckEnable:00000000 VL53L0X_GetWrapAroundCheckEnable
C:\Users\anmh1\AppData\Local\Temp\ccBPLcM2.s:4051   .text.VL53L0X_GetDeviceParameters:00000000 $t
C:\Users\anmh1\AppData\Local\Temp\ccBPLcM2.s:4058   .text.VL53L0X_GetDeviceParameters:00000000 VL53L0X_GetDeviceParameters
C:\Users\anmh1\AppData\Local\Temp\ccBPLcM2.s:4237   .text.VL53L0X_DataInit:00000000 $t
C:\Users\anmh1\AppData\Local\Temp\ccBPLcM2.s:4244   .text.VL53L0X_DataInit:00000000 VL53L0X_DataInit
C:\Users\anmh1\AppData\Local\Temp\ccBPLcM2.s:4628   .text.VL53L0X_DataInit:000001bc $d
C:\Users\anmh1\AppData\Local\Temp\ccBPLcM2.s:4634   .text.VL53L0X_SetDmaxCalParameters:00000000 $t
C:\Users\anmh1\AppData\Local\Temp\ccBPLcM2.s:4641   .text.VL53L0X_SetDmaxCalParameters:00000000 VL53L0X_SetDmaxCalParameters
C:\Users\anmh1\AppData\Local\Temp\ccBPLcM2.s:4700   .text.VL53L0X_GetDmaxCalParameters:00000000 $t
C:\Users\anmh1\AppData\Local\Temp\ccBPLcM2.s:4707   .text.VL53L0X_GetDmaxCalParameters:00000000 VL53L0X_GetDmaxCalParameters
C:\Users\anmh1\AppData\Local\Temp\ccBPLcM2.s:4738   .text.VL53L0X_PerformSingleHistogramMeasurement:00000000 $t
C:\Users\anmh1\AppData\Local\Temp\ccBPLcM2.s:4745   .text.VL53L0X_PerformSingleHistogramMeasurement:00000000 VL53L0X_PerformSingleHistogramMeasurement
C:\Users\anmh1\AppData\Local\Temp\ccBPLcM2.s:4766   .text.VL53L0X_PerformRefCalibration:00000000 $t
C:\Users\anmh1\AppData\Local\Temp\ccBPLcM2.s:4773   .text.VL53L0X_PerformRefCalibration:00000000 VL53L0X_PerformRefCalibration
C:\Users\anmh1\AppData\Local\Temp\ccBPLcM2.s:4801   .text.VL53L0X_PerformXTalkMeasurement:00000000 $t
C:\Users\anmh1\AppData\Local\Temp\ccBPLcM2.s:4808   .text.VL53L0X_PerformXTalkMeasurement:00000000 VL53L0X_PerformXTalkMeasurement
C:\Users\anmh1\AppData\Local\Temp\ccBPLcM2.s:4829   .text.VL53L0X_PerformXTalkCalibration:00000000 $t
C:\Users\anmh1\AppData\Local\Temp\ccBPLcM2.s:4836   .text.VL53L0X_PerformXTalkCalibration:00000000 VL53L0X_PerformXTalkCalibration
C:\Users\anmh1\AppData\Local\Temp\ccBPLcM2.s:4863   .text.VL53L0X_PerformOffsetCalibration:00000000 $t
C:\Users\anmh1\AppData\Local\Temp\ccBPLcM2.s:4870   .text.VL53L0X_PerformOffsetCalibration:00000000 VL53L0X_PerformOffsetCalibration
C:\Users\anmh1\AppData\Local\Temp\ccBPLcM2.s:4897   .text.VL53L0X_WaitDeviceReadyForNewMeasurement:00000000 $t
C:\Users\anmh1\AppData\Local\Temp\ccBPLcM2.s:4904   .text.VL53L0X_WaitDeviceReadyForNewMeasurement:00000000 VL53L0X_WaitDeviceReadyForNewMeasurement
C:\Users\anmh1\AppData\Local\Temp\ccBPLcM2.s:4925   .text.VL53L0X_GetRangingMeasurementData:00000000 $t
C:\Users\anmh1\AppData\Local\Temp\ccBPLcM2.s:4932   .text.VL53L0X_GetRangingMeasurementData:00000000 VL53L0X_GetRangingMeasurementData
C:\Users\anmh1\AppData\Local\Temp\ccBPLcM2.s:5257   .text.VL53L0X_GetRangingMeasurementData:0000015c $d
C:\Users\anmh1\AppData\Local\Temp\ccBPLcM2.s:5262   .text.VL53L0X_GetMeasurementRefSignal:00000000 $t
C:\Users\anmh1\AppData\Local\Temp\ccBPLcM2.s:5269   .text.VL53L0X_GetMeasurementRefSignal:00000000 VL53L0X_GetMeasurementRefSignal
C:\Users\anmh1\AppData\Local\Temp\ccBPLcM2.s:5333   .text.VL53L0X_GetHistogramMeasurementData:00000000 $t
C:\Users\anmh1\AppData\Local\Temp\ccBPLcM2.s:5340   .text.VL53L0X_GetHistogramMeasurementData:00000000 VL53L0X_GetHistogramMeasurementData
C:\Users\anmh1\AppData\Local\Temp\ccBPLcM2.s:5361   .text.VL53L0X_SetNumberOfROIZones:00000000 $t
C:\Users\anmh1\AppData\Local\Temp\ccBPLcM2.s:5368   .text.VL53L0X_SetNumberOfROIZones:00000000 VL53L0X_SetNumberOfROIZones
C:\Users\anmh1\AppData\Local\Temp\ccBPLcM2.s:5400   .text.VL53L0X_GetNumberOfROIZones:00000000 $t
C:\Users\anmh1\AppData\Local\Temp\ccBPLcM2.s:5407   .text.VL53L0X_GetNumberOfROIZones:00000000 VL53L0X_GetNumberOfROIZones
C:\Users\anmh1\AppData\Local\Temp\ccBPLcM2.s:5432   .text.VL53L0X_GetMaxNumberOfROIZones:00000000 $t
C:\Users\anmh1\AppData\Local\Temp\ccBPLcM2.s:5439   .text.VL53L0X_GetMaxNumberOfROIZones:00000000 VL53L0X_GetMaxNumberOfROIZones
C:\Users\anmh1\AppData\Local\Temp\ccBPLcM2.s:5464   .text.VL53L0X_GetGpioConfig:00000000 $t
C:\Users\anmh1\AppData\Local\Temp\ccBPLcM2.s:5471   .text.VL53L0X_GetGpioConfig:00000000 VL53L0X_GetGpioConfig
ARM GAS  C:\Users\anmh1\AppData\Local\Temp\ccBPLcM2.s 			page 223


C:\Users\anmh1\AppData\Local\Temp\ccBPLcM2.s:5574   .text.VL53L0X_GetGpioConfig:0000005a $d
C:\Users\anmh1\AppData\Local\Temp\ccBPLcM2.s:5616   .text.VL53L0X_SetInterruptThresholds:00000000 $t
C:\Users\anmh1\AppData\Local\Temp\ccBPLcM2.s:5623   .text.VL53L0X_SetInterruptThresholds:00000000 VL53L0X_SetInterruptThresholds
C:\Users\anmh1\AppData\Local\Temp\ccBPLcM2.s:5679   .text.VL53L0X_GetInterruptThresholds:00000000 $t
C:\Users\anmh1\AppData\Local\Temp\ccBPLcM2.s:5686   .text.VL53L0X_GetInterruptThresholds:00000000 VL53L0X_GetInterruptThresholds
C:\Users\anmh1\AppData\Local\Temp\ccBPLcM2.s:5762   .text.VL53L0X_GetInterruptThresholds:00000040 $d
C:\Users\anmh1\AppData\Local\Temp\ccBPLcM2.s:5767   .text.VL53L0X_CheckAndLoadInterruptSettings:00000000 $t
C:\Users\anmh1\AppData\Local\Temp\ccBPLcM2.s:5774   .text.VL53L0X_CheckAndLoadInterruptSettings:00000000 VL53L0X_CheckAndLoadInterruptSettings
C:\Users\anmh1\AppData\Local\Temp\ccBPLcM2.s:5925   .text.VL53L0X_CheckAndLoadInterruptSettings:00000084 $d
C:\Users\anmh1\AppData\Local\Temp\ccBPLcM2.s:5930   .text.VL53L0X_StartMeasurement:00000000 $t
C:\Users\anmh1\AppData\Local\Temp\ccBPLcM2.s:5937   .text.VL53L0X_StartMeasurement:00000000 VL53L0X_StartMeasurement
C:\Users\anmh1\AppData\Local\Temp\ccBPLcM2.s:6170   .text.VL53L0X_PerformSingleMeasurement:00000000 $t
C:\Users\anmh1\AppData\Local\Temp\ccBPLcM2.s:6177   .text.VL53L0X_PerformSingleMeasurement:00000000 VL53L0X_PerformSingleMeasurement
C:\Users\anmh1\AppData\Local\Temp\ccBPLcM2.s:6257   .text.VL53L0X_StopMeasurement:00000000 $t
C:\Users\anmh1\AppData\Local\Temp\ccBPLcM2.s:6264   .text.VL53L0X_StopMeasurement:00000000 VL53L0X_StopMeasurement
C:\Users\anmh1\AppData\Local\Temp\ccBPLcM2.s:6351   .text.VL53L0X_GetStopCompletedStatus:00000000 $t
C:\Users\anmh1\AppData\Local\Temp\ccBPLcM2.s:6358   .text.VL53L0X_GetStopCompletedStatus:00000000 VL53L0X_GetStopCompletedStatus
C:\Users\anmh1\AppData\Local\Temp\ccBPLcM2.s:6497   .text.VL53L0X_ClearInterruptMask:00000000 $t
C:\Users\anmh1\AppData\Local\Temp\ccBPLcM2.s:6504   .text.VL53L0X_ClearInterruptMask:00000000 VL53L0X_ClearInterruptMask
C:\Users\anmh1\AppData\Local\Temp\ccBPLcM2.s:6611   .text.VL53L0X_PerformSingleRangingMeasurement:00000000 $t
C:\Users\anmh1\AppData\Local\Temp\ccBPLcM2.s:6618   .text.VL53L0X_PerformSingleRangingMeasurement:00000000 VL53L0X_PerformSingleRangingMeasurement
C:\Users\anmh1\AppData\Local\Temp\ccBPLcM2.s:6696   .text.VL53L0X_SetGpioConfig:00000000 $t
C:\Users\anmh1\AppData\Local\Temp\ccBPLcM2.s:6703   .text.VL53L0X_SetGpioConfig:00000000 VL53L0X_SetGpioConfig
C:\Users\anmh1\AppData\Local\Temp\ccBPLcM2.s:6743   .text.VL53L0X_SetGpioConfig:00000022 $d
C:\Users\anmh1\AppData\Local\Temp\ccBPLcM2.s:7052   .text.VL53L0X_StaticInit:00000000 $t
C:\Users\anmh1\AppData\Local\Temp\ccBPLcM2.s:7059   .text.VL53L0X_StaticInit:00000000 VL53L0X_StaticInit
C:\Users\anmh1\AppData\Local\Temp\ccBPLcM2.s:7512   .text.VL53L0X_StaticInit:000001dc $d
C:\Users\anmh1\AppData\Local\Temp\ccBPLcM2.s:7517   .text.VL53L0X_SetPowerMode:00000000 $t
C:\Users\anmh1\AppData\Local\Temp\ccBPLcM2.s:7524   .text.VL53L0X_SetPowerMode:00000000 VL53L0X_SetPowerMode
C:\Users\anmh1\AppData\Local\Temp\ccBPLcM2.s:7623   .text.VL53L0X_GetInterruptMaskStatus:00000000 $t
C:\Users\anmh1\AppData\Local\Temp\ccBPLcM2.s:7630   .text.VL53L0X_GetInterruptMaskStatus:00000000 VL53L0X_GetInterruptMaskStatus
C:\Users\anmh1\AppData\Local\Temp\ccBPLcM2.s:7689   .text.VL53L0X_GetMeasurementDataReady:00000000 $t
C:\Users\anmh1\AppData\Local\Temp\ccBPLcM2.s:7696   .text.VL53L0X_GetMeasurementDataReady:00000000 VL53L0X_GetMeasurementDataReady
C:\Users\anmh1\AppData\Local\Temp\ccBPLcM2.s:7793   .text.VL53L0X_EnableInterruptMask:00000000 $t
C:\Users\anmh1\AppData\Local\Temp\ccBPLcM2.s:7800   .text.VL53L0X_EnableInterruptMask:00000000 VL53L0X_EnableInterruptMask
C:\Users\anmh1\AppData\Local\Temp\ccBPLcM2.s:7821   .text.VL53L0X_SetSpadAmbientDamperThreshold:00000000 $t
C:\Users\anmh1\AppData\Local\Temp\ccBPLcM2.s:7828   .text.VL53L0X_SetSpadAmbientDamperThreshold:00000000 VL53L0X_SetSpadAmbientDamperThreshold
C:\Users\anmh1\AppData\Local\Temp\ccBPLcM2.s:7892   .text.VL53L0X_GetSpadAmbientDamperThreshold:00000000 $t
C:\Users\anmh1\AppData\Local\Temp\ccBPLcM2.s:7899   .text.VL53L0X_GetSpadAmbientDamperThreshold:00000000 VL53L0X_GetSpadAmbientDamperThreshold
C:\Users\anmh1\AppData\Local\Temp\ccBPLcM2.s:7963   .text.VL53L0X_SetSpadAmbientDamperFactor:00000000 $t
C:\Users\anmh1\AppData\Local\Temp\ccBPLcM2.s:7970   .text.VL53L0X_SetSpadAmbientDamperFactor:00000000 VL53L0X_SetSpadAmbientDamperFactor
C:\Users\anmh1\AppData\Local\Temp\ccBPLcM2.s:8038   .text.VL53L0X_GetSpadAmbientDamperFactor:00000000 $t
C:\Users\anmh1\AppData\Local\Temp\ccBPLcM2.s:8045   .text.VL53L0X_GetSpadAmbientDamperFactor:00000000 VL53L0X_GetSpadAmbientDamperFactor
C:\Users\anmh1\AppData\Local\Temp\ccBPLcM2.s:8120   .text.VL53L0X_SetReferenceSpads:00000000 $t
C:\Users\anmh1\AppData\Local\Temp\ccBPLcM2.s:8127   .text.VL53L0X_SetReferenceSpads:00000000 VL53L0X_SetReferenceSpads
C:\Users\anmh1\AppData\Local\Temp\ccBPLcM2.s:8154   .text.VL53L0X_GetReferenceSpads:00000000 $t
C:\Users\anmh1\AppData\Local\Temp\ccBPLcM2.s:8161   .text.VL53L0X_GetReferenceSpads:00000000 VL53L0X_GetReferenceSpads
C:\Users\anmh1\AppData\Local\Temp\ccBPLcM2.s:8188   .text.VL53L0X_PerformRefSpadManagement:00000000 $t
C:\Users\anmh1\AppData\Local\Temp\ccBPLcM2.s:8195   .text.VL53L0X_PerformRefSpadManagement:00000000 VL53L0X_PerformRefSpadManagement
C:\Users\anmh1\AppData\Local\Temp\ccBPLcM2.s:8249   .data.InterruptThresholdSettings:00000000 InterruptThresholdSettings
C:\Users\anmh1\AppData\Local\Temp\ccBPLcM2.s:8228   .data.DefaultTuningSettings:00000000 DefaultTuningSettings
C:\Users\anmh1\AppData\Local\Temp\ccBPLcM2.s:8224   .data.DefaultTuningSettings:00000000 $d
C:\Users\anmh1\AppData\Local\Temp\ccBPLcM2.s:8245   .data.InterruptThresholdSettings:00000000 $d
C:\Users\anmh1\AppData\Local\Temp\ccBPLcM2.s:1497   .text.VL53L0X_SetSequenceStepEnable:00000033 $d
C:\Users\anmh1\AppData\Local\Temp\ccBPLcM2.s:1497   .text.VL53L0X_SetSequenceStepEnable:00000034 $t
C:\Users\anmh1\AppData\Local\Temp\ccBPLcM2.s:1509   .text.VL53L0X_SetSequenceStepEnable:00000041 $d
C:\Users\anmh1\AppData\Local\Temp\ccBPLcM2.s:1509   .text.VL53L0X_SetSequenceStepEnable:00000042 $t
ARM GAS  C:\Users\anmh1\AppData\Local\Temp\ccBPLcM2.s 			page 224


C:\Users\anmh1\AppData\Local\Temp\ccBPLcM2.s:1693   .text.sequence_step_enabled:00000011 $d
C:\Users\anmh1\AppData\Local\Temp\ccBPLcM2.s:1693   .text.sequence_step_enabled:00000012 $t
C:\Users\anmh1\AppData\Local\Temp\ccBPLcM2.s:5579   .text.VL53L0X_GetGpioConfig:0000005f $d
C:\Users\anmh1\AppData\Local\Temp\ccBPLcM2.s:5579   .text.VL53L0X_GetGpioConfig:00000060 $t
C:\Users\anmh1\AppData\Local\Temp\ccBPLcM2.s:6748   .text.VL53L0X_SetGpioConfig:00000027 $d
C:\Users\anmh1\AppData\Local\Temp\ccBPLcM2.s:6748   .text.VL53L0X_SetGpioConfig:00000028 $t

UNDEFINED SYMBOLS
VL53L0X_RdByte
VL53L0X_get_device_info
VL53L0X_get_device_error_string
VL53L0X_get_range_status_string
VL53L0X_get_pal_error_string
VL53L0X_get_pal_state_string
VL53L0X_set_offset_calibration_data_micro_meter
VL53L0X_get_offset_calibration_data_micro_meter
VL53L0X_WrWord
VL53L0X_get_total_signal_rate
VL53L0X_WrByte
VL53L0X_PollingDelay
VL53L0X_set_measurement_timing_budget_micro_seconds
VL53L0X_get_measurement_timing_budget_micro_seconds
VL53L0X_set_vcsel_pulse_period
VL53L0X_get_vcsel_pulse_period
VL53L0X_get_sequence_steps_info
get_sequence_step_timeout
set_sequence_step_timeout
VL53L0X_RdWord
VL53L0X_WrDWord
VL53L0X_RdDWord
VL53L0X_set_ref_calibration
VL53L0X_get_ref_calibration
VL53L0X_get_limit_check_info
VL53L0X_UpdateByte
VL53L0X_get_info_from_device
VL53L0X_perform_ref_calibration
VL53L0X_perform_xtalk_calibration
VL53L0X_perform_offset_calibration
VL53L0X_ReadMulti
VL53L0X_get_pal_range_status
VL53L0X_load_tuning_settings
VL53L0X_measurement_poll_for_completion
memset
VL53L0X_perform_ref_spad_management
VL53L0X_set_reference_spads
VL53L0X_get_reference_spads
