ARM GAS  C:\Users\anmh1\AppData\Local\Temp\ccrmGbOb.s 			page 1


   1              		.cpu cortex-m4
   2              		.eabi_attribute 27, 1
   3              		.eabi_attribute 28, 1
   4              		.eabi_attribute 20, 1
   5              		.eabi_attribute 21, 1
   6              		.eabi_attribute 23, 3
   7              		.eabi_attribute 24, 1
   8              		.eabi_attribute 25, 1
   9              		.eabi_attribute 26, 1
  10              		.eabi_attribute 30, 1
  11              		.eabi_attribute 34, 1
  12              		.eabi_attribute 18, 4
  13              		.file	"vl53l0x_api_core.c"
  14              		.text
  15              	.Ltext0:
  16              		.cfi_sections	.debug_frame
  17              		.section	.text.VL53L0X_reverse_bytes,"ax",%progbits
  18              		.align	1
  19              		.global	VL53L0X_reverse_bytes
  20              		.arch armv7e-m
  21              		.syntax unified
  22              		.thumb
  23              		.thumb_func
  24              		.fpu fpv4-sp-d16
  26              	VL53L0X_reverse_bytes:
  27              	.LVL0:
  28              	.LFB133:
  29              		.file 1 "Core/Src/vl53l0x_api_core.c"
   1:Core/Src/vl53l0x_api_core.c **** /*******************************************************************************
   2:Core/Src/vl53l0x_api_core.c ****  Copyright © 2016, STMicroelectronics International N.V.
   3:Core/Src/vl53l0x_api_core.c ****  All rights reserved.
   4:Core/Src/vl53l0x_api_core.c **** 
   5:Core/Src/vl53l0x_api_core.c ****  Redistribution and use in source and binary forms, with or without
   6:Core/Src/vl53l0x_api_core.c ****  modification, are permitted provided that the following conditions are met:
   7:Core/Src/vl53l0x_api_core.c ****  * Redistributions of source code must retain the above copyright
   8:Core/Src/vl53l0x_api_core.c ****  notice, this list of conditions and the following disclaimer.
   9:Core/Src/vl53l0x_api_core.c ****  * Redistributions in binary form must reproduce the above copyright
  10:Core/Src/vl53l0x_api_core.c ****  notice, this list of conditions and the following disclaimer in the
  11:Core/Src/vl53l0x_api_core.c ****  documentation and/or other materials provided with the distribution.
  12:Core/Src/vl53l0x_api_core.c ****  * Neither the name of STMicroelectronics nor the
  13:Core/Src/vl53l0x_api_core.c ****  names of its contributors may be used to endorse or promote products
  14:Core/Src/vl53l0x_api_core.c ****  derived from this software without specific prior written permission.
  15:Core/Src/vl53l0x_api_core.c **** 
  16:Core/Src/vl53l0x_api_core.c ****  THIS SOFTWARE IS PROVIDED BY THE COPYRIGHT HOLDERS AND CONTRIBUTORS "AS IS" AND
  17:Core/Src/vl53l0x_api_core.c ****  ANY EXPRESS OR IMPLIED WARRANTIES, INCLUDING, BUT NOT LIMITED TO, THE IMPLIED
  18:Core/Src/vl53l0x_api_core.c ****  WARRANTIES OF MERCHANTABILITY, FITNESS FOR A PARTICULAR PURPOSE, AND
  19:Core/Src/vl53l0x_api_core.c ****  NON-INFRINGEMENT OF INTELLECTUAL PROPERTY RIGHTS ARE DISCLAIMED.
  20:Core/Src/vl53l0x_api_core.c ****  IN NO EVENT SHALL STMICROELECTRONICS INTERNATIONAL N.V. BE LIABLE FOR ANY
  21:Core/Src/vl53l0x_api_core.c ****  DIRECT, INDIRECT, INCIDENTAL, SPECIAL, EXEMPLARY, OR CONSEQUENTIAL DAMAGES
  22:Core/Src/vl53l0x_api_core.c ****  (INCLUDING, BUT NOT LIMITED TO, PROCUREMENT OF SUBSTITUTE GOODS OR SERVICES;
  23:Core/Src/vl53l0x_api_core.c ****  LOSS OF USE, DATA, OR PROFITS; OR BUSINESS INTERRUPTION) HOWEVER CAUSED AND
  24:Core/Src/vl53l0x_api_core.c ****  ON ANY THEORY OF LIABILITY, WHETHER IN CONTRACT, STRICT LIABILITY, OR TORT
  25:Core/Src/vl53l0x_api_core.c ****  (INCLUDING NEGLIGENCE OR OTHERWISE) ARISING IN ANY WAY OUT OF THE USE OF THIS
  26:Core/Src/vl53l0x_api_core.c ****  SOFTWARE, EVEN IF ADVISED OF THE POSSIBILITY OF SUCH DAMAGE.
  27:Core/Src/vl53l0x_api_core.c ****  ******************************************************************************/
  28:Core/Src/vl53l0x_api_core.c **** 
  29:Core/Src/vl53l0x_api_core.c **** #include "vl53l0x_api.h"
ARM GAS  C:\Users\anmh1\AppData\Local\Temp\ccrmGbOb.s 			page 2


  30:Core/Src/vl53l0x_api_core.c **** #include "vl53l0x_api_core.h"
  31:Core/Src/vl53l0x_api_core.c **** #include "vl53l0x_api_calibration.h"
  32:Core/Src/vl53l0x_api_core.c **** 
  33:Core/Src/vl53l0x_api_core.c **** 
  34:Core/Src/vl53l0x_api_core.c **** #ifndef __KERNEL__
  35:Core/Src/vl53l0x_api_core.c **** #include <stdlib.h>
  36:Core/Src/vl53l0x_api_core.c **** #endif
  37:Core/Src/vl53l0x_api_core.c **** #define LOG_FUNCTION_START(fmt, ...) \
  38:Core/Src/vl53l0x_api_core.c **** 	_LOG_FUNCTION_START(TRACE_MODULE_API, fmt, ##__VA_ARGS__)
  39:Core/Src/vl53l0x_api_core.c **** #define LOG_FUNCTION_END(status, ...) \
  40:Core/Src/vl53l0x_api_core.c **** 	_LOG_FUNCTION_END(TRACE_MODULE_API, status, ##__VA_ARGS__)
  41:Core/Src/vl53l0x_api_core.c **** #define LOG_FUNCTION_END_FMT(status, fmt, ...) \
  42:Core/Src/vl53l0x_api_core.c **** 	_LOG_FUNCTION_END_FMT(TRACE_MODULE_API, status, fmt, ##__VA_ARGS__)
  43:Core/Src/vl53l0x_api_core.c **** 
  44:Core/Src/vl53l0x_api_core.c **** VL53L0X_Error VL53L0X_reverse_bytes(uint8_t *data, uint32_t size)
  45:Core/Src/vl53l0x_api_core.c **** {
  30              		.loc 1 45 1 view -0
  31              		.cfi_startproc
  32              		@ args = 0, pretend = 0, frame = 0
  33              		@ frame_needed = 0, uses_anonymous_args = 0
  34              		@ link register save eliminated.
  35              		.loc 1 45 1 is_stmt 0 view .LVU1
  36 0000 70B4     		push	{r4, r5, r6}
  37              		.cfi_def_cfa_offset 12
  38              		.cfi_offset 4, -12
  39              		.cfi_offset 5, -8
  40              		.cfi_offset 6, -4
  46:Core/Src/vl53l0x_api_core.c **** 	VL53L0X_Error Status = VL53L0X_ERROR_NONE;
  41              		.loc 1 46 2 is_stmt 1 view .LVU2
  42              	.LVL1:
  47:Core/Src/vl53l0x_api_core.c **** 	uint8_t tempData;
  43              		.loc 1 47 2 view .LVU3
  48:Core/Src/vl53l0x_api_core.c **** 	uint32_t mirrorIndex;
  44              		.loc 1 48 2 view .LVU4
  49:Core/Src/vl53l0x_api_core.c **** 	uint32_t middle = size/2;
  45              		.loc 1 49 2 view .LVU5
  46              		.loc 1 49 11 is_stmt 0 view .LVU6
  47 0002 4E08     		lsrs	r6, r1, #1
  48              	.LVL2:
  50:Core/Src/vl53l0x_api_core.c **** 	uint32_t index;
  49              		.loc 1 50 2 is_stmt 1 view .LVU7
  51:Core/Src/vl53l0x_api_core.c **** 
  52:Core/Src/vl53l0x_api_core.c **** 	for (index = 0; index < middle; index++) {
  50              		.loc 1 52 2 view .LVU8
  51              		.loc 1 52 13 is_stmt 0 view .LVU9
  52 0004 0023     		movs	r3, #0
  53              	.LVL3:
  54              	.L2:
  55              		.loc 1 52 18 is_stmt 1 discriminator 1 view .LVU10
  56              		.loc 1 52 2 is_stmt 0 discriminator 1 view .LVU11
  57 0006 B342     		cmp	r3, r6
  58 0008 07D2     		bcs	.L5
  53:Core/Src/vl53l0x_api_core.c **** 		mirrorIndex		 = size - index - 1;
  59              		.loc 1 53 3 is_stmt 1 discriminator 3 view .LVU12
  60              		.loc 1 53 24 is_stmt 0 discriminator 3 view .LVU13
  61 000a CA1A     		subs	r2, r1, r3
  62              		.loc 1 53 17 discriminator 3 view .LVU14
ARM GAS  C:\Users\anmh1\AppData\Local\Temp\ccrmGbOb.s 			page 3


  63 000c 013A     		subs	r2, r2, #1
  64              	.LVL4:
  54:Core/Src/vl53l0x_api_core.c **** 		tempData		 = data[index];
  65              		.loc 1 54 3 is_stmt 1 discriminator 3 view .LVU15
  66              		.loc 1 54 14 is_stmt 0 discriminator 3 view .LVU16
  67 000e C45C     		ldrb	r4, [r0, r3]	@ zero_extendqisi2
  68              	.LVL5:
  55:Core/Src/vl53l0x_api_core.c **** 		data[index]		 = data[mirrorIndex];
  69              		.loc 1 55 3 is_stmt 1 discriminator 3 view .LVU17
  70              		.loc 1 55 23 is_stmt 0 discriminator 3 view .LVU18
  71 0010 855C     		ldrb	r5, [r0, r2]	@ zero_extendqisi2
  72              		.loc 1 55 17 discriminator 3 view .LVU19
  73 0012 C554     		strb	r5, [r0, r3]
  56:Core/Src/vl53l0x_api_core.c **** 		data[mirrorIndex] = tempData;
  74              		.loc 1 56 3 is_stmt 1 discriminator 3 view .LVU20
  75              		.loc 1 56 21 is_stmt 0 discriminator 3 view .LVU21
  76 0014 8454     		strb	r4, [r0, r2]
  52:Core/Src/vl53l0x_api_core.c **** 		mirrorIndex		 = size - index - 1;
  77              		.loc 1 52 34 is_stmt 1 discriminator 3 view .LVU22
  52:Core/Src/vl53l0x_api_core.c **** 		mirrorIndex		 = size - index - 1;
  78              		.loc 1 52 39 is_stmt 0 discriminator 3 view .LVU23
  79 0016 0133     		adds	r3, r3, #1
  80              	.LVL6:
  52:Core/Src/vl53l0x_api_core.c **** 		mirrorIndex		 = size - index - 1;
  81              		.loc 1 52 39 discriminator 3 view .LVU24
  82 0018 F5E7     		b	.L2
  83              	.LVL7:
  84              	.L5:
  57:Core/Src/vl53l0x_api_core.c **** 	}
  58:Core/Src/vl53l0x_api_core.c **** 	return Status;
  85              		.loc 1 58 2 is_stmt 1 view .LVU25
  59:Core/Src/vl53l0x_api_core.c **** }
  86              		.loc 1 59 1 is_stmt 0 view .LVU26
  87 001a 0020     		movs	r0, #0
  88              	.LVL8:
  89              		.loc 1 59 1 view .LVU27
  90 001c 70BC     		pop	{r4, r5, r6}
  91              		.cfi_restore 6
  92              		.cfi_restore 5
  93              		.cfi_restore 4
  94              		.cfi_def_cfa_offset 0
  95              	.LVL9:
  96              		.loc 1 59 1 view .LVU28
  97 001e 7047     		bx	lr
  98              		.cfi_endproc
  99              	.LFE133:
 101              		.section	.text.VL53L0X_measurement_poll_for_completion,"ax",%progbits
 102              		.align	1
 103              		.global	VL53L0X_measurement_poll_for_completion
 104              		.syntax unified
 105              		.thumb
 106              		.thumb_func
 107              		.fpu fpv4-sp-d16
 109              	VL53L0X_measurement_poll_for_completion:
 110              	.LVL10:
 111              	.LFB134:
  60:Core/Src/vl53l0x_api_core.c **** 
ARM GAS  C:\Users\anmh1\AppData\Local\Temp\ccrmGbOb.s 			page 4


  61:Core/Src/vl53l0x_api_core.c **** VL53L0X_Error VL53L0X_measurement_poll_for_completion(VL53L0X_DEV Dev)
  62:Core/Src/vl53l0x_api_core.c **** {
 112              		.loc 1 62 1 is_stmt 1 view -0
 113              		.cfi_startproc
 114              		@ args = 0, pretend = 0, frame = 8
 115              		@ frame_needed = 0, uses_anonymous_args = 0
 116              		.loc 1 62 1 is_stmt 0 view .LVU30
 117 0000 30B5     		push	{r4, r5, lr}
 118              		.cfi_def_cfa_offset 12
 119              		.cfi_offset 4, -12
 120              		.cfi_offset 5, -8
 121              		.cfi_offset 14, -4
 122 0002 83B0     		sub	sp, sp, #12
 123              		.cfi_def_cfa_offset 24
 124 0004 0546     		mov	r5, r0
  63:Core/Src/vl53l0x_api_core.c **** 	VL53L0X_Error Status = VL53L0X_ERROR_NONE;
 125              		.loc 1 63 2 is_stmt 1 view .LVU31
 126              	.LVL11:
  64:Core/Src/vl53l0x_api_core.c **** 	uint8_t NewDataReady = 0;
 127              		.loc 1 64 2 view .LVU32
 128              		.loc 1 64 10 is_stmt 0 view .LVU33
 129 0006 0024     		movs	r4, #0
 130 0008 8DF80740 		strb	r4, [sp, #7]
  65:Core/Src/vl53l0x_api_core.c **** 	uint32_t LoopNb;
 131              		.loc 1 65 2 is_stmt 1 view .LVU34
  66:Core/Src/vl53l0x_api_core.c **** 
  67:Core/Src/vl53l0x_api_core.c **** 	LOG_FUNCTION_START("");
 132              		.loc 1 67 2 view .LVU35
  68:Core/Src/vl53l0x_api_core.c **** 
  69:Core/Src/vl53l0x_api_core.c **** 	LoopNb = 0;
 133              		.loc 1 69 2 view .LVU36
 134              	.LVL12:
 135              	.L8:
  70:Core/Src/vl53l0x_api_core.c **** 
  71:Core/Src/vl53l0x_api_core.c **** 	do {
 136              		.loc 1 71 2 view .LVU37
  72:Core/Src/vl53l0x_api_core.c **** 		Status = VL53L0X_GetMeasurementDataReady(Dev, &NewDataReady);
 137              		.loc 1 72 3 view .LVU38
 138              		.loc 1 72 12 is_stmt 0 view .LVU39
 139 000c 0DF10701 		add	r1, sp, #7
 140 0010 2846     		mov	r0, r5
 141 0012 FFF7FEFF 		bl	VL53L0X_GetMeasurementDataReady
 142              	.LVL13:
  73:Core/Src/vl53l0x_api_core.c **** 		if (Status != 0)
 143              		.loc 1 73 3 is_stmt 1 view .LVU40
 144              		.loc 1 73 6 is_stmt 0 view .LVU41
 145 0016 0246     		mov	r2, r0
 146 0018 68B9     		cbnz	r0, .L7
  74:Core/Src/vl53l0x_api_core.c **** 			break; /* the error is set */
  75:Core/Src/vl53l0x_api_core.c **** 
  76:Core/Src/vl53l0x_api_core.c **** 		if (NewDataReady == 1)
 147              		.loc 1 76 3 is_stmt 1 view .LVU42
 148              		.loc 1 76 20 is_stmt 0 view .LVU43
 149 001a 9DF80730 		ldrb	r3, [sp, #7]	@ zero_extendqisi2
 150              		.loc 1 76 6 view .LVU44
 151 001e 012B     		cmp	r3, #1
 152 0020 09D0     		beq	.L7
ARM GAS  C:\Users\anmh1\AppData\Local\Temp\ccrmGbOb.s 			page 5


  77:Core/Src/vl53l0x_api_core.c **** 			break; /* done note that status == 0 */
  78:Core/Src/vl53l0x_api_core.c **** 
  79:Core/Src/vl53l0x_api_core.c **** 		LoopNb++;
 153              		.loc 1 79 3 is_stmt 1 view .LVU45
 154              		.loc 1 79 9 is_stmt 0 view .LVU46
 155 0022 0134     		adds	r4, r4, #1
 156              	.LVL14:
  80:Core/Src/vl53l0x_api_core.c **** 		if (LoopNb >= VL53L0X_DEFAULT_MAX_LOOP) {
 157              		.loc 1 80 3 is_stmt 1 view .LVU47
 158              		.loc 1 80 6 is_stmt 0 view .LVU48
 159 0024 B4F5FA6F 		cmp	r4, #2000
 160 0028 03D2     		bcs	.L9
  81:Core/Src/vl53l0x_api_core.c **** 			Status = VL53L0X_ERROR_TIME_OUT;
  82:Core/Src/vl53l0x_api_core.c **** 			break;
  83:Core/Src/vl53l0x_api_core.c **** 		}
  84:Core/Src/vl53l0x_api_core.c **** 
  85:Core/Src/vl53l0x_api_core.c **** 		VL53L0X_PollingDelay(Dev);
 161              		.loc 1 85 3 is_stmt 1 view .LVU49
 162 002a 2846     		mov	r0, r5
 163              	.LVL15:
 164              		.loc 1 85 3 is_stmt 0 view .LVU50
 165 002c FFF7FEFF 		bl	VL53L0X_PollingDelay
 166              	.LVL16:
  86:Core/Src/vl53l0x_api_core.c **** 	} while (1);
 167              		.loc 1 86 10 is_stmt 1 view .LVU51
  72:Core/Src/vl53l0x_api_core.c **** 		if (Status != 0)
 168              		.loc 1 72 10 is_stmt 0 view .LVU52
 169 0030 ECE7     		b	.L8
 170              	.LVL17:
 171              	.L9:
  81:Core/Src/vl53l0x_api_core.c **** 			Status = VL53L0X_ERROR_TIME_OUT;
 172              		.loc 1 81 11 view .LVU53
 173 0032 6FF00602 		mvn	r2, #6
 174              	.L7:
 175              	.LVL18:
  87:Core/Src/vl53l0x_api_core.c **** 
  88:Core/Src/vl53l0x_api_core.c **** 	LOG_FUNCTION_END(Status);
 176              		.loc 1 88 2 is_stmt 1 view .LVU54
  89:Core/Src/vl53l0x_api_core.c **** 
  90:Core/Src/vl53l0x_api_core.c **** 	return Status;
 177              		.loc 1 90 2 view .LVU55
  91:Core/Src/vl53l0x_api_core.c **** }
 178              		.loc 1 91 1 is_stmt 0 view .LVU56
 179 0036 1046     		mov	r0, r2
 180 0038 03B0     		add	sp, sp, #12
 181              		.cfi_def_cfa_offset 12
 182              		@ sp needed
 183 003a 30BD     		pop	{r4, r5, pc}
 184              		.loc 1 91 1 view .LVU57
 185              		.cfi_endproc
 186              	.LFE134:
 188              		.section	.text.VL53L0X_decode_vcsel_period,"ax",%progbits
 189              		.align	1
 190              		.global	VL53L0X_decode_vcsel_period
 191              		.syntax unified
 192              		.thumb
 193              		.thumb_func
ARM GAS  C:\Users\anmh1\AppData\Local\Temp\ccrmGbOb.s 			page 6


 194              		.fpu fpv4-sp-d16
 196              	VL53L0X_decode_vcsel_period:
 197              	.LVL19:
 198              	.LFB135:
  92:Core/Src/vl53l0x_api_core.c **** 
  93:Core/Src/vl53l0x_api_core.c **** 
  94:Core/Src/vl53l0x_api_core.c **** uint8_t VL53L0X_decode_vcsel_period(uint8_t vcsel_period_reg)
  95:Core/Src/vl53l0x_api_core.c **** {
 199              		.loc 1 95 1 is_stmt 1 view -0
 200              		.cfi_startproc
 201              		@ args = 0, pretend = 0, frame = 0
 202              		@ frame_needed = 0, uses_anonymous_args = 0
 203              		@ link register save eliminated.
  96:Core/Src/vl53l0x_api_core.c **** 	/*!
  97:Core/Src/vl53l0x_api_core.c **** 	 * Converts the encoded VCSEL period register value into the real
  98:Core/Src/vl53l0x_api_core.c **** 	 * period in PLL clocks
  99:Core/Src/vl53l0x_api_core.c **** 	 */
 100:Core/Src/vl53l0x_api_core.c **** 
 101:Core/Src/vl53l0x_api_core.c **** 	uint8_t vcsel_period_pclks = 0;
 204              		.loc 1 101 2 view .LVU59
 102:Core/Src/vl53l0x_api_core.c **** 
 103:Core/Src/vl53l0x_api_core.c **** 	vcsel_period_pclks = (vcsel_period_reg + 1) << 1;
 205              		.loc 1 103 2 view .LVU60
 206              		.loc 1 103 41 is_stmt 0 view .LVU61
 207 0000 0130     		adds	r0, r0, #1
 208              	.LVL20:
 209              		.loc 1 103 41 view .LVU62
 210 0002 C0B2     		uxtb	r0, r0
 211              		.loc 1 103 21 view .LVU63
 212 0004 4000     		lsls	r0, r0, #1
 213              	.LVL21:
 104:Core/Src/vl53l0x_api_core.c **** 
 105:Core/Src/vl53l0x_api_core.c **** 	return vcsel_period_pclks;
 214              		.loc 1 105 2 is_stmt 1 view .LVU64
 106:Core/Src/vl53l0x_api_core.c **** }
 215              		.loc 1 106 1 is_stmt 0 view .LVU65
 216 0006 00F0FE00 		and	r0, r0, #254
 217              	.LVL22:
 218              		.loc 1 106 1 view .LVU66
 219 000a 7047     		bx	lr
 220              		.cfi_endproc
 221              	.LFE135:
 223              		.section	.text.VL53L0X_encode_vcsel_period,"ax",%progbits
 224              		.align	1
 225              		.global	VL53L0X_encode_vcsel_period
 226              		.syntax unified
 227              		.thumb
 228              		.thumb_func
 229              		.fpu fpv4-sp-d16
 231              	VL53L0X_encode_vcsel_period:
 232              	.LVL23:
 233              	.LFB136:
 107:Core/Src/vl53l0x_api_core.c **** 
 108:Core/Src/vl53l0x_api_core.c **** uint8_t VL53L0X_encode_vcsel_period(uint8_t vcsel_period_pclks)
 109:Core/Src/vl53l0x_api_core.c **** {
 234              		.loc 1 109 1 is_stmt 1 view -0
 235              		.cfi_startproc
ARM GAS  C:\Users\anmh1\AppData\Local\Temp\ccrmGbOb.s 			page 7


 236              		@ args = 0, pretend = 0, frame = 0
 237              		@ frame_needed = 0, uses_anonymous_args = 0
 238              		@ link register save eliminated.
 110:Core/Src/vl53l0x_api_core.c **** 	/*!
 111:Core/Src/vl53l0x_api_core.c **** 	 * Converts the encoded VCSEL period register value into the real period
 112:Core/Src/vl53l0x_api_core.c **** 	 * in PLL clocks
 113:Core/Src/vl53l0x_api_core.c **** 	 */
 114:Core/Src/vl53l0x_api_core.c **** 
 115:Core/Src/vl53l0x_api_core.c **** 	uint8_t vcsel_period_reg = 0;
 239              		.loc 1 115 2 view .LVU68
 116:Core/Src/vl53l0x_api_core.c **** 
 117:Core/Src/vl53l0x_api_core.c **** 	vcsel_period_reg = (vcsel_period_pclks >> 1) - 1;
 240              		.loc 1 117 2 view .LVU69
 241              		.loc 1 117 47 is_stmt 0 view .LVU70
 242 0000 4008     		lsrs	r0, r0, #1
 243              	.LVL24:
 244              		.loc 1 117 19 view .LVU71
 245 0002 0138     		subs	r0, r0, #1
 246              	.LVL25:
 118:Core/Src/vl53l0x_api_core.c **** 
 119:Core/Src/vl53l0x_api_core.c **** 	return vcsel_period_reg;
 247              		.loc 1 119 2 is_stmt 1 view .LVU72
 120:Core/Src/vl53l0x_api_core.c **** }
 248              		.loc 1 120 1 is_stmt 0 view .LVU73
 249 0004 C0B2     		uxtb	r0, r0
 250              		.loc 1 120 1 view .LVU74
 251 0006 7047     		bx	lr
 252              		.cfi_endproc
 253              	.LFE136:
 255              		.section	.text.VL53L0X_isqrt,"ax",%progbits
 256              		.align	1
 257              		.global	VL53L0X_isqrt
 258              		.syntax unified
 259              		.thumb
 260              		.thumb_func
 261              		.fpu fpv4-sp-d16
 263              	VL53L0X_isqrt:
 264              	.LVL26:
 265              	.LFB137:
 121:Core/Src/vl53l0x_api_core.c **** 
 122:Core/Src/vl53l0x_api_core.c **** 
 123:Core/Src/vl53l0x_api_core.c **** uint32_t VL53L0X_isqrt(uint32_t num)
 124:Core/Src/vl53l0x_api_core.c **** {
 266              		.loc 1 124 1 is_stmt 1 view -0
 267              		.cfi_startproc
 268              		@ args = 0, pretend = 0, frame = 0
 269              		@ frame_needed = 0, uses_anonymous_args = 0
 270              		@ link register save eliminated.
 271              		.loc 1 124 1 is_stmt 0 view .LVU76
 272 0000 0246     		mov	r2, r0
 125:Core/Src/vl53l0x_api_core.c **** 	/*
 126:Core/Src/vl53l0x_api_core.c **** 	 * Implements an integer square root
 127:Core/Src/vl53l0x_api_core.c **** 	 *
 128:Core/Src/vl53l0x_api_core.c **** 	 * From: http://en.wikipedia.org/wiki/Methods_of_computing_square_roots
 129:Core/Src/vl53l0x_api_core.c **** 	 */
 130:Core/Src/vl53l0x_api_core.c **** 
 131:Core/Src/vl53l0x_api_core.c **** 	uint32_t  res = 0;
ARM GAS  C:\Users\anmh1\AppData\Local\Temp\ccrmGbOb.s 			page 8


 273              		.loc 1 131 2 is_stmt 1 view .LVU77
 274              	.LVL27:
 132:Core/Src/vl53l0x_api_core.c **** 	uint32_t  bit = 1 << 30;
 275              		.loc 1 132 2 view .LVU78
 133:Core/Src/vl53l0x_api_core.c **** 	/* The second-to-top bit is set:
 134:Core/Src/vl53l0x_api_core.c **** 	 *	1 << 14 for 16-bits, 1 << 30 for 32 bits */
 135:Core/Src/vl53l0x_api_core.c **** 
 136:Core/Src/vl53l0x_api_core.c **** 	 /* "bit" starts at the highest power of four <= the argument. */
 137:Core/Src/vl53l0x_api_core.c **** 	while (bit > num)
 276              		.loc 1 137 2 view .LVU79
 132:Core/Src/vl53l0x_api_core.c **** 	uint32_t  bit = 1 << 30;
 277              		.loc 1 132 12 is_stmt 0 view .LVU80
 278 0002 4FF08043 		mov	r3, #1073741824
 279              	.LVL28:
 280              	.L14:
 281              		.loc 1 137 8 is_stmt 1 view .LVU81
 282 0006 9342     		cmp	r3, r2
 283 0008 01D9     		bls	.L20
 138:Core/Src/vl53l0x_api_core.c **** 		bit >>= 2;
 284              		.loc 1 138 3 view .LVU82
 285              		.loc 1 138 7 is_stmt 0 view .LVU83
 286 000a 9B08     		lsrs	r3, r3, #2
 287              	.LVL29:
 288              		.loc 1 138 7 view .LVU84
 289 000c FBE7     		b	.L14
 290              	.L20:
 131:Core/Src/vl53l0x_api_core.c **** 	uint32_t  bit = 1 << 30;
 291              		.loc 1 131 12 view .LVU85
 292 000e 0020     		movs	r0, #0
 293              	.LVL30:
 131:Core/Src/vl53l0x_api_core.c **** 	uint32_t  bit = 1 << 30;
 294              		.loc 1 131 12 view .LVU86
 295 0010 01E0     		b	.L16
 296              	.LVL31:
 297              	.L17:
 139:Core/Src/vl53l0x_api_core.c **** 
 140:Core/Src/vl53l0x_api_core.c **** 
 141:Core/Src/vl53l0x_api_core.c **** 	while (bit != 0) {
 142:Core/Src/vl53l0x_api_core.c **** 		if (num >= res + bit) {
 143:Core/Src/vl53l0x_api_core.c **** 			num -= res + bit;
 144:Core/Src/vl53l0x_api_core.c **** 			res = (res >> 1) + bit;
 145:Core/Src/vl53l0x_api_core.c **** 		} else
 146:Core/Src/vl53l0x_api_core.c **** 			res >>= 1;
 298              		.loc 1 146 4 is_stmt 1 view .LVU87
 299              		.loc 1 146 8 is_stmt 0 view .LVU88
 300 0012 4008     		lsrs	r0, r0, #1
 301              	.LVL32:
 302              	.L18:
 147:Core/Src/vl53l0x_api_core.c **** 
 148:Core/Src/vl53l0x_api_core.c **** 		bit >>= 2;
 303              		.loc 1 148 3 is_stmt 1 view .LVU89
 304              		.loc 1 148 7 is_stmt 0 view .LVU90
 305 0014 9B08     		lsrs	r3, r3, #2
 306              	.LVL33:
 307              	.L16:
 141:Core/Src/vl53l0x_api_core.c **** 		if (num >= res + bit) {
 308              		.loc 1 141 8 is_stmt 1 view .LVU91
ARM GAS  C:\Users\anmh1\AppData\Local\Temp\ccrmGbOb.s 			page 9


 309 0016 33B1     		cbz	r3, .L21
 142:Core/Src/vl53l0x_api_core.c **** 			num -= res + bit;
 310              		.loc 1 142 3 view .LVU92
 142:Core/Src/vl53l0x_api_core.c **** 			num -= res + bit;
 311              		.loc 1 142 18 is_stmt 0 view .LVU93
 312 0018 C118     		adds	r1, r0, r3
 142:Core/Src/vl53l0x_api_core.c **** 			num -= res + bit;
 313              		.loc 1 142 6 view .LVU94
 314 001a 9142     		cmp	r1, r2
 315 001c F9D8     		bhi	.L17
 143:Core/Src/vl53l0x_api_core.c **** 			res = (res >> 1) + bit;
 316              		.loc 1 143 4 is_stmt 1 view .LVU95
 143:Core/Src/vl53l0x_api_core.c **** 			res = (res >> 1) + bit;
 317              		.loc 1 143 8 is_stmt 0 view .LVU96
 318 001e 521A     		subs	r2, r2, r1
 319              	.LVL34:
 144:Core/Src/vl53l0x_api_core.c **** 		} else
 320              		.loc 1 144 4 is_stmt 1 view .LVU97
 144:Core/Src/vl53l0x_api_core.c **** 		} else
 321              		.loc 1 144 8 is_stmt 0 view .LVU98
 322 0020 03EB5000 		add	r0, r3, r0, lsr #1
 323              	.LVL35:
 144:Core/Src/vl53l0x_api_core.c **** 		} else
 324              		.loc 1 144 8 view .LVU99
 325 0024 F6E7     		b	.L18
 326              	.L21:
 149:Core/Src/vl53l0x_api_core.c **** 	}
 150:Core/Src/vl53l0x_api_core.c **** 
 151:Core/Src/vl53l0x_api_core.c **** 	return res;
 152:Core/Src/vl53l0x_api_core.c **** }
 327              		.loc 1 152 1 view .LVU100
 328 0026 7047     		bx	lr
 329              		.cfi_endproc
 330              	.LFE137:
 332              		.section	.text.VL53L0X_quadrature_sum,"ax",%progbits
 333              		.align	1
 334              		.global	VL53L0X_quadrature_sum
 335              		.syntax unified
 336              		.thumb
 337              		.thumb_func
 338              		.fpu fpv4-sp-d16
 340              	VL53L0X_quadrature_sum:
 341              	.LVL36:
 342              	.LFB138:
 153:Core/Src/vl53l0x_api_core.c **** 
 154:Core/Src/vl53l0x_api_core.c **** 
 155:Core/Src/vl53l0x_api_core.c **** uint32_t VL53L0X_quadrature_sum(uint32_t a, uint32_t b)
 156:Core/Src/vl53l0x_api_core.c **** {
 343              		.loc 1 156 1 is_stmt 1 view -0
 344              		.cfi_startproc
 345              		@ args = 0, pretend = 0, frame = 0
 346              		@ frame_needed = 0, uses_anonymous_args = 0
 157:Core/Src/vl53l0x_api_core.c **** 	/*
 158:Core/Src/vl53l0x_api_core.c **** 	 * Implements a quadrature sum
 159:Core/Src/vl53l0x_api_core.c **** 	 *
 160:Core/Src/vl53l0x_api_core.c **** 	 * rea = sqrt(a^2 + b^2)
 161:Core/Src/vl53l0x_api_core.c **** 	 *
ARM GAS  C:\Users\anmh1\AppData\Local\Temp\ccrmGbOb.s 			page 10


 162:Core/Src/vl53l0x_api_core.c **** 	 * Trap overflow case max input value is 65535 (16-bit value)
 163:Core/Src/vl53l0x_api_core.c **** 	 * as internal calc are 32-bit wide
 164:Core/Src/vl53l0x_api_core.c **** 	 *
 165:Core/Src/vl53l0x_api_core.c **** 	 * If overflow then seta output to maximum
 166:Core/Src/vl53l0x_api_core.c **** 	 */
 167:Core/Src/vl53l0x_api_core.c **** 	uint32_t  res = 0;
 347              		.loc 1 167 2 view .LVU102
 168:Core/Src/vl53l0x_api_core.c **** 
 169:Core/Src/vl53l0x_api_core.c **** 	if (a > 65535 || b > 65535)
 348              		.loc 1 169 2 view .LVU103
 349              		.loc 1 169 5 is_stmt 0 view .LVU104
 350 0000 B0F5803F 		cmp	r0, #65536
 351 0004 0DD2     		bcs	.L24
 352              		.loc 1 169 16 discriminator 1 view .LVU105
 353 0006 B1F5803F 		cmp	r1, #65536
 354 000a 02D3     		bcc	.L30
 170:Core/Src/vl53l0x_api_core.c **** 		res = 65535;
 355              		.loc 1 170 7 view .LVU106
 356 000c 4FF6FF70 		movw	r0, #65535
 357              	.LVL37:
 171:Core/Src/vl53l0x_api_core.c **** 	else
 172:Core/Src/vl53l0x_api_core.c **** 		res = VL53L0X_isqrt(a * a + b * b);
 173:Core/Src/vl53l0x_api_core.c **** 
 174:Core/Src/vl53l0x_api_core.c **** 	return res;
 358              		.loc 1 174 2 is_stmt 1 view .LVU107
 175:Core/Src/vl53l0x_api_core.c **** }
 359              		.loc 1 175 1 is_stmt 0 view .LVU108
 360 0010 7047     		bx	lr
 361              	.LVL38:
 362              	.L30:
 156:Core/Src/vl53l0x_api_core.c **** 	/*
 363              		.loc 1 156 1 view .LVU109
 364 0012 08B5     		push	{r3, lr}
 365              		.cfi_def_cfa_offset 8
 366              		.cfi_offset 3, -8
 367              		.cfi_offset 14, -4
 172:Core/Src/vl53l0x_api_core.c **** 
 368              		.loc 1 172 3 is_stmt 1 view .LVU110
 172:Core/Src/vl53l0x_api_core.c **** 
 369              		.loc 1 172 33 is_stmt 0 view .LVU111
 370 0014 01FB01F1 		mul	r1, r1, r1
 371              	.LVL39:
 172:Core/Src/vl53l0x_api_core.c **** 
 372              		.loc 1 172 9 view .LVU112
 373 0018 00FB0010 		mla	r0, r0, r0, r1
 374              	.LVL40:
 172:Core/Src/vl53l0x_api_core.c **** 
 375              		.loc 1 172 9 view .LVU113
 376 001c FFF7FEFF 		bl	VL53L0X_isqrt
 377              	.LVL41:
 378              		.loc 1 175 1 view .LVU114
 379 0020 08BD     		pop	{r3, pc}
 380              	.LVL42:
 381              	.L24:
 382              		.cfi_def_cfa_offset 0
 383              		.cfi_restore 3
 384              		.cfi_restore 14
ARM GAS  C:\Users\anmh1\AppData\Local\Temp\ccrmGbOb.s 			page 11


 170:Core/Src/vl53l0x_api_core.c **** 	else
 385              		.loc 1 170 7 view .LVU115
 386 0022 4FF6FF70 		movw	r0, #65535
 387              	.LVL43:
 170:Core/Src/vl53l0x_api_core.c **** 	else
 388              		.loc 1 170 7 view .LVU116
 389 0026 7047     		bx	lr
 390              		.cfi_endproc
 391              	.LFE138:
 393              		.section	.text.VL53L0X_device_read_strobe,"ax",%progbits
 394              		.align	1
 395              		.global	VL53L0X_device_read_strobe
 396              		.syntax unified
 397              		.thumb
 398              		.thumb_func
 399              		.fpu fpv4-sp-d16
 401              	VL53L0X_device_read_strobe:
 402              	.LVL44:
 403              	.LFB139:
 176:Core/Src/vl53l0x_api_core.c **** 
 177:Core/Src/vl53l0x_api_core.c **** 
 178:Core/Src/vl53l0x_api_core.c **** VL53L0X_Error VL53L0X_device_read_strobe(VL53L0X_DEV Dev)
 179:Core/Src/vl53l0x_api_core.c **** {
 404              		.loc 1 179 1 is_stmt 1 view -0
 405              		.cfi_startproc
 406              		@ args = 0, pretend = 0, frame = 8
 407              		@ frame_needed = 0, uses_anonymous_args = 0
 408              		.loc 1 179 1 is_stmt 0 view .LVU118
 409 0000 70B5     		push	{r4, r5, r6, lr}
 410              		.cfi_def_cfa_offset 16
 411              		.cfi_offset 4, -16
 412              		.cfi_offset 5, -12
 413              		.cfi_offset 6, -8
 414              		.cfi_offset 14, -4
 415 0002 82B0     		sub	sp, sp, #8
 416              		.cfi_def_cfa_offset 24
 417 0004 0646     		mov	r6, r0
 180:Core/Src/vl53l0x_api_core.c **** 	VL53L0X_Error Status = VL53L0X_ERROR_NONE;
 418              		.loc 1 180 2 is_stmt 1 view .LVU119
 419              	.LVL45:
 181:Core/Src/vl53l0x_api_core.c **** 	uint8_t strobe;
 420              		.loc 1 181 2 view .LVU120
 182:Core/Src/vl53l0x_api_core.c **** 	uint32_t LoopNb;
 421              		.loc 1 182 2 view .LVU121
 183:Core/Src/vl53l0x_api_core.c **** 	LOG_FUNCTION_START("");
 422              		.loc 1 183 2 view .LVU122
 184:Core/Src/vl53l0x_api_core.c **** 
 185:Core/Src/vl53l0x_api_core.c **** 	Status |= VL53L0X_WrByte(Dev, 0x83, 0x00);
 423              		.loc 1 185 2 view .LVU123
 424              		.loc 1 185 12 is_stmt 0 view .LVU124
 425 0006 0022     		movs	r2, #0
 426 0008 8321     		movs	r1, #131
 427 000a FFF7FEFF 		bl	VL53L0X_WrByte
 428              	.LVL46:
 186:Core/Src/vl53l0x_api_core.c **** 
 187:Core/Src/vl53l0x_api_core.c **** 	/* polling
 188:Core/Src/vl53l0x_api_core.c **** 	 * use timeout to avoid deadlock*/
ARM GAS  C:\Users\anmh1\AppData\Local\Temp\ccrmGbOb.s 			page 12


 189:Core/Src/vl53l0x_api_core.c **** 	if (Status == VL53L0X_ERROR_NONE) {
 429              		.loc 1 189 2 is_stmt 1 view .LVU125
 430              		.loc 1 189 5 is_stmt 0 view .LVU126
 431 000e 0446     		mov	r4, r0
 432 0010 A0B9     		cbnz	r0, .L32
 190:Core/Src/vl53l0x_api_core.c **** 		LoopNb = 0;
 433              		.loc 1 190 10 view .LVU127
 434 0012 0025     		movs	r5, #0
 435              	.L34:
 436              	.LVL47:
 191:Core/Src/vl53l0x_api_core.c **** 		do {
 437              		.loc 1 191 3 is_stmt 1 view .LVU128
 192:Core/Src/vl53l0x_api_core.c **** 			Status = VL53L0X_RdByte(Dev, 0x83, &strobe);
 438              		.loc 1 192 4 view .LVU129
 439              		.loc 1 192 13 is_stmt 0 view .LVU130
 440 0014 0DF10702 		add	r2, sp, #7
 441 0018 8321     		movs	r1, #131
 442 001a 3046     		mov	r0, r6
 443              	.LVL48:
 444              		.loc 1 192 13 view .LVU131
 445 001c FFF7FEFF 		bl	VL53L0X_RdByte
 446              	.LVL49:
 447 0020 0446     		mov	r4, r0
 448              	.LVL50:
 193:Core/Src/vl53l0x_api_core.c **** 			if ((strobe != 0x00) || Status != VL53L0X_ERROR_NONE)
 449              		.loc 1 193 4 is_stmt 1 view .LVU132
 450              		.loc 1 193 16 is_stmt 0 view .LVU133
 451 0022 9DF80730 		ldrb	r3, [sp, #7]	@ zero_extendqisi2
 452              		.loc 1 193 7 view .LVU134
 453 0026 23B9     		cbnz	r3, .L33
 454              		.loc 1 193 25 discriminator 1 view .LVU135
 455 0028 18B9     		cbnz	r0, .L33
 194:Core/Src/vl53l0x_api_core.c **** 					break;
 195:Core/Src/vl53l0x_api_core.c **** 
 196:Core/Src/vl53l0x_api_core.c **** 			LoopNb = LoopNb + 1;
 456              		.loc 1 196 4 is_stmt 1 view .LVU136
 457              		.loc 1 196 11 is_stmt 0 view .LVU137
 458 002a 0135     		adds	r5, r5, #1
 459              	.LVL51:
 197:Core/Src/vl53l0x_api_core.c **** 		} while (LoopNb < VL53L0X_DEFAULT_MAX_LOOP);
 460              		.loc 1 197 11 is_stmt 1 view .LVU138
 461              		.loc 1 197 3 is_stmt 0 view .LVU139
 462 002c B5F5FA6F 		cmp	r5, #2000
 463 0030 F0D3     		bcc	.L34
 464              	.L33:
 198:Core/Src/vl53l0x_api_core.c **** 
 199:Core/Src/vl53l0x_api_core.c **** 		if (LoopNb >= VL53L0X_DEFAULT_MAX_LOOP)
 465              		.loc 1 199 3 is_stmt 1 view .LVU140
 466              		.loc 1 199 6 is_stmt 0 view .LVU141
 467 0032 B5F5FA6F 		cmp	r5, #2000
 468 0036 01D3     		bcc	.L32
 200:Core/Src/vl53l0x_api_core.c **** 			Status = VL53L0X_ERROR_TIME_OUT;
 469              		.loc 1 200 11 view .LVU142
 470 0038 6FF00604 		mvn	r4, #6
 471              	.LVL52:
 472              	.L32:
 201:Core/Src/vl53l0x_api_core.c **** 
ARM GAS  C:\Users\anmh1\AppData\Local\Temp\ccrmGbOb.s 			page 13


 202:Core/Src/vl53l0x_api_core.c **** 	}
 203:Core/Src/vl53l0x_api_core.c **** 
 204:Core/Src/vl53l0x_api_core.c **** 	Status |= VL53L0X_WrByte(Dev, 0x83, 0x01);
 473              		.loc 1 204 2 is_stmt 1 view .LVU143
 474              		.loc 1 204 12 is_stmt 0 view .LVU144
 475 003c 0122     		movs	r2, #1
 476 003e 8321     		movs	r1, #131
 477 0040 3046     		mov	r0, r6
 478 0042 FFF7FEFF 		bl	VL53L0X_WrByte
 479              	.LVL53:
 480              		.loc 1 204 9 view .LVU145
 481 0046 2043     		orrs	r0, r0, r4
 482              	.LVL54:
 205:Core/Src/vl53l0x_api_core.c **** 
 206:Core/Src/vl53l0x_api_core.c **** 	LOG_FUNCTION_END(Status);
 483              		.loc 1 206 2 is_stmt 1 view .LVU146
 207:Core/Src/vl53l0x_api_core.c **** 	return Status;
 484              		.loc 1 207 2 view .LVU147
 208:Core/Src/vl53l0x_api_core.c **** 
 209:Core/Src/vl53l0x_api_core.c **** }
 485              		.loc 1 209 1 is_stmt 0 view .LVU148
 486 0048 40B2     		sxtb	r0, r0
 487              		.loc 1 209 1 view .LVU149
 488 004a 02B0     		add	sp, sp, #8
 489              		.cfi_def_cfa_offset 16
 490              		@ sp needed
 491 004c 70BD     		pop	{r4, r5, r6, pc}
 492              		.loc 1 209 1 view .LVU150
 493              		.cfi_endproc
 494              	.LFE139:
 496              		.section	.text.VL53L0X_get_info_from_device,"ax",%progbits
 497              		.align	1
 498              		.global	VL53L0X_get_info_from_device
 499              		.syntax unified
 500              		.thumb
 501              		.thumb_func
 502              		.fpu fpv4-sp-d16
 504              	VL53L0X_get_info_from_device:
 505              	.LVL55:
 506              	.LFB140:
 210:Core/Src/vl53l0x_api_core.c **** 
 211:Core/Src/vl53l0x_api_core.c **** VL53L0X_Error VL53L0X_get_info_from_device(VL53L0X_DEV Dev, uint8_t option)
 212:Core/Src/vl53l0x_api_core.c **** {
 507              		.loc 1 212 1 is_stmt 1 view -0
 508              		.cfi_startproc
 509              		@ args = 0, pretend = 0, frame = 48
 510              		@ frame_needed = 0, uses_anonymous_args = 0
 511              		.loc 1 212 1 is_stmt 0 view .LVU152
 512 0000 2DE9F04F 		push	{r4, r5, r6, r7, r8, r9, r10, fp, lr}
 513              		.cfi_def_cfa_offset 36
 514              		.cfi_offset 4, -36
 515              		.cfi_offset 5, -32
 516              		.cfi_offset 6, -28
 517              		.cfi_offset 7, -24
 518              		.cfi_offset 8, -20
 519              		.cfi_offset 9, -16
 520              		.cfi_offset 10, -12
ARM GAS  C:\Users\anmh1\AppData\Local\Temp\ccrmGbOb.s 			page 14


 521              		.cfi_offset 11, -8
 522              		.cfi_offset 14, -4
 523 0004 8DB0     		sub	sp, sp, #52
 524              		.cfi_def_cfa_offset 88
 525 0006 0546     		mov	r5, r0
 526 0008 0E46     		mov	r6, r1
 213:Core/Src/vl53l0x_api_core.c **** 
 214:Core/Src/vl53l0x_api_core.c **** 	VL53L0X_Error Status = VL53L0X_ERROR_NONE;
 527              		.loc 1 214 2 is_stmt 1 view .LVU153
 528              	.LVL56:
 215:Core/Src/vl53l0x_api_core.c **** 	uint8_t byte;
 529              		.loc 1 215 2 view .LVU154
 216:Core/Src/vl53l0x_api_core.c **** 	uint32_t TmpDWord;
 530              		.loc 1 216 2 view .LVU155
 217:Core/Src/vl53l0x_api_core.c **** 	uint8_t ModuleId;
 531              		.loc 1 217 2 view .LVU156
 218:Core/Src/vl53l0x_api_core.c **** 	uint8_t Revision;
 532              		.loc 1 218 2 view .LVU157
 219:Core/Src/vl53l0x_api_core.c **** 	uint8_t ReferenceSpadCount = 0;
 533              		.loc 1 219 2 view .LVU158
 220:Core/Src/vl53l0x_api_core.c **** 	uint8_t ReferenceSpadType = 0;
 534              		.loc 1 220 2 view .LVU159
 221:Core/Src/vl53l0x_api_core.c **** 	uint32_t PartUIDUpper = 0;
 535              		.loc 1 221 2 view .LVU160
 536              		.loc 1 221 11 is_stmt 0 view .LVU161
 537 000a 0023     		movs	r3, #0
 538 000c 0893     		str	r3, [sp, #32]
 222:Core/Src/vl53l0x_api_core.c **** 	uint32_t PartUIDLower = 0;
 539              		.loc 1 222 2 is_stmt 1 view .LVU162
 540              		.loc 1 222 11 is_stmt 0 view .LVU163
 541 000e 0793     		str	r3, [sp, #28]
 223:Core/Src/vl53l0x_api_core.c **** 	uint32_t OffsetFixed1104_mm = 0;
 542              		.loc 1 223 2 is_stmt 1 view .LVU164
 543              	.LVL57:
 224:Core/Src/vl53l0x_api_core.c **** 	int16_t OffsetMicroMeters = 0;
 544              		.loc 1 224 2 view .LVU165
 225:Core/Src/vl53l0x_api_core.c **** 	uint32_t DistMeasTgtFixed1104_mm = 400 << 4;
 545              		.loc 1 225 2 view .LVU166
 226:Core/Src/vl53l0x_api_core.c **** 	uint32_t DistMeasFixed1104_400_mm = 0;
 546              		.loc 1 226 2 view .LVU167
 227:Core/Src/vl53l0x_api_core.c **** 	uint32_t SignalRateMeasFixed1104_400_mm = 0;
 547              		.loc 1 227 2 view .LVU168
 228:Core/Src/vl53l0x_api_core.c **** 	char ProductId[19];
 548              		.loc 1 228 2 view .LVU169
 229:Core/Src/vl53l0x_api_core.c **** 	char *ProductId_tmp;
 549              		.loc 1 229 2 view .LVU170
 230:Core/Src/vl53l0x_api_core.c **** 	uint8_t ReadDataFromDeviceDone;
 550              		.loc 1 230 2 view .LVU171
 231:Core/Src/vl53l0x_api_core.c **** 	FixPoint1616_t SignalRateMeasFixed400mmFix = 0;
 551              		.loc 1 231 2 view .LVU172
 232:Core/Src/vl53l0x_api_core.c **** 	uint8_t NvmRefGoodSpadMap[VL53L0X_REF_SPAD_BUFFER_SIZE];
 552              		.loc 1 232 2 view .LVU173
 233:Core/Src/vl53l0x_api_core.c **** 	int i;
 553              		.loc 1 233 2 view .LVU174
 234:Core/Src/vl53l0x_api_core.c **** 
 235:Core/Src/vl53l0x_api_core.c **** 
 236:Core/Src/vl53l0x_api_core.c **** 	LOG_FUNCTION_START("");
ARM GAS  C:\Users\anmh1\AppData\Local\Temp\ccrmGbOb.s 			page 15


 554              		.loc 1 236 2 view .LVU175
 237:Core/Src/vl53l0x_api_core.c **** 
 238:Core/Src/vl53l0x_api_core.c **** 	ReadDataFromDeviceDone = VL53L0X_GETDEVICESPECIFICPARAMETER(Dev,
 555              		.loc 1 238 2 view .LVU176
 556              		.loc 1 238 25 is_stmt 0 view .LVU177
 557 0010 90F8F070 		ldrb	r7, [r0, #240]	@ zero_extendqisi2
 558              	.LVL58:
 239:Core/Src/vl53l0x_api_core.c **** 			ReadDataFromDeviceDone);
 240:Core/Src/vl53l0x_api_core.c **** 
 241:Core/Src/vl53l0x_api_core.c **** 	/* This access is done only once after that a GetDeviceInfo or
 242:Core/Src/vl53l0x_api_core.c **** 	 * datainit is done*/
 243:Core/Src/vl53l0x_api_core.c **** 	if (ReadDataFromDeviceDone != 7) {
 559              		.loc 1 243 2 is_stmt 1 view .LVU178
 560              		.loc 1 243 5 is_stmt 0 view .LVU179
 561 0014 072F     		cmp	r7, #7
 562 0016 24D1     		bne	.L56
 227:Core/Src/vl53l0x_api_core.c **** 	char ProductId[19];
 563              		.loc 1 227 11 view .LVU180
 564 0018 4FF00008 		mov	r8, #0
 226:Core/Src/vl53l0x_api_core.c **** 	uint32_t SignalRateMeasFixed1104_400_mm = 0;
 565              		.loc 1 226 11 view .LVU181
 566 001c C346     		mov	fp, r8
 220:Core/Src/vl53l0x_api_core.c **** 	uint32_t PartUIDUpper = 0;
 567              		.loc 1 220 10 view .LVU182
 568 001e C246     		mov	r10, r8
 219:Core/Src/vl53l0x_api_core.c **** 	uint8_t ReferenceSpadType = 0;
 569              		.loc 1 219 10 view .LVU183
 570 0020 C146     		mov	r9, r8
 214:Core/Src/vl53l0x_api_core.c **** 	uint8_t byte;
 571              		.loc 1 214 16 view .LVU184
 572 0022 4446     		mov	r4, r8
 573              	.LVL59:
 574              	.L38:
 244:Core/Src/vl53l0x_api_core.c **** 
 245:Core/Src/vl53l0x_api_core.c **** 		Status |= VL53L0X_WrByte(Dev, 0x80, 0x01);
 246:Core/Src/vl53l0x_api_core.c **** 		Status |= VL53L0X_WrByte(Dev, 0xFF, 0x01);
 247:Core/Src/vl53l0x_api_core.c **** 		Status |= VL53L0X_WrByte(Dev, 0x00, 0x00);
 248:Core/Src/vl53l0x_api_core.c **** 
 249:Core/Src/vl53l0x_api_core.c **** 		Status |= VL53L0X_WrByte(Dev, 0xFF, 0x06);
 250:Core/Src/vl53l0x_api_core.c **** 		Status |= VL53L0X_RdByte(Dev, 0x83, &byte);
 251:Core/Src/vl53l0x_api_core.c **** 		Status |= VL53L0X_WrByte(Dev, 0x83, byte|4);
 252:Core/Src/vl53l0x_api_core.c **** 		Status |= VL53L0X_WrByte(Dev, 0xFF, 0x07);
 253:Core/Src/vl53l0x_api_core.c **** 		Status |= VL53L0X_WrByte(Dev, 0x81, 0x01);
 254:Core/Src/vl53l0x_api_core.c **** 
 255:Core/Src/vl53l0x_api_core.c **** 		Status |= VL53L0X_PollingDelay(Dev);
 256:Core/Src/vl53l0x_api_core.c **** 
 257:Core/Src/vl53l0x_api_core.c **** 		Status |= VL53L0X_WrByte(Dev, 0x80, 0x01);
 258:Core/Src/vl53l0x_api_core.c **** 
 259:Core/Src/vl53l0x_api_core.c **** 		if (((option & 1) == 1) &&
 260:Core/Src/vl53l0x_api_core.c **** 			((ReadDataFromDeviceDone & 1) == 0)) {
 261:Core/Src/vl53l0x_api_core.c **** 			Status |= VL53L0X_WrByte(Dev, 0x94, 0x6b);
 262:Core/Src/vl53l0x_api_core.c **** 			Status |= VL53L0X_device_read_strobe(Dev);
 263:Core/Src/vl53l0x_api_core.c **** 			Status |= VL53L0X_RdDWord(Dev, 0x90, &TmpDWord);
 264:Core/Src/vl53l0x_api_core.c **** 
 265:Core/Src/vl53l0x_api_core.c **** 			ReferenceSpadCount = (uint8_t)((TmpDWord >> 8) & 0x07f);
 266:Core/Src/vl53l0x_api_core.c **** 			ReferenceSpadType  = (uint8_t)((TmpDWord >> 15) & 0x01);
 267:Core/Src/vl53l0x_api_core.c **** 
ARM GAS  C:\Users\anmh1\AppData\Local\Temp\ccrmGbOb.s 			page 16


 268:Core/Src/vl53l0x_api_core.c **** 			Status |= VL53L0X_WrByte(Dev, 0x94, 0x24);
 269:Core/Src/vl53l0x_api_core.c **** 			Status |= VL53L0X_device_read_strobe(Dev);
 270:Core/Src/vl53l0x_api_core.c **** 			Status |= VL53L0X_RdDWord(Dev, 0x90, &TmpDWord);
 271:Core/Src/vl53l0x_api_core.c **** 
 272:Core/Src/vl53l0x_api_core.c **** 
 273:Core/Src/vl53l0x_api_core.c **** 			NvmRefGoodSpadMap[0] = (uint8_t)((TmpDWord >> 24)
 274:Core/Src/vl53l0x_api_core.c **** 				& 0xff);
 275:Core/Src/vl53l0x_api_core.c **** 			NvmRefGoodSpadMap[1] = (uint8_t)((TmpDWord >> 16)
 276:Core/Src/vl53l0x_api_core.c **** 				& 0xff);
 277:Core/Src/vl53l0x_api_core.c **** 			NvmRefGoodSpadMap[2] = (uint8_t)((TmpDWord >> 8)
 278:Core/Src/vl53l0x_api_core.c **** 				& 0xff);
 279:Core/Src/vl53l0x_api_core.c **** 			NvmRefGoodSpadMap[3] = (uint8_t)(TmpDWord & 0xff);
 280:Core/Src/vl53l0x_api_core.c **** 
 281:Core/Src/vl53l0x_api_core.c **** 			Status |= VL53L0X_WrByte(Dev, 0x94, 0x25);
 282:Core/Src/vl53l0x_api_core.c **** 			Status |= VL53L0X_device_read_strobe(Dev);
 283:Core/Src/vl53l0x_api_core.c **** 			Status |= VL53L0X_RdDWord(Dev, 0x90, &TmpDWord);
 284:Core/Src/vl53l0x_api_core.c **** 
 285:Core/Src/vl53l0x_api_core.c **** 			NvmRefGoodSpadMap[4] = (uint8_t)((TmpDWord >> 24)
 286:Core/Src/vl53l0x_api_core.c **** 				& 0xff);
 287:Core/Src/vl53l0x_api_core.c **** 			NvmRefGoodSpadMap[5] = (uint8_t)((TmpDWord >> 16)
 288:Core/Src/vl53l0x_api_core.c **** 				& 0xff);
 289:Core/Src/vl53l0x_api_core.c **** 		}
 290:Core/Src/vl53l0x_api_core.c **** 
 291:Core/Src/vl53l0x_api_core.c **** 		if (((option & 2) == 2) &&
 292:Core/Src/vl53l0x_api_core.c **** 			((ReadDataFromDeviceDone & 2) == 0)) {
 293:Core/Src/vl53l0x_api_core.c **** 
 294:Core/Src/vl53l0x_api_core.c **** 			Status |= VL53L0X_WrByte(Dev, 0x94, 0x02);
 295:Core/Src/vl53l0x_api_core.c **** 			Status |= VL53L0X_device_read_strobe(Dev);
 296:Core/Src/vl53l0x_api_core.c **** 			Status |= VL53L0X_RdByte(Dev, 0x90, &ModuleId);
 297:Core/Src/vl53l0x_api_core.c **** 
 298:Core/Src/vl53l0x_api_core.c **** 			Status |= VL53L0X_WrByte(Dev, 0x94, 0x7B);
 299:Core/Src/vl53l0x_api_core.c **** 			Status |= VL53L0X_device_read_strobe(Dev);
 300:Core/Src/vl53l0x_api_core.c **** 			Status |= VL53L0X_RdByte(Dev, 0x90, &Revision);
 301:Core/Src/vl53l0x_api_core.c **** 
 302:Core/Src/vl53l0x_api_core.c **** 			Status |= VL53L0X_WrByte(Dev, 0x94, 0x77);
 303:Core/Src/vl53l0x_api_core.c **** 			Status |= VL53L0X_device_read_strobe(Dev);
 304:Core/Src/vl53l0x_api_core.c **** 			Status |= VL53L0X_RdDWord(Dev, 0x90, &TmpDWord);
 305:Core/Src/vl53l0x_api_core.c **** 
 306:Core/Src/vl53l0x_api_core.c **** 			ProductId[0] = (char)((TmpDWord >> 25) & 0x07f);
 307:Core/Src/vl53l0x_api_core.c **** 			ProductId[1] = (char)((TmpDWord >> 18) & 0x07f);
 308:Core/Src/vl53l0x_api_core.c **** 			ProductId[2] = (char)((TmpDWord >> 11) & 0x07f);
 309:Core/Src/vl53l0x_api_core.c **** 			ProductId[3] = (char)((TmpDWord >> 4) & 0x07f);
 310:Core/Src/vl53l0x_api_core.c **** 
 311:Core/Src/vl53l0x_api_core.c **** 			byte = (uint8_t)((TmpDWord & 0x00f) << 3);
 312:Core/Src/vl53l0x_api_core.c **** 
 313:Core/Src/vl53l0x_api_core.c **** 			Status |= VL53L0X_WrByte(Dev, 0x94, 0x78);
 314:Core/Src/vl53l0x_api_core.c **** 			Status |= VL53L0X_device_read_strobe(Dev);
 315:Core/Src/vl53l0x_api_core.c **** 			Status |= VL53L0X_RdDWord(Dev, 0x90, &TmpDWord);
 316:Core/Src/vl53l0x_api_core.c **** 
 317:Core/Src/vl53l0x_api_core.c **** 			ProductId[4] = (char)(byte +
 318:Core/Src/vl53l0x_api_core.c **** 					((TmpDWord >> 29) & 0x07f));
 319:Core/Src/vl53l0x_api_core.c **** 			ProductId[5] = (char)((TmpDWord >> 22) & 0x07f);
 320:Core/Src/vl53l0x_api_core.c **** 			ProductId[6] = (char)((TmpDWord >> 15) & 0x07f);
 321:Core/Src/vl53l0x_api_core.c **** 			ProductId[7] = (char)((TmpDWord >> 8) & 0x07f);
 322:Core/Src/vl53l0x_api_core.c **** 			ProductId[8] = (char)((TmpDWord >> 1) & 0x07f);
 323:Core/Src/vl53l0x_api_core.c **** 
 324:Core/Src/vl53l0x_api_core.c **** 			byte = (uint8_t)((TmpDWord & 0x001) << 6);
ARM GAS  C:\Users\anmh1\AppData\Local\Temp\ccrmGbOb.s 			page 17


 325:Core/Src/vl53l0x_api_core.c **** 
 326:Core/Src/vl53l0x_api_core.c **** 			Status |= VL53L0X_WrByte(Dev, 0x94, 0x79);
 327:Core/Src/vl53l0x_api_core.c **** 
 328:Core/Src/vl53l0x_api_core.c **** 			Status |= VL53L0X_device_read_strobe(Dev);
 329:Core/Src/vl53l0x_api_core.c **** 
 330:Core/Src/vl53l0x_api_core.c **** 			Status |= VL53L0X_RdDWord(Dev, 0x90, &TmpDWord);
 331:Core/Src/vl53l0x_api_core.c **** 
 332:Core/Src/vl53l0x_api_core.c **** 			ProductId[9] = (char)(byte +
 333:Core/Src/vl53l0x_api_core.c **** 					((TmpDWord >> 26) & 0x07f));
 334:Core/Src/vl53l0x_api_core.c **** 			ProductId[10] = (char)((TmpDWord >> 19) & 0x07f);
 335:Core/Src/vl53l0x_api_core.c **** 			ProductId[11] = (char)((TmpDWord >> 12) & 0x07f);
 336:Core/Src/vl53l0x_api_core.c **** 			ProductId[12] = (char)((TmpDWord >> 5) & 0x07f);
 337:Core/Src/vl53l0x_api_core.c **** 
 338:Core/Src/vl53l0x_api_core.c **** 			byte = (uint8_t)((TmpDWord & 0x01f) << 2);
 339:Core/Src/vl53l0x_api_core.c **** 
 340:Core/Src/vl53l0x_api_core.c **** 			Status |= VL53L0X_WrByte(Dev, 0x94, 0x7A);
 341:Core/Src/vl53l0x_api_core.c **** 
 342:Core/Src/vl53l0x_api_core.c **** 			Status |= VL53L0X_device_read_strobe(Dev);
 343:Core/Src/vl53l0x_api_core.c **** 
 344:Core/Src/vl53l0x_api_core.c **** 			Status |= VL53L0X_RdDWord(Dev, 0x90, &TmpDWord);
 345:Core/Src/vl53l0x_api_core.c **** 
 346:Core/Src/vl53l0x_api_core.c **** 			ProductId[13] = (char)(byte +
 347:Core/Src/vl53l0x_api_core.c **** 					((TmpDWord >> 30) & 0x07f));
 348:Core/Src/vl53l0x_api_core.c **** 			ProductId[14] = (char)((TmpDWord >> 23) & 0x07f);
 349:Core/Src/vl53l0x_api_core.c **** 			ProductId[15] = (char)((TmpDWord >> 16) & 0x07f);
 350:Core/Src/vl53l0x_api_core.c **** 			ProductId[16] = (char)((TmpDWord >> 9) & 0x07f);
 351:Core/Src/vl53l0x_api_core.c **** 			ProductId[17] = (char)((TmpDWord >> 2) & 0x07f);
 352:Core/Src/vl53l0x_api_core.c **** 			ProductId[18] = '\0';
 353:Core/Src/vl53l0x_api_core.c **** 
 354:Core/Src/vl53l0x_api_core.c **** 		}
 355:Core/Src/vl53l0x_api_core.c **** 
 356:Core/Src/vl53l0x_api_core.c **** 		if (((option & 4) == 4) &&
 357:Core/Src/vl53l0x_api_core.c **** 			((ReadDataFromDeviceDone & 4) == 0)) {
 358:Core/Src/vl53l0x_api_core.c **** 
 359:Core/Src/vl53l0x_api_core.c **** 			Status |= VL53L0X_WrByte(Dev, 0x94, 0x7B);
 360:Core/Src/vl53l0x_api_core.c **** 			Status |= VL53L0X_device_read_strobe(Dev);
 361:Core/Src/vl53l0x_api_core.c **** 			Status |= VL53L0X_RdDWord(Dev, 0x90, &PartUIDUpper);
 362:Core/Src/vl53l0x_api_core.c **** 
 363:Core/Src/vl53l0x_api_core.c **** 			Status |= VL53L0X_WrByte(Dev, 0x94, 0x7C);
 364:Core/Src/vl53l0x_api_core.c **** 			Status |= VL53L0X_device_read_strobe(Dev);
 365:Core/Src/vl53l0x_api_core.c **** 			Status |= VL53L0X_RdDWord(Dev, 0x90, &PartUIDLower);
 366:Core/Src/vl53l0x_api_core.c **** 
 367:Core/Src/vl53l0x_api_core.c **** 			Status |= VL53L0X_WrByte(Dev, 0x94, 0x73);
 368:Core/Src/vl53l0x_api_core.c **** 			Status |= VL53L0X_device_read_strobe(Dev);
 369:Core/Src/vl53l0x_api_core.c **** 			Status |= VL53L0X_RdDWord(Dev, 0x90, &TmpDWord);
 370:Core/Src/vl53l0x_api_core.c **** 
 371:Core/Src/vl53l0x_api_core.c **** 			SignalRateMeasFixed1104_400_mm = (TmpDWord &
 372:Core/Src/vl53l0x_api_core.c **** 				0x0000000ff) << 8;
 373:Core/Src/vl53l0x_api_core.c **** 
 374:Core/Src/vl53l0x_api_core.c **** 			Status |= VL53L0X_WrByte(Dev, 0x94, 0x74);
 375:Core/Src/vl53l0x_api_core.c **** 			Status |= VL53L0X_device_read_strobe(Dev);
 376:Core/Src/vl53l0x_api_core.c **** 			Status |= VL53L0X_RdDWord(Dev, 0x90, &TmpDWord);
 377:Core/Src/vl53l0x_api_core.c **** 
 378:Core/Src/vl53l0x_api_core.c **** 			SignalRateMeasFixed1104_400_mm |= ((TmpDWord &
 379:Core/Src/vl53l0x_api_core.c **** 				0xff000000) >> 24);
 380:Core/Src/vl53l0x_api_core.c **** 
 381:Core/Src/vl53l0x_api_core.c **** 			Status |= VL53L0X_WrByte(Dev, 0x94, 0x75);
ARM GAS  C:\Users\anmh1\AppData\Local\Temp\ccrmGbOb.s 			page 18


 382:Core/Src/vl53l0x_api_core.c **** 			Status |= VL53L0X_device_read_strobe(Dev);
 383:Core/Src/vl53l0x_api_core.c **** 			Status |= VL53L0X_RdDWord(Dev, 0x90, &TmpDWord);
 384:Core/Src/vl53l0x_api_core.c **** 
 385:Core/Src/vl53l0x_api_core.c **** 			DistMeasFixed1104_400_mm = (TmpDWord & 0x0000000ff)
 386:Core/Src/vl53l0x_api_core.c **** 							<< 8;
 387:Core/Src/vl53l0x_api_core.c **** 
 388:Core/Src/vl53l0x_api_core.c **** 			Status |= VL53L0X_WrByte(Dev, 0x94, 0x76);
 389:Core/Src/vl53l0x_api_core.c **** 			Status |= VL53L0X_device_read_strobe(Dev);
 390:Core/Src/vl53l0x_api_core.c **** 			Status |= VL53L0X_RdDWord(Dev, 0x90, &TmpDWord);
 391:Core/Src/vl53l0x_api_core.c **** 
 392:Core/Src/vl53l0x_api_core.c **** 			DistMeasFixed1104_400_mm |= ((TmpDWord & 0xff000000)
 393:Core/Src/vl53l0x_api_core.c **** 							>> 24);
 394:Core/Src/vl53l0x_api_core.c **** 		}
 395:Core/Src/vl53l0x_api_core.c **** 
 396:Core/Src/vl53l0x_api_core.c **** 		Status |= VL53L0X_WrByte(Dev, 0x81, 0x00);
 397:Core/Src/vl53l0x_api_core.c **** 		Status |= VL53L0X_WrByte(Dev, 0xFF, 0x06);
 398:Core/Src/vl53l0x_api_core.c **** 		Status |= VL53L0X_RdByte(Dev, 0x83, &byte);
 399:Core/Src/vl53l0x_api_core.c **** 		Status |= VL53L0X_WrByte(Dev, 0x83, byte&0xfb);
 400:Core/Src/vl53l0x_api_core.c **** 		Status |= VL53L0X_WrByte(Dev, 0xFF, 0x01);
 401:Core/Src/vl53l0x_api_core.c **** 		Status |= VL53L0X_WrByte(Dev, 0x00, 0x01);
 402:Core/Src/vl53l0x_api_core.c **** 
 403:Core/Src/vl53l0x_api_core.c **** 		Status |= VL53L0X_WrByte(Dev, 0xFF, 0x00);
 404:Core/Src/vl53l0x_api_core.c **** 		Status |= VL53L0X_WrByte(Dev, 0x80, 0x00);
 405:Core/Src/vl53l0x_api_core.c **** 	}
 406:Core/Src/vl53l0x_api_core.c **** 
 407:Core/Src/vl53l0x_api_core.c **** 	if ((Status == VL53L0X_ERROR_NONE) &&
 575              		.loc 1 407 2 is_stmt 1 view .LVU185
 576              		.loc 1 407 5 is_stmt 0 view .LVU186
 577 0024 002C     		cmp	r4, #0
 578 0026 40F0A782 		bne	.L42
 579              		.loc 1 407 37 discriminator 1 view .LVU187
 580 002a 072F     		cmp	r7, #7
 581 002c 00F0A482 		beq	.L42
 408:Core/Src/vl53l0x_api_core.c **** 		(ReadDataFromDeviceDone != 7)) {
 409:Core/Src/vl53l0x_api_core.c **** 		/* Assign to variable if status is ok */
 410:Core/Src/vl53l0x_api_core.c **** 		if (((option & 1) == 1) &&
 582              		.loc 1 410 3 is_stmt 1 view .LVU188
 583              		.loc 1 410 6 is_stmt 0 view .LVU189
 584 0030 16F0010F 		tst	r6, #1
 585 0034 00F06A82 		beq	.L43
 586              		.loc 1 410 27 discriminator 1 view .LVU190
 587 0038 17F0010F 		tst	r7, #1
 588 003c 40F06682 		bne	.L43
 411:Core/Src/vl53l0x_api_core.c **** 			((ReadDataFromDeviceDone & 1) == 0)) {
 412:Core/Src/vl53l0x_api_core.c **** 			VL53L0X_SETDEVICESPECIFICPARAMETER(Dev,
 589              		.loc 1 412 4 is_stmt 1 view .LVU191
 590 0040 85F81391 		strb	r9, [r5, #275]
 413:Core/Src/vl53l0x_api_core.c **** 				ReferenceSpadCount, ReferenceSpadCount);
 414:Core/Src/vl53l0x_api_core.c **** 
 415:Core/Src/vl53l0x_api_core.c **** 			VL53L0X_SETDEVICESPECIFICPARAMETER(Dev,
 591              		.loc 1 415 4 view .LVU192
 592 0044 85F814A1 		strb	r10, [r5, #276]
 416:Core/Src/vl53l0x_api_core.c **** 				ReferenceSpadType, ReferenceSpadType);
 417:Core/Src/vl53l0x_api_core.c **** 
 418:Core/Src/vl53l0x_api_core.c **** 			for (i = 0; i < VL53L0X_REF_SPAD_BUFFER_SIZE; i++) {
 593              		.loc 1 418 4 view .LVU193
 594              	.LVL60:
ARM GAS  C:\Users\anmh1\AppData\Local\Temp\ccrmGbOb.s 			page 19


 595              		.loc 1 418 11 is_stmt 0 view .LVU194
 596 0048 0023     		movs	r3, #0
 597              	.LVL61:
 598              	.L44:
 599              		.loc 1 418 16 is_stmt 1 discriminator 1 view .LVU195
 600              		.loc 1 418 4 is_stmt 0 discriminator 1 view .LVU196
 601 004a 052B     		cmp	r3, #5
 602 004c 00F35E82 		bgt	.L43
 419:Core/Src/vl53l0x_api_core.c **** 				Dev->Data.SpadData.RefGoodSpadMap[i] =
 603              		.loc 1 419 5 is_stmt 1 discriminator 3 view .LVU197
 420:Core/Src/vl53l0x_api_core.c **** 					NvmRefGoodSpadMap[i];
 604              		.loc 1 420 23 is_stmt 0 discriminator 3 view .LVU198
 605 0050 0CAA     		add	r2, sp, #48
 606 0052 1A44     		add	r2, r2, r3
 607 0054 12F8301C 		ldrb	r1, [r2, #-48]	@ zero_extendqisi2
 419:Core/Src/vl53l0x_api_core.c **** 				Dev->Data.SpadData.RefGoodSpadMap[i] =
 608              		.loc 1 419 42 discriminator 3 view .LVU199
 609 0058 EA18     		adds	r2, r5, r3
 610 005a 82F82A11 		strb	r1, [r2, #298]
 418:Core/Src/vl53l0x_api_core.c **** 				Dev->Data.SpadData.RefGoodSpadMap[i] =
 611              		.loc 1 418 50 is_stmt 1 discriminator 3 view .LVU200
 418:Core/Src/vl53l0x_api_core.c **** 				Dev->Data.SpadData.RefGoodSpadMap[i] =
 612              		.loc 1 418 51 is_stmt 0 discriminator 3 view .LVU201
 613 005e 0133     		adds	r3, r3, #1
 614              	.LVL62:
 418:Core/Src/vl53l0x_api_core.c **** 				Dev->Data.SpadData.RefGoodSpadMap[i] =
 615              		.loc 1 418 51 discriminator 3 view .LVU202
 616 0060 F3E7     		b	.L44
 617              	.LVL63:
 618              	.L56:
 245:Core/Src/vl53l0x_api_core.c **** 		Status |= VL53L0X_WrByte(Dev, 0xFF, 0x01);
 619              		.loc 1 245 3 is_stmt 1 view .LVU203
 245:Core/Src/vl53l0x_api_core.c **** 		Status |= VL53L0X_WrByte(Dev, 0xFF, 0x01);
 620              		.loc 1 245 13 is_stmt 0 view .LVU204
 621 0062 0122     		movs	r2, #1
 622 0064 8021     		movs	r1, #128
 623              	.LVL64:
 245:Core/Src/vl53l0x_api_core.c **** 		Status |= VL53L0X_WrByte(Dev, 0xFF, 0x01);
 624              		.loc 1 245 13 view .LVU205
 625 0066 FFF7FEFF 		bl	VL53L0X_WrByte
 626              	.LVL65:
 245:Core/Src/vl53l0x_api_core.c **** 		Status |= VL53L0X_WrByte(Dev, 0xFF, 0x01);
 627              		.loc 1 245 13 view .LVU206
 628 006a 0446     		mov	r4, r0
 629              	.LVL66:
 246:Core/Src/vl53l0x_api_core.c **** 		Status |= VL53L0X_WrByte(Dev, 0x00, 0x00);
 630              		.loc 1 246 3 is_stmt 1 view .LVU207
 246:Core/Src/vl53l0x_api_core.c **** 		Status |= VL53L0X_WrByte(Dev, 0x00, 0x00);
 631              		.loc 1 246 13 is_stmt 0 view .LVU208
 632 006c 0122     		movs	r2, #1
 633 006e FF21     		movs	r1, #255
 634 0070 2846     		mov	r0, r5
 635 0072 FFF7FEFF 		bl	VL53L0X_WrByte
 636              	.LVL67:
 246:Core/Src/vl53l0x_api_core.c **** 		Status |= VL53L0X_WrByte(Dev, 0x00, 0x00);
 637              		.loc 1 246 10 view .LVU209
 638 0076 0443     		orrs	r4, r4, r0
ARM GAS  C:\Users\anmh1\AppData\Local\Temp\ccrmGbOb.s 			page 20


 639              	.LVL68:
 246:Core/Src/vl53l0x_api_core.c **** 		Status |= VL53L0X_WrByte(Dev, 0x00, 0x00);
 640              		.loc 1 246 10 view .LVU210
 641 0078 64B2     		sxtb	r4, r4
 642              	.LVL69:
 247:Core/Src/vl53l0x_api_core.c **** 
 643              		.loc 1 247 3 is_stmt 1 view .LVU211
 247:Core/Src/vl53l0x_api_core.c **** 
 644              		.loc 1 247 13 is_stmt 0 view .LVU212
 645 007a 0022     		movs	r2, #0
 646 007c 1146     		mov	r1, r2
 647 007e 2846     		mov	r0, r5
 648 0080 FFF7FEFF 		bl	VL53L0X_WrByte
 649              	.LVL70:
 247:Core/Src/vl53l0x_api_core.c **** 
 650              		.loc 1 247 10 view .LVU213
 651 0084 0443     		orrs	r4, r4, r0
 652              	.LVL71:
 247:Core/Src/vl53l0x_api_core.c **** 
 653              		.loc 1 247 10 view .LVU214
 654 0086 64B2     		sxtb	r4, r4
 655              	.LVL72:
 249:Core/Src/vl53l0x_api_core.c **** 		Status |= VL53L0X_RdByte(Dev, 0x83, &byte);
 656              		.loc 1 249 3 is_stmt 1 view .LVU215
 249:Core/Src/vl53l0x_api_core.c **** 		Status |= VL53L0X_RdByte(Dev, 0x83, &byte);
 657              		.loc 1 249 13 is_stmt 0 view .LVU216
 658 0088 0622     		movs	r2, #6
 659 008a FF21     		movs	r1, #255
 660 008c 2846     		mov	r0, r5
 661 008e FFF7FEFF 		bl	VL53L0X_WrByte
 662              	.LVL73:
 249:Core/Src/vl53l0x_api_core.c **** 		Status |= VL53L0X_RdByte(Dev, 0x83, &byte);
 663              		.loc 1 249 10 view .LVU217
 664 0092 0443     		orrs	r4, r4, r0
 665              	.LVL74:
 249:Core/Src/vl53l0x_api_core.c **** 		Status |= VL53L0X_RdByte(Dev, 0x83, &byte);
 666              		.loc 1 249 10 view .LVU218
 667 0094 64B2     		sxtb	r4, r4
 668              	.LVL75:
 250:Core/Src/vl53l0x_api_core.c **** 		Status |= VL53L0X_WrByte(Dev, 0x83, byte|4);
 669              		.loc 1 250 3 is_stmt 1 view .LVU219
 250:Core/Src/vl53l0x_api_core.c **** 		Status |= VL53L0X_WrByte(Dev, 0x83, byte|4);
 670              		.loc 1 250 13 is_stmt 0 view .LVU220
 671 0096 0DF12F02 		add	r2, sp, #47
 672 009a 8321     		movs	r1, #131
 673 009c 2846     		mov	r0, r5
 674 009e FFF7FEFF 		bl	VL53L0X_RdByte
 675              	.LVL76:
 250:Core/Src/vl53l0x_api_core.c **** 		Status |= VL53L0X_WrByte(Dev, 0x83, byte|4);
 676              		.loc 1 250 10 view .LVU221
 677 00a2 0443     		orrs	r4, r4, r0
 678              	.LVL77:
 250:Core/Src/vl53l0x_api_core.c **** 		Status |= VL53L0X_WrByte(Dev, 0x83, byte|4);
 679              		.loc 1 250 10 view .LVU222
 680 00a4 64B2     		sxtb	r4, r4
 681              	.LVL78:
 251:Core/Src/vl53l0x_api_core.c **** 		Status |= VL53L0X_WrByte(Dev, 0xFF, 0x07);
ARM GAS  C:\Users\anmh1\AppData\Local\Temp\ccrmGbOb.s 			page 21


 682              		.loc 1 251 3 is_stmt 1 view .LVU223
 251:Core/Src/vl53l0x_api_core.c **** 		Status |= VL53L0X_WrByte(Dev, 0xFF, 0x07);
 683              		.loc 1 251 13 is_stmt 0 view .LVU224
 684 00a6 9DF82F20 		ldrb	r2, [sp, #47]	@ zero_extendqisi2
 685 00aa 42F00402 		orr	r2, r2, #4
 686 00ae 8321     		movs	r1, #131
 687 00b0 2846     		mov	r0, r5
 688 00b2 FFF7FEFF 		bl	VL53L0X_WrByte
 689              	.LVL79:
 251:Core/Src/vl53l0x_api_core.c **** 		Status |= VL53L0X_WrByte(Dev, 0xFF, 0x07);
 690              		.loc 1 251 10 view .LVU225
 691 00b6 0443     		orrs	r4, r4, r0
 692              	.LVL80:
 251:Core/Src/vl53l0x_api_core.c **** 		Status |= VL53L0X_WrByte(Dev, 0xFF, 0x07);
 693              		.loc 1 251 10 view .LVU226
 694 00b8 64B2     		sxtb	r4, r4
 695              	.LVL81:
 252:Core/Src/vl53l0x_api_core.c **** 		Status |= VL53L0X_WrByte(Dev, 0x81, 0x01);
 696              		.loc 1 252 3 is_stmt 1 view .LVU227
 252:Core/Src/vl53l0x_api_core.c **** 		Status |= VL53L0X_WrByte(Dev, 0x81, 0x01);
 697              		.loc 1 252 13 is_stmt 0 view .LVU228
 698 00ba 0722     		movs	r2, #7
 699 00bc FF21     		movs	r1, #255
 700 00be 2846     		mov	r0, r5
 701 00c0 FFF7FEFF 		bl	VL53L0X_WrByte
 702              	.LVL82:
 252:Core/Src/vl53l0x_api_core.c **** 		Status |= VL53L0X_WrByte(Dev, 0x81, 0x01);
 703              		.loc 1 252 10 view .LVU229
 704 00c4 0443     		orrs	r4, r4, r0
 705              	.LVL83:
 252:Core/Src/vl53l0x_api_core.c **** 		Status |= VL53L0X_WrByte(Dev, 0x81, 0x01);
 706              		.loc 1 252 10 view .LVU230
 707 00c6 64B2     		sxtb	r4, r4
 708              	.LVL84:
 253:Core/Src/vl53l0x_api_core.c **** 
 709              		.loc 1 253 3 is_stmt 1 view .LVU231
 253:Core/Src/vl53l0x_api_core.c **** 
 710              		.loc 1 253 13 is_stmt 0 view .LVU232
 711 00c8 0122     		movs	r2, #1
 712 00ca 8121     		movs	r1, #129
 713 00cc 2846     		mov	r0, r5
 714 00ce FFF7FEFF 		bl	VL53L0X_WrByte
 715              	.LVL85:
 253:Core/Src/vl53l0x_api_core.c **** 
 716              		.loc 1 253 10 view .LVU233
 717 00d2 0443     		orrs	r4, r4, r0
 718              	.LVL86:
 253:Core/Src/vl53l0x_api_core.c **** 
 719              		.loc 1 253 10 view .LVU234
 720 00d4 64B2     		sxtb	r4, r4
 721              	.LVL87:
 255:Core/Src/vl53l0x_api_core.c **** 
 722              		.loc 1 255 3 is_stmt 1 view .LVU235
 255:Core/Src/vl53l0x_api_core.c **** 
 723              		.loc 1 255 13 is_stmt 0 view .LVU236
 724 00d6 2846     		mov	r0, r5
 725 00d8 FFF7FEFF 		bl	VL53L0X_PollingDelay
ARM GAS  C:\Users\anmh1\AppData\Local\Temp\ccrmGbOb.s 			page 22


 726              	.LVL88:
 255:Core/Src/vl53l0x_api_core.c **** 
 727              		.loc 1 255 10 view .LVU237
 728 00dc 0443     		orrs	r4, r4, r0
 729              	.LVL89:
 255:Core/Src/vl53l0x_api_core.c **** 
 730              		.loc 1 255 10 view .LVU238
 731 00de 64B2     		sxtb	r4, r4
 732              	.LVL90:
 257:Core/Src/vl53l0x_api_core.c **** 
 733              		.loc 1 257 3 is_stmt 1 view .LVU239
 257:Core/Src/vl53l0x_api_core.c **** 
 734              		.loc 1 257 13 is_stmt 0 view .LVU240
 735 00e0 0122     		movs	r2, #1
 736 00e2 8021     		movs	r1, #128
 737 00e4 2846     		mov	r0, r5
 738 00e6 FFF7FEFF 		bl	VL53L0X_WrByte
 739              	.LVL91:
 257:Core/Src/vl53l0x_api_core.c **** 
 740              		.loc 1 257 10 view .LVU241
 741 00ea 0443     		orrs	r4, r4, r0
 742              	.LVL92:
 257:Core/Src/vl53l0x_api_core.c **** 
 743              		.loc 1 257 10 view .LVU242
 744 00ec 64B2     		sxtb	r4, r4
 745              	.LVL93:
 259:Core/Src/vl53l0x_api_core.c **** 			((ReadDataFromDeviceDone & 1) == 0)) {
 746              		.loc 1 259 3 is_stmt 1 view .LVU243
 259:Core/Src/vl53l0x_api_core.c **** 			((ReadDataFromDeviceDone & 1) == 0)) {
 747              		.loc 1 259 6 is_stmt 0 view .LVU244
 748 00ee 16F00109 		ands	r9, r6, #1
 749 00f2 5BD0     		beq	.L50
 259:Core/Src/vl53l0x_api_core.c **** 			((ReadDataFromDeviceDone & 1) == 0)) {
 750              		.loc 1 259 27 discriminator 1 view .LVU245
 751 00f4 17F0010F 		tst	r7, #1
 752 00f8 03D0     		beq	.L57
 220:Core/Src/vl53l0x_api_core.c **** 	uint32_t PartUIDUpper = 0;
 753              		.loc 1 220 10 view .LVU246
 754 00fa 4FF0000A 		mov	r10, #0
 219:Core/Src/vl53l0x_api_core.c **** 	uint8_t ReferenceSpadType = 0;
 755              		.loc 1 219 10 view .LVU247
 756 00fe D146     		mov	r9, r10
 757 0100 55E0     		b	.L39
 758              	.L57:
 261:Core/Src/vl53l0x_api_core.c **** 			Status |= VL53L0X_device_read_strobe(Dev);
 759              		.loc 1 261 4 is_stmt 1 view .LVU248
 261:Core/Src/vl53l0x_api_core.c **** 			Status |= VL53L0X_device_read_strobe(Dev);
 760              		.loc 1 261 14 is_stmt 0 view .LVU249
 761 0102 6B22     		movs	r2, #107
 762 0104 9421     		movs	r1, #148
 763 0106 2846     		mov	r0, r5
 764 0108 FFF7FEFF 		bl	VL53L0X_WrByte
 765              	.LVL94:
 261:Core/Src/vl53l0x_api_core.c **** 			Status |= VL53L0X_device_read_strobe(Dev);
 766              		.loc 1 261 11 view .LVU250
 767 010c 0443     		orrs	r4, r4, r0
 768              	.LVL95:
ARM GAS  C:\Users\anmh1\AppData\Local\Temp\ccrmGbOb.s 			page 23


 261:Core/Src/vl53l0x_api_core.c **** 			Status |= VL53L0X_device_read_strobe(Dev);
 769              		.loc 1 261 11 view .LVU251
 770 010e 64B2     		sxtb	r4, r4
 771              	.LVL96:
 262:Core/Src/vl53l0x_api_core.c **** 			Status |= VL53L0X_RdDWord(Dev, 0x90, &TmpDWord);
 772              		.loc 1 262 4 is_stmt 1 view .LVU252
 262:Core/Src/vl53l0x_api_core.c **** 			Status |= VL53L0X_RdDWord(Dev, 0x90, &TmpDWord);
 773              		.loc 1 262 14 is_stmt 0 view .LVU253
 774 0110 2846     		mov	r0, r5
 775 0112 FFF7FEFF 		bl	VL53L0X_device_read_strobe
 776              	.LVL97:
 262:Core/Src/vl53l0x_api_core.c **** 			Status |= VL53L0X_RdDWord(Dev, 0x90, &TmpDWord);
 777              		.loc 1 262 11 view .LVU254
 778 0116 0443     		orrs	r4, r4, r0
 779              	.LVL98:
 262:Core/Src/vl53l0x_api_core.c **** 			Status |= VL53L0X_RdDWord(Dev, 0x90, &TmpDWord);
 780              		.loc 1 262 11 view .LVU255
 781 0118 64B2     		sxtb	r4, r4
 782              	.LVL99:
 263:Core/Src/vl53l0x_api_core.c **** 
 783              		.loc 1 263 4 is_stmt 1 view .LVU256
 263:Core/Src/vl53l0x_api_core.c **** 
 784              		.loc 1 263 14 is_stmt 0 view .LVU257
 785 011a 0AAA     		add	r2, sp, #40
 786 011c 9021     		movs	r1, #144
 787 011e 2846     		mov	r0, r5
 788 0120 FFF7FEFF 		bl	VL53L0X_RdDWord
 789              	.LVL100:
 263:Core/Src/vl53l0x_api_core.c **** 
 790              		.loc 1 263 11 view .LVU258
 791 0124 0443     		orrs	r4, r4, r0
 792              	.LVL101:
 263:Core/Src/vl53l0x_api_core.c **** 
 793              		.loc 1 263 11 view .LVU259
 794 0126 64B2     		sxtb	r4, r4
 795              	.LVL102:
 265:Core/Src/vl53l0x_api_core.c **** 			ReferenceSpadType  = (uint8_t)((TmpDWord >> 15) & 0x01);
 796              		.loc 1 265 4 is_stmt 1 view .LVU260
 265:Core/Src/vl53l0x_api_core.c **** 			ReferenceSpadType  = (uint8_t)((TmpDWord >> 15) & 0x01);
 797              		.loc 1 265 45 is_stmt 0 view .LVU261
 798 0128 0A9B     		ldr	r3, [sp, #40]
 265:Core/Src/vl53l0x_api_core.c **** 			ReferenceSpadType  = (uint8_t)((TmpDWord >> 15) & 0x01);
 799              		.loc 1 265 23 view .LVU262
 800 012a C3F30629 		ubfx	r9, r3, #8, #7
 801              	.LVL103:
 266:Core/Src/vl53l0x_api_core.c **** 
 802              		.loc 1 266 4 is_stmt 1 view .LVU263
 266:Core/Src/vl53l0x_api_core.c **** 
 803              		.loc 1 266 23 is_stmt 0 view .LVU264
 804 012e C3F3C03A 		ubfx	r10, r3, #15, #1
 805              	.LVL104:
 268:Core/Src/vl53l0x_api_core.c **** 			Status |= VL53L0X_device_read_strobe(Dev);
 806              		.loc 1 268 4 is_stmt 1 view .LVU265
 268:Core/Src/vl53l0x_api_core.c **** 			Status |= VL53L0X_device_read_strobe(Dev);
 807              		.loc 1 268 14 is_stmt 0 view .LVU266
 808 0132 2422     		movs	r2, #36
 809 0134 9421     		movs	r1, #148
ARM GAS  C:\Users\anmh1\AppData\Local\Temp\ccrmGbOb.s 			page 24


 810 0136 2846     		mov	r0, r5
 811 0138 FFF7FEFF 		bl	VL53L0X_WrByte
 812              	.LVL105:
 268:Core/Src/vl53l0x_api_core.c **** 			Status |= VL53L0X_device_read_strobe(Dev);
 813              		.loc 1 268 11 view .LVU267
 814 013c 0443     		orrs	r4, r4, r0
 815              	.LVL106:
 268:Core/Src/vl53l0x_api_core.c **** 			Status |= VL53L0X_device_read_strobe(Dev);
 816              		.loc 1 268 11 view .LVU268
 817 013e 64B2     		sxtb	r4, r4
 818              	.LVL107:
 269:Core/Src/vl53l0x_api_core.c **** 			Status |= VL53L0X_RdDWord(Dev, 0x90, &TmpDWord);
 819              		.loc 1 269 4 is_stmt 1 view .LVU269
 269:Core/Src/vl53l0x_api_core.c **** 			Status |= VL53L0X_RdDWord(Dev, 0x90, &TmpDWord);
 820              		.loc 1 269 14 is_stmt 0 view .LVU270
 821 0140 2846     		mov	r0, r5
 822 0142 FFF7FEFF 		bl	VL53L0X_device_read_strobe
 823              	.LVL108:
 269:Core/Src/vl53l0x_api_core.c **** 			Status |= VL53L0X_RdDWord(Dev, 0x90, &TmpDWord);
 824              		.loc 1 269 11 view .LVU271
 825 0146 0443     		orrs	r4, r4, r0
 826              	.LVL109:
 269:Core/Src/vl53l0x_api_core.c **** 			Status |= VL53L0X_RdDWord(Dev, 0x90, &TmpDWord);
 827              		.loc 1 269 11 view .LVU272
 828 0148 64B2     		sxtb	r4, r4
 829              	.LVL110:
 270:Core/Src/vl53l0x_api_core.c **** 
 830              		.loc 1 270 4 is_stmt 1 view .LVU273
 270:Core/Src/vl53l0x_api_core.c **** 
 831              		.loc 1 270 14 is_stmt 0 view .LVU274
 832 014a 0AAA     		add	r2, sp, #40
 833 014c 9021     		movs	r1, #144
 834 014e 2846     		mov	r0, r5
 835 0150 FFF7FEFF 		bl	VL53L0X_RdDWord
 836              	.LVL111:
 270:Core/Src/vl53l0x_api_core.c **** 
 837              		.loc 1 270 11 view .LVU275
 838 0154 0443     		orrs	r4, r4, r0
 839              	.LVL112:
 270:Core/Src/vl53l0x_api_core.c **** 
 840              		.loc 1 270 11 view .LVU276
 841 0156 64B2     		sxtb	r4, r4
 842              	.LVL113:
 273:Core/Src/vl53l0x_api_core.c **** 				& 0xff);
 843              		.loc 1 273 4 is_stmt 1 view .LVU277
 273:Core/Src/vl53l0x_api_core.c **** 				& 0xff);
 844              		.loc 1 273 47 is_stmt 0 view .LVU278
 845 0158 0A9B     		ldr	r3, [sp, #40]
 273:Core/Src/vl53l0x_api_core.c **** 				& 0xff);
 846              		.loc 1 273 27 view .LVU279
 847 015a 1A0E     		lsrs	r2, r3, #24
 273:Core/Src/vl53l0x_api_core.c **** 				& 0xff);
 848              		.loc 1 273 25 view .LVU280
 849 015c 8DF80020 		strb	r2, [sp]
 275:Core/Src/vl53l0x_api_core.c **** 				& 0xff);
 850              		.loc 1 275 4 is_stmt 1 view .LVU281
 275:Core/Src/vl53l0x_api_core.c **** 				& 0xff);
ARM GAS  C:\Users\anmh1\AppData\Local\Temp\ccrmGbOb.s 			page 25


 851              		.loc 1 275 27 is_stmt 0 view .LVU282
 852 0160 C3F30742 		ubfx	r2, r3, #16, #8
 275:Core/Src/vl53l0x_api_core.c **** 				& 0xff);
 853              		.loc 1 275 25 view .LVU283
 854 0164 8DF80120 		strb	r2, [sp, #1]
 277:Core/Src/vl53l0x_api_core.c **** 				& 0xff);
 855              		.loc 1 277 4 is_stmt 1 view .LVU284
 277:Core/Src/vl53l0x_api_core.c **** 				& 0xff);
 856              		.loc 1 277 27 is_stmt 0 view .LVU285
 857 0168 C3F30722 		ubfx	r2, r3, #8, #8
 277:Core/Src/vl53l0x_api_core.c **** 				& 0xff);
 858              		.loc 1 277 25 view .LVU286
 859 016c 8DF80220 		strb	r2, [sp, #2]
 279:Core/Src/vl53l0x_api_core.c **** 
 860              		.loc 1 279 4 is_stmt 1 view .LVU287
 279:Core/Src/vl53l0x_api_core.c **** 
 861              		.loc 1 279 25 is_stmt 0 view .LVU288
 862 0170 8DF80330 		strb	r3, [sp, #3]
 281:Core/Src/vl53l0x_api_core.c **** 			Status |= VL53L0X_device_read_strobe(Dev);
 863              		.loc 1 281 4 is_stmt 1 view .LVU289
 281:Core/Src/vl53l0x_api_core.c **** 			Status |= VL53L0X_device_read_strobe(Dev);
 864              		.loc 1 281 14 is_stmt 0 view .LVU290
 865 0174 2522     		movs	r2, #37
 866 0176 9421     		movs	r1, #148
 867 0178 2846     		mov	r0, r5
 868 017a FFF7FEFF 		bl	VL53L0X_WrByte
 869              	.LVL114:
 281:Core/Src/vl53l0x_api_core.c **** 			Status |= VL53L0X_device_read_strobe(Dev);
 870              		.loc 1 281 11 view .LVU291
 871 017e 0443     		orrs	r4, r4, r0
 872              	.LVL115:
 281:Core/Src/vl53l0x_api_core.c **** 			Status |= VL53L0X_device_read_strobe(Dev);
 873              		.loc 1 281 11 view .LVU292
 874 0180 64B2     		sxtb	r4, r4
 875              	.LVL116:
 282:Core/Src/vl53l0x_api_core.c **** 			Status |= VL53L0X_RdDWord(Dev, 0x90, &TmpDWord);
 876              		.loc 1 282 4 is_stmt 1 view .LVU293
 282:Core/Src/vl53l0x_api_core.c **** 			Status |= VL53L0X_RdDWord(Dev, 0x90, &TmpDWord);
 877              		.loc 1 282 14 is_stmt 0 view .LVU294
 878 0182 2846     		mov	r0, r5
 879 0184 FFF7FEFF 		bl	VL53L0X_device_read_strobe
 880              	.LVL117:
 282:Core/Src/vl53l0x_api_core.c **** 			Status |= VL53L0X_RdDWord(Dev, 0x90, &TmpDWord);
 881              		.loc 1 282 11 view .LVU295
 882 0188 0443     		orrs	r4, r4, r0
 883              	.LVL118:
 282:Core/Src/vl53l0x_api_core.c **** 			Status |= VL53L0X_RdDWord(Dev, 0x90, &TmpDWord);
 884              		.loc 1 282 11 view .LVU296
 885 018a 64B2     		sxtb	r4, r4
 886              	.LVL119:
 283:Core/Src/vl53l0x_api_core.c **** 
 887              		.loc 1 283 4 is_stmt 1 view .LVU297
 283:Core/Src/vl53l0x_api_core.c **** 
 888              		.loc 1 283 14 is_stmt 0 view .LVU298
 889 018c 0AAA     		add	r2, sp, #40
 890 018e 9021     		movs	r1, #144
 891 0190 2846     		mov	r0, r5
ARM GAS  C:\Users\anmh1\AppData\Local\Temp\ccrmGbOb.s 			page 26


 892 0192 FFF7FEFF 		bl	VL53L0X_RdDWord
 893              	.LVL120:
 283:Core/Src/vl53l0x_api_core.c **** 
 894              		.loc 1 283 11 view .LVU299
 895 0196 0443     		orrs	r4, r4, r0
 896              	.LVL121:
 283:Core/Src/vl53l0x_api_core.c **** 
 897              		.loc 1 283 11 view .LVU300
 898 0198 64B2     		sxtb	r4, r4
 899              	.LVL122:
 285:Core/Src/vl53l0x_api_core.c **** 				& 0xff);
 900              		.loc 1 285 4 is_stmt 1 view .LVU301
 285:Core/Src/vl53l0x_api_core.c **** 				& 0xff);
 901              		.loc 1 285 47 is_stmt 0 view .LVU302
 902 019a 0A9B     		ldr	r3, [sp, #40]
 285:Core/Src/vl53l0x_api_core.c **** 				& 0xff);
 903              		.loc 1 285 27 view .LVU303
 904 019c 1A0E     		lsrs	r2, r3, #24
 285:Core/Src/vl53l0x_api_core.c **** 				& 0xff);
 905              		.loc 1 285 25 view .LVU304
 906 019e 8DF80420 		strb	r2, [sp, #4]
 287:Core/Src/vl53l0x_api_core.c **** 				& 0xff);
 907              		.loc 1 287 4 is_stmt 1 view .LVU305
 287:Core/Src/vl53l0x_api_core.c **** 				& 0xff);
 908              		.loc 1 287 27 is_stmt 0 view .LVU306
 909 01a2 C3F30743 		ubfx	r3, r3, #16, #8
 287:Core/Src/vl53l0x_api_core.c **** 				& 0xff);
 910              		.loc 1 287 25 view .LVU307
 911 01a6 8DF80530 		strb	r3, [sp, #5]
 912 01aa 00E0     		b	.L39
 913              	.LVL123:
 914              	.L50:
 220:Core/Src/vl53l0x_api_core.c **** 	uint32_t PartUIDUpper = 0;
 915              		.loc 1 220 10 view .LVU308
 916 01ac CA46     		mov	r10, r9
 917              	.LVL124:
 918              	.L39:
 291:Core/Src/vl53l0x_api_core.c **** 			((ReadDataFromDeviceDone & 2) == 0)) {
 919              		.loc 1 291 3 is_stmt 1 view .LVU309
 291:Core/Src/vl53l0x_api_core.c **** 			((ReadDataFromDeviceDone & 2) == 0)) {
 920              		.loc 1 291 6 is_stmt 0 view .LVU310
 921 01ae 16F0020F 		tst	r6, #2
 922 01b2 02D0     		beq	.L40
 291:Core/Src/vl53l0x_api_core.c **** 			((ReadDataFromDeviceDone & 2) == 0)) {
 923              		.loc 1 291 27 discriminator 1 view .LVU311
 924 01b4 17F0020F 		tst	r7, #2
 925 01b8 0BD0     		beq	.L58
 926              	.L40:
 356:Core/Src/vl53l0x_api_core.c **** 			((ReadDataFromDeviceDone & 4) == 0)) {
 927              		.loc 1 356 3 is_stmt 1 view .LVU312
 356:Core/Src/vl53l0x_api_core.c **** 			((ReadDataFromDeviceDone & 4) == 0)) {
 928              		.loc 1 356 6 is_stmt 0 view .LVU313
 929 01ba 16F0040F 		tst	r6, #4
 930 01be 00F06581 		beq	.L52
 356:Core/Src/vl53l0x_api_core.c **** 			((ReadDataFromDeviceDone & 4) == 0)) {
 931              		.loc 1 356 27 discriminator 1 view .LVU314
 932 01c2 17F0040F 		tst	r7, #4
ARM GAS  C:\Users\anmh1\AppData\Local\Temp\ccrmGbOb.s 			page 27


 933 01c6 00F0DC80 		beq	.L59
 227:Core/Src/vl53l0x_api_core.c **** 	char ProductId[19];
 934              		.loc 1 227 11 view .LVU315
 935 01ca 4FF00008 		mov	r8, #0
 226:Core/Src/vl53l0x_api_core.c **** 	uint32_t SignalRateMeasFixed1104_400_mm = 0;
 936              		.loc 1 226 11 view .LVU316
 937 01ce C346     		mov	fp, r8
 938 01d0 5FE1     		b	.L41
 939              	.L58:
 294:Core/Src/vl53l0x_api_core.c **** 			Status |= VL53L0X_device_read_strobe(Dev);
 940              		.loc 1 294 4 is_stmt 1 view .LVU317
 294:Core/Src/vl53l0x_api_core.c **** 			Status |= VL53L0X_device_read_strobe(Dev);
 941              		.loc 1 294 14 is_stmt 0 view .LVU318
 942 01d2 0222     		movs	r2, #2
 943 01d4 9421     		movs	r1, #148
 944 01d6 2846     		mov	r0, r5
 945 01d8 FFF7FEFF 		bl	VL53L0X_WrByte
 946              	.LVL125:
 294:Core/Src/vl53l0x_api_core.c **** 			Status |= VL53L0X_device_read_strobe(Dev);
 947              		.loc 1 294 11 view .LVU319
 948 01dc 0443     		orrs	r4, r4, r0
 949              	.LVL126:
 294:Core/Src/vl53l0x_api_core.c **** 			Status |= VL53L0X_device_read_strobe(Dev);
 950              		.loc 1 294 11 view .LVU320
 951 01de 64B2     		sxtb	r4, r4
 952              	.LVL127:
 295:Core/Src/vl53l0x_api_core.c **** 			Status |= VL53L0X_RdByte(Dev, 0x90, &ModuleId);
 953              		.loc 1 295 4 is_stmt 1 view .LVU321
 295:Core/Src/vl53l0x_api_core.c **** 			Status |= VL53L0X_RdByte(Dev, 0x90, &ModuleId);
 954              		.loc 1 295 14 is_stmt 0 view .LVU322
 955 01e0 2846     		mov	r0, r5
 956 01e2 FFF7FEFF 		bl	VL53L0X_device_read_strobe
 957              	.LVL128:
 295:Core/Src/vl53l0x_api_core.c **** 			Status |= VL53L0X_RdByte(Dev, 0x90, &ModuleId);
 958              		.loc 1 295 11 view .LVU323
 959 01e6 0443     		orrs	r4, r4, r0
 960              	.LVL129:
 295:Core/Src/vl53l0x_api_core.c **** 			Status |= VL53L0X_RdByte(Dev, 0x90, &ModuleId);
 961              		.loc 1 295 11 view .LVU324
 962 01e8 64B2     		sxtb	r4, r4
 963              	.LVL130:
 296:Core/Src/vl53l0x_api_core.c **** 
 964              		.loc 1 296 4 is_stmt 1 view .LVU325
 296:Core/Src/vl53l0x_api_core.c **** 
 965              		.loc 1 296 14 is_stmt 0 view .LVU326
 966 01ea 0DF12702 		add	r2, sp, #39
 967 01ee 9021     		movs	r1, #144
 968 01f0 2846     		mov	r0, r5
 969 01f2 FFF7FEFF 		bl	VL53L0X_RdByte
 970              	.LVL131:
 296:Core/Src/vl53l0x_api_core.c **** 
 971              		.loc 1 296 11 view .LVU327
 972 01f6 0443     		orrs	r4, r4, r0
 973              	.LVL132:
 296:Core/Src/vl53l0x_api_core.c **** 
 974              		.loc 1 296 11 view .LVU328
 975 01f8 64B2     		sxtb	r4, r4
ARM GAS  C:\Users\anmh1\AppData\Local\Temp\ccrmGbOb.s 			page 28


 976              	.LVL133:
 298:Core/Src/vl53l0x_api_core.c **** 			Status |= VL53L0X_device_read_strobe(Dev);
 977              		.loc 1 298 4 is_stmt 1 view .LVU329
 298:Core/Src/vl53l0x_api_core.c **** 			Status |= VL53L0X_device_read_strobe(Dev);
 978              		.loc 1 298 14 is_stmt 0 view .LVU330
 979 01fa 7B22     		movs	r2, #123
 980 01fc 9421     		movs	r1, #148
 981 01fe 2846     		mov	r0, r5
 982 0200 FFF7FEFF 		bl	VL53L0X_WrByte
 983              	.LVL134:
 298:Core/Src/vl53l0x_api_core.c **** 			Status |= VL53L0X_device_read_strobe(Dev);
 984              		.loc 1 298 11 view .LVU331
 985 0204 0443     		orrs	r4, r4, r0
 986              	.LVL135:
 298:Core/Src/vl53l0x_api_core.c **** 			Status |= VL53L0X_device_read_strobe(Dev);
 987              		.loc 1 298 11 view .LVU332
 988 0206 64B2     		sxtb	r4, r4
 989              	.LVL136:
 299:Core/Src/vl53l0x_api_core.c **** 			Status |= VL53L0X_RdByte(Dev, 0x90, &Revision);
 990              		.loc 1 299 4 is_stmt 1 view .LVU333
 299:Core/Src/vl53l0x_api_core.c **** 			Status |= VL53L0X_RdByte(Dev, 0x90, &Revision);
 991              		.loc 1 299 14 is_stmt 0 view .LVU334
 992 0208 2846     		mov	r0, r5
 993 020a FFF7FEFF 		bl	VL53L0X_device_read_strobe
 994              	.LVL137:
 299:Core/Src/vl53l0x_api_core.c **** 			Status |= VL53L0X_RdByte(Dev, 0x90, &Revision);
 995              		.loc 1 299 11 view .LVU335
 996 020e 0443     		orrs	r4, r4, r0
 997              	.LVL138:
 299:Core/Src/vl53l0x_api_core.c **** 			Status |= VL53L0X_RdByte(Dev, 0x90, &Revision);
 998              		.loc 1 299 11 view .LVU336
 999 0210 64B2     		sxtb	r4, r4
 1000              	.LVL139:
 300:Core/Src/vl53l0x_api_core.c **** 
 1001              		.loc 1 300 4 is_stmt 1 view .LVU337
 300:Core/Src/vl53l0x_api_core.c **** 
 1002              		.loc 1 300 14 is_stmt 0 view .LVU338
 1003 0212 0DF12602 		add	r2, sp, #38
 1004 0216 9021     		movs	r1, #144
 1005 0218 2846     		mov	r0, r5
 1006 021a FFF7FEFF 		bl	VL53L0X_RdByte
 1007              	.LVL140:
 300:Core/Src/vl53l0x_api_core.c **** 
 1008              		.loc 1 300 11 view .LVU339
 1009 021e 0443     		orrs	r4, r4, r0
 1010              	.LVL141:
 300:Core/Src/vl53l0x_api_core.c **** 
 1011              		.loc 1 300 11 view .LVU340
 1012 0220 64B2     		sxtb	r4, r4
 1013              	.LVL142:
 302:Core/Src/vl53l0x_api_core.c **** 			Status |= VL53L0X_device_read_strobe(Dev);
 1014              		.loc 1 302 4 is_stmt 1 view .LVU341
 302:Core/Src/vl53l0x_api_core.c **** 			Status |= VL53L0X_device_read_strobe(Dev);
 1015              		.loc 1 302 14 is_stmt 0 view .LVU342
 1016 0222 7722     		movs	r2, #119
 1017 0224 9421     		movs	r1, #148
 1018 0226 2846     		mov	r0, r5
ARM GAS  C:\Users\anmh1\AppData\Local\Temp\ccrmGbOb.s 			page 29


 1019 0228 FFF7FEFF 		bl	VL53L0X_WrByte
 1020              	.LVL143:
 302:Core/Src/vl53l0x_api_core.c **** 			Status |= VL53L0X_device_read_strobe(Dev);
 1021              		.loc 1 302 11 view .LVU343
 1022 022c 0443     		orrs	r4, r4, r0
 1023              	.LVL144:
 302:Core/Src/vl53l0x_api_core.c **** 			Status |= VL53L0X_device_read_strobe(Dev);
 1024              		.loc 1 302 11 view .LVU344
 1025 022e 64B2     		sxtb	r4, r4
 1026              	.LVL145:
 303:Core/Src/vl53l0x_api_core.c **** 			Status |= VL53L0X_RdDWord(Dev, 0x90, &TmpDWord);
 1027              		.loc 1 303 4 is_stmt 1 view .LVU345
 303:Core/Src/vl53l0x_api_core.c **** 			Status |= VL53L0X_RdDWord(Dev, 0x90, &TmpDWord);
 1028              		.loc 1 303 14 is_stmt 0 view .LVU346
 1029 0230 2846     		mov	r0, r5
 1030 0232 FFF7FEFF 		bl	VL53L0X_device_read_strobe
 1031              	.LVL146:
 303:Core/Src/vl53l0x_api_core.c **** 			Status |= VL53L0X_RdDWord(Dev, 0x90, &TmpDWord);
 1032              		.loc 1 303 11 view .LVU347
 1033 0236 0443     		orrs	r4, r4, r0
 1034              	.LVL147:
 303:Core/Src/vl53l0x_api_core.c **** 			Status |= VL53L0X_RdDWord(Dev, 0x90, &TmpDWord);
 1035              		.loc 1 303 11 view .LVU348
 1036 0238 64B2     		sxtb	r4, r4
 1037              	.LVL148:
 304:Core/Src/vl53l0x_api_core.c **** 
 1038              		.loc 1 304 4 is_stmt 1 view .LVU349
 304:Core/Src/vl53l0x_api_core.c **** 
 1039              		.loc 1 304 14 is_stmt 0 view .LVU350
 1040 023a 0AAA     		add	r2, sp, #40
 1041 023c 9021     		movs	r1, #144
 1042 023e 2846     		mov	r0, r5
 1043 0240 FFF7FEFF 		bl	VL53L0X_RdDWord
 1044              	.LVL149:
 304:Core/Src/vl53l0x_api_core.c **** 
 1045              		.loc 1 304 11 view .LVU351
 1046 0244 0443     		orrs	r4, r4, r0
 1047              	.LVL150:
 304:Core/Src/vl53l0x_api_core.c **** 
 1048              		.loc 1 304 11 view .LVU352
 1049 0246 64B2     		sxtb	r4, r4
 1050              	.LVL151:
 306:Core/Src/vl53l0x_api_core.c **** 			ProductId[1] = (char)((TmpDWord >> 18) & 0x07f);
 1051              		.loc 1 306 4 is_stmt 1 view .LVU353
 306:Core/Src/vl53l0x_api_core.c **** 			ProductId[1] = (char)((TmpDWord >> 18) & 0x07f);
 1052              		.loc 1 306 36 is_stmt 0 view .LVU354
 1053 0248 0A9B     		ldr	r3, [sp, #40]
 306:Core/Src/vl53l0x_api_core.c **** 			ProductId[1] = (char)((TmpDWord >> 18) & 0x07f);
 1054              		.loc 1 306 19 view .LVU355
 1055 024a 5A0E     		lsrs	r2, r3, #25
 306:Core/Src/vl53l0x_api_core.c **** 			ProductId[1] = (char)((TmpDWord >> 18) & 0x07f);
 1056              		.loc 1 306 17 view .LVU356
 1057 024c 8DF80820 		strb	r2, [sp, #8]
 307:Core/Src/vl53l0x_api_core.c **** 			ProductId[2] = (char)((TmpDWord >> 11) & 0x07f);
 1058              		.loc 1 307 4 is_stmt 1 view .LVU357
 307:Core/Src/vl53l0x_api_core.c **** 			ProductId[2] = (char)((TmpDWord >> 11) & 0x07f);
 1059              		.loc 1 307 19 is_stmt 0 view .LVU358
ARM GAS  C:\Users\anmh1\AppData\Local\Temp\ccrmGbOb.s 			page 30


 1060 0250 C3F38642 		ubfx	r2, r3, #18, #7
 307:Core/Src/vl53l0x_api_core.c **** 			ProductId[2] = (char)((TmpDWord >> 11) & 0x07f);
 1061              		.loc 1 307 17 view .LVU359
 1062 0254 8DF80920 		strb	r2, [sp, #9]
 308:Core/Src/vl53l0x_api_core.c **** 			ProductId[3] = (char)((TmpDWord >> 4) & 0x07f);
 1063              		.loc 1 308 4 is_stmt 1 view .LVU360
 308:Core/Src/vl53l0x_api_core.c **** 			ProductId[3] = (char)((TmpDWord >> 4) & 0x07f);
 1064              		.loc 1 308 19 is_stmt 0 view .LVU361
 1065 0258 C3F3C622 		ubfx	r2, r3, #11, #7
 308:Core/Src/vl53l0x_api_core.c **** 			ProductId[3] = (char)((TmpDWord >> 4) & 0x07f);
 1066              		.loc 1 308 17 view .LVU362
 1067 025c 8DF80A20 		strb	r2, [sp, #10]
 309:Core/Src/vl53l0x_api_core.c **** 
 1068              		.loc 1 309 4 is_stmt 1 view .LVU363
 309:Core/Src/vl53l0x_api_core.c **** 
 1069              		.loc 1 309 19 is_stmt 0 view .LVU364
 1070 0260 C3F30612 		ubfx	r2, r3, #4, #7
 309:Core/Src/vl53l0x_api_core.c **** 
 1071              		.loc 1 309 17 view .LVU365
 1072 0264 8DF80B20 		strb	r2, [sp, #11]
 311:Core/Src/vl53l0x_api_core.c **** 
 1073              		.loc 1 311 4 is_stmt 1 view .LVU366
 311:Core/Src/vl53l0x_api_core.c **** 
 1074              		.loc 1 311 40 is_stmt 0 view .LVU367
 1075 0268 DB00     		lsls	r3, r3, #3
 311:Core/Src/vl53l0x_api_core.c **** 
 1076              		.loc 1 311 11 view .LVU368
 1077 026a 03F07803 		and	r3, r3, #120
 311:Core/Src/vl53l0x_api_core.c **** 
 1078              		.loc 1 311 9 view .LVU369
 1079 026e 8DF82F30 		strb	r3, [sp, #47]
 313:Core/Src/vl53l0x_api_core.c **** 			Status |= VL53L0X_device_read_strobe(Dev);
 1080              		.loc 1 313 4 is_stmt 1 view .LVU370
 313:Core/Src/vl53l0x_api_core.c **** 			Status |= VL53L0X_device_read_strobe(Dev);
 1081              		.loc 1 313 14 is_stmt 0 view .LVU371
 1082 0272 7822     		movs	r2, #120
 1083 0274 9421     		movs	r1, #148
 1084 0276 2846     		mov	r0, r5
 1085 0278 FFF7FEFF 		bl	VL53L0X_WrByte
 1086              	.LVL152:
 313:Core/Src/vl53l0x_api_core.c **** 			Status |= VL53L0X_device_read_strobe(Dev);
 1087              		.loc 1 313 11 view .LVU372
 1088 027c 0443     		orrs	r4, r4, r0
 1089              	.LVL153:
 313:Core/Src/vl53l0x_api_core.c **** 			Status |= VL53L0X_device_read_strobe(Dev);
 1090              		.loc 1 313 11 view .LVU373
 1091 027e 64B2     		sxtb	r4, r4
 1092              	.LVL154:
 314:Core/Src/vl53l0x_api_core.c **** 			Status |= VL53L0X_RdDWord(Dev, 0x90, &TmpDWord);
 1093              		.loc 1 314 4 is_stmt 1 view .LVU374
 314:Core/Src/vl53l0x_api_core.c **** 			Status |= VL53L0X_RdDWord(Dev, 0x90, &TmpDWord);
 1094              		.loc 1 314 14 is_stmt 0 view .LVU375
 1095 0280 2846     		mov	r0, r5
 1096 0282 FFF7FEFF 		bl	VL53L0X_device_read_strobe
 1097              	.LVL155:
 314:Core/Src/vl53l0x_api_core.c **** 			Status |= VL53L0X_RdDWord(Dev, 0x90, &TmpDWord);
 1098              		.loc 1 314 11 view .LVU376
ARM GAS  C:\Users\anmh1\AppData\Local\Temp\ccrmGbOb.s 			page 31


 1099 0286 0443     		orrs	r4, r4, r0
 1100              	.LVL156:
 314:Core/Src/vl53l0x_api_core.c **** 			Status |= VL53L0X_RdDWord(Dev, 0x90, &TmpDWord);
 1101              		.loc 1 314 11 view .LVU377
 1102 0288 64B2     		sxtb	r4, r4
 1103              	.LVL157:
 315:Core/Src/vl53l0x_api_core.c **** 
 1104              		.loc 1 315 4 is_stmt 1 view .LVU378
 315:Core/Src/vl53l0x_api_core.c **** 
 1105              		.loc 1 315 14 is_stmt 0 view .LVU379
 1106 028a 0AAA     		add	r2, sp, #40
 1107 028c 9021     		movs	r1, #144
 1108 028e 2846     		mov	r0, r5
 1109 0290 FFF7FEFF 		bl	VL53L0X_RdDWord
 1110              	.LVL158:
 315:Core/Src/vl53l0x_api_core.c **** 
 1111              		.loc 1 315 11 view .LVU380
 1112 0294 0443     		orrs	r4, r4, r0
 1113              	.LVL159:
 315:Core/Src/vl53l0x_api_core.c **** 
 1114              		.loc 1 315 11 view .LVU381
 1115 0296 64B2     		sxtb	r4, r4
 1116              	.LVL160:
 317:Core/Src/vl53l0x_api_core.c **** 					((TmpDWord >> 29) & 0x07f));
 1117              		.loc 1 317 4 is_stmt 1 view .LVU382
 318:Core/Src/vl53l0x_api_core.c **** 			ProductId[5] = (char)((TmpDWord >> 22) & 0x07f);
 1118              		.loc 1 318 17 is_stmt 0 view .LVU383
 1119 0298 0A9B     		ldr	r3, [sp, #40]
 317:Core/Src/vl53l0x_api_core.c **** 					((TmpDWord >> 29) & 0x07f));
 1120              		.loc 1 317 19 view .LVU384
 1121 029a 9DF82F20 		ldrb	r2, [sp, #47]	@ zero_extendqisi2
 1122 029e 02EB5372 		add	r2, r2, r3, lsr #29
 317:Core/Src/vl53l0x_api_core.c **** 					((TmpDWord >> 29) & 0x07f));
 1123              		.loc 1 317 17 view .LVU385
 1124 02a2 8DF80C20 		strb	r2, [sp, #12]
 319:Core/Src/vl53l0x_api_core.c **** 			ProductId[6] = (char)((TmpDWord >> 15) & 0x07f);
 1125              		.loc 1 319 4 is_stmt 1 view .LVU386
 319:Core/Src/vl53l0x_api_core.c **** 			ProductId[6] = (char)((TmpDWord >> 15) & 0x07f);
 1126              		.loc 1 319 19 is_stmt 0 view .LVU387
 1127 02a6 C3F38652 		ubfx	r2, r3, #22, #7
 319:Core/Src/vl53l0x_api_core.c **** 			ProductId[6] = (char)((TmpDWord >> 15) & 0x07f);
 1128              		.loc 1 319 17 view .LVU388
 1129 02aa 8DF80D20 		strb	r2, [sp, #13]
 320:Core/Src/vl53l0x_api_core.c **** 			ProductId[7] = (char)((TmpDWord >> 8) & 0x07f);
 1130              		.loc 1 320 4 is_stmt 1 view .LVU389
 320:Core/Src/vl53l0x_api_core.c **** 			ProductId[7] = (char)((TmpDWord >> 8) & 0x07f);
 1131              		.loc 1 320 19 is_stmt 0 view .LVU390
 1132 02ae C3F3C632 		ubfx	r2, r3, #15, #7
 320:Core/Src/vl53l0x_api_core.c **** 			ProductId[7] = (char)((TmpDWord >> 8) & 0x07f);
 1133              		.loc 1 320 17 view .LVU391
 1134 02b2 8DF80E20 		strb	r2, [sp, #14]
 321:Core/Src/vl53l0x_api_core.c **** 			ProductId[8] = (char)((TmpDWord >> 1) & 0x07f);
 1135              		.loc 1 321 4 is_stmt 1 view .LVU392
 321:Core/Src/vl53l0x_api_core.c **** 			ProductId[8] = (char)((TmpDWord >> 1) & 0x07f);
 1136              		.loc 1 321 19 is_stmt 0 view .LVU393
 1137 02b6 C3F30622 		ubfx	r2, r3, #8, #7
 321:Core/Src/vl53l0x_api_core.c **** 			ProductId[8] = (char)((TmpDWord >> 1) & 0x07f);
ARM GAS  C:\Users\anmh1\AppData\Local\Temp\ccrmGbOb.s 			page 32


 1138              		.loc 1 321 17 view .LVU394
 1139 02ba 8DF80F20 		strb	r2, [sp, #15]
 322:Core/Src/vl53l0x_api_core.c **** 
 1140              		.loc 1 322 4 is_stmt 1 view .LVU395
 322:Core/Src/vl53l0x_api_core.c **** 
 1141              		.loc 1 322 19 is_stmt 0 view .LVU396
 1142 02be C3F34602 		ubfx	r2, r3, #1, #7
 322:Core/Src/vl53l0x_api_core.c **** 
 1143              		.loc 1 322 17 view .LVU397
 1144 02c2 8DF81020 		strb	r2, [sp, #16]
 324:Core/Src/vl53l0x_api_core.c **** 
 1145              		.loc 1 324 4 is_stmt 1 view .LVU398
 324:Core/Src/vl53l0x_api_core.c **** 
 1146              		.loc 1 324 40 is_stmt 0 view .LVU399
 1147 02c6 9B01     		lsls	r3, r3, #6
 324:Core/Src/vl53l0x_api_core.c **** 
 1148              		.loc 1 324 11 view .LVU400
 1149 02c8 03F04003 		and	r3, r3, #64
 324:Core/Src/vl53l0x_api_core.c **** 
 1150              		.loc 1 324 9 view .LVU401
 1151 02cc 8DF82F30 		strb	r3, [sp, #47]
 326:Core/Src/vl53l0x_api_core.c **** 
 1152              		.loc 1 326 4 is_stmt 1 view .LVU402
 326:Core/Src/vl53l0x_api_core.c **** 
 1153              		.loc 1 326 14 is_stmt 0 view .LVU403
 1154 02d0 7922     		movs	r2, #121
 1155 02d2 9421     		movs	r1, #148
 1156 02d4 2846     		mov	r0, r5
 1157 02d6 FFF7FEFF 		bl	VL53L0X_WrByte
 1158              	.LVL161:
 326:Core/Src/vl53l0x_api_core.c **** 
 1159              		.loc 1 326 11 view .LVU404
 1160 02da 0443     		orrs	r4, r4, r0
 1161              	.LVL162:
 326:Core/Src/vl53l0x_api_core.c **** 
 1162              		.loc 1 326 11 view .LVU405
 1163 02dc 64B2     		sxtb	r4, r4
 1164              	.LVL163:
 328:Core/Src/vl53l0x_api_core.c **** 
 1165              		.loc 1 328 4 is_stmt 1 view .LVU406
 328:Core/Src/vl53l0x_api_core.c **** 
 1166              		.loc 1 328 14 is_stmt 0 view .LVU407
 1167 02de 2846     		mov	r0, r5
 1168 02e0 FFF7FEFF 		bl	VL53L0X_device_read_strobe
 1169              	.LVL164:
 328:Core/Src/vl53l0x_api_core.c **** 
 1170              		.loc 1 328 11 view .LVU408
 1171 02e4 0443     		orrs	r4, r4, r0
 1172              	.LVL165:
 328:Core/Src/vl53l0x_api_core.c **** 
 1173              		.loc 1 328 11 view .LVU409
 1174 02e6 64B2     		sxtb	r4, r4
 1175              	.LVL166:
 330:Core/Src/vl53l0x_api_core.c **** 
 1176              		.loc 1 330 4 is_stmt 1 view .LVU410
 330:Core/Src/vl53l0x_api_core.c **** 
 1177              		.loc 1 330 14 is_stmt 0 view .LVU411
ARM GAS  C:\Users\anmh1\AppData\Local\Temp\ccrmGbOb.s 			page 33


 1178 02e8 0AAA     		add	r2, sp, #40
 1179 02ea 9021     		movs	r1, #144
 1180 02ec 2846     		mov	r0, r5
 1181 02ee FFF7FEFF 		bl	VL53L0X_RdDWord
 1182              	.LVL167:
 330:Core/Src/vl53l0x_api_core.c **** 
 1183              		.loc 1 330 11 view .LVU412
 1184 02f2 0443     		orrs	r4, r4, r0
 1185              	.LVL168:
 330:Core/Src/vl53l0x_api_core.c **** 
 1186              		.loc 1 330 11 view .LVU413
 1187 02f4 64B2     		sxtb	r4, r4
 1188              	.LVL169:
 332:Core/Src/vl53l0x_api_core.c **** 					((TmpDWord >> 26) & 0x07f));
 1189              		.loc 1 332 4 is_stmt 1 view .LVU414
 333:Core/Src/vl53l0x_api_core.c **** 			ProductId[10] = (char)((TmpDWord >> 19) & 0x07f);
 1190              		.loc 1 333 17 is_stmt 0 view .LVU415
 1191 02f6 0A9B     		ldr	r3, [sp, #40]
 332:Core/Src/vl53l0x_api_core.c **** 					((TmpDWord >> 26) & 0x07f));
 1192              		.loc 1 332 19 view .LVU416
 1193 02f8 9DF82F20 		ldrb	r2, [sp, #47]	@ zero_extendqisi2
 1194 02fc 02EB9362 		add	r2, r2, r3, lsr #26
 332:Core/Src/vl53l0x_api_core.c **** 					((TmpDWord >> 26) & 0x07f));
 1195              		.loc 1 332 17 view .LVU417
 1196 0300 8DF81120 		strb	r2, [sp, #17]
 334:Core/Src/vl53l0x_api_core.c **** 			ProductId[11] = (char)((TmpDWord >> 12) & 0x07f);
 1197              		.loc 1 334 4 is_stmt 1 view .LVU418
 334:Core/Src/vl53l0x_api_core.c **** 			ProductId[11] = (char)((TmpDWord >> 12) & 0x07f);
 1198              		.loc 1 334 20 is_stmt 0 view .LVU419
 1199 0304 C3F3C642 		ubfx	r2, r3, #19, #7
 334:Core/Src/vl53l0x_api_core.c **** 			ProductId[11] = (char)((TmpDWord >> 12) & 0x07f);
 1200              		.loc 1 334 18 view .LVU420
 1201 0308 8DF81220 		strb	r2, [sp, #18]
 335:Core/Src/vl53l0x_api_core.c **** 			ProductId[12] = (char)((TmpDWord >> 5) & 0x07f);
 1202              		.loc 1 335 4 is_stmt 1 view .LVU421
 335:Core/Src/vl53l0x_api_core.c **** 			ProductId[12] = (char)((TmpDWord >> 5) & 0x07f);
 1203              		.loc 1 335 20 is_stmt 0 view .LVU422
 1204 030c C3F30632 		ubfx	r2, r3, #12, #7
 335:Core/Src/vl53l0x_api_core.c **** 			ProductId[12] = (char)((TmpDWord >> 5) & 0x07f);
 1205              		.loc 1 335 18 view .LVU423
 1206 0310 8DF81320 		strb	r2, [sp, #19]
 336:Core/Src/vl53l0x_api_core.c **** 
 1207              		.loc 1 336 4 is_stmt 1 view .LVU424
 336:Core/Src/vl53l0x_api_core.c **** 
 1208              		.loc 1 336 20 is_stmt 0 view .LVU425
 1209 0314 C3F34612 		ubfx	r2, r3, #5, #7
 336:Core/Src/vl53l0x_api_core.c **** 
 1210              		.loc 1 336 18 view .LVU426
 1211 0318 8DF81420 		strb	r2, [sp, #20]
 338:Core/Src/vl53l0x_api_core.c **** 
 1212              		.loc 1 338 4 is_stmt 1 view .LVU427
 338:Core/Src/vl53l0x_api_core.c **** 
 1213              		.loc 1 338 40 is_stmt 0 view .LVU428
 1214 031c 9B00     		lsls	r3, r3, #2
 338:Core/Src/vl53l0x_api_core.c **** 
 1215              		.loc 1 338 11 view .LVU429
 1216 031e 03F07C03 		and	r3, r3, #124
ARM GAS  C:\Users\anmh1\AppData\Local\Temp\ccrmGbOb.s 			page 34


 338:Core/Src/vl53l0x_api_core.c **** 
 1217              		.loc 1 338 9 view .LVU430
 1218 0322 8DF82F30 		strb	r3, [sp, #47]
 340:Core/Src/vl53l0x_api_core.c **** 
 1219              		.loc 1 340 4 is_stmt 1 view .LVU431
 340:Core/Src/vl53l0x_api_core.c **** 
 1220              		.loc 1 340 14 is_stmt 0 view .LVU432
 1221 0326 7A22     		movs	r2, #122
 1222 0328 9421     		movs	r1, #148
 1223 032a 2846     		mov	r0, r5
 1224 032c FFF7FEFF 		bl	VL53L0X_WrByte
 1225              	.LVL170:
 340:Core/Src/vl53l0x_api_core.c **** 
 1226              		.loc 1 340 11 view .LVU433
 1227 0330 0443     		orrs	r4, r4, r0
 1228              	.LVL171:
 340:Core/Src/vl53l0x_api_core.c **** 
 1229              		.loc 1 340 11 view .LVU434
 1230 0332 64B2     		sxtb	r4, r4
 1231              	.LVL172:
 342:Core/Src/vl53l0x_api_core.c **** 
 1232              		.loc 1 342 4 is_stmt 1 view .LVU435
 342:Core/Src/vl53l0x_api_core.c **** 
 1233              		.loc 1 342 14 is_stmt 0 view .LVU436
 1234 0334 2846     		mov	r0, r5
 1235 0336 FFF7FEFF 		bl	VL53L0X_device_read_strobe
 1236              	.LVL173:
 342:Core/Src/vl53l0x_api_core.c **** 
 1237              		.loc 1 342 11 view .LVU437
 1238 033a 0443     		orrs	r4, r4, r0
 1239              	.LVL174:
 342:Core/Src/vl53l0x_api_core.c **** 
 1240              		.loc 1 342 11 view .LVU438
 1241 033c 64B2     		sxtb	r4, r4
 1242              	.LVL175:
 344:Core/Src/vl53l0x_api_core.c **** 
 1243              		.loc 1 344 4 is_stmt 1 view .LVU439
 344:Core/Src/vl53l0x_api_core.c **** 
 1244              		.loc 1 344 14 is_stmt 0 view .LVU440
 1245 033e 0AAA     		add	r2, sp, #40
 1246 0340 9021     		movs	r1, #144
 1247 0342 2846     		mov	r0, r5
 1248 0344 FFF7FEFF 		bl	VL53L0X_RdDWord
 1249              	.LVL176:
 344:Core/Src/vl53l0x_api_core.c **** 
 1250              		.loc 1 344 11 view .LVU441
 1251 0348 0443     		orrs	r4, r4, r0
 1252              	.LVL177:
 344:Core/Src/vl53l0x_api_core.c **** 
 1253              		.loc 1 344 11 view .LVU442
 1254 034a 64B2     		sxtb	r4, r4
 1255              	.LVL178:
 346:Core/Src/vl53l0x_api_core.c **** 					((TmpDWord >> 30) & 0x07f));
 1256              		.loc 1 346 4 is_stmt 1 view .LVU443
 347:Core/Src/vl53l0x_api_core.c **** 			ProductId[14] = (char)((TmpDWord >> 23) & 0x07f);
 1257              		.loc 1 347 17 is_stmt 0 view .LVU444
 1258 034c 0A9B     		ldr	r3, [sp, #40]
ARM GAS  C:\Users\anmh1\AppData\Local\Temp\ccrmGbOb.s 			page 35


 346:Core/Src/vl53l0x_api_core.c **** 					((TmpDWord >> 30) & 0x07f));
 1259              		.loc 1 346 20 view .LVU445
 1260 034e 9DF82F20 		ldrb	r2, [sp, #47]	@ zero_extendqisi2
 1261 0352 02EB9372 		add	r2, r2, r3, lsr #30
 346:Core/Src/vl53l0x_api_core.c **** 					((TmpDWord >> 30) & 0x07f));
 1262              		.loc 1 346 18 view .LVU446
 1263 0356 8DF81520 		strb	r2, [sp, #21]
 348:Core/Src/vl53l0x_api_core.c **** 			ProductId[15] = (char)((TmpDWord >> 16) & 0x07f);
 1264              		.loc 1 348 4 is_stmt 1 view .LVU447
 348:Core/Src/vl53l0x_api_core.c **** 			ProductId[15] = (char)((TmpDWord >> 16) & 0x07f);
 1265              		.loc 1 348 20 is_stmt 0 view .LVU448
 1266 035a C3F3C652 		ubfx	r2, r3, #23, #7
 348:Core/Src/vl53l0x_api_core.c **** 			ProductId[15] = (char)((TmpDWord >> 16) & 0x07f);
 1267              		.loc 1 348 18 view .LVU449
 1268 035e 8DF81620 		strb	r2, [sp, #22]
 349:Core/Src/vl53l0x_api_core.c **** 			ProductId[16] = (char)((TmpDWord >> 9) & 0x07f);
 1269              		.loc 1 349 4 is_stmt 1 view .LVU450
 349:Core/Src/vl53l0x_api_core.c **** 			ProductId[16] = (char)((TmpDWord >> 9) & 0x07f);
 1270              		.loc 1 349 20 is_stmt 0 view .LVU451
 1271 0362 C3F30642 		ubfx	r2, r3, #16, #7
 349:Core/Src/vl53l0x_api_core.c **** 			ProductId[16] = (char)((TmpDWord >> 9) & 0x07f);
 1272              		.loc 1 349 18 view .LVU452
 1273 0366 8DF81720 		strb	r2, [sp, #23]
 350:Core/Src/vl53l0x_api_core.c **** 			ProductId[17] = (char)((TmpDWord >> 2) & 0x07f);
 1274              		.loc 1 350 4 is_stmt 1 view .LVU453
 350:Core/Src/vl53l0x_api_core.c **** 			ProductId[17] = (char)((TmpDWord >> 2) & 0x07f);
 1275              		.loc 1 350 20 is_stmt 0 view .LVU454
 1276 036a C3F34622 		ubfx	r2, r3, #9, #7
 350:Core/Src/vl53l0x_api_core.c **** 			ProductId[17] = (char)((TmpDWord >> 2) & 0x07f);
 1277              		.loc 1 350 18 view .LVU455
 1278 036e 8DF81820 		strb	r2, [sp, #24]
 351:Core/Src/vl53l0x_api_core.c **** 			ProductId[18] = '\0';
 1279              		.loc 1 351 4 is_stmt 1 view .LVU456
 351:Core/Src/vl53l0x_api_core.c **** 			ProductId[18] = '\0';
 1280              		.loc 1 351 20 is_stmt 0 view .LVU457
 1281 0372 C3F38603 		ubfx	r3, r3, #2, #7
 351:Core/Src/vl53l0x_api_core.c **** 			ProductId[18] = '\0';
 1282              		.loc 1 351 18 view .LVU458
 1283 0376 8DF81930 		strb	r3, [sp, #25]
 352:Core/Src/vl53l0x_api_core.c **** 
 1284              		.loc 1 352 4 is_stmt 1 view .LVU459
 352:Core/Src/vl53l0x_api_core.c **** 
 1285              		.loc 1 352 18 is_stmt 0 view .LVU460
 1286 037a 0023     		movs	r3, #0
 1287 037c 8DF81A30 		strb	r3, [sp, #26]
 1288 0380 1BE7     		b	.L40
 1289              	.L59:
 359:Core/Src/vl53l0x_api_core.c **** 			Status |= VL53L0X_device_read_strobe(Dev);
 1290              		.loc 1 359 4 is_stmt 1 view .LVU461
 359:Core/Src/vl53l0x_api_core.c **** 			Status |= VL53L0X_device_read_strobe(Dev);
 1291              		.loc 1 359 14 is_stmt 0 view .LVU462
 1292 0382 7B22     		movs	r2, #123
 1293 0384 9421     		movs	r1, #148
 1294 0386 2846     		mov	r0, r5
 1295 0388 FFF7FEFF 		bl	VL53L0X_WrByte
 1296              	.LVL179:
 359:Core/Src/vl53l0x_api_core.c **** 			Status |= VL53L0X_device_read_strobe(Dev);
ARM GAS  C:\Users\anmh1\AppData\Local\Temp\ccrmGbOb.s 			page 36


 1297              		.loc 1 359 11 view .LVU463
 1298 038c 0443     		orrs	r4, r4, r0
 1299              	.LVL180:
 359:Core/Src/vl53l0x_api_core.c **** 			Status |= VL53L0X_device_read_strobe(Dev);
 1300              		.loc 1 359 11 view .LVU464
 1301 038e 64B2     		sxtb	r4, r4
 1302              	.LVL181:
 360:Core/Src/vl53l0x_api_core.c **** 			Status |= VL53L0X_RdDWord(Dev, 0x90, &PartUIDUpper);
 1303              		.loc 1 360 4 is_stmt 1 view .LVU465
 360:Core/Src/vl53l0x_api_core.c **** 			Status |= VL53L0X_RdDWord(Dev, 0x90, &PartUIDUpper);
 1304              		.loc 1 360 14 is_stmt 0 view .LVU466
 1305 0390 2846     		mov	r0, r5
 1306 0392 FFF7FEFF 		bl	VL53L0X_device_read_strobe
 1307              	.LVL182:
 360:Core/Src/vl53l0x_api_core.c **** 			Status |= VL53L0X_RdDWord(Dev, 0x90, &PartUIDUpper);
 1308              		.loc 1 360 11 view .LVU467
 1309 0396 0443     		orrs	r4, r4, r0
 1310              	.LVL183:
 360:Core/Src/vl53l0x_api_core.c **** 			Status |= VL53L0X_RdDWord(Dev, 0x90, &PartUIDUpper);
 1311              		.loc 1 360 11 view .LVU468
 1312 0398 64B2     		sxtb	r4, r4
 1313              	.LVL184:
 361:Core/Src/vl53l0x_api_core.c **** 
 1314              		.loc 1 361 4 is_stmt 1 view .LVU469
 361:Core/Src/vl53l0x_api_core.c **** 
 1315              		.loc 1 361 14 is_stmt 0 view .LVU470
 1316 039a 08AA     		add	r2, sp, #32
 1317 039c 9021     		movs	r1, #144
 1318 039e 2846     		mov	r0, r5
 1319 03a0 FFF7FEFF 		bl	VL53L0X_RdDWord
 1320              	.LVL185:
 361:Core/Src/vl53l0x_api_core.c **** 
 1321              		.loc 1 361 11 view .LVU471
 1322 03a4 0443     		orrs	r4, r4, r0
 1323              	.LVL186:
 361:Core/Src/vl53l0x_api_core.c **** 
 1324              		.loc 1 361 11 view .LVU472
 1325 03a6 64B2     		sxtb	r4, r4
 1326              	.LVL187:
 363:Core/Src/vl53l0x_api_core.c **** 			Status |= VL53L0X_device_read_strobe(Dev);
 1327              		.loc 1 363 4 is_stmt 1 view .LVU473
 363:Core/Src/vl53l0x_api_core.c **** 			Status |= VL53L0X_device_read_strobe(Dev);
 1328              		.loc 1 363 14 is_stmt 0 view .LVU474
 1329 03a8 7C22     		movs	r2, #124
 1330 03aa 9421     		movs	r1, #148
 1331 03ac 2846     		mov	r0, r5
 1332 03ae FFF7FEFF 		bl	VL53L0X_WrByte
 1333              	.LVL188:
 363:Core/Src/vl53l0x_api_core.c **** 			Status |= VL53L0X_device_read_strobe(Dev);
 1334              		.loc 1 363 11 view .LVU475
 1335 03b2 0443     		orrs	r4, r4, r0
 1336              	.LVL189:
 363:Core/Src/vl53l0x_api_core.c **** 			Status |= VL53L0X_device_read_strobe(Dev);
 1337              		.loc 1 363 11 view .LVU476
 1338 03b4 64B2     		sxtb	r4, r4
 1339              	.LVL190:
 364:Core/Src/vl53l0x_api_core.c **** 			Status |= VL53L0X_RdDWord(Dev, 0x90, &PartUIDLower);
ARM GAS  C:\Users\anmh1\AppData\Local\Temp\ccrmGbOb.s 			page 37


 1340              		.loc 1 364 4 is_stmt 1 view .LVU477
 364:Core/Src/vl53l0x_api_core.c **** 			Status |= VL53L0X_RdDWord(Dev, 0x90, &PartUIDLower);
 1341              		.loc 1 364 14 is_stmt 0 view .LVU478
 1342 03b6 2846     		mov	r0, r5
 1343 03b8 FFF7FEFF 		bl	VL53L0X_device_read_strobe
 1344              	.LVL191:
 364:Core/Src/vl53l0x_api_core.c **** 			Status |= VL53L0X_RdDWord(Dev, 0x90, &PartUIDLower);
 1345              		.loc 1 364 11 view .LVU479
 1346 03bc 0443     		orrs	r4, r4, r0
 1347              	.LVL192:
 364:Core/Src/vl53l0x_api_core.c **** 			Status |= VL53L0X_RdDWord(Dev, 0x90, &PartUIDLower);
 1348              		.loc 1 364 11 view .LVU480
 1349 03be 64B2     		sxtb	r4, r4
 1350              	.LVL193:
 365:Core/Src/vl53l0x_api_core.c **** 
 1351              		.loc 1 365 4 is_stmt 1 view .LVU481
 365:Core/Src/vl53l0x_api_core.c **** 
 1352              		.loc 1 365 14 is_stmt 0 view .LVU482
 1353 03c0 07AA     		add	r2, sp, #28
 1354 03c2 9021     		movs	r1, #144
 1355 03c4 2846     		mov	r0, r5
 1356 03c6 FFF7FEFF 		bl	VL53L0X_RdDWord
 1357              	.LVL194:
 365:Core/Src/vl53l0x_api_core.c **** 
 1358              		.loc 1 365 11 view .LVU483
 1359 03ca 0443     		orrs	r4, r4, r0
 1360              	.LVL195:
 365:Core/Src/vl53l0x_api_core.c **** 
 1361              		.loc 1 365 11 view .LVU484
 1362 03cc 64B2     		sxtb	r4, r4
 1363              	.LVL196:
 367:Core/Src/vl53l0x_api_core.c **** 			Status |= VL53L0X_device_read_strobe(Dev);
 1364              		.loc 1 367 4 is_stmt 1 view .LVU485
 367:Core/Src/vl53l0x_api_core.c **** 			Status |= VL53L0X_device_read_strobe(Dev);
 1365              		.loc 1 367 14 is_stmt 0 view .LVU486
 1366 03ce 7322     		movs	r2, #115
 1367 03d0 9421     		movs	r1, #148
 1368 03d2 2846     		mov	r0, r5
 1369 03d4 FFF7FEFF 		bl	VL53L0X_WrByte
 1370              	.LVL197:
 367:Core/Src/vl53l0x_api_core.c **** 			Status |= VL53L0X_device_read_strobe(Dev);
 1371              		.loc 1 367 11 view .LVU487
 1372 03d8 0443     		orrs	r4, r4, r0
 1373              	.LVL198:
 367:Core/Src/vl53l0x_api_core.c **** 			Status |= VL53L0X_device_read_strobe(Dev);
 1374              		.loc 1 367 11 view .LVU488
 1375 03da 64B2     		sxtb	r4, r4
 1376              	.LVL199:
 368:Core/Src/vl53l0x_api_core.c **** 			Status |= VL53L0X_RdDWord(Dev, 0x90, &TmpDWord);
 1377              		.loc 1 368 4 is_stmt 1 view .LVU489
 368:Core/Src/vl53l0x_api_core.c **** 			Status |= VL53L0X_RdDWord(Dev, 0x90, &TmpDWord);
 1378              		.loc 1 368 14 is_stmt 0 view .LVU490
 1379 03dc 2846     		mov	r0, r5
 1380 03de FFF7FEFF 		bl	VL53L0X_device_read_strobe
 1381              	.LVL200:
 368:Core/Src/vl53l0x_api_core.c **** 			Status |= VL53L0X_RdDWord(Dev, 0x90, &TmpDWord);
 1382              		.loc 1 368 11 view .LVU491
ARM GAS  C:\Users\anmh1\AppData\Local\Temp\ccrmGbOb.s 			page 38


 1383 03e2 0443     		orrs	r4, r4, r0
 1384              	.LVL201:
 368:Core/Src/vl53l0x_api_core.c **** 			Status |= VL53L0X_RdDWord(Dev, 0x90, &TmpDWord);
 1385              		.loc 1 368 11 view .LVU492
 1386 03e4 64B2     		sxtb	r4, r4
 1387              	.LVL202:
 369:Core/Src/vl53l0x_api_core.c **** 
 1388              		.loc 1 369 4 is_stmt 1 view .LVU493
 369:Core/Src/vl53l0x_api_core.c **** 
 1389              		.loc 1 369 14 is_stmt 0 view .LVU494
 1390 03e6 0AAA     		add	r2, sp, #40
 1391 03e8 9021     		movs	r1, #144
 1392 03ea 2846     		mov	r0, r5
 1393 03ec FFF7FEFF 		bl	VL53L0X_RdDWord
 1394              	.LVL203:
 369:Core/Src/vl53l0x_api_core.c **** 
 1395              		.loc 1 369 11 view .LVU495
 1396 03f0 0443     		orrs	r4, r4, r0
 1397              	.LVL204:
 369:Core/Src/vl53l0x_api_core.c **** 
 1398              		.loc 1 369 11 view .LVU496
 1399 03f2 64B2     		sxtb	r4, r4
 1400              	.LVL205:
 371:Core/Src/vl53l0x_api_core.c **** 				0x0000000ff) << 8;
 1401              		.loc 1 371 4 is_stmt 1 view .LVU497
 372:Core/Src/vl53l0x_api_core.c **** 
 1402              		.loc 1 372 18 is_stmt 0 view .LVU498
 1403 03f4 0A9B     		ldr	r3, [sp, #40]
 1404 03f6 4FEA0328 		lsl	r8, r3, #8
 371:Core/Src/vl53l0x_api_core.c **** 				0x0000000ff) << 8;
 1405              		.loc 1 371 35 view .LVU499
 1406 03fa 1FFA88F8 		uxth	r8, r8
 1407              	.LVL206:
 374:Core/Src/vl53l0x_api_core.c **** 			Status |= VL53L0X_device_read_strobe(Dev);
 1408              		.loc 1 374 4 is_stmt 1 view .LVU500
 374:Core/Src/vl53l0x_api_core.c **** 			Status |= VL53L0X_device_read_strobe(Dev);
 1409              		.loc 1 374 14 is_stmt 0 view .LVU501
 1410 03fe 7422     		movs	r2, #116
 1411 0400 9421     		movs	r1, #148
 1412 0402 2846     		mov	r0, r5
 1413 0404 FFF7FEFF 		bl	VL53L0X_WrByte
 1414              	.LVL207:
 374:Core/Src/vl53l0x_api_core.c **** 			Status |= VL53L0X_device_read_strobe(Dev);
 1415              		.loc 1 374 11 view .LVU502
 1416 0408 0443     		orrs	r4, r4, r0
 1417              	.LVL208:
 374:Core/Src/vl53l0x_api_core.c **** 			Status |= VL53L0X_device_read_strobe(Dev);
 1418              		.loc 1 374 11 view .LVU503
 1419 040a 64B2     		sxtb	r4, r4
 1420              	.LVL209:
 375:Core/Src/vl53l0x_api_core.c **** 			Status |= VL53L0X_RdDWord(Dev, 0x90, &TmpDWord);
 1421              		.loc 1 375 4 is_stmt 1 view .LVU504
 375:Core/Src/vl53l0x_api_core.c **** 			Status |= VL53L0X_RdDWord(Dev, 0x90, &TmpDWord);
 1422              		.loc 1 375 14 is_stmt 0 view .LVU505
 1423 040c 2846     		mov	r0, r5
 1424 040e FFF7FEFF 		bl	VL53L0X_device_read_strobe
 1425              	.LVL210:
ARM GAS  C:\Users\anmh1\AppData\Local\Temp\ccrmGbOb.s 			page 39


 375:Core/Src/vl53l0x_api_core.c **** 			Status |= VL53L0X_RdDWord(Dev, 0x90, &TmpDWord);
 1426              		.loc 1 375 11 view .LVU506
 1427 0412 0443     		orrs	r4, r4, r0
 1428              	.LVL211:
 375:Core/Src/vl53l0x_api_core.c **** 			Status |= VL53L0X_RdDWord(Dev, 0x90, &TmpDWord);
 1429              		.loc 1 375 11 view .LVU507
 1430 0414 64B2     		sxtb	r4, r4
 1431              	.LVL212:
 376:Core/Src/vl53l0x_api_core.c **** 
 1432              		.loc 1 376 4 is_stmt 1 view .LVU508
 376:Core/Src/vl53l0x_api_core.c **** 
 1433              		.loc 1 376 14 is_stmt 0 view .LVU509
 1434 0416 0AAA     		add	r2, sp, #40
 1435 0418 9021     		movs	r1, #144
 1436 041a 2846     		mov	r0, r5
 1437 041c FFF7FEFF 		bl	VL53L0X_RdDWord
 1438              	.LVL213:
 376:Core/Src/vl53l0x_api_core.c **** 
 1439              		.loc 1 376 11 view .LVU510
 1440 0420 0443     		orrs	r4, r4, r0
 1441              	.LVL214:
 376:Core/Src/vl53l0x_api_core.c **** 
 1442              		.loc 1 376 11 view .LVU511
 1443 0422 64B2     		sxtb	r4, r4
 1444              	.LVL215:
 378:Core/Src/vl53l0x_api_core.c **** 				0xff000000) >> 24);
 1445              		.loc 1 378 4 is_stmt 1 view .LVU512
 379:Core/Src/vl53l0x_api_core.c **** 
 1446              		.loc 1 379 17 is_stmt 0 view .LVU513
 1447 0424 9DF82B30 		ldrb	r3, [sp, #43]	@ zero_extendqisi2
 378:Core/Src/vl53l0x_api_core.c **** 				0xff000000) >> 24);
 1448              		.loc 1 378 35 view .LVU514
 1449 0428 43EA0808 		orr	r8, r3, r8
 1450              	.LVL216:
 381:Core/Src/vl53l0x_api_core.c **** 			Status |= VL53L0X_device_read_strobe(Dev);
 1451              		.loc 1 381 4 is_stmt 1 view .LVU515
 381:Core/Src/vl53l0x_api_core.c **** 			Status |= VL53L0X_device_read_strobe(Dev);
 1452              		.loc 1 381 14 is_stmt 0 view .LVU516
 1453 042c 7522     		movs	r2, #117
 1454 042e 9421     		movs	r1, #148
 1455 0430 2846     		mov	r0, r5
 1456 0432 FFF7FEFF 		bl	VL53L0X_WrByte
 1457              	.LVL217:
 381:Core/Src/vl53l0x_api_core.c **** 			Status |= VL53L0X_device_read_strobe(Dev);
 1458              		.loc 1 381 11 view .LVU517
 1459 0436 0443     		orrs	r4, r4, r0
 1460              	.LVL218:
 381:Core/Src/vl53l0x_api_core.c **** 			Status |= VL53L0X_device_read_strobe(Dev);
 1461              		.loc 1 381 11 view .LVU518
 1462 0438 64B2     		sxtb	r4, r4
 1463              	.LVL219:
 382:Core/Src/vl53l0x_api_core.c **** 			Status |= VL53L0X_RdDWord(Dev, 0x90, &TmpDWord);
 1464              		.loc 1 382 4 is_stmt 1 view .LVU519
 382:Core/Src/vl53l0x_api_core.c **** 			Status |= VL53L0X_RdDWord(Dev, 0x90, &TmpDWord);
 1465              		.loc 1 382 14 is_stmt 0 view .LVU520
 1466 043a 2846     		mov	r0, r5
 1467 043c FFF7FEFF 		bl	VL53L0X_device_read_strobe
ARM GAS  C:\Users\anmh1\AppData\Local\Temp\ccrmGbOb.s 			page 40


 1468              	.LVL220:
 382:Core/Src/vl53l0x_api_core.c **** 			Status |= VL53L0X_RdDWord(Dev, 0x90, &TmpDWord);
 1469              		.loc 1 382 11 view .LVU521
 1470 0440 0443     		orrs	r4, r4, r0
 1471              	.LVL221:
 382:Core/Src/vl53l0x_api_core.c **** 			Status |= VL53L0X_RdDWord(Dev, 0x90, &TmpDWord);
 1472              		.loc 1 382 11 view .LVU522
 1473 0442 64B2     		sxtb	r4, r4
 1474              	.LVL222:
 383:Core/Src/vl53l0x_api_core.c **** 
 1475              		.loc 1 383 4 is_stmt 1 view .LVU523
 383:Core/Src/vl53l0x_api_core.c **** 
 1476              		.loc 1 383 14 is_stmt 0 view .LVU524
 1477 0444 0AAA     		add	r2, sp, #40
 1478 0446 9021     		movs	r1, #144
 1479 0448 2846     		mov	r0, r5
 1480 044a FFF7FEFF 		bl	VL53L0X_RdDWord
 1481              	.LVL223:
 383:Core/Src/vl53l0x_api_core.c **** 
 1482              		.loc 1 383 11 view .LVU525
 1483 044e 0443     		orrs	r4, r4, r0
 1484              	.LVL224:
 383:Core/Src/vl53l0x_api_core.c **** 
 1485              		.loc 1 383 11 view .LVU526
 1486 0450 64B2     		sxtb	r4, r4
 1487              	.LVL225:
 385:Core/Src/vl53l0x_api_core.c **** 							<< 8;
 1488              		.loc 1 385 4 is_stmt 1 view .LVU527
 386:Core/Src/vl53l0x_api_core.c **** 
 1489              		.loc 1 386 8 is_stmt 0 view .LVU528
 1490 0452 0A9B     		ldr	r3, [sp, #40]
 1491 0454 4FEA032B 		lsl	fp, r3, #8
 385:Core/Src/vl53l0x_api_core.c **** 							<< 8;
 1492              		.loc 1 385 29 view .LVU529
 1493 0458 1FFA8BFB 		uxth	fp, fp
 1494              	.LVL226:
 388:Core/Src/vl53l0x_api_core.c **** 			Status |= VL53L0X_device_read_strobe(Dev);
 1495              		.loc 1 388 4 is_stmt 1 view .LVU530
 388:Core/Src/vl53l0x_api_core.c **** 			Status |= VL53L0X_device_read_strobe(Dev);
 1496              		.loc 1 388 14 is_stmt 0 view .LVU531
 1497 045c 7622     		movs	r2, #118
 1498 045e 9421     		movs	r1, #148
 1499 0460 2846     		mov	r0, r5
 1500 0462 FFF7FEFF 		bl	VL53L0X_WrByte
 1501              	.LVL227:
 388:Core/Src/vl53l0x_api_core.c **** 			Status |= VL53L0X_device_read_strobe(Dev);
 1502              		.loc 1 388 11 view .LVU532
 1503 0466 0443     		orrs	r4, r4, r0
 1504              	.LVL228:
 388:Core/Src/vl53l0x_api_core.c **** 			Status |= VL53L0X_device_read_strobe(Dev);
 1505              		.loc 1 388 11 view .LVU533
 1506 0468 64B2     		sxtb	r4, r4
 1507              	.LVL229:
 389:Core/Src/vl53l0x_api_core.c **** 			Status |= VL53L0X_RdDWord(Dev, 0x90, &TmpDWord);
 1508              		.loc 1 389 4 is_stmt 1 view .LVU534
 389:Core/Src/vl53l0x_api_core.c **** 			Status |= VL53L0X_RdDWord(Dev, 0x90, &TmpDWord);
 1509              		.loc 1 389 14 is_stmt 0 view .LVU535
ARM GAS  C:\Users\anmh1\AppData\Local\Temp\ccrmGbOb.s 			page 41


 1510 046a 2846     		mov	r0, r5
 1511 046c FFF7FEFF 		bl	VL53L0X_device_read_strobe
 1512              	.LVL230:
 389:Core/Src/vl53l0x_api_core.c **** 			Status |= VL53L0X_RdDWord(Dev, 0x90, &TmpDWord);
 1513              		.loc 1 389 11 view .LVU536
 1514 0470 0443     		orrs	r4, r4, r0
 1515              	.LVL231:
 389:Core/Src/vl53l0x_api_core.c **** 			Status |= VL53L0X_RdDWord(Dev, 0x90, &TmpDWord);
 1516              		.loc 1 389 11 view .LVU537
 1517 0472 64B2     		sxtb	r4, r4
 1518              	.LVL232:
 390:Core/Src/vl53l0x_api_core.c **** 
 1519              		.loc 1 390 4 is_stmt 1 view .LVU538
 390:Core/Src/vl53l0x_api_core.c **** 
 1520              		.loc 1 390 14 is_stmt 0 view .LVU539
 1521 0474 0AAA     		add	r2, sp, #40
 1522 0476 9021     		movs	r1, #144
 1523 0478 2846     		mov	r0, r5
 1524 047a FFF7FEFF 		bl	VL53L0X_RdDWord
 1525              	.LVL233:
 390:Core/Src/vl53l0x_api_core.c **** 
 1526              		.loc 1 390 11 view .LVU540
 1527 047e 0443     		orrs	r4, r4, r0
 1528              	.LVL234:
 390:Core/Src/vl53l0x_api_core.c **** 
 1529              		.loc 1 390 11 view .LVU541
 1530 0480 64B2     		sxtb	r4, r4
 1531              	.LVL235:
 392:Core/Src/vl53l0x_api_core.c **** 							>> 24);
 1532              		.loc 1 392 4 is_stmt 1 view .LVU542
 393:Core/Src/vl53l0x_api_core.c **** 		}
 1533              		.loc 1 393 8 is_stmt 0 view .LVU543
 1534 0482 9DF82B30 		ldrb	r3, [sp, #43]	@ zero_extendqisi2
 392:Core/Src/vl53l0x_api_core.c **** 							>> 24);
 1535              		.loc 1 392 29 view .LVU544
 1536 0486 43EA0B0B 		orr	fp, r3, fp
 1537              	.LVL236:
 392:Core/Src/vl53l0x_api_core.c **** 							>> 24);
 1538              		.loc 1 392 29 view .LVU545
 1539 048a 02E0     		b	.L41
 1540              	.LVL237:
 1541              	.L52:
 227:Core/Src/vl53l0x_api_core.c **** 	char ProductId[19];
 1542              		.loc 1 227 11 view .LVU546
 1543 048c 4FF00008 		mov	r8, #0
 226:Core/Src/vl53l0x_api_core.c **** 	uint32_t SignalRateMeasFixed1104_400_mm = 0;
 1544              		.loc 1 226 11 view .LVU547
 1545 0490 C346     		mov	fp, r8
 1546              	.LVL238:
 1547              	.L41:
 396:Core/Src/vl53l0x_api_core.c **** 		Status |= VL53L0X_WrByte(Dev, 0xFF, 0x06);
 1548              		.loc 1 396 3 is_stmt 1 view .LVU548
 396:Core/Src/vl53l0x_api_core.c **** 		Status |= VL53L0X_WrByte(Dev, 0xFF, 0x06);
 1549              		.loc 1 396 13 is_stmt 0 view .LVU549
 1550 0492 0022     		movs	r2, #0
 1551 0494 8121     		movs	r1, #129
 1552 0496 2846     		mov	r0, r5
ARM GAS  C:\Users\anmh1\AppData\Local\Temp\ccrmGbOb.s 			page 42


 1553 0498 FFF7FEFF 		bl	VL53L0X_WrByte
 1554              	.LVL239:
 396:Core/Src/vl53l0x_api_core.c **** 		Status |= VL53L0X_WrByte(Dev, 0xFF, 0x06);
 1555              		.loc 1 396 10 view .LVU550
 1556 049c 0443     		orrs	r4, r4, r0
 1557              	.LVL240:
 396:Core/Src/vl53l0x_api_core.c **** 		Status |= VL53L0X_WrByte(Dev, 0xFF, 0x06);
 1558              		.loc 1 396 10 view .LVU551
 1559 049e 64B2     		sxtb	r4, r4
 1560              	.LVL241:
 397:Core/Src/vl53l0x_api_core.c **** 		Status |= VL53L0X_RdByte(Dev, 0x83, &byte);
 1561              		.loc 1 397 3 is_stmt 1 view .LVU552
 397:Core/Src/vl53l0x_api_core.c **** 		Status |= VL53L0X_RdByte(Dev, 0x83, &byte);
 1562              		.loc 1 397 13 is_stmt 0 view .LVU553
 1563 04a0 0622     		movs	r2, #6
 1564 04a2 FF21     		movs	r1, #255
 1565 04a4 2846     		mov	r0, r5
 1566 04a6 FFF7FEFF 		bl	VL53L0X_WrByte
 1567              	.LVL242:
 397:Core/Src/vl53l0x_api_core.c **** 		Status |= VL53L0X_RdByte(Dev, 0x83, &byte);
 1568              		.loc 1 397 10 view .LVU554
 1569 04aa 0443     		orrs	r4, r4, r0
 1570              	.LVL243:
 397:Core/Src/vl53l0x_api_core.c **** 		Status |= VL53L0X_RdByte(Dev, 0x83, &byte);
 1571              		.loc 1 397 10 view .LVU555
 1572 04ac 64B2     		sxtb	r4, r4
 1573              	.LVL244:
 398:Core/Src/vl53l0x_api_core.c **** 		Status |= VL53L0X_WrByte(Dev, 0x83, byte&0xfb);
 1574              		.loc 1 398 3 is_stmt 1 view .LVU556
 398:Core/Src/vl53l0x_api_core.c **** 		Status |= VL53L0X_WrByte(Dev, 0x83, byte&0xfb);
 1575              		.loc 1 398 13 is_stmt 0 view .LVU557
 1576 04ae 0DF12F02 		add	r2, sp, #47
 1577 04b2 8321     		movs	r1, #131
 1578 04b4 2846     		mov	r0, r5
 1579 04b6 FFF7FEFF 		bl	VL53L0X_RdByte
 1580              	.LVL245:
 398:Core/Src/vl53l0x_api_core.c **** 		Status |= VL53L0X_WrByte(Dev, 0x83, byte&0xfb);
 1581              		.loc 1 398 10 view .LVU558
 1582 04ba 0443     		orrs	r4, r4, r0
 1583              	.LVL246:
 398:Core/Src/vl53l0x_api_core.c **** 		Status |= VL53L0X_WrByte(Dev, 0x83, byte&0xfb);
 1584              		.loc 1 398 10 view .LVU559
 1585 04bc 64B2     		sxtb	r4, r4
 1586              	.LVL247:
 399:Core/Src/vl53l0x_api_core.c **** 		Status |= VL53L0X_WrByte(Dev, 0xFF, 0x01);
 1587              		.loc 1 399 3 is_stmt 1 view .LVU560
 399:Core/Src/vl53l0x_api_core.c **** 		Status |= VL53L0X_WrByte(Dev, 0xFF, 0x01);
 1588              		.loc 1 399 13 is_stmt 0 view .LVU561
 1589 04be 9DF82F20 		ldrb	r2, [sp, #47]	@ zero_extendqisi2
 1590 04c2 02F0FB02 		and	r2, r2, #251
 1591 04c6 8321     		movs	r1, #131
 1592 04c8 2846     		mov	r0, r5
 1593 04ca FFF7FEFF 		bl	VL53L0X_WrByte
 1594              	.LVL248:
 399:Core/Src/vl53l0x_api_core.c **** 		Status |= VL53L0X_WrByte(Dev, 0xFF, 0x01);
 1595              		.loc 1 399 10 view .LVU562
 1596 04ce 0443     		orrs	r4, r4, r0
ARM GAS  C:\Users\anmh1\AppData\Local\Temp\ccrmGbOb.s 			page 43


 1597              	.LVL249:
 399:Core/Src/vl53l0x_api_core.c **** 		Status |= VL53L0X_WrByte(Dev, 0xFF, 0x01);
 1598              		.loc 1 399 10 view .LVU563
 1599 04d0 64B2     		sxtb	r4, r4
 1600              	.LVL250:
 400:Core/Src/vl53l0x_api_core.c **** 		Status |= VL53L0X_WrByte(Dev, 0x00, 0x01);
 1601              		.loc 1 400 3 is_stmt 1 view .LVU564
 400:Core/Src/vl53l0x_api_core.c **** 		Status |= VL53L0X_WrByte(Dev, 0x00, 0x01);
 1602              		.loc 1 400 13 is_stmt 0 view .LVU565
 1603 04d2 0122     		movs	r2, #1
 1604 04d4 FF21     		movs	r1, #255
 1605 04d6 2846     		mov	r0, r5
 1606 04d8 FFF7FEFF 		bl	VL53L0X_WrByte
 1607              	.LVL251:
 400:Core/Src/vl53l0x_api_core.c **** 		Status |= VL53L0X_WrByte(Dev, 0x00, 0x01);
 1608              		.loc 1 400 10 view .LVU566
 1609 04dc 0443     		orrs	r4, r4, r0
 1610              	.LVL252:
 400:Core/Src/vl53l0x_api_core.c **** 		Status |= VL53L0X_WrByte(Dev, 0x00, 0x01);
 1611              		.loc 1 400 10 view .LVU567
 1612 04de 64B2     		sxtb	r4, r4
 1613              	.LVL253:
 401:Core/Src/vl53l0x_api_core.c **** 
 1614              		.loc 1 401 3 is_stmt 1 view .LVU568
 401:Core/Src/vl53l0x_api_core.c **** 
 1615              		.loc 1 401 13 is_stmt 0 view .LVU569
 1616 04e0 0122     		movs	r2, #1
 1617 04e2 0021     		movs	r1, #0
 1618 04e4 2846     		mov	r0, r5
 1619 04e6 FFF7FEFF 		bl	VL53L0X_WrByte
 1620              	.LVL254:
 401:Core/Src/vl53l0x_api_core.c **** 
 1621              		.loc 1 401 10 view .LVU570
 1622 04ea 0443     		orrs	r4, r4, r0
 1623              	.LVL255:
 401:Core/Src/vl53l0x_api_core.c **** 
 1624              		.loc 1 401 10 view .LVU571
 1625 04ec 64B2     		sxtb	r4, r4
 1626              	.LVL256:
 403:Core/Src/vl53l0x_api_core.c **** 		Status |= VL53L0X_WrByte(Dev, 0x80, 0x00);
 1627              		.loc 1 403 3 is_stmt 1 view .LVU572
 403:Core/Src/vl53l0x_api_core.c **** 		Status |= VL53L0X_WrByte(Dev, 0x80, 0x00);
 1628              		.loc 1 403 13 is_stmt 0 view .LVU573
 1629 04ee 0022     		movs	r2, #0
 1630 04f0 FF21     		movs	r1, #255
 1631 04f2 2846     		mov	r0, r5
 1632 04f4 FFF7FEFF 		bl	VL53L0X_WrByte
 1633              	.LVL257:
 403:Core/Src/vl53l0x_api_core.c **** 		Status |= VL53L0X_WrByte(Dev, 0x80, 0x00);
 1634              		.loc 1 403 10 view .LVU574
 1635 04f8 0443     		orrs	r4, r4, r0
 1636              	.LVL258:
 403:Core/Src/vl53l0x_api_core.c **** 		Status |= VL53L0X_WrByte(Dev, 0x80, 0x00);
 1637              		.loc 1 403 10 view .LVU575
 1638 04fa 64B2     		sxtb	r4, r4
 1639              	.LVL259:
 404:Core/Src/vl53l0x_api_core.c **** 	}
ARM GAS  C:\Users\anmh1\AppData\Local\Temp\ccrmGbOb.s 			page 44


 1640              		.loc 1 404 3 is_stmt 1 view .LVU576
 404:Core/Src/vl53l0x_api_core.c **** 	}
 1641              		.loc 1 404 13 is_stmt 0 view .LVU577
 1642 04fc 0022     		movs	r2, #0
 1643 04fe 8021     		movs	r1, #128
 1644 0500 2846     		mov	r0, r5
 1645 0502 FFF7FEFF 		bl	VL53L0X_WrByte
 1646              	.LVL260:
 404:Core/Src/vl53l0x_api_core.c **** 	}
 1647              		.loc 1 404 10 view .LVU578
 1648 0506 0443     		orrs	r4, r4, r0
 1649              	.LVL261:
 404:Core/Src/vl53l0x_api_core.c **** 	}
 1650              		.loc 1 404 10 view .LVU579
 1651 0508 64B2     		sxtb	r4, r4
 1652              	.LVL262:
 404:Core/Src/vl53l0x_api_core.c **** 	}
 1653              		.loc 1 404 10 view .LVU580
 1654 050a 8BE5     		b	.L38
 1655              	.L43:
 421:Core/Src/vl53l0x_api_core.c **** 			}
 422:Core/Src/vl53l0x_api_core.c **** 		}
 423:Core/Src/vl53l0x_api_core.c **** 
 424:Core/Src/vl53l0x_api_core.c **** 		if (((option & 2) == 2) &&
 1656              		.loc 1 424 3 is_stmt 1 view .LVU581
 1657              		.loc 1 424 6 is_stmt 0 view .LVU582
 1658 050c 16F0020F 		tst	r6, #2
 1659 0510 02D0     		beq	.L46
 1660              		.loc 1 424 27 discriminator 1 view .LVU583
 1661 0512 17F0020F 		tst	r7, #2
 1662 0516 1CD0     		beq	.L60
 1663              	.L46:
 425:Core/Src/vl53l0x_api_core.c **** 			((ReadDataFromDeviceDone & 2) == 0)) {
 426:Core/Src/vl53l0x_api_core.c **** 			VL53L0X_SETDEVICESPECIFICPARAMETER(Dev,
 427:Core/Src/vl53l0x_api_core.c **** 					ModuleId, ModuleId);
 428:Core/Src/vl53l0x_api_core.c **** 
 429:Core/Src/vl53l0x_api_core.c **** 			VL53L0X_SETDEVICESPECIFICPARAMETER(Dev,
 430:Core/Src/vl53l0x_api_core.c **** 					Revision, Revision);
 431:Core/Src/vl53l0x_api_core.c **** 
 432:Core/Src/vl53l0x_api_core.c **** 			ProductId_tmp = VL53L0X_GETDEVICESPECIFICPARAMETER(Dev,
 433:Core/Src/vl53l0x_api_core.c **** 					ProductId);
 434:Core/Src/vl53l0x_api_core.c **** 			VL53L0X_COPYSTRING(ProductId_tmp, ProductId);
 435:Core/Src/vl53l0x_api_core.c **** 
 436:Core/Src/vl53l0x_api_core.c **** 		}
 437:Core/Src/vl53l0x_api_core.c **** 
 438:Core/Src/vl53l0x_api_core.c **** 		if (((option & 4) == 4) &&
 1664              		.loc 1 438 3 is_stmt 1 view .LVU584
 1665              		.loc 1 438 6 is_stmt 0 view .LVU585
 1666 0518 16F0040F 		tst	r6, #4
 1667 051c 29D0     		beq	.L47
 1668              		.loc 1 438 27 discriminator 1 view .LVU586
 1669 051e 17F0040F 		tst	r7, #4
 1670 0522 26D1     		bne	.L47
 439:Core/Src/vl53l0x_api_core.c **** 			((ReadDataFromDeviceDone & 4) == 0)) {
 440:Core/Src/vl53l0x_api_core.c **** 			VL53L0X_SETDEVICESPECIFICPARAMETER(Dev,
 1671              		.loc 1 440 4 is_stmt 1 view .LVU587
 1672 0524 089B     		ldr	r3, [sp, #32]
ARM GAS  C:\Users\anmh1\AppData\Local\Temp\ccrmGbOb.s 			page 45


 1673 0526 C5F81831 		str	r3, [r5, #280]
 441:Core/Src/vl53l0x_api_core.c **** 						PartUIDUpper, PartUIDUpper);
 442:Core/Src/vl53l0x_api_core.c **** 
 443:Core/Src/vl53l0x_api_core.c **** 			VL53L0X_SETDEVICESPECIFICPARAMETER(Dev,
 1674              		.loc 1 443 4 view .LVU588
 1675 052a 079B     		ldr	r3, [sp, #28]
 1676 052c C5F81C31 		str	r3, [r5, #284]
 444:Core/Src/vl53l0x_api_core.c **** 						PartUIDLower, PartUIDLower);
 445:Core/Src/vl53l0x_api_core.c **** 
 446:Core/Src/vl53l0x_api_core.c **** 			SignalRateMeasFixed400mmFix =
 1677              		.loc 1 446 4 view .LVU589
 1678              		.loc 1 446 32 is_stmt 0 view .LVU590
 1679 0530 4FEA4823 		lsl	r3, r8, #9
 1680              	.LVL263:
 447:Core/Src/vl53l0x_api_core.c **** 				VL53L0X_FIXPOINT97TOFIXPOINT1616(
 448:Core/Src/vl53l0x_api_core.c **** 					SignalRateMeasFixed1104_400_mm);
 449:Core/Src/vl53l0x_api_core.c **** 
 450:Core/Src/vl53l0x_api_core.c **** 			VL53L0X_SETDEVICESPECIFICPARAMETER(Dev,
 1681              		.loc 1 450 4 is_stmt 1 view .LVU591
 1682 0534 C5F82031 		str	r3, [r5, #288]
 451:Core/Src/vl53l0x_api_core.c **** 				SignalRateMeasFixed400mm,
 452:Core/Src/vl53l0x_api_core.c **** 				SignalRateMeasFixed400mmFix);
 453:Core/Src/vl53l0x_api_core.c **** 
 454:Core/Src/vl53l0x_api_core.c **** 			OffsetMicroMeters = 0;
 1683              		.loc 1 454 4 view .LVU592
 455:Core/Src/vl53l0x_api_core.c **** 			if (DistMeasFixed1104_400_mm != 0) {
 1684              		.loc 1 455 4 view .LVU593
 1685              		.loc 1 455 7 is_stmt 0 view .LVU594
 1686 0538 BBF1000F 		cmp	fp, #0
 1687 053c 17D0     		beq	.L54
 456:Core/Src/vl53l0x_api_core.c **** 					OffsetFixed1104_mm =
 1688              		.loc 1 456 6 is_stmt 1 view .LVU595
 1689              		.loc 1 456 25 is_stmt 0 view .LVU596
 1690 053e ABF5C85B 		sub	fp, fp, #6400
 1691              	.LVL264:
 457:Core/Src/vl53l0x_api_core.c **** 						DistMeasFixed1104_400_mm -
 458:Core/Src/vl53l0x_api_core.c **** 						DistMeasTgtFixed1104_mm;
 459:Core/Src/vl53l0x_api_core.c **** 					OffsetMicroMeters = (OffsetFixed1104_mm
 1692              		.loc 1 459 6 is_stmt 1 view .LVU597
 460:Core/Src/vl53l0x_api_core.c **** 						* 1000) >> 4;
 1693              		.loc 1 460 7 is_stmt 0 view .LVU598
 1694 0542 4FF47A73 		mov	r3, #1000
 1695              	.LVL265:
 1696              		.loc 1 460 7 view .LVU599
 1697 0546 03FB0BF3 		mul	r3, r3, fp
 1698              		.loc 1 460 15 view .LVU600
 1699 054a 1B09     		lsrs	r3, r3, #4
 1700              	.LVL266:
 461:Core/Src/vl53l0x_api_core.c **** 					OffsetMicroMeters *= -1;
 1701              		.loc 1 461 6 is_stmt 1 view .LVU601
 1702              		.loc 1 461 24 is_stmt 0 view .LVU602
 1703 054c 5B42     		rsbs	r3, r3, #0
 1704              	.LVL267:
 1705              		.loc 1 461 24 view .LVU603
 1706 054e 1BB2     		sxth	r3, r3
 1707              	.LVL268:
 1708              		.loc 1 461 24 view .LVU604
ARM GAS  C:\Users\anmh1\AppData\Local\Temp\ccrmGbOb.s 			page 46


 1709 0550 0EE0     		b	.L48
 1710              	.LVL269:
 1711              	.L60:
 426:Core/Src/vl53l0x_api_core.c **** 					ModuleId, ModuleId);
 1712              		.loc 1 426 4 is_stmt 1 view .LVU605
 1713 0552 9DF82730 		ldrb	r3, [sp, #39]	@ zero_extendqisi2
 1714 0556 85F8F130 		strb	r3, [r5, #241]
 429:Core/Src/vl53l0x_api_core.c **** 					Revision, Revision);
 1715              		.loc 1 429 4 view .LVU606
 1716 055a 9DF82630 		ldrb	r3, [sp, #38]	@ zero_extendqisi2
 1717 055e 85F8F230 		strb	r3, [r5, #242]
 432:Core/Src/vl53l0x_api_core.c **** 					ProductId);
 1718              		.loc 1 432 4 view .LVU607
 1719              	.LVL270:
 434:Core/Src/vl53l0x_api_core.c **** 
 1720              		.loc 1 434 4 view .LVU608
 1721 0562 02A9     		add	r1, sp, #8
 1722 0564 05F1F300 		add	r0, r5, #243
 1723              	.LVL271:
 434:Core/Src/vl53l0x_api_core.c **** 
 1724              		.loc 1 434 4 is_stmt 0 view .LVU609
 1725 0568 FFF7FEFF 		bl	strcpy
 1726              	.LVL272:
 434:Core/Src/vl53l0x_api_core.c **** 
 1727              		.loc 1 434 4 view .LVU610
 1728 056c D4E7     		b	.L46
 1729              	.LVL273:
 1730              	.L54:
 454:Core/Src/vl53l0x_api_core.c **** 			if (DistMeasFixed1104_400_mm != 0) {
 1731              		.loc 1 454 22 view .LVU611
 1732 056e 0023     		movs	r3, #0
 1733              	.LVL274:
 1734              	.L48:
 462:Core/Src/vl53l0x_api_core.c **** 			}
 463:Core/Src/vl53l0x_api_core.c **** 
 464:Core/Src/vl53l0x_api_core.c **** 			PALDevDataSet(Dev,
 1735              		.loc 1 464 4 is_stmt 1 view .LVU612
 1736 0570 EB60     		str	r3, [r5, #12]
 1737              	.LVL275:
 1738              	.L47:
 465:Core/Src/vl53l0x_api_core.c **** 				Part2PartOffsetAdjustmentNVMMicroMeter,
 466:Core/Src/vl53l0x_api_core.c **** 				OffsetMicroMeters);
 467:Core/Src/vl53l0x_api_core.c **** 		}
 468:Core/Src/vl53l0x_api_core.c **** 		byte = (uint8_t)(ReadDataFromDeviceDone|option);
 1739              		.loc 1 468 3 view .LVU613
 1740              		.loc 1 468 10 is_stmt 0 view .LVU614
 1741 0572 3E43     		orrs	r6, r6, r7
 469:Core/Src/vl53l0x_api_core.c **** 		VL53L0X_SETDEVICESPECIFICPARAMETER(Dev, ReadDataFromDeviceDone,
 1742              		.loc 1 469 3 is_stmt 1 view .LVU615
 1743 0574 85F8F060 		strb	r6, [r5, #240]
 1744              	.L42:
 470:Core/Src/vl53l0x_api_core.c **** 				byte);
 471:Core/Src/vl53l0x_api_core.c **** 	}
 472:Core/Src/vl53l0x_api_core.c **** 
 473:Core/Src/vl53l0x_api_core.c **** 	LOG_FUNCTION_END(Status);
 1745              		.loc 1 473 2 view .LVU616
 474:Core/Src/vl53l0x_api_core.c **** 	return Status;
ARM GAS  C:\Users\anmh1\AppData\Local\Temp\ccrmGbOb.s 			page 47


 1746              		.loc 1 474 2 view .LVU617
 475:Core/Src/vl53l0x_api_core.c **** }
 1747              		.loc 1 475 1 is_stmt 0 view .LVU618
 1748 0578 2046     		mov	r0, r4
 1749 057a 0DB0     		add	sp, sp, #52
 1750              		.cfi_def_cfa_offset 36
 1751              		@ sp needed
 1752 057c BDE8F08F 		pop	{r4, r5, r6, r7, r8, r9, r10, fp, pc}
 1753              		.loc 1 475 1 view .LVU619
 1754              		.cfi_endproc
 1755              	.LFE140:
 1757              		.section	.text.VL53L0X_calc_macro_period_ps,"ax",%progbits
 1758              		.align	1
 1759              		.global	VL53L0X_calc_macro_period_ps
 1760              		.syntax unified
 1761              		.thumb
 1762              		.thumb_func
 1763              		.fpu fpv4-sp-d16
 1765              	VL53L0X_calc_macro_period_ps:
 1766              	.LVL276:
 1767              	.LFB141:
 476:Core/Src/vl53l0x_api_core.c **** 
 477:Core/Src/vl53l0x_api_core.c **** 
 478:Core/Src/vl53l0x_api_core.c **** uint32_t VL53L0X_calc_macro_period_ps(VL53L0X_DEV Dev, uint8_t vcsel_period_pclks)
 479:Core/Src/vl53l0x_api_core.c **** {
 1768              		.loc 1 479 1 is_stmt 1 view -0
 1769              		.cfi_startproc
 1770              		@ args = 0, pretend = 0, frame = 0
 1771              		@ frame_needed = 0, uses_anonymous_args = 0
 1772              		@ link register save eliminated.
 480:Core/Src/vl53l0x_api_core.c **** 	uint64_t PLL_period_ps;
 1773              		.loc 1 480 2 view .LVU621
 481:Core/Src/vl53l0x_api_core.c **** 	uint32_t macro_period_vclks;
 1774              		.loc 1 481 2 view .LVU622
 482:Core/Src/vl53l0x_api_core.c **** 	uint32_t macro_period_ps;
 1775              		.loc 1 482 2 view .LVU623
 483:Core/Src/vl53l0x_api_core.c **** 
 484:Core/Src/vl53l0x_api_core.c **** 	LOG_FUNCTION_START("");
 1776              		.loc 1 484 2 view .LVU624
 485:Core/Src/vl53l0x_api_core.c **** 
 486:Core/Src/vl53l0x_api_core.c **** 	/* The above calculation will produce rounding errors,
 487:Core/Src/vl53l0x_api_core.c **** 	   therefore set fixed value
 488:Core/Src/vl53l0x_api_core.c **** 	*/
 489:Core/Src/vl53l0x_api_core.c **** 	PLL_period_ps = 1655;
 1777              		.loc 1 489 2 view .LVU625
 490:Core/Src/vl53l0x_api_core.c **** 
 491:Core/Src/vl53l0x_api_core.c **** 	macro_period_vclks = 2304;
 1778              		.loc 1 491 2 view .LVU626
 492:Core/Src/vl53l0x_api_core.c **** 	macro_period_ps = (uint32_t)(macro_period_vclks
 1779              		.loc 1 492 2 view .LVU627
 493:Core/Src/vl53l0x_api_core.c **** 			* vcsel_period_pclks * PLL_period_ps);
 494:Core/Src/vl53l0x_api_core.c **** 
 495:Core/Src/vl53l0x_api_core.c **** 	LOG_FUNCTION_END("");
 1780              		.loc 1 495 2 view .LVU628
 496:Core/Src/vl53l0x_api_core.c **** 	return macro_period_ps;
 1781              		.loc 1 496 2 view .LVU629
 497:Core/Src/vl53l0x_api_core.c **** }
ARM GAS  C:\Users\anmh1\AppData\Local\Temp\ccrmGbOb.s 			page 48


 1782              		.loc 1 497 1 is_stmt 0 view .LVU630
 1783 0000 0148     		ldr	r0, .L62
 1784              	.LVL277:
 1785              		.loc 1 497 1 view .LVU631
 1786 0002 00FB01F0 		mul	r0, r0, r1
 1787              	.LVL278:
 1788              		.loc 1 497 1 view .LVU632
 1789 0006 7047     		bx	lr
 1790              	.L63:
 1791              		.align	2
 1792              	.L62:
 1793 0008 002F3A00 		.word	3813120
 1794              		.cfi_endproc
 1795              	.LFE141:
 1797              		.section	.text.VL53L0X_encode_timeout,"ax",%progbits
 1798              		.align	1
 1799              		.global	VL53L0X_encode_timeout
 1800              		.syntax unified
 1801              		.thumb
 1802              		.thumb_func
 1803              		.fpu fpv4-sp-d16
 1805              	VL53L0X_encode_timeout:
 1806              	.LVL279:
 1807              	.LFB142:
 498:Core/Src/vl53l0x_api_core.c **** 
 499:Core/Src/vl53l0x_api_core.c **** uint16_t VL53L0X_encode_timeout(uint32_t timeout_macro_clks)
 500:Core/Src/vl53l0x_api_core.c **** {
 1808              		.loc 1 500 1 is_stmt 1 view -0
 1809              		.cfi_startproc
 1810              		@ args = 0, pretend = 0, frame = 0
 1811              		@ frame_needed = 0, uses_anonymous_args = 0
 1812              		@ link register save eliminated.
 501:Core/Src/vl53l0x_api_core.c **** 	/*!
 502:Core/Src/vl53l0x_api_core.c **** 	 * Encode timeout in macro periods in (LSByte * 2^MSByte) + 1 format
 503:Core/Src/vl53l0x_api_core.c **** 	 */
 504:Core/Src/vl53l0x_api_core.c **** 
 505:Core/Src/vl53l0x_api_core.c **** 	uint16_t encoded_timeout = 0;
 1813              		.loc 1 505 2 view .LVU634
 506:Core/Src/vl53l0x_api_core.c **** 	uint32_t ls_byte = 0;
 1814              		.loc 1 506 2 view .LVU635
 507:Core/Src/vl53l0x_api_core.c **** 	uint16_t ms_byte = 0;
 1815              		.loc 1 507 2 view .LVU636
 508:Core/Src/vl53l0x_api_core.c **** 
 509:Core/Src/vl53l0x_api_core.c **** 	if (timeout_macro_clks > 0) {
 1816              		.loc 1 509 2 view .LVU637
 1817              		.loc 1 509 5 is_stmt 0 view .LVU638
 1818 0000 70B1     		cbz	r0, .L68
 510:Core/Src/vl53l0x_api_core.c **** 		ls_byte = timeout_macro_clks - 1;
 1819              		.loc 1 510 3 is_stmt 1 view .LVU639
 1820              		.loc 1 510 11 is_stmt 0 view .LVU640
 1821 0002 0138     		subs	r0, r0, #1
 1822              	.LVL280:
 511:Core/Src/vl53l0x_api_core.c **** 
 512:Core/Src/vl53l0x_api_core.c **** 		while ((ls_byte & 0xFFFFFF00) > 0) {
 1823              		.loc 1 512 3 is_stmt 1 view .LVU641
 507:Core/Src/vl53l0x_api_core.c **** 
 1824              		.loc 1 507 11 is_stmt 0 view .LVU642
ARM GAS  C:\Users\anmh1\AppData\Local\Temp\ccrmGbOb.s 			page 49


 1825 0004 0023     		movs	r3, #0
 1826              	.LVL281:
 1827              	.L66:
 1828              		.loc 1 512 9 is_stmt 1 view .LVU643
 1829 0006 30F0FF02 		bics	r2, r0, #255
 1830 000a 03D0     		beq	.L69
 513:Core/Src/vl53l0x_api_core.c **** 			ls_byte = ls_byte >> 1;
 1831              		.loc 1 513 4 view .LVU644
 1832              		.loc 1 513 12 is_stmt 0 view .LVU645
 1833 000c 4008     		lsrs	r0, r0, #1
 1834              	.LVL282:
 514:Core/Src/vl53l0x_api_core.c **** 			ms_byte++;
 1835              		.loc 1 514 4 is_stmt 1 view .LVU646
 1836              		.loc 1 514 11 is_stmt 0 view .LVU647
 1837 000e 0133     		adds	r3, r3, #1
 1838              	.LVL283:
 1839              		.loc 1 514 11 view .LVU648
 1840 0010 9BB2     		uxth	r3, r3
 1841              	.LVL284:
 1842              		.loc 1 514 11 view .LVU649
 1843 0012 F8E7     		b	.L66
 1844              	.L69:
 515:Core/Src/vl53l0x_api_core.c **** 		}
 516:Core/Src/vl53l0x_api_core.c **** 
 517:Core/Src/vl53l0x_api_core.c **** 		encoded_timeout = (ms_byte << 8)
 1845              		.loc 1 517 3 is_stmt 1 view .LVU650
 1846              		.loc 1 517 30 is_stmt 0 view .LVU651
 1847 0014 1B02     		lsls	r3, r3, #8
 1848              	.LVL285:
 1849              		.loc 1 517 30 view .LVU652
 1850 0016 9BB2     		uxth	r3, r3
 1851              		.loc 1 517 19 view .LVU653
 1852 0018 53FA80F0 		uxtab	r0, r3, r0
 1853              	.LVL286:
 1854              		.loc 1 517 19 view .LVU654
 1855 001c 80B2     		uxth	r0, r0
 1856              	.LVL287:
 1857              		.loc 1 517 19 view .LVU655
 1858 001e 7047     		bx	lr
 1859              	.LVL288:
 1860              	.L68:
 505:Core/Src/vl53l0x_api_core.c **** 	uint32_t ls_byte = 0;
 1861              		.loc 1 505 11 view .LVU656
 1862 0020 0020     		movs	r0, #0
 1863              	.LVL289:
 518:Core/Src/vl53l0x_api_core.c **** 				+ (uint16_t) (ls_byte & 0x000000FF);
 519:Core/Src/vl53l0x_api_core.c **** 	}
 520:Core/Src/vl53l0x_api_core.c **** 
 521:Core/Src/vl53l0x_api_core.c **** 	return encoded_timeout;
 1864              		.loc 1 521 2 is_stmt 1 view .LVU657
 522:Core/Src/vl53l0x_api_core.c **** 
 523:Core/Src/vl53l0x_api_core.c **** }
 1865              		.loc 1 523 1 is_stmt 0 view .LVU658
 1866 0022 7047     		bx	lr
 1867              		.cfi_endproc
 1868              	.LFE142:
 1870              		.section	.text.VL53L0X_decode_timeout,"ax",%progbits
ARM GAS  C:\Users\anmh1\AppData\Local\Temp\ccrmGbOb.s 			page 50


 1871              		.align	1
 1872              		.global	VL53L0X_decode_timeout
 1873              		.syntax unified
 1874              		.thumb
 1875              		.thumb_func
 1876              		.fpu fpv4-sp-d16
 1878              	VL53L0X_decode_timeout:
 1879              	.LVL290:
 1880              	.LFB143:
 524:Core/Src/vl53l0x_api_core.c **** 
 525:Core/Src/vl53l0x_api_core.c **** uint32_t VL53L0X_decode_timeout(uint16_t encoded_timeout)
 526:Core/Src/vl53l0x_api_core.c **** {
 1881              		.loc 1 526 1 is_stmt 1 view -0
 1882              		.cfi_startproc
 1883              		@ args = 0, pretend = 0, frame = 0
 1884              		@ frame_needed = 0, uses_anonymous_args = 0
 1885              		@ link register save eliminated.
 527:Core/Src/vl53l0x_api_core.c **** 	/*!
 528:Core/Src/vl53l0x_api_core.c **** 	 * Decode 16-bit timeout register value - format (LSByte * 2^MSByte) + 1
 529:Core/Src/vl53l0x_api_core.c **** 	 */
 530:Core/Src/vl53l0x_api_core.c **** 
 531:Core/Src/vl53l0x_api_core.c **** 	uint32_t timeout_macro_clks = 0;
 1886              		.loc 1 531 2 view .LVU660
 532:Core/Src/vl53l0x_api_core.c **** 
 533:Core/Src/vl53l0x_api_core.c **** 	timeout_macro_clks = ((uint32_t) (encoded_timeout & 0x00FF)
 1887              		.loc 1 533 2 view .LVU661
 1888              		.loc 1 533 24 is_stmt 0 view .LVU662
 1889 0000 C3B2     		uxtb	r3, r0
 534:Core/Src/vl53l0x_api_core.c **** 			<< (uint32_t) ((encoded_timeout & 0xFF00) >> 8)) + 1;
 1890              		.loc 1 534 46 view .LVU663
 1891 0002 000A     		lsrs	r0, r0, #8
 1892              	.LVL291:
 1893              		.loc 1 534 4 view .LVU664
 1894 0004 03FA00F0 		lsl	r0, r3, r0
 1895              	.LVL292:
 535:Core/Src/vl53l0x_api_core.c **** 
 536:Core/Src/vl53l0x_api_core.c **** 	return timeout_macro_clks;
 1896              		.loc 1 536 2 is_stmt 1 view .LVU665
 537:Core/Src/vl53l0x_api_core.c **** }
 1897              		.loc 1 537 1 is_stmt 0 view .LVU666
 1898 0008 0130     		adds	r0, r0, #1
 1899              	.LVL293:
 1900              		.loc 1 537 1 view .LVU667
 1901 000a 7047     		bx	lr
 1902              		.cfi_endproc
 1903              	.LFE143:
 1905              		.section	.text.VL53L0X_calc_timeout_mclks,"ax",%progbits
 1906              		.align	1
 1907              		.global	VL53L0X_calc_timeout_mclks
 1908              		.syntax unified
 1909              		.thumb
 1910              		.thumb_func
 1911              		.fpu fpv4-sp-d16
 1913              	VL53L0X_calc_timeout_mclks:
 1914              	.LVL294:
 1915              	.LFB144:
 538:Core/Src/vl53l0x_api_core.c **** 
ARM GAS  C:\Users\anmh1\AppData\Local\Temp\ccrmGbOb.s 			page 51


 539:Core/Src/vl53l0x_api_core.c **** 
 540:Core/Src/vl53l0x_api_core.c **** /* To convert ms into register value */
 541:Core/Src/vl53l0x_api_core.c **** uint32_t VL53L0X_calc_timeout_mclks(VL53L0X_DEV Dev,
 542:Core/Src/vl53l0x_api_core.c **** 		uint32_t timeout_period_us,
 543:Core/Src/vl53l0x_api_core.c **** 		uint8_t vcsel_period_pclks)
 544:Core/Src/vl53l0x_api_core.c **** {
 1916              		.loc 1 544 1 is_stmt 1 view -0
 1917              		.cfi_startproc
 1918              		@ args = 0, pretend = 0, frame = 0
 1919              		@ frame_needed = 0, uses_anonymous_args = 0
 1920              		.loc 1 544 1 is_stmt 0 view .LVU669
 1921 0000 10B5     		push	{r4, lr}
 1922              		.cfi_def_cfa_offset 8
 1923              		.cfi_offset 4, -8
 1924              		.cfi_offset 14, -4
 1925 0002 0C46     		mov	r4, r1
 545:Core/Src/vl53l0x_api_core.c **** 	uint32_t macro_period_ps;
 1926              		.loc 1 545 2 is_stmt 1 view .LVU670
 546:Core/Src/vl53l0x_api_core.c **** 	uint32_t macro_period_ns;
 1927              		.loc 1 546 2 view .LVU671
 547:Core/Src/vl53l0x_api_core.c **** 	uint32_t timeout_period_mclks = 0;
 1928              		.loc 1 547 2 view .LVU672
 1929              	.LVL295:
 548:Core/Src/vl53l0x_api_core.c **** 
 549:Core/Src/vl53l0x_api_core.c **** 	macro_period_ps = VL53L0X_calc_macro_period_ps(Dev, vcsel_period_pclks);
 1930              		.loc 1 549 2 view .LVU673
 1931              		.loc 1 549 20 is_stmt 0 view .LVU674
 1932 0004 1146     		mov	r1, r2
 1933              	.LVL296:
 1934              		.loc 1 549 20 view .LVU675
 1935 0006 FFF7FEFF 		bl	VL53L0X_calc_macro_period_ps
 1936              	.LVL297:
 550:Core/Src/vl53l0x_api_core.c **** 	macro_period_ns = (macro_period_ps + 500) / 1000;
 1937              		.loc 1 550 2 is_stmt 1 view .LVU676
 1938              		.loc 1 550 37 is_stmt 0 view .LVU677
 1939 000a 00F5FA73 		add	r3, r0, #500
 1940              		.loc 1 550 18 view .LVU678
 1941 000e 0648     		ldr	r0, .L73
 1942              	.LVL298:
 1943              		.loc 1 550 18 view .LVU679
 1944 0010 A0FB0323 		umull	r2, r3, r0, r3
 1945              	.LVL299:
 1946              		.loc 1 550 18 view .LVU680
 1947 0014 9809     		lsrs	r0, r3, #6
 1948              	.LVL300:
 551:Core/Src/vl53l0x_api_core.c **** 
 552:Core/Src/vl53l0x_api_core.c **** 	timeout_period_mclks =
 1949              		.loc 1 552 2 is_stmt 1 view .LVU681
 553:Core/Src/vl53l0x_api_core.c **** 		(uint32_t) (((timeout_period_us * 1000)
 554:Core/Src/vl53l0x_api_core.c **** 		+ (macro_period_ns / 2)) / macro_period_ns);
 1950              		.loc 1 554 22 is_stmt 0 view .LVU682
 1951 0016 DB09     		lsrs	r3, r3, #7
 1952              		.loc 1 554 3 view .LVU683
 1953 0018 4FF47A71 		mov	r1, #1000
 1954 001c 01FB0433 		mla	r3, r1, r4, r3
 1955              	.LVL301:
 555:Core/Src/vl53l0x_api_core.c **** 
ARM GAS  C:\Users\anmh1\AppData\Local\Temp\ccrmGbOb.s 			page 52


 556:Core/Src/vl53l0x_api_core.c ****     return timeout_period_mclks;
 1956              		.loc 1 556 5 is_stmt 1 view .LVU684
 557:Core/Src/vl53l0x_api_core.c **** }
 1957              		.loc 1 557 1 is_stmt 0 view .LVU685
 1958 0020 B3FBF0F0 		udiv	r0, r3, r0
 1959              	.LVL302:
 1960              		.loc 1 557 1 view .LVU686
 1961 0024 10BD     		pop	{r4, pc}
 1962              	.LVL303:
 1963              	.L74:
 1964              		.loc 1 557 1 view .LVU687
 1965 0026 00BF     		.align	2
 1966              	.L73:
 1967 0028 D34D6210 		.word	274877907
 1968              		.cfi_endproc
 1969              	.LFE144:
 1971              		.section	.text.VL53L0X_calc_timeout_us,"ax",%progbits
 1972              		.align	1
 1973              		.global	VL53L0X_calc_timeout_us
 1974              		.syntax unified
 1975              		.thumb
 1976              		.thumb_func
 1977              		.fpu fpv4-sp-d16
 1979              	VL53L0X_calc_timeout_us:
 1980              	.LVL304:
 1981              	.LFB145:
 558:Core/Src/vl53l0x_api_core.c **** 
 559:Core/Src/vl53l0x_api_core.c **** /* To convert register value into us */
 560:Core/Src/vl53l0x_api_core.c **** uint32_t VL53L0X_calc_timeout_us(VL53L0X_DEV Dev,
 561:Core/Src/vl53l0x_api_core.c **** 		uint16_t timeout_period_mclks,
 562:Core/Src/vl53l0x_api_core.c **** 		uint8_t vcsel_period_pclks)
 563:Core/Src/vl53l0x_api_core.c **** {
 1982              		.loc 1 563 1 is_stmt 1 view -0
 1983              		.cfi_startproc
 1984              		@ args = 0, pretend = 0, frame = 0
 1985              		@ frame_needed = 0, uses_anonymous_args = 0
 1986              		.loc 1 563 1 is_stmt 0 view .LVU689
 1987 0000 10B5     		push	{r4, lr}
 1988              		.cfi_def_cfa_offset 8
 1989              		.cfi_offset 4, -8
 1990              		.cfi_offset 14, -4
 1991 0002 0C46     		mov	r4, r1
 564:Core/Src/vl53l0x_api_core.c **** 	uint32_t macro_period_ps;
 1992              		.loc 1 564 2 is_stmt 1 view .LVU690
 565:Core/Src/vl53l0x_api_core.c **** 	uint32_t macro_period_ns;
 1993              		.loc 1 565 2 view .LVU691
 566:Core/Src/vl53l0x_api_core.c **** 	uint32_t actual_timeout_period_us = 0;
 1994              		.loc 1 566 2 view .LVU692
 1995              	.LVL305:
 567:Core/Src/vl53l0x_api_core.c **** 
 568:Core/Src/vl53l0x_api_core.c **** 	macro_period_ps = VL53L0X_calc_macro_period_ps(Dev, vcsel_period_pclks);
 1996              		.loc 1 568 2 view .LVU693
 1997              		.loc 1 568 20 is_stmt 0 view .LVU694
 1998 0004 1146     		mov	r1, r2
 1999              	.LVL306:
 2000              		.loc 1 568 20 view .LVU695
 2001 0006 FFF7FEFF 		bl	VL53L0X_calc_macro_period_ps
ARM GAS  C:\Users\anmh1\AppData\Local\Temp\ccrmGbOb.s 			page 53


 2002              	.LVL307:
 569:Core/Src/vl53l0x_api_core.c **** 	macro_period_ns = (macro_period_ps + 500) / 1000;
 2003              		.loc 1 569 2 is_stmt 1 view .LVU696
 2004              		.loc 1 569 37 is_stmt 0 view .LVU697
 2005 000a 00F5FA70 		add	r0, r0, #500
 2006              	.LVL308:
 2007              		.loc 1 569 18 view .LVU698
 2008 000e 064B     		ldr	r3, .L77
 2009 0010 A3FB0020 		umull	r2, r0, r3, r0
 2010              	.LVL309:
 2011              		.loc 1 569 18 view .LVU699
 2012 0014 8009     		lsrs	r0, r0, #6
 2013              	.LVL310:
 570:Core/Src/vl53l0x_api_core.c **** 
 571:Core/Src/vl53l0x_api_core.c **** 	actual_timeout_period_us =
 2014              		.loc 1 571 2 is_stmt 1 view .LVU700
 572:Core/Src/vl53l0x_api_core.c **** 		((timeout_period_mclks * macro_period_ns) + 500) / 1000;
 2015              		.loc 1 572 26 is_stmt 0 view .LVU701
 2016 0016 00FB04F0 		mul	r0, r0, r4
 2017              	.LVL311:
 2018              		.loc 1 572 45 view .LVU702
 2019 001a 00F5FA70 		add	r0, r0, #500
 571:Core/Src/vl53l0x_api_core.c **** 		((timeout_period_mclks * macro_period_ns) + 500) / 1000;
 2020              		.loc 1 571 27 view .LVU703
 2021 001e A3FB0030 		umull	r3, r0, r3, r0
 2022              	.LVL312:
 573:Core/Src/vl53l0x_api_core.c **** 
 574:Core/Src/vl53l0x_api_core.c **** 	return actual_timeout_period_us;
 2023              		.loc 1 574 2 is_stmt 1 view .LVU704
 575:Core/Src/vl53l0x_api_core.c **** }
 2024              		.loc 1 575 1 is_stmt 0 view .LVU705
 2025 0022 8009     		lsrs	r0, r0, #6
 2026              	.LVL313:
 2027              		.loc 1 575 1 view .LVU706
 2028 0024 10BD     		pop	{r4, pc}
 2029              	.L78:
 2030 0026 00BF     		.align	2
 2031              	.L77:
 2032 0028 D34D6210 		.word	274877907
 2033              		.cfi_endproc
 2034              	.LFE145:
 2036              		.section	.text.get_sequence_step_timeout,"ax",%progbits
 2037              		.align	1
 2038              		.global	get_sequence_step_timeout
 2039              		.syntax unified
 2040              		.thumb
 2041              		.thumb_func
 2042              		.fpu fpv4-sp-d16
 2044              	get_sequence_step_timeout:
 2045              	.LVL314:
 2046              	.LFB146:
 576:Core/Src/vl53l0x_api_core.c **** 
 577:Core/Src/vl53l0x_api_core.c **** 
 578:Core/Src/vl53l0x_api_core.c **** VL53L0X_Error get_sequence_step_timeout(VL53L0X_DEV Dev,
 579:Core/Src/vl53l0x_api_core.c **** 				VL53L0X_SequenceStepId SequenceStepId,
 580:Core/Src/vl53l0x_api_core.c **** 				uint32_t *pTimeOutMicroSecs)
 581:Core/Src/vl53l0x_api_core.c **** {
ARM GAS  C:\Users\anmh1\AppData\Local\Temp\ccrmGbOb.s 			page 54


 2047              		.loc 1 581 1 is_stmt 1 view -0
 2048              		.cfi_startproc
 2049              		@ args = 0, pretend = 0, frame = 16
 2050              		@ frame_needed = 0, uses_anonymous_args = 0
 2051              		.loc 1 581 1 is_stmt 0 view .LVU708
 2052 0000 F0B5     		push	{r4, r5, r6, r7, lr}
 2053              		.cfi_def_cfa_offset 20
 2054              		.cfi_offset 4, -20
 2055              		.cfi_offset 5, -16
 2056              		.cfi_offset 6, -12
 2057              		.cfi_offset 7, -8
 2058              		.cfi_offset 14, -4
 2059 0002 85B0     		sub	sp, sp, #20
 2060              		.cfi_def_cfa_offset 40
 2061 0004 0446     		mov	r4, r0
 2062 0006 1546     		mov	r5, r2
 582:Core/Src/vl53l0x_api_core.c **** 	VL53L0X_Error Status = VL53L0X_ERROR_NONE;
 2063              		.loc 1 582 2 is_stmt 1 view .LVU709
 2064              	.LVL315:
 583:Core/Src/vl53l0x_api_core.c **** 	uint8_t CurrentVCSELPulsePeriodPClk;
 2065              		.loc 1 583 2 view .LVU710
 584:Core/Src/vl53l0x_api_core.c **** 	uint8_t EncodedTimeOutByte = 0;
 2066              		.loc 1 584 2 view .LVU711
 2067              		.loc 1 584 10 is_stmt 0 view .LVU712
 2068 0008 0023     		movs	r3, #0
 2069 000a 8DF80E30 		strb	r3, [sp, #14]
 585:Core/Src/vl53l0x_api_core.c **** 	uint32_t TimeoutMicroSeconds = 0;
 2070              		.loc 1 585 2 is_stmt 1 view .LVU713
 2071              	.LVL316:
 586:Core/Src/vl53l0x_api_core.c **** 	uint16_t PreRangeEncodedTimeOut = 0;
 2072              		.loc 1 586 2 view .LVU714
 2073              		.loc 1 586 11 is_stmt 0 view .LVU715
 2074 000e ADF80C30 		strh	r3, [sp, #12]	@ movhi
 587:Core/Src/vl53l0x_api_core.c **** 	uint16_t MsrcTimeOutMClks;
 2075              		.loc 1 587 2 is_stmt 1 view .LVU716
 588:Core/Src/vl53l0x_api_core.c **** 	uint16_t PreRangeTimeOutMClks;
 2076              		.loc 1 588 2 view .LVU717
 589:Core/Src/vl53l0x_api_core.c **** 	uint16_t FinalRangeTimeOutMClks = 0;
 2077              		.loc 1 589 2 view .LVU718
 2078              	.LVL317:
 590:Core/Src/vl53l0x_api_core.c **** 	uint16_t FinalRangeEncodedTimeOut;
 2079              		.loc 1 590 2 view .LVU719
 591:Core/Src/vl53l0x_api_core.c **** 	VL53L0X_SchedulerSequenceSteps_t SchedulerSequenceSteps;
 2080              		.loc 1 591 2 view .LVU720
 592:Core/Src/vl53l0x_api_core.c **** 
 593:Core/Src/vl53l0x_api_core.c **** 	if ((SequenceStepId == VL53L0X_SEQUENCESTEP_TCC)	 ||
 2081              		.loc 1 593 2 view .LVU721
 2082              		.loc 1 593 5 is_stmt 0 view .LVU722
 2083 0012 0229     		cmp	r1, #2
 2084 0014 09D9     		bls	.L95
 594:Core/Src/vl53l0x_api_core.c **** 		(SequenceStepId == VL53L0X_SEQUENCESTEP_DSS)	 ||
 595:Core/Src/vl53l0x_api_core.c **** 		(SequenceStepId == VL53L0X_SEQUENCESTEP_MSRC)) {
 596:Core/Src/vl53l0x_api_core.c **** 
 597:Core/Src/vl53l0x_api_core.c **** 		Status = VL53L0X_GetVcselPulsePeriod(Dev,
 598:Core/Src/vl53l0x_api_core.c **** 					VL53L0X_VCSEL_PERIOD_PRE_RANGE,
 599:Core/Src/vl53l0x_api_core.c **** 					&CurrentVCSELPulsePeriodPClk);
 600:Core/Src/vl53l0x_api_core.c **** 		if (Status == VL53L0X_ERROR_NONE) {
ARM GAS  C:\Users\anmh1\AppData\Local\Temp\ccrmGbOb.s 			page 55


 601:Core/Src/vl53l0x_api_core.c **** 			Status = VL53L0X_RdByte(Dev,
 602:Core/Src/vl53l0x_api_core.c **** 					VL53L0X_REG_MSRC_CONFIG_TIMEOUT_MACROP,
 603:Core/Src/vl53l0x_api_core.c **** 					&EncodedTimeOutByte);
 604:Core/Src/vl53l0x_api_core.c **** 		}
 605:Core/Src/vl53l0x_api_core.c **** 		MsrcTimeOutMClks = VL53L0X_decode_timeout(EncodedTimeOutByte);
 606:Core/Src/vl53l0x_api_core.c **** 
 607:Core/Src/vl53l0x_api_core.c **** 		TimeoutMicroSeconds = VL53L0X_calc_timeout_us(Dev,
 608:Core/Src/vl53l0x_api_core.c **** 						MsrcTimeOutMClks,
 609:Core/Src/vl53l0x_api_core.c **** 						CurrentVCSELPulsePeriodPClk);
 610:Core/Src/vl53l0x_api_core.c **** 	} else if (SequenceStepId == VL53L0X_SEQUENCESTEP_PRE_RANGE) {
 2085              		.loc 1 610 9 is_stmt 1 view .LVU723
 2086              		.loc 1 610 12 is_stmt 0 view .LVU724
 2087 0016 0329     		cmp	r1, #3
 2088 0018 21D0     		beq	.L96
 611:Core/Src/vl53l0x_api_core.c **** 		/* Retrieve PRE-RANGE VCSEL Period */
 612:Core/Src/vl53l0x_api_core.c **** 		Status = VL53L0X_GetVcselPulsePeriod(Dev,
 613:Core/Src/vl53l0x_api_core.c **** 						VL53L0X_VCSEL_PERIOD_PRE_RANGE,
 614:Core/Src/vl53l0x_api_core.c **** 						&CurrentVCSELPulsePeriodPClk);
 615:Core/Src/vl53l0x_api_core.c **** 
 616:Core/Src/vl53l0x_api_core.c **** 		/* Retrieve PRE-RANGE Timeout in Macro periods (MCLKS) */
 617:Core/Src/vl53l0x_api_core.c **** 		if (Status == VL53L0X_ERROR_NONE) {
 618:Core/Src/vl53l0x_api_core.c **** 
 619:Core/Src/vl53l0x_api_core.c **** 			/* Retrieve PRE-RANGE VCSEL Period */
 620:Core/Src/vl53l0x_api_core.c **** 			Status = VL53L0X_GetVcselPulsePeriod(Dev,
 621:Core/Src/vl53l0x_api_core.c **** 					VL53L0X_VCSEL_PERIOD_PRE_RANGE,
 622:Core/Src/vl53l0x_api_core.c **** 					&CurrentVCSELPulsePeriodPClk);
 623:Core/Src/vl53l0x_api_core.c **** 
 624:Core/Src/vl53l0x_api_core.c **** 			if (Status == VL53L0X_ERROR_NONE) {
 625:Core/Src/vl53l0x_api_core.c **** 				Status = VL53L0X_RdWord(Dev,
 626:Core/Src/vl53l0x_api_core.c **** 				VL53L0X_REG_PRE_RANGE_CONFIG_TIMEOUT_MACROP_HI,
 627:Core/Src/vl53l0x_api_core.c **** 				&PreRangeEncodedTimeOut);
 628:Core/Src/vl53l0x_api_core.c **** 			}
 629:Core/Src/vl53l0x_api_core.c **** 
 630:Core/Src/vl53l0x_api_core.c **** 			PreRangeTimeOutMClks = VL53L0X_decode_timeout(
 631:Core/Src/vl53l0x_api_core.c **** 					PreRangeEncodedTimeOut);
 632:Core/Src/vl53l0x_api_core.c **** 
 633:Core/Src/vl53l0x_api_core.c **** 			TimeoutMicroSeconds = VL53L0X_calc_timeout_us(Dev,
 634:Core/Src/vl53l0x_api_core.c **** 					PreRangeTimeOutMClks,
 635:Core/Src/vl53l0x_api_core.c **** 					CurrentVCSELPulsePeriodPClk);
 636:Core/Src/vl53l0x_api_core.c **** 		}
 637:Core/Src/vl53l0x_api_core.c **** 	} else if (SequenceStepId == VL53L0X_SEQUENCESTEP_FINAL_RANGE) {
 2089              		.loc 1 637 9 is_stmt 1 view .LVU725
 2090              		.loc 1 637 12 is_stmt 0 view .LVU726
 2091 001a 0429     		cmp	r1, #4
 2092 001c 42D0     		beq	.L97
 585:Core/Src/vl53l0x_api_core.c **** 	uint16_t PreRangeEncodedTimeOut = 0;
 2093              		.loc 1 585 11 view .LVU727
 2094 001e 0020     		movs	r0, #0
 2095              	.LVL318:
 582:Core/Src/vl53l0x_api_core.c **** 	uint8_t CurrentVCSELPulsePeriodPClk;
 2096              		.loc 1 582 16 view .LVU728
 2097 0020 0646     		mov	r6, r0
 2098              	.LVL319:
 2099              	.L82:
 638:Core/Src/vl53l0x_api_core.c **** 
 639:Core/Src/vl53l0x_api_core.c **** 		VL53L0X_GetSequenceStepEnables(Dev, &SchedulerSequenceSteps);
 640:Core/Src/vl53l0x_api_core.c **** 		PreRangeTimeOutMClks = 0;
ARM GAS  C:\Users\anmh1\AppData\Local\Temp\ccrmGbOb.s 			page 56


 641:Core/Src/vl53l0x_api_core.c **** 
 642:Core/Src/vl53l0x_api_core.c **** 		if (SchedulerSequenceSteps.PreRangeOn) {
 643:Core/Src/vl53l0x_api_core.c **** 			/* Retrieve PRE-RANGE VCSEL Period */
 644:Core/Src/vl53l0x_api_core.c **** 			Status = VL53L0X_GetVcselPulsePeriod(Dev,
 645:Core/Src/vl53l0x_api_core.c **** 				VL53L0X_VCSEL_PERIOD_PRE_RANGE,
 646:Core/Src/vl53l0x_api_core.c **** 				&CurrentVCSELPulsePeriodPClk);
 647:Core/Src/vl53l0x_api_core.c **** 
 648:Core/Src/vl53l0x_api_core.c **** 			/* Retrieve PRE-RANGE Timeout in Macro periods
 649:Core/Src/vl53l0x_api_core.c **** 			 * (MCLKS) */
 650:Core/Src/vl53l0x_api_core.c **** 			if (Status == VL53L0X_ERROR_NONE) {
 651:Core/Src/vl53l0x_api_core.c **** 				Status = VL53L0X_RdWord(Dev,
 652:Core/Src/vl53l0x_api_core.c **** 				VL53L0X_REG_PRE_RANGE_CONFIG_TIMEOUT_MACROP_HI,
 653:Core/Src/vl53l0x_api_core.c **** 				&PreRangeEncodedTimeOut);
 654:Core/Src/vl53l0x_api_core.c **** 				PreRangeTimeOutMClks = VL53L0X_decode_timeout(
 655:Core/Src/vl53l0x_api_core.c **** 						PreRangeEncodedTimeOut);
 656:Core/Src/vl53l0x_api_core.c **** 			}
 657:Core/Src/vl53l0x_api_core.c **** 		}
 658:Core/Src/vl53l0x_api_core.c **** 
 659:Core/Src/vl53l0x_api_core.c **** 		if (Status == VL53L0X_ERROR_NONE) {
 660:Core/Src/vl53l0x_api_core.c **** 			/* Retrieve FINAL-RANGE VCSEL Period */
 661:Core/Src/vl53l0x_api_core.c **** 			Status = VL53L0X_GetVcselPulsePeriod(Dev,
 662:Core/Src/vl53l0x_api_core.c **** 					VL53L0X_VCSEL_PERIOD_FINAL_RANGE,
 663:Core/Src/vl53l0x_api_core.c **** 					&CurrentVCSELPulsePeriodPClk);
 664:Core/Src/vl53l0x_api_core.c **** 		}
 665:Core/Src/vl53l0x_api_core.c **** 
 666:Core/Src/vl53l0x_api_core.c **** 		/* Retrieve FINAL-RANGE Timeout in Macro periods (MCLKS) */
 667:Core/Src/vl53l0x_api_core.c **** 		if (Status == VL53L0X_ERROR_NONE) {
 668:Core/Src/vl53l0x_api_core.c **** 			Status = VL53L0X_RdWord(Dev,
 669:Core/Src/vl53l0x_api_core.c **** 				VL53L0X_REG_FINAL_RANGE_CONFIG_TIMEOUT_MACROP_HI,
 670:Core/Src/vl53l0x_api_core.c **** 				&FinalRangeEncodedTimeOut);
 671:Core/Src/vl53l0x_api_core.c **** 			FinalRangeTimeOutMClks = VL53L0X_decode_timeout(
 672:Core/Src/vl53l0x_api_core.c **** 					FinalRangeEncodedTimeOut);
 673:Core/Src/vl53l0x_api_core.c **** 		}
 674:Core/Src/vl53l0x_api_core.c **** 
 675:Core/Src/vl53l0x_api_core.c **** 		FinalRangeTimeOutMClks -= PreRangeTimeOutMClks;
 676:Core/Src/vl53l0x_api_core.c **** 		TimeoutMicroSeconds = VL53L0X_calc_timeout_us(Dev,
 677:Core/Src/vl53l0x_api_core.c **** 						FinalRangeTimeOutMClks,
 678:Core/Src/vl53l0x_api_core.c **** 						CurrentVCSELPulsePeriodPClk);
 679:Core/Src/vl53l0x_api_core.c **** 	}
 680:Core/Src/vl53l0x_api_core.c **** 
 681:Core/Src/vl53l0x_api_core.c **** 	*pTimeOutMicroSecs = TimeoutMicroSeconds;
 2100              		.loc 1 681 2 is_stmt 1 view .LVU729
 2101              		.loc 1 681 21 is_stmt 0 view .LVU730
 2102 0022 2860     		str	r0, [r5]
 682:Core/Src/vl53l0x_api_core.c **** 
 683:Core/Src/vl53l0x_api_core.c **** 	return Status;
 2103              		.loc 1 683 2 is_stmt 1 view .LVU731
 684:Core/Src/vl53l0x_api_core.c **** }
 2104              		.loc 1 684 1 is_stmt 0 view .LVU732
 2105 0024 3046     		mov	r0, r6
 2106              	.LVL320:
 2107              		.loc 1 684 1 view .LVU733
 2108 0026 05B0     		add	sp, sp, #20
 2109              		.cfi_remember_state
 2110              		.cfi_def_cfa_offset 20
 2111              		@ sp needed
 2112 0028 F0BD     		pop	{r4, r5, r6, r7, pc}
ARM GAS  C:\Users\anmh1\AppData\Local\Temp\ccrmGbOb.s 			page 57


 2113              	.LVL321:
 2114              	.L95:
 2115              		.cfi_restore_state
 597:Core/Src/vl53l0x_api_core.c **** 					VL53L0X_VCSEL_PERIOD_PRE_RANGE,
 2116              		.loc 1 597 3 is_stmt 1 view .LVU734
 597:Core/Src/vl53l0x_api_core.c **** 					VL53L0X_VCSEL_PERIOD_PRE_RANGE,
 2117              		.loc 1 597 12 is_stmt 0 view .LVU735
 2118 002a 0DF10F02 		add	r2, sp, #15
 2119              	.LVL322:
 597:Core/Src/vl53l0x_api_core.c **** 					VL53L0X_VCSEL_PERIOD_PRE_RANGE,
 2120              		.loc 1 597 12 view .LVU736
 2121 002e 1946     		mov	r1, r3
 2122              	.LVL323:
 597:Core/Src/vl53l0x_api_core.c **** 					VL53L0X_VCSEL_PERIOD_PRE_RANGE,
 2123              		.loc 1 597 12 view .LVU737
 2124 0030 FFF7FEFF 		bl	VL53L0X_GetVcselPulsePeriod
 2125              	.LVL324:
 600:Core/Src/vl53l0x_api_core.c **** 			Status = VL53L0X_RdByte(Dev,
 2126              		.loc 1 600 3 is_stmt 1 view .LVU738
 600:Core/Src/vl53l0x_api_core.c **** 			Status = VL53L0X_RdByte(Dev,
 2127              		.loc 1 600 6 is_stmt 0 view .LVU739
 2128 0034 0646     		mov	r6, r0
 2129 0036 50B1     		cbz	r0, .L98
 2130              	.LVL325:
 2131              	.L81:
 605:Core/Src/vl53l0x_api_core.c **** 
 2132              		.loc 1 605 3 is_stmt 1 view .LVU740
 605:Core/Src/vl53l0x_api_core.c **** 
 2133              		.loc 1 605 22 is_stmt 0 view .LVU741
 2134 0038 9DF80E00 		ldrb	r0, [sp, #14]	@ zero_extendqisi2
 2135 003c FFF7FEFF 		bl	VL53L0X_decode_timeout
 2136              	.LVL326:
 607:Core/Src/vl53l0x_api_core.c **** 						MsrcTimeOutMClks,
 2137              		.loc 1 607 3 is_stmt 1 view .LVU742
 607:Core/Src/vl53l0x_api_core.c **** 						MsrcTimeOutMClks,
 2138              		.loc 1 607 25 is_stmt 0 view .LVU743
 2139 0040 9DF80F20 		ldrb	r2, [sp, #15]	@ zero_extendqisi2
 2140 0044 81B2     		uxth	r1, r0
 2141 0046 2046     		mov	r0, r4
 2142              	.LVL327:
 607:Core/Src/vl53l0x_api_core.c **** 						MsrcTimeOutMClks,
 2143              		.loc 1 607 25 view .LVU744
 2144 0048 FFF7FEFF 		bl	VL53L0X_calc_timeout_us
 2145              	.LVL328:
 607:Core/Src/vl53l0x_api_core.c **** 						MsrcTimeOutMClks,
 2146              		.loc 1 607 25 view .LVU745
 2147 004c E9E7     		b	.L82
 2148              	.LVL329:
 2149              	.L98:
 601:Core/Src/vl53l0x_api_core.c **** 					VL53L0X_REG_MSRC_CONFIG_TIMEOUT_MACROP,
 2150              		.loc 1 601 4 is_stmt 1 view .LVU746
 601:Core/Src/vl53l0x_api_core.c **** 					VL53L0X_REG_MSRC_CONFIG_TIMEOUT_MACROP,
 2151              		.loc 1 601 13 is_stmt 0 view .LVU747
 2152 004e 0DF10E02 		add	r2, sp, #14
 2153 0052 4621     		movs	r1, #70
 2154 0054 2046     		mov	r0, r4
 2155              	.LVL330:
ARM GAS  C:\Users\anmh1\AppData\Local\Temp\ccrmGbOb.s 			page 58


 601:Core/Src/vl53l0x_api_core.c **** 					VL53L0X_REG_MSRC_CONFIG_TIMEOUT_MACROP,
 2156              		.loc 1 601 13 view .LVU748
 2157 0056 FFF7FEFF 		bl	VL53L0X_RdByte
 2158              	.LVL331:
 2159 005a 0646     		mov	r6, r0
 2160              	.LVL332:
 601:Core/Src/vl53l0x_api_core.c **** 					VL53L0X_REG_MSRC_CONFIG_TIMEOUT_MACROP,
 2161              		.loc 1 601 13 view .LVU749
 2162 005c ECE7     		b	.L81
 2163              	.LVL333:
 2164              	.L96:
 612:Core/Src/vl53l0x_api_core.c **** 						VL53L0X_VCSEL_PERIOD_PRE_RANGE,
 2165              		.loc 1 612 3 is_stmt 1 view .LVU750
 612:Core/Src/vl53l0x_api_core.c **** 						VL53L0X_VCSEL_PERIOD_PRE_RANGE,
 2166              		.loc 1 612 12 is_stmt 0 view .LVU751
 2167 005e 0DF10F02 		add	r2, sp, #15
 2168              	.LVL334:
 612:Core/Src/vl53l0x_api_core.c **** 						VL53L0X_VCSEL_PERIOD_PRE_RANGE,
 2169              		.loc 1 612 12 view .LVU752
 2170 0062 0021     		movs	r1, #0
 2171              	.LVL335:
 612:Core/Src/vl53l0x_api_core.c **** 						VL53L0X_VCSEL_PERIOD_PRE_RANGE,
 2172              		.loc 1 612 12 view .LVU753
 2173 0064 FFF7FEFF 		bl	VL53L0X_GetVcselPulsePeriod
 2174              	.LVL336:
 617:Core/Src/vl53l0x_api_core.c **** 
 2175              		.loc 1 617 3 is_stmt 1 view .LVU754
 617:Core/Src/vl53l0x_api_core.c **** 
 2176              		.loc 1 617 6 is_stmt 0 view .LVU755
 2177 0068 0646     		mov	r6, r0
 2178 006a 08B1     		cbz	r0, .L99
 585:Core/Src/vl53l0x_api_core.c **** 	uint16_t PreRangeEncodedTimeOut = 0;
 2179              		.loc 1 585 11 view .LVU756
 2180 006c 0020     		movs	r0, #0
 2181              	.LVL337:
 585:Core/Src/vl53l0x_api_core.c **** 	uint16_t PreRangeEncodedTimeOut = 0;
 2182              		.loc 1 585 11 view .LVU757
 2183 006e D8E7     		b	.L82
 2184              	.LVL338:
 2185              	.L99:
 620:Core/Src/vl53l0x_api_core.c **** 					VL53L0X_VCSEL_PERIOD_PRE_RANGE,
 2186              		.loc 1 620 4 is_stmt 1 view .LVU758
 620:Core/Src/vl53l0x_api_core.c **** 					VL53L0X_VCSEL_PERIOD_PRE_RANGE,
 2187              		.loc 1 620 13 is_stmt 0 view .LVU759
 2188 0070 0DF10F02 		add	r2, sp, #15
 2189 0074 0021     		movs	r1, #0
 2190 0076 2046     		mov	r0, r4
 2191              	.LVL339:
 620:Core/Src/vl53l0x_api_core.c **** 					VL53L0X_VCSEL_PERIOD_PRE_RANGE,
 2192              		.loc 1 620 13 view .LVU760
 2193 0078 FFF7FEFF 		bl	VL53L0X_GetVcselPulsePeriod
 2194              	.LVL340:
 624:Core/Src/vl53l0x_api_core.c **** 				Status = VL53L0X_RdWord(Dev,
 2195              		.loc 1 624 4 is_stmt 1 view .LVU761
 624:Core/Src/vl53l0x_api_core.c **** 				Status = VL53L0X_RdWord(Dev,
 2196              		.loc 1 624 7 is_stmt 0 view .LVU762
 2197 007c 0646     		mov	r6, r0
ARM GAS  C:\Users\anmh1\AppData\Local\Temp\ccrmGbOb.s 			page 59


 2198 007e 50B1     		cbz	r0, .L100
 2199              	.LVL341:
 2200              	.L84:
 630:Core/Src/vl53l0x_api_core.c **** 					PreRangeEncodedTimeOut);
 2201              		.loc 1 630 4 is_stmt 1 view .LVU763
 630:Core/Src/vl53l0x_api_core.c **** 					PreRangeEncodedTimeOut);
 2202              		.loc 1 630 27 is_stmt 0 view .LVU764
 2203 0080 BDF80C00 		ldrh	r0, [sp, #12]
 2204 0084 FFF7FEFF 		bl	VL53L0X_decode_timeout
 2205              	.LVL342:
 633:Core/Src/vl53l0x_api_core.c **** 					PreRangeTimeOutMClks,
 2206              		.loc 1 633 4 is_stmt 1 view .LVU765
 633:Core/Src/vl53l0x_api_core.c **** 					PreRangeTimeOutMClks,
 2207              		.loc 1 633 26 is_stmt 0 view .LVU766
 2208 0088 9DF80F20 		ldrb	r2, [sp, #15]	@ zero_extendqisi2
 2209 008c 81B2     		uxth	r1, r0
 2210 008e 2046     		mov	r0, r4
 2211              	.LVL343:
 633:Core/Src/vl53l0x_api_core.c **** 					PreRangeTimeOutMClks,
 2212              		.loc 1 633 26 view .LVU767
 2213 0090 FFF7FEFF 		bl	VL53L0X_calc_timeout_us
 2214              	.LVL344:
 633:Core/Src/vl53l0x_api_core.c **** 					PreRangeTimeOutMClks,
 2215              		.loc 1 633 26 view .LVU768
 2216 0094 C5E7     		b	.L82
 2217              	.LVL345:
 2218              	.L100:
 625:Core/Src/vl53l0x_api_core.c **** 				VL53L0X_REG_PRE_RANGE_CONFIG_TIMEOUT_MACROP_HI,
 2219              		.loc 1 625 5 is_stmt 1 view .LVU769
 625:Core/Src/vl53l0x_api_core.c **** 				VL53L0X_REG_PRE_RANGE_CONFIG_TIMEOUT_MACROP_HI,
 2220              		.loc 1 625 14 is_stmt 0 view .LVU770
 2221 0096 03AA     		add	r2, sp, #12
 2222 0098 5121     		movs	r1, #81
 2223 009a 2046     		mov	r0, r4
 2224              	.LVL346:
 625:Core/Src/vl53l0x_api_core.c **** 				VL53L0X_REG_PRE_RANGE_CONFIG_TIMEOUT_MACROP_HI,
 2225              		.loc 1 625 14 view .LVU771
 2226 009c FFF7FEFF 		bl	VL53L0X_RdWord
 2227              	.LVL347:
 2228 00a0 0646     		mov	r6, r0
 2229              	.LVL348:
 625:Core/Src/vl53l0x_api_core.c **** 				VL53L0X_REG_PRE_RANGE_CONFIG_TIMEOUT_MACROP_HI,
 2230              		.loc 1 625 14 view .LVU772
 2231 00a2 EDE7     		b	.L84
 2232              	.LVL349:
 2233              	.L97:
 639:Core/Src/vl53l0x_api_core.c **** 		PreRangeTimeOutMClks = 0;
 2234              		.loc 1 639 3 is_stmt 1 view .LVU773
 2235 00a4 01A9     		add	r1, sp, #4
 2236              	.LVL350:
 639:Core/Src/vl53l0x_api_core.c **** 		PreRangeTimeOutMClks = 0;
 2237              		.loc 1 639 3 is_stmt 0 view .LVU774
 2238 00a6 FFF7FEFF 		bl	VL53L0X_GetSequenceStepEnables
 2239              	.LVL351:
 640:Core/Src/vl53l0x_api_core.c **** 
 2240              		.loc 1 640 3 is_stmt 1 view .LVU775
 642:Core/Src/vl53l0x_api_core.c **** 			/* Retrieve PRE-RANGE VCSEL Period */
ARM GAS  C:\Users\anmh1\AppData\Local\Temp\ccrmGbOb.s 			page 60


 2241              		.loc 1 642 3 view .LVU776
 642:Core/Src/vl53l0x_api_core.c **** 			/* Retrieve PRE-RANGE VCSEL Period */
 2242              		.loc 1 642 29 is_stmt 0 view .LVU777
 2243 00aa 9DF80730 		ldrb	r3, [sp, #7]	@ zero_extendqisi2
 642:Core/Src/vl53l0x_api_core.c **** 			/* Retrieve PRE-RANGE VCSEL Period */
 2244              		.loc 1 642 6 view .LVU778
 2245 00ae B3B1     		cbz	r3, .L91
 644:Core/Src/vl53l0x_api_core.c **** 				VL53L0X_VCSEL_PERIOD_PRE_RANGE,
 2246              		.loc 1 644 4 is_stmt 1 view .LVU779
 644:Core/Src/vl53l0x_api_core.c **** 				VL53L0X_VCSEL_PERIOD_PRE_RANGE,
 2247              		.loc 1 644 13 is_stmt 0 view .LVU780
 2248 00b0 0DF10F02 		add	r2, sp, #15
 2249 00b4 0021     		movs	r1, #0
 2250 00b6 2046     		mov	r0, r4
 2251 00b8 FFF7FEFF 		bl	VL53L0X_GetVcselPulsePeriod
 2252              	.LVL352:
 650:Core/Src/vl53l0x_api_core.c **** 				Status = VL53L0X_RdWord(Dev,
 2253              		.loc 1 650 4 is_stmt 1 view .LVU781
 650:Core/Src/vl53l0x_api_core.c **** 				Status = VL53L0X_RdWord(Dev,
 2254              		.loc 1 650 7 is_stmt 0 view .LVU782
 2255 00bc 0646     		mov	r6, r0
 2256 00be 10B1     		cbz	r0, .L101
 640:Core/Src/vl53l0x_api_core.c **** 
 2257              		.loc 1 640 24 view .LVU783
 2258 00c0 0027     		movs	r7, #0
 2259              	.LVL353:
 2260              	.L86:
 659:Core/Src/vl53l0x_api_core.c **** 			/* Retrieve FINAL-RANGE VCSEL Period */
 2261              		.loc 1 659 3 is_stmt 1 view .LVU784
 659:Core/Src/vl53l0x_api_core.c **** 			/* Retrieve FINAL-RANGE VCSEL Period */
 2262              		.loc 1 659 6 is_stmt 0 view .LVU785
 2263 00c2 A6B9     		cbnz	r6, .L87
 2264 00c4 0CE0     		b	.L85
 2265              	.LVL354:
 2266              	.L101:
 651:Core/Src/vl53l0x_api_core.c **** 				VL53L0X_REG_PRE_RANGE_CONFIG_TIMEOUT_MACROP_HI,
 2267              		.loc 1 651 5 is_stmt 1 view .LVU786
 651:Core/Src/vl53l0x_api_core.c **** 				VL53L0X_REG_PRE_RANGE_CONFIG_TIMEOUT_MACROP_HI,
 2268              		.loc 1 651 14 is_stmt 0 view .LVU787
 2269 00c6 03AA     		add	r2, sp, #12
 2270 00c8 5121     		movs	r1, #81
 2271 00ca 2046     		mov	r0, r4
 2272              	.LVL355:
 651:Core/Src/vl53l0x_api_core.c **** 				VL53L0X_REG_PRE_RANGE_CONFIG_TIMEOUT_MACROP_HI,
 2273              		.loc 1 651 14 view .LVU788
 2274 00cc FFF7FEFF 		bl	VL53L0X_RdWord
 2275              	.LVL356:
 2276 00d0 0646     		mov	r6, r0
 2277              	.LVL357:
 654:Core/Src/vl53l0x_api_core.c **** 						PreRangeEncodedTimeOut);
 2278              		.loc 1 654 5 is_stmt 1 view .LVU789
 654:Core/Src/vl53l0x_api_core.c **** 						PreRangeEncodedTimeOut);
 2279              		.loc 1 654 28 is_stmt 0 view .LVU790
 2280 00d2 BDF80C00 		ldrh	r0, [sp, #12]
 2281 00d6 FFF7FEFF 		bl	VL53L0X_decode_timeout
 2282              	.LVL358:
 654:Core/Src/vl53l0x_api_core.c **** 						PreRangeEncodedTimeOut);
ARM GAS  C:\Users\anmh1\AppData\Local\Temp\ccrmGbOb.s 			page 61


 2283              		.loc 1 654 26 view .LVU791
 2284 00da 87B2     		uxth	r7, r0
 2285              	.LVL359:
 654:Core/Src/vl53l0x_api_core.c **** 						PreRangeEncodedTimeOut);
 2286              		.loc 1 654 26 view .LVU792
 2287 00dc F1E7     		b	.L86
 2288              	.LVL360:
 2289              	.L91:
 640:Core/Src/vl53l0x_api_core.c **** 
 2290              		.loc 1 640 24 view .LVU793
 2291 00de 0027     		movs	r7, #0
 2292              	.LVL361:
 2293              	.L85:
 661:Core/Src/vl53l0x_api_core.c **** 					VL53L0X_VCSEL_PERIOD_FINAL_RANGE,
 2294              		.loc 1 661 4 is_stmt 1 view .LVU794
 661:Core/Src/vl53l0x_api_core.c **** 					VL53L0X_VCSEL_PERIOD_FINAL_RANGE,
 2295              		.loc 1 661 13 is_stmt 0 view .LVU795
 2296 00e0 0DF10F02 		add	r2, sp, #15
 2297 00e4 0121     		movs	r1, #1
 2298 00e6 2046     		mov	r0, r4
 2299 00e8 FFF7FEFF 		bl	VL53L0X_GetVcselPulsePeriod
 2300              	.LVL362:
 2301 00ec 0646     		mov	r6, r0
 2302              	.LVL363:
 2303              	.L87:
 667:Core/Src/vl53l0x_api_core.c **** 			Status = VL53L0X_RdWord(Dev,
 2304              		.loc 1 667 3 is_stmt 1 view .LVU796
 667:Core/Src/vl53l0x_api_core.c **** 			Status = VL53L0X_RdWord(Dev,
 2305              		.loc 1 667 6 is_stmt 0 view .LVU797
 2306 00ee 46B1     		cbz	r6, .L102
 589:Core/Src/vl53l0x_api_core.c **** 	uint16_t FinalRangeEncodedTimeOut;
 2307              		.loc 1 589 11 view .LVU798
 2308 00f0 0021     		movs	r1, #0
 2309              	.LVL364:
 2310              	.L88:
 675:Core/Src/vl53l0x_api_core.c **** 		TimeoutMicroSeconds = VL53L0X_calc_timeout_us(Dev,
 2311              		.loc 1 675 3 is_stmt 1 view .LVU799
 675:Core/Src/vl53l0x_api_core.c **** 		TimeoutMicroSeconds = VL53L0X_calc_timeout_us(Dev,
 2312              		.loc 1 675 26 is_stmt 0 view .LVU800
 2313 00f2 C91B     		subs	r1, r1, r7
 2314              	.LVL365:
 676:Core/Src/vl53l0x_api_core.c **** 						FinalRangeTimeOutMClks,
 2315              		.loc 1 676 3 is_stmt 1 view .LVU801
 676:Core/Src/vl53l0x_api_core.c **** 						FinalRangeTimeOutMClks,
 2316              		.loc 1 676 25 is_stmt 0 view .LVU802
 2317 00f4 9DF80F20 		ldrb	r2, [sp, #15]	@ zero_extendqisi2
 2318 00f8 89B2     		uxth	r1, r1
 676:Core/Src/vl53l0x_api_core.c **** 						FinalRangeTimeOutMClks,
 2319              		.loc 1 676 25 view .LVU803
 2320 00fa 2046     		mov	r0, r4
 2321 00fc FFF7FEFF 		bl	VL53L0X_calc_timeout_us
 2322              	.LVL366:
 676:Core/Src/vl53l0x_api_core.c **** 						FinalRangeTimeOutMClks,
 2323              		.loc 1 676 25 view .LVU804
 2324 0100 8FE7     		b	.L82
 2325              	.LVL367:
 2326              	.L102:
ARM GAS  C:\Users\anmh1\AppData\Local\Temp\ccrmGbOb.s 			page 62


 668:Core/Src/vl53l0x_api_core.c **** 				VL53L0X_REG_FINAL_RANGE_CONFIG_TIMEOUT_MACROP_HI,
 2327              		.loc 1 668 4 is_stmt 1 view .LVU805
 668:Core/Src/vl53l0x_api_core.c **** 				VL53L0X_REG_FINAL_RANGE_CONFIG_TIMEOUT_MACROP_HI,
 2328              		.loc 1 668 13 is_stmt 0 view .LVU806
 2329 0102 0DF10A02 		add	r2, sp, #10
 2330 0106 7121     		movs	r1, #113
 2331 0108 2046     		mov	r0, r4
 2332 010a FFF7FEFF 		bl	VL53L0X_RdWord
 2333              	.LVL368:
 2334 010e 0646     		mov	r6, r0
 2335              	.LVL369:
 671:Core/Src/vl53l0x_api_core.c **** 					FinalRangeEncodedTimeOut);
 2336              		.loc 1 671 4 is_stmt 1 view .LVU807
 671:Core/Src/vl53l0x_api_core.c **** 					FinalRangeEncodedTimeOut);
 2337              		.loc 1 671 29 is_stmt 0 view .LVU808
 2338 0110 BDF80A00 		ldrh	r0, [sp, #10]
 2339 0114 FFF7FEFF 		bl	VL53L0X_decode_timeout
 2340              	.LVL370:
 671:Core/Src/vl53l0x_api_core.c **** 					FinalRangeEncodedTimeOut);
 2341              		.loc 1 671 27 view .LVU809
 2342 0118 81B2     		uxth	r1, r0
 2343              	.LVL371:
 671:Core/Src/vl53l0x_api_core.c **** 					FinalRangeEncodedTimeOut);
 2344              		.loc 1 671 27 view .LVU810
 2345 011a EAE7     		b	.L88
 2346              		.cfi_endproc
 2347              	.LFE146:
 2349              		.section	.text.set_sequence_step_timeout,"ax",%progbits
 2350              		.align	1
 2351              		.global	set_sequence_step_timeout
 2352              		.syntax unified
 2353              		.thumb
 2354              		.thumb_func
 2355              		.fpu fpv4-sp-d16
 2357              	set_sequence_step_timeout:
 2358              	.LVL372:
 2359              	.LFB147:
 685:Core/Src/vl53l0x_api_core.c **** 
 686:Core/Src/vl53l0x_api_core.c **** 
 687:Core/Src/vl53l0x_api_core.c **** VL53L0X_Error set_sequence_step_timeout(VL53L0X_DEV Dev,
 688:Core/Src/vl53l0x_api_core.c **** 					VL53L0X_SequenceStepId SequenceStepId,
 689:Core/Src/vl53l0x_api_core.c **** 					uint32_t TimeOutMicroSecs)
 690:Core/Src/vl53l0x_api_core.c **** {
 2360              		.loc 1 690 1 is_stmt 1 view -0
 2361              		.cfi_startproc
 2362              		@ args = 0, pretend = 0, frame = 16
 2363              		@ frame_needed = 0, uses_anonymous_args = 0
 2364              		.loc 1 690 1 is_stmt 0 view .LVU812
 2365 0000 F0B5     		push	{r4, r5, r6, r7, lr}
 2366              		.cfi_def_cfa_offset 20
 2367              		.cfi_offset 4, -20
 2368              		.cfi_offset 5, -16
 2369              		.cfi_offset 6, -12
 2370              		.cfi_offset 7, -8
 2371              		.cfi_offset 14, -4
 2372 0002 85B0     		sub	sp, sp, #20
 2373              		.cfi_def_cfa_offset 40
ARM GAS  C:\Users\anmh1\AppData\Local\Temp\ccrmGbOb.s 			page 63


 2374 0004 0446     		mov	r4, r0
 2375 0006 1746     		mov	r7, r2
 691:Core/Src/vl53l0x_api_core.c **** 	VL53L0X_Error Status = VL53L0X_ERROR_NONE;
 2376              		.loc 1 691 2 is_stmt 1 view .LVU813
 2377              	.LVL373:
 692:Core/Src/vl53l0x_api_core.c **** 	uint8_t CurrentVCSELPulsePeriodPClk;
 2378              		.loc 1 692 2 view .LVU814
 693:Core/Src/vl53l0x_api_core.c **** 	uint8_t MsrcEncodedTimeOut;
 2379              		.loc 1 693 2 view .LVU815
 694:Core/Src/vl53l0x_api_core.c **** 	uint16_t PreRangeEncodedTimeOut;
 2380              		.loc 1 694 2 view .LVU816
 695:Core/Src/vl53l0x_api_core.c **** 	uint16_t PreRangeTimeOutMClks;
 2381              		.loc 1 695 2 view .LVU817
 696:Core/Src/vl53l0x_api_core.c **** 	uint16_t MsrcRangeTimeOutMClks;
 2382              		.loc 1 696 2 view .LVU818
 697:Core/Src/vl53l0x_api_core.c **** 	uint32_t FinalRangeTimeOutMClks;
 2383              		.loc 1 697 2 view .LVU819
 698:Core/Src/vl53l0x_api_core.c **** 	uint16_t FinalRangeEncodedTimeOut;
 2384              		.loc 1 698 2 view .LVU820
 699:Core/Src/vl53l0x_api_core.c **** 	VL53L0X_SchedulerSequenceSteps_t SchedulerSequenceSteps;
 2385              		.loc 1 699 2 view .LVU821
 700:Core/Src/vl53l0x_api_core.c **** 
 701:Core/Src/vl53l0x_api_core.c **** 	if ((SequenceStepId == VL53L0X_SEQUENCESTEP_TCC)	 ||
 2386              		.loc 1 701 2 view .LVU822
 2387              		.loc 1 701 5 is_stmt 0 view .LVU823
 2388 0008 0229     		cmp	r1, #2
 2389 000a 17D9     		bls	.L118
 702:Core/Src/vl53l0x_api_core.c **** 		(SequenceStepId == VL53L0X_SEQUENCESTEP_DSS)	 ||
 703:Core/Src/vl53l0x_api_core.c **** 		(SequenceStepId == VL53L0X_SEQUENCESTEP_MSRC)) {
 704:Core/Src/vl53l0x_api_core.c **** 
 705:Core/Src/vl53l0x_api_core.c **** 		Status = VL53L0X_GetVcselPulsePeriod(Dev,
 706:Core/Src/vl53l0x_api_core.c **** 					VL53L0X_VCSEL_PERIOD_PRE_RANGE,
 707:Core/Src/vl53l0x_api_core.c **** 					&CurrentVCSELPulsePeriodPClk);
 708:Core/Src/vl53l0x_api_core.c **** 
 709:Core/Src/vl53l0x_api_core.c **** 		if (Status == VL53L0X_ERROR_NONE) {
 710:Core/Src/vl53l0x_api_core.c **** 			MsrcRangeTimeOutMClks = VL53L0X_calc_timeout_mclks(Dev,
 711:Core/Src/vl53l0x_api_core.c **** 					TimeOutMicroSecs,
 712:Core/Src/vl53l0x_api_core.c **** 					(uint8_t)CurrentVCSELPulsePeriodPClk);
 713:Core/Src/vl53l0x_api_core.c **** 
 714:Core/Src/vl53l0x_api_core.c **** 			if (MsrcRangeTimeOutMClks > 256)
 715:Core/Src/vl53l0x_api_core.c **** 				MsrcEncodedTimeOut = 255;
 716:Core/Src/vl53l0x_api_core.c **** 			else
 717:Core/Src/vl53l0x_api_core.c **** 				MsrcEncodedTimeOut =
 718:Core/Src/vl53l0x_api_core.c **** 					(uint8_t)MsrcRangeTimeOutMClks - 1;
 719:Core/Src/vl53l0x_api_core.c **** 
 720:Core/Src/vl53l0x_api_core.c **** 			VL53L0X_SETDEVICESPECIFICPARAMETER(Dev,
 721:Core/Src/vl53l0x_api_core.c **** 				LastEncodedTimeout,
 722:Core/Src/vl53l0x_api_core.c **** 				MsrcEncodedTimeOut);
 723:Core/Src/vl53l0x_api_core.c **** 		}
 724:Core/Src/vl53l0x_api_core.c **** 
 725:Core/Src/vl53l0x_api_core.c **** 		if (Status == VL53L0X_ERROR_NONE) {
 726:Core/Src/vl53l0x_api_core.c **** 			Status = VL53L0X_WrByte(Dev,
 727:Core/Src/vl53l0x_api_core.c **** 				VL53L0X_REG_MSRC_CONFIG_TIMEOUT_MACROP,
 728:Core/Src/vl53l0x_api_core.c **** 				MsrcEncodedTimeOut);
 729:Core/Src/vl53l0x_api_core.c **** 		}
 730:Core/Src/vl53l0x_api_core.c **** 	} else {
 731:Core/Src/vl53l0x_api_core.c **** 
ARM GAS  C:\Users\anmh1\AppData\Local\Temp\ccrmGbOb.s 			page 64


 732:Core/Src/vl53l0x_api_core.c **** 		if (SequenceStepId == VL53L0X_SEQUENCESTEP_PRE_RANGE) {
 2390              		.loc 1 732 3 is_stmt 1 view .LVU824
 2391              		.loc 1 732 6 is_stmt 0 view .LVU825
 2392 000c 0329     		cmp	r1, #3
 2393 000e 36D0     		beq	.L119
 733:Core/Src/vl53l0x_api_core.c **** 
 734:Core/Src/vl53l0x_api_core.c **** 			if (Status == VL53L0X_ERROR_NONE) {
 735:Core/Src/vl53l0x_api_core.c **** 				Status = VL53L0X_GetVcselPulsePeriod(Dev,
 736:Core/Src/vl53l0x_api_core.c **** 						VL53L0X_VCSEL_PERIOD_PRE_RANGE,
 737:Core/Src/vl53l0x_api_core.c **** 						&CurrentVCSELPulsePeriodPClk);
 738:Core/Src/vl53l0x_api_core.c **** 				PreRangeTimeOutMClks =
 739:Core/Src/vl53l0x_api_core.c **** 					VL53L0X_calc_timeout_mclks(Dev,
 740:Core/Src/vl53l0x_api_core.c **** 					TimeOutMicroSecs,
 741:Core/Src/vl53l0x_api_core.c **** 					(uint8_t)CurrentVCSELPulsePeriodPClk);
 742:Core/Src/vl53l0x_api_core.c **** 				PreRangeEncodedTimeOut = VL53L0X_encode_timeout(
 743:Core/Src/vl53l0x_api_core.c **** 					PreRangeTimeOutMClks);
 744:Core/Src/vl53l0x_api_core.c **** 
 745:Core/Src/vl53l0x_api_core.c **** 				VL53L0X_SETDEVICESPECIFICPARAMETER(Dev,
 746:Core/Src/vl53l0x_api_core.c **** 					LastEncodedTimeout,
 747:Core/Src/vl53l0x_api_core.c **** 					PreRangeEncodedTimeOut);
 748:Core/Src/vl53l0x_api_core.c **** 			}
 749:Core/Src/vl53l0x_api_core.c **** 
 750:Core/Src/vl53l0x_api_core.c **** 			if (Status == VL53L0X_ERROR_NONE) {
 751:Core/Src/vl53l0x_api_core.c **** 				Status = VL53L0X_WrWord(Dev,
 752:Core/Src/vl53l0x_api_core.c **** 				VL53L0X_REG_PRE_RANGE_CONFIG_TIMEOUT_MACROP_HI,
 753:Core/Src/vl53l0x_api_core.c **** 				PreRangeEncodedTimeOut);
 754:Core/Src/vl53l0x_api_core.c **** 			}
 755:Core/Src/vl53l0x_api_core.c **** 
 756:Core/Src/vl53l0x_api_core.c **** 			if (Status == VL53L0X_ERROR_NONE) {
 757:Core/Src/vl53l0x_api_core.c **** 				VL53L0X_SETDEVICESPECIFICPARAMETER(
 758:Core/Src/vl53l0x_api_core.c **** 					Dev,
 759:Core/Src/vl53l0x_api_core.c **** 					PreRangeTimeoutMicroSecs,
 760:Core/Src/vl53l0x_api_core.c **** 					TimeOutMicroSecs);
 761:Core/Src/vl53l0x_api_core.c **** 			}
 762:Core/Src/vl53l0x_api_core.c **** 		} else if (SequenceStepId == VL53L0X_SEQUENCESTEP_FINAL_RANGE) {
 2394              		.loc 1 762 10 is_stmt 1 view .LVU826
 2395              		.loc 1 762 13 is_stmt 0 view .LVU827
 2396 0010 0429     		cmp	r1, #4
 2397 0012 7FD1     		bne	.L114
 763:Core/Src/vl53l0x_api_core.c **** 
 764:Core/Src/vl53l0x_api_core.c **** 			/* For the final range timeout, the pre-range timeout
 765:Core/Src/vl53l0x_api_core.c **** 			 * must be added. To do this both final and pre-range
 766:Core/Src/vl53l0x_api_core.c **** 			 * timeouts must be expressed in macro periods MClks
 767:Core/Src/vl53l0x_api_core.c **** 			 * because they have different vcsel periods.
 768:Core/Src/vl53l0x_api_core.c **** 			 */
 769:Core/Src/vl53l0x_api_core.c **** 
 770:Core/Src/vl53l0x_api_core.c **** 			VL53L0X_GetSequenceStepEnables(Dev,
 2398              		.loc 1 770 4 is_stmt 1 view .LVU828
 2399 0014 01A9     		add	r1, sp, #4
 2400              	.LVL374:
 2401              		.loc 1 770 4 is_stmt 0 view .LVU829
 2402 0016 FFF7FEFF 		bl	VL53L0X_GetSequenceStepEnables
 2403              	.LVL375:
 771:Core/Src/vl53l0x_api_core.c **** 					&SchedulerSequenceSteps);
 772:Core/Src/vl53l0x_api_core.c **** 			PreRangeTimeOutMClks = 0;
 2404              		.loc 1 772 4 is_stmt 1 view .LVU830
 773:Core/Src/vl53l0x_api_core.c **** 			if (SchedulerSequenceSteps.PreRangeOn) {
ARM GAS  C:\Users\anmh1\AppData\Local\Temp\ccrmGbOb.s 			page 65


 2405              		.loc 1 773 4 view .LVU831
 2406              		.loc 1 773 30 is_stmt 0 view .LVU832
 2407 001a 9DF80730 		ldrb	r3, [sp, #7]	@ zero_extendqisi2
 2408              		.loc 1 773 7 view .LVU833
 2409 001e 002B     		cmp	r3, #0
 2410 0020 58D0     		beq	.L115
 774:Core/Src/vl53l0x_api_core.c **** 
 775:Core/Src/vl53l0x_api_core.c **** 				/* Retrieve PRE-RANGE VCSEL Period */
 776:Core/Src/vl53l0x_api_core.c **** 				Status = VL53L0X_GetVcselPulsePeriod(Dev,
 2411              		.loc 1 776 5 is_stmt 1 view .LVU834
 2412              		.loc 1 776 14 is_stmt 0 view .LVU835
 2413 0022 0DF10F02 		add	r2, sp, #15
 2414 0026 0021     		movs	r1, #0
 2415 0028 2046     		mov	r0, r4
 2416 002a FFF7FEFF 		bl	VL53L0X_GetVcselPulsePeriod
 2417              	.LVL376:
 777:Core/Src/vl53l0x_api_core.c **** 					VL53L0X_VCSEL_PERIOD_PRE_RANGE,
 778:Core/Src/vl53l0x_api_core.c **** 					&CurrentVCSELPulsePeriodPClk);
 779:Core/Src/vl53l0x_api_core.c **** 
 780:Core/Src/vl53l0x_api_core.c **** 				/* Retrieve PRE-RANGE Timeout in Macro periods
 781:Core/Src/vl53l0x_api_core.c **** 				 * (MCLKS) */
 782:Core/Src/vl53l0x_api_core.c **** 				if (Status == VL53L0X_ERROR_NONE) {
 2418              		.loc 1 782 5 is_stmt 1 view .LVU836
 2419              		.loc 1 782 8 is_stmt 0 view .LVU837
 2420 002e 0546     		mov	r5, r0
 2421 0030 0028     		cmp	r0, #0
 2422 0032 43D0     		beq	.L120
 772:Core/Src/vl53l0x_api_core.c **** 			if (SchedulerSequenceSteps.PreRangeOn) {
 2423              		.loc 1 772 25 view .LVU838
 2424 0034 0026     		movs	r6, #0
 2425              	.LVL377:
 2426              	.L111:
 783:Core/Src/vl53l0x_api_core.c **** 					Status = VL53L0X_RdWord(Dev, 0x51,
 784:Core/Src/vl53l0x_api_core.c **** 						&PreRangeEncodedTimeOut);
 785:Core/Src/vl53l0x_api_core.c **** 					PreRangeTimeOutMClks =
 786:Core/Src/vl53l0x_api_core.c **** 						VL53L0X_decode_timeout(
 787:Core/Src/vl53l0x_api_core.c **** 							PreRangeEncodedTimeOut);
 788:Core/Src/vl53l0x_api_core.c **** 				}
 789:Core/Src/vl53l0x_api_core.c **** 			}
 790:Core/Src/vl53l0x_api_core.c **** 
 791:Core/Src/vl53l0x_api_core.c **** 			/* Calculate FINAL RANGE Timeout in Macro Periods
 792:Core/Src/vl53l0x_api_core.c **** 			 * (MCLKS) and add PRE-RANGE value
 793:Core/Src/vl53l0x_api_core.c **** 			 */
 794:Core/Src/vl53l0x_api_core.c **** 			if (Status == VL53L0X_ERROR_NONE) {
 2427              		.loc 1 794 4 is_stmt 1 view .LVU839
 2428              		.loc 1 794 7 is_stmt 0 view .LVU840
 2429 0036 002D     		cmp	r5, #0
 2430 0038 54D1     		bne	.L112
 2431 003a 4CE0     		b	.L110
 2432              	.LVL378:
 2433              	.L118:
 2434              		.loc 1 794 7 view .LVU841
 2435 003c 0026     		movs	r6, #0
 705:Core/Src/vl53l0x_api_core.c **** 					VL53L0X_VCSEL_PERIOD_PRE_RANGE,
 2436              		.loc 1 705 3 is_stmt 1 view .LVU842
 705:Core/Src/vl53l0x_api_core.c **** 					VL53L0X_VCSEL_PERIOD_PRE_RANGE,
 2437              		.loc 1 705 12 is_stmt 0 view .LVU843
ARM GAS  C:\Users\anmh1\AppData\Local\Temp\ccrmGbOb.s 			page 66


 2438 003e 0DF10F02 		add	r2, sp, #15
 2439              	.LVL379:
 705:Core/Src/vl53l0x_api_core.c **** 					VL53L0X_VCSEL_PERIOD_PRE_RANGE,
 2440              		.loc 1 705 12 view .LVU844
 2441 0042 3146     		mov	r1, r6
 2442              	.LVL380:
 705:Core/Src/vl53l0x_api_core.c **** 					VL53L0X_VCSEL_PERIOD_PRE_RANGE,
 2443              		.loc 1 705 12 view .LVU845
 2444 0044 FFF7FEFF 		bl	VL53L0X_GetVcselPulsePeriod
 2445              	.LVL381:
 709:Core/Src/vl53l0x_api_core.c **** 			MsrcRangeTimeOutMClks = VL53L0X_calc_timeout_mclks(Dev,
 2446              		.loc 1 709 3 is_stmt 1 view .LVU846
 709:Core/Src/vl53l0x_api_core.c **** 			MsrcRangeTimeOutMClks = VL53L0X_calc_timeout_mclks(Dev,
 2447              		.loc 1 709 6 is_stmt 0 view .LVU847
 2448 0048 0546     		mov	r5, r0
 2449 004a 70B9     		cbnz	r0, .L105
 710:Core/Src/vl53l0x_api_core.c **** 					TimeOutMicroSecs,
 2450              		.loc 1 710 4 is_stmt 1 view .LVU848
 710:Core/Src/vl53l0x_api_core.c **** 					TimeOutMicroSecs,
 2451              		.loc 1 710 28 is_stmt 0 view .LVU849
 2452 004c 9DF80F20 		ldrb	r2, [sp, #15]	@ zero_extendqisi2
 2453 0050 3946     		mov	r1, r7
 2454 0052 2046     		mov	r0, r4
 2455              	.LVL382:
 710:Core/Src/vl53l0x_api_core.c **** 					TimeOutMicroSecs,
 2456              		.loc 1 710 28 view .LVU850
 2457 0054 FFF7FEFF 		bl	VL53L0X_calc_timeout_mclks
 2458              	.LVL383:
 710:Core/Src/vl53l0x_api_core.c **** 					TimeOutMicroSecs,
 2459              		.loc 1 710 26 view .LVU851
 2460 0058 83B2     		uxth	r3, r0
 2461              	.LVL384:
 714:Core/Src/vl53l0x_api_core.c **** 				MsrcEncodedTimeOut = 255;
 2462              		.loc 1 714 4 is_stmt 1 view .LVU852
 714:Core/Src/vl53l0x_api_core.c **** 				MsrcEncodedTimeOut = 255;
 2463              		.loc 1 714 7 is_stmt 0 view .LVU853
 2464 005a B3F5807F 		cmp	r3, #256
 2465 005e 0CD8     		bhi	.L113
 717:Core/Src/vl53l0x_api_core.c **** 					(uint8_t)MsrcRangeTimeOutMClks - 1;
 2466              		.loc 1 717 5 is_stmt 1 view .LVU854
 718:Core/Src/vl53l0x_api_core.c **** 
 2467              		.loc 1 718 6 is_stmt 0 view .LVU855
 2468 0060 C6B2     		uxtb	r6, r0
 717:Core/Src/vl53l0x_api_core.c **** 					(uint8_t)MsrcRangeTimeOutMClks - 1;
 2469              		.loc 1 717 24 view .LVU856
 2470 0062 013E     		subs	r6, r6, #1
 2471 0064 F6B2     		uxtb	r6, r6
 2472              	.LVL385:
 2473              	.L106:
 720:Core/Src/vl53l0x_api_core.c **** 				LastEncodedTimeout,
 2474              		.loc 1 720 4 is_stmt 1 view .LVU857
 2475 0066 A4F8D860 		strh	r6, [r4, #216]	@ movhi
 2476              	.LVL386:
 2477              	.L105:
 725:Core/Src/vl53l0x_api_core.c **** 			Status = VL53L0X_WrByte(Dev,
 2478              		.loc 1 725 3 view .LVU858
 725:Core/Src/vl53l0x_api_core.c **** 			Status = VL53L0X_WrByte(Dev,
ARM GAS  C:\Users\anmh1\AppData\Local\Temp\ccrmGbOb.s 			page 67


 2479              		.loc 1 725 6 is_stmt 0 view .LVU859
 2480 006a E5BB     		cbnz	r5, .L107
 726:Core/Src/vl53l0x_api_core.c **** 				VL53L0X_REG_MSRC_CONFIG_TIMEOUT_MACROP,
 2481              		.loc 1 726 4 is_stmt 1 view .LVU860
 726:Core/Src/vl53l0x_api_core.c **** 				VL53L0X_REG_MSRC_CONFIG_TIMEOUT_MACROP,
 2482              		.loc 1 726 13 is_stmt 0 view .LVU861
 2483 006c 3246     		mov	r2, r6
 2484 006e 4621     		movs	r1, #70
 2485 0070 2046     		mov	r0, r4
 2486 0072 FFF7FEFF 		bl	VL53L0X_WrByte
 2487              	.LVL387:
 2488 0076 0546     		mov	r5, r0
 2489              	.LVL388:
 726:Core/Src/vl53l0x_api_core.c **** 				VL53L0X_REG_MSRC_CONFIG_TIMEOUT_MACROP,
 2490              		.loc 1 726 13 view .LVU862
 2491 0078 35E0     		b	.L107
 2492              	.LVL389:
 2493              	.L113:
 715:Core/Src/vl53l0x_api_core.c **** 			else
 2494              		.loc 1 715 24 view .LVU863
 2495 007a FF26     		movs	r6, #255
 2496 007c F3E7     		b	.L106
 2497              	.LVL390:
 2498              	.L119:
 734:Core/Src/vl53l0x_api_core.c **** 				Status = VL53L0X_GetVcselPulsePeriod(Dev,
 2499              		.loc 1 734 4 is_stmt 1 view .LVU864
 735:Core/Src/vl53l0x_api_core.c **** 						VL53L0X_VCSEL_PERIOD_PRE_RANGE,
 2500              		.loc 1 735 5 view .LVU865
 735:Core/Src/vl53l0x_api_core.c **** 						VL53L0X_VCSEL_PERIOD_PRE_RANGE,
 2501              		.loc 1 735 14 is_stmt 0 view .LVU866
 2502 007e 0DF10F02 		add	r2, sp, #15
 2503              	.LVL391:
 735:Core/Src/vl53l0x_api_core.c **** 						VL53L0X_VCSEL_PERIOD_PRE_RANGE,
 2504              		.loc 1 735 14 view .LVU867
 2505 0082 0021     		movs	r1, #0
 2506              	.LVL392:
 735:Core/Src/vl53l0x_api_core.c **** 						VL53L0X_VCSEL_PERIOD_PRE_RANGE,
 2507              		.loc 1 735 14 view .LVU868
 2508 0084 FFF7FEFF 		bl	VL53L0X_GetVcselPulsePeriod
 2509              	.LVL393:
 735:Core/Src/vl53l0x_api_core.c **** 						VL53L0X_VCSEL_PERIOD_PRE_RANGE,
 2510              		.loc 1 735 14 view .LVU869
 2511 0088 0546     		mov	r5, r0
 2512              	.LVL394:
 738:Core/Src/vl53l0x_api_core.c **** 					VL53L0X_calc_timeout_mclks(Dev,
 2513              		.loc 1 738 5 is_stmt 1 view .LVU870
 739:Core/Src/vl53l0x_api_core.c **** 					TimeOutMicroSecs,
 2514              		.loc 1 739 6 is_stmt 0 view .LVU871
 2515 008a 9DF80F20 		ldrb	r2, [sp, #15]	@ zero_extendqisi2
 2516 008e 3946     		mov	r1, r7
 2517 0090 2046     		mov	r0, r4
 2518 0092 FFF7FEFF 		bl	VL53L0X_calc_timeout_mclks
 2519              	.LVL395:
 742:Core/Src/vl53l0x_api_core.c **** 					PreRangeTimeOutMClks);
 2520              		.loc 1 742 5 is_stmt 1 view .LVU872
 742:Core/Src/vl53l0x_api_core.c **** 					PreRangeTimeOutMClks);
 2521              		.loc 1 742 30 is_stmt 0 view .LVU873
ARM GAS  C:\Users\anmh1\AppData\Local\Temp\ccrmGbOb.s 			page 68


 2522 0096 80B2     		uxth	r0, r0
 742:Core/Src/vl53l0x_api_core.c **** 					PreRangeTimeOutMClks);
 2523              		.loc 1 742 30 view .LVU874
 2524 0098 FFF7FEFF 		bl	VL53L0X_encode_timeout
 2525              	.LVL396:
 742:Core/Src/vl53l0x_api_core.c **** 					PreRangeTimeOutMClks);
 2526              		.loc 1 742 28 view .LVU875
 2527 009c ADF80C00 		strh	r0, [sp, #12]	@ movhi
 745:Core/Src/vl53l0x_api_core.c **** 					LastEncodedTimeout,
 2528              		.loc 1 745 5 is_stmt 1 view .LVU876
 2529 00a0 A4F8D800 		strh	r0, [r4, #216]	@ movhi
 750:Core/Src/vl53l0x_api_core.c **** 				Status = VL53L0X_WrWord(Dev,
 2530              		.loc 1 750 4 view .LVU877
 750:Core/Src/vl53l0x_api_core.c **** 				Status = VL53L0X_WrWord(Dev,
 2531              		.loc 1 750 7 is_stmt 0 view .LVU878
 2532 00a4 1DB1     		cbz	r5, .L121
 2533              	.L109:
 756:Core/Src/vl53l0x_api_core.c **** 				VL53L0X_SETDEVICESPECIFICPARAMETER(
 2534              		.loc 1 756 4 is_stmt 1 view .LVU879
 756:Core/Src/vl53l0x_api_core.c **** 				VL53L0X_SETDEVICESPECIFICPARAMETER(
 2535              		.loc 1 756 7 is_stmt 0 view .LVU880
 2536 00a6 F5B9     		cbnz	r5, .L107
 757:Core/Src/vl53l0x_api_core.c **** 					Dev,
 2537              		.loc 1 757 5 is_stmt 1 view .LVU881
 2538 00a8 C4F8E470 		str	r7, [r4, #228]
 2539 00ac 1BE0     		b	.L107
 2540              	.L121:
 751:Core/Src/vl53l0x_api_core.c **** 				VL53L0X_REG_PRE_RANGE_CONFIG_TIMEOUT_MACROP_HI,
 2541              		.loc 1 751 5 view .LVU882
 751:Core/Src/vl53l0x_api_core.c **** 				VL53L0X_REG_PRE_RANGE_CONFIG_TIMEOUT_MACROP_HI,
 2542              		.loc 1 751 14 is_stmt 0 view .LVU883
 2543 00ae 0246     		mov	r2, r0
 2544 00b0 5121     		movs	r1, #81
 2545 00b2 2046     		mov	r0, r4
 2546 00b4 FFF7FEFF 		bl	VL53L0X_WrWord
 2547              	.LVL397:
 2548 00b8 0546     		mov	r5, r0
 2549              	.LVL398:
 751:Core/Src/vl53l0x_api_core.c **** 				VL53L0X_REG_PRE_RANGE_CONFIG_TIMEOUT_MACROP_HI,
 2550              		.loc 1 751 14 view .LVU884
 2551 00ba F4E7     		b	.L109
 2552              	.LVL399:
 2553              	.L120:
 783:Core/Src/vl53l0x_api_core.c **** 						&PreRangeEncodedTimeOut);
 2554              		.loc 1 783 6 is_stmt 1 view .LVU885
 783:Core/Src/vl53l0x_api_core.c **** 						&PreRangeEncodedTimeOut);
 2555              		.loc 1 783 15 is_stmt 0 view .LVU886
 2556 00bc 03AA     		add	r2, sp, #12
 2557 00be 5121     		movs	r1, #81
 2558 00c0 2046     		mov	r0, r4
 2559              	.LVL400:
 783:Core/Src/vl53l0x_api_core.c **** 						&PreRangeEncodedTimeOut);
 2560              		.loc 1 783 15 view .LVU887
 2561 00c2 FFF7FEFF 		bl	VL53L0X_RdWord
 2562              	.LVL401:
 2563 00c6 0546     		mov	r5, r0
 2564              	.LVL402:
ARM GAS  C:\Users\anmh1\AppData\Local\Temp\ccrmGbOb.s 			page 69


 785:Core/Src/vl53l0x_api_core.c **** 						VL53L0X_decode_timeout(
 2565              		.loc 1 785 6 is_stmt 1 view .LVU888
 786:Core/Src/vl53l0x_api_core.c **** 							PreRangeEncodedTimeOut);
 2566              		.loc 1 786 7 is_stmt 0 view .LVU889
 2567 00c8 BDF80C00 		ldrh	r0, [sp, #12]
 2568 00cc FFF7FEFF 		bl	VL53L0X_decode_timeout
 2569              	.LVL403:
 785:Core/Src/vl53l0x_api_core.c **** 						VL53L0X_decode_timeout(
 2570              		.loc 1 785 27 view .LVU890
 2571 00d0 86B2     		uxth	r6, r0
 2572              	.LVL404:
 785:Core/Src/vl53l0x_api_core.c **** 						VL53L0X_decode_timeout(
 2573              		.loc 1 785 27 view .LVU891
 2574 00d2 B0E7     		b	.L111
 2575              	.LVL405:
 2576              	.L115:
 772:Core/Src/vl53l0x_api_core.c **** 			if (SchedulerSequenceSteps.PreRangeOn) {
 2577              		.loc 1 772 25 view .LVU892
 2578 00d4 0026     		movs	r6, #0
 2579              	.LVL406:
 2580              	.L110:
 795:Core/Src/vl53l0x_api_core.c **** 
 796:Core/Src/vl53l0x_api_core.c **** 				Status = VL53L0X_GetVcselPulsePeriod(Dev,
 2581              		.loc 1 796 5 is_stmt 1 view .LVU893
 2582              		.loc 1 796 14 is_stmt 0 view .LVU894
 2583 00d6 0DF10F02 		add	r2, sp, #15
 2584 00da 0121     		movs	r1, #1
 2585 00dc 2046     		mov	r0, r4
 2586 00de FFF7FEFF 		bl	VL53L0X_GetVcselPulsePeriod
 2587              	.LVL407:
 2588 00e2 0546     		mov	r5, r0
 2589              	.LVL408:
 2590              	.L112:
 797:Core/Src/vl53l0x_api_core.c **** 						VL53L0X_VCSEL_PERIOD_FINAL_RANGE,
 798:Core/Src/vl53l0x_api_core.c **** 						&CurrentVCSELPulsePeriodPClk);
 799:Core/Src/vl53l0x_api_core.c **** 			}
 800:Core/Src/vl53l0x_api_core.c **** 			if (Status == VL53L0X_ERROR_NONE) {
 2591              		.loc 1 800 4 is_stmt 1 view .LVU895
 2592              		.loc 1 800 7 is_stmt 0 view .LVU896
 2593 00e4 15B1     		cbz	r5, .L122
 2594              	.LVL409:
 2595              	.L107:
 801:Core/Src/vl53l0x_api_core.c **** 
 802:Core/Src/vl53l0x_api_core.c **** 				FinalRangeTimeOutMClks =
 803:Core/Src/vl53l0x_api_core.c **** 					VL53L0X_calc_timeout_mclks(Dev,
 804:Core/Src/vl53l0x_api_core.c **** 					TimeOutMicroSecs,
 805:Core/Src/vl53l0x_api_core.c **** 					(uint8_t) CurrentVCSELPulsePeriodPClk);
 806:Core/Src/vl53l0x_api_core.c **** 
 807:Core/Src/vl53l0x_api_core.c **** 				FinalRangeTimeOutMClks += PreRangeTimeOutMClks;
 808:Core/Src/vl53l0x_api_core.c **** 
 809:Core/Src/vl53l0x_api_core.c **** 				FinalRangeEncodedTimeOut =
 810:Core/Src/vl53l0x_api_core.c **** 				VL53L0X_encode_timeout(FinalRangeTimeOutMClks);
 811:Core/Src/vl53l0x_api_core.c **** 
 812:Core/Src/vl53l0x_api_core.c **** 				if (Status == VL53L0X_ERROR_NONE) {
 813:Core/Src/vl53l0x_api_core.c **** 					Status = VL53L0X_WrWord(Dev, 0x71,
 814:Core/Src/vl53l0x_api_core.c **** 					FinalRangeEncodedTimeOut);
 815:Core/Src/vl53l0x_api_core.c **** 				}
ARM GAS  C:\Users\anmh1\AppData\Local\Temp\ccrmGbOb.s 			page 70


 816:Core/Src/vl53l0x_api_core.c **** 
 817:Core/Src/vl53l0x_api_core.c **** 				if (Status == VL53L0X_ERROR_NONE) {
 818:Core/Src/vl53l0x_api_core.c **** 					VL53L0X_SETDEVICESPECIFICPARAMETER(
 819:Core/Src/vl53l0x_api_core.c **** 						Dev,
 820:Core/Src/vl53l0x_api_core.c **** 						FinalRangeTimeoutMicroSecs,
 821:Core/Src/vl53l0x_api_core.c **** 						TimeOutMicroSecs);
 822:Core/Src/vl53l0x_api_core.c **** 				}
 823:Core/Src/vl53l0x_api_core.c **** 			}
 824:Core/Src/vl53l0x_api_core.c **** 		} else
 825:Core/Src/vl53l0x_api_core.c **** 			Status = VL53L0X_ERROR_INVALID_PARAMS;
 826:Core/Src/vl53l0x_api_core.c **** 
 827:Core/Src/vl53l0x_api_core.c **** 	}
 828:Core/Src/vl53l0x_api_core.c **** 	return Status;
 2596              		.loc 1 828 2 is_stmt 1 view .LVU897
 829:Core/Src/vl53l0x_api_core.c **** }
 2597              		.loc 1 829 1 is_stmt 0 view .LVU898
 2598 00e6 2846     		mov	r0, r5
 2599 00e8 05B0     		add	sp, sp, #20
 2600              		.cfi_remember_state
 2601              		.cfi_def_cfa_offset 20
 2602              		@ sp needed
 2603 00ea F0BD     		pop	{r4, r5, r6, r7, pc}
 2604              	.LVL410:
 2605              	.L122:
 2606              		.cfi_restore_state
 802:Core/Src/vl53l0x_api_core.c **** 					VL53L0X_calc_timeout_mclks(Dev,
 2607              		.loc 1 802 5 is_stmt 1 view .LVU899
 803:Core/Src/vl53l0x_api_core.c **** 					TimeOutMicroSecs,
 2608              		.loc 1 803 6 is_stmt 0 view .LVU900
 2609 00ec 9DF80F20 		ldrb	r2, [sp, #15]	@ zero_extendqisi2
 2610 00f0 3946     		mov	r1, r7
 2611 00f2 2046     		mov	r0, r4
 2612 00f4 FFF7FEFF 		bl	VL53L0X_calc_timeout_mclks
 2613              	.LVL411:
 807:Core/Src/vl53l0x_api_core.c **** 
 2614              		.loc 1 807 5 is_stmt 1 view .LVU901
 809:Core/Src/vl53l0x_api_core.c **** 				VL53L0X_encode_timeout(FinalRangeTimeOutMClks);
 2615              		.loc 1 809 5 view .LVU902
 810:Core/Src/vl53l0x_api_core.c **** 
 2616              		.loc 1 810 5 is_stmt 0 view .LVU903
 2617 00f8 3044     		add	r0, r0, r6
 2618              	.LVL412:
 810:Core/Src/vl53l0x_api_core.c **** 
 2619              		.loc 1 810 5 view .LVU904
 2620 00fa FFF7FEFF 		bl	VL53L0X_encode_timeout
 2621              	.LVL413:
 810:Core/Src/vl53l0x_api_core.c **** 
 2622              		.loc 1 810 5 view .LVU905
 2623 00fe 0246     		mov	r2, r0
 2624              	.LVL414:
 812:Core/Src/vl53l0x_api_core.c **** 					Status = VL53L0X_WrWord(Dev, 0x71,
 2625              		.loc 1 812 5 is_stmt 1 view .LVU906
 813:Core/Src/vl53l0x_api_core.c **** 					FinalRangeEncodedTimeOut);
 2626              		.loc 1 813 6 view .LVU907
 813:Core/Src/vl53l0x_api_core.c **** 					FinalRangeEncodedTimeOut);
 2627              		.loc 1 813 15 is_stmt 0 view .LVU908
 2628 0100 7121     		movs	r1, #113
ARM GAS  C:\Users\anmh1\AppData\Local\Temp\ccrmGbOb.s 			page 71


 2629 0102 2046     		mov	r0, r4
 2630 0104 FFF7FEFF 		bl	VL53L0X_WrWord
 2631              	.LVL415:
 817:Core/Src/vl53l0x_api_core.c **** 					VL53L0X_SETDEVICESPECIFICPARAMETER(
 2632              		.loc 1 817 5 is_stmt 1 view .LVU909
 817:Core/Src/vl53l0x_api_core.c **** 					VL53L0X_SETDEVICESPECIFICPARAMETER(
 2633              		.loc 1 817 8 is_stmt 0 view .LVU910
 2634 0108 0546     		mov	r5, r0
 2635 010a 0028     		cmp	r0, #0
 2636 010c EBD1     		bne	.L107
 818:Core/Src/vl53l0x_api_core.c **** 						Dev,
 2637              		.loc 1 818 6 is_stmt 1 view .LVU911
 2638 010e C4F8DC70 		str	r7, [r4, #220]
 2639 0112 E8E7     		b	.L107
 2640              	.LVL416:
 2641              	.L114:
 825:Core/Src/vl53l0x_api_core.c **** 
 2642              		.loc 1 825 11 is_stmt 0 view .LVU912
 2643 0114 6FF00305 		mvn	r5, #3
 2644 0118 E5E7     		b	.L107
 2645              		.cfi_endproc
 2646              	.LFE147:
 2648              		.section	.text.VL53L0X_set_vcsel_pulse_period,"ax",%progbits
 2649              		.align	1
 2650              		.global	VL53L0X_set_vcsel_pulse_period
 2651              		.syntax unified
 2652              		.thumb
 2653              		.thumb_func
 2654              		.fpu fpv4-sp-d16
 2656              	VL53L0X_set_vcsel_pulse_period:
 2657              	.LVL417:
 2658              	.LFB148:
 830:Core/Src/vl53l0x_api_core.c **** 
 831:Core/Src/vl53l0x_api_core.c **** VL53L0X_Error VL53L0X_set_vcsel_pulse_period(VL53L0X_DEV Dev,
 832:Core/Src/vl53l0x_api_core.c **** 	VL53L0X_VcselPeriod VcselPeriodType, uint8_t VCSELPulsePeriodPCLK)
 833:Core/Src/vl53l0x_api_core.c **** {
 2659              		.loc 1 833 1 is_stmt 1 view -0
 2660              		.cfi_startproc
 2661              		@ args = 0, pretend = 0, frame = 16
 2662              		@ frame_needed = 0, uses_anonymous_args = 0
 2663              		.loc 1 833 1 is_stmt 0 view .LVU914
 2664 0000 F0B5     		push	{r4, r5, r6, r7, lr}
 2665              		.cfi_def_cfa_offset 20
 2666              		.cfi_offset 4, -20
 2667              		.cfi_offset 5, -16
 2668              		.cfi_offset 6, -12
 2669              		.cfi_offset 7, -8
 2670              		.cfi_offset 14, -4
 2671 0002 85B0     		sub	sp, sp, #20
 2672              		.cfi_def_cfa_offset 40
 834:Core/Src/vl53l0x_api_core.c **** 	VL53L0X_Error Status = VL53L0X_ERROR_NONE;
 2673              		.loc 1 834 2 is_stmt 1 view .LVU915
 2674              	.LVL418:
 835:Core/Src/vl53l0x_api_core.c **** 	uint8_t vcsel_period_reg;
 2675              		.loc 1 835 2 view .LVU916
 836:Core/Src/vl53l0x_api_core.c **** 	uint8_t MinPreVcselPeriodPCLK = 12;
 2676              		.loc 1 836 2 view .LVU917
ARM GAS  C:\Users\anmh1\AppData\Local\Temp\ccrmGbOb.s 			page 72


 837:Core/Src/vl53l0x_api_core.c **** 	uint8_t MaxPreVcselPeriodPCLK = 18;
 2677              		.loc 1 837 2 view .LVU918
 838:Core/Src/vl53l0x_api_core.c **** 	uint8_t MinFinalVcselPeriodPCLK = 8;
 2678              		.loc 1 838 2 view .LVU919
 839:Core/Src/vl53l0x_api_core.c **** 	uint8_t MaxFinalVcselPeriodPCLK = 14;
 2679              		.loc 1 839 2 view .LVU920
 840:Core/Src/vl53l0x_api_core.c **** 	uint32_t MeasurementTimingBudgetMicroSeconds;
 2680              		.loc 1 840 2 view .LVU921
 841:Core/Src/vl53l0x_api_core.c **** 	uint32_t FinalRangeTimeoutMicroSeconds;
 2681              		.loc 1 841 2 view .LVU922
 842:Core/Src/vl53l0x_api_core.c **** 	uint32_t PreRangeTimeoutMicroSeconds;
 2682              		.loc 1 842 2 view .LVU923
 843:Core/Src/vl53l0x_api_core.c **** 	uint32_t MsrcTimeoutMicroSeconds;
 2683              		.loc 1 843 2 view .LVU924
 844:Core/Src/vl53l0x_api_core.c **** 	uint8_t PhaseCalInt = 0;
 2684              		.loc 1 844 2 view .LVU925
 2685              		.loc 1 844 10 is_stmt 0 view .LVU926
 2686 0004 0023     		movs	r3, #0
 2687 0006 8DF80330 		strb	r3, [sp, #3]
 845:Core/Src/vl53l0x_api_core.c **** 
 846:Core/Src/vl53l0x_api_core.c **** 	/* Check if valid clock period requested */
 847:Core/Src/vl53l0x_api_core.c **** 
 848:Core/Src/vl53l0x_api_core.c **** 	if ((VCSELPulsePeriodPCLK % 2) != 0) {
 2688              		.loc 1 848 2 is_stmt 1 view .LVU927
 2689              		.loc 1 848 5 is_stmt 0 view .LVU928
 2690 000a 12F0010F 		tst	r2, #1
 2691 000e 40F06F81 		bne	.L145
 2692 0012 0446     		mov	r4, r0
 2693 0014 0E46     		mov	r6, r1
 2694 0016 1546     		mov	r5, r2
 849:Core/Src/vl53l0x_api_core.c **** 		/* Value must be an even number */
 850:Core/Src/vl53l0x_api_core.c **** 		Status = VL53L0X_ERROR_INVALID_PARAMS;
 851:Core/Src/vl53l0x_api_core.c **** 	} else if (VcselPeriodType == VL53L0X_VCSEL_PERIOD_PRE_RANGE &&
 2695              		.loc 1 851 9 is_stmt 1 view .LVU929
 2696              		.loc 1 851 12 is_stmt 0 view .LVU930
 2697 0018 29B9     		cbnz	r1, .L125
 2698              		.loc 1 851 63 discriminator 1 view .LVU931
 2699 001a 0B2A     		cmp	r2, #11
 2700 001c 40F26B81 		bls	.L146
 852:Core/Src/vl53l0x_api_core.c **** 		(VCSELPulsePeriodPCLK < MinPreVcselPeriodPCLK ||
 2701              		.loc 1 852 49 view .LVU932
 2702 0020 122A     		cmp	r2, #18
 2703 0022 00F26B81 		bhi	.L147
 2704              	.L125:
 853:Core/Src/vl53l0x_api_core.c **** 		VCSELPulsePeriodPCLK > MaxPreVcselPeriodPCLK)) {
 854:Core/Src/vl53l0x_api_core.c **** 		Status = VL53L0X_ERROR_INVALID_PARAMS;
 855:Core/Src/vl53l0x_api_core.c **** 	} else if (VcselPeriodType == VL53L0X_VCSEL_PERIOD_FINAL_RANGE &&
 2705              		.loc 1 855 9 is_stmt 1 view .LVU933
 2706              		.loc 1 855 12 is_stmt 0 view .LVU934
 2707 0026 012E     		cmp	r6, #1
 2708 0028 0AD0     		beq	.L154
 2709              	.L126:
 2710              	.LVL419:
 856:Core/Src/vl53l0x_api_core.c **** 		(VCSELPulsePeriodPCLK < MinFinalVcselPeriodPCLK ||
 857:Core/Src/vl53l0x_api_core.c **** 		 VCSELPulsePeriodPCLK > MaxFinalVcselPeriodPCLK)) {
 858:Core/Src/vl53l0x_api_core.c **** 
 859:Core/Src/vl53l0x_api_core.c **** 		Status = VL53L0X_ERROR_INVALID_PARAMS;
ARM GAS  C:\Users\anmh1\AppData\Local\Temp\ccrmGbOb.s 			page 73


 860:Core/Src/vl53l0x_api_core.c **** 	}
 861:Core/Src/vl53l0x_api_core.c **** 
 862:Core/Src/vl53l0x_api_core.c **** 	/* Apply specific settings for the requested clock period */
 863:Core/Src/vl53l0x_api_core.c **** 
 864:Core/Src/vl53l0x_api_core.c **** 	if (Status != VL53L0X_ERROR_NONE)
 865:Core/Src/vl53l0x_api_core.c **** 		return Status;
 866:Core/Src/vl53l0x_api_core.c **** 
 867:Core/Src/vl53l0x_api_core.c **** 
 868:Core/Src/vl53l0x_api_core.c **** 	if (VcselPeriodType == VL53L0X_VCSEL_PERIOD_PRE_RANGE) {
 2711              		.loc 1 868 2 is_stmt 1 view .LVU935
 2712              		.loc 1 868 5 is_stmt 0 view .LVU936
 2713 002a EEBB     		cbnz	r6, .L127
 869:Core/Src/vl53l0x_api_core.c **** 
 870:Core/Src/vl53l0x_api_core.c **** 		/* Set phase check limits */
 871:Core/Src/vl53l0x_api_core.c **** 		if (VCSELPulsePeriodPCLK == 12) {
 2714              		.loc 1 871 3 is_stmt 1 view .LVU937
 2715              		.loc 1 871 6 is_stmt 0 view .LVU938
 2716 002c 0C2D     		cmp	r5, #12
 2717 002e 0FD0     		beq	.L155
 872:Core/Src/vl53l0x_api_core.c **** 
 873:Core/Src/vl53l0x_api_core.c **** 			Status = VL53L0X_WrByte(Dev,
 874:Core/Src/vl53l0x_api_core.c **** 				VL53L0X_REG_PRE_RANGE_CONFIG_VALID_PHASE_HIGH,
 875:Core/Src/vl53l0x_api_core.c **** 				0x18);
 876:Core/Src/vl53l0x_api_core.c **** 			Status = VL53L0X_WrByte(Dev,
 877:Core/Src/vl53l0x_api_core.c **** 				VL53L0X_REG_PRE_RANGE_CONFIG_VALID_PHASE_LOW,
 878:Core/Src/vl53l0x_api_core.c **** 				0x08);
 879:Core/Src/vl53l0x_api_core.c **** 		} else if (VCSELPulsePeriodPCLK == 14) {
 2718              		.loc 1 879 10 is_stmt 1 view .LVU939
 2719              		.loc 1 879 13 is_stmt 0 view .LVU940
 2720 0030 0E2D     		cmp	r5, #14
 2721 0032 18D0     		beq	.L156
 880:Core/Src/vl53l0x_api_core.c **** 
 881:Core/Src/vl53l0x_api_core.c **** 			Status = VL53L0X_WrByte(Dev,
 882:Core/Src/vl53l0x_api_core.c **** 				VL53L0X_REG_PRE_RANGE_CONFIG_VALID_PHASE_HIGH,
 883:Core/Src/vl53l0x_api_core.c **** 				0x30);
 884:Core/Src/vl53l0x_api_core.c **** 			Status = VL53L0X_WrByte(Dev,
 885:Core/Src/vl53l0x_api_core.c **** 				VL53L0X_REG_PRE_RANGE_CONFIG_VALID_PHASE_LOW,
 886:Core/Src/vl53l0x_api_core.c **** 				0x08);
 887:Core/Src/vl53l0x_api_core.c **** 		} else if (VCSELPulsePeriodPCLK == 16) {
 2722              		.loc 1 887 10 is_stmt 1 view .LVU941
 2723              		.loc 1 887 13 is_stmt 0 view .LVU942
 2724 0034 102D     		cmp	r5, #16
 2725 0036 21D0     		beq	.L157
 888:Core/Src/vl53l0x_api_core.c **** 
 889:Core/Src/vl53l0x_api_core.c **** 			Status = VL53L0X_WrByte(Dev,
 890:Core/Src/vl53l0x_api_core.c **** 				VL53L0X_REG_PRE_RANGE_CONFIG_VALID_PHASE_HIGH,
 891:Core/Src/vl53l0x_api_core.c **** 				0x40);
 892:Core/Src/vl53l0x_api_core.c **** 			Status = VL53L0X_WrByte(Dev,
 893:Core/Src/vl53l0x_api_core.c **** 				VL53L0X_REG_PRE_RANGE_CONFIG_VALID_PHASE_LOW,
 894:Core/Src/vl53l0x_api_core.c **** 				0x08);
 895:Core/Src/vl53l0x_api_core.c **** 		} else if (VCSELPulsePeriodPCLK == 18) {
 2726              		.loc 1 895 10 is_stmt 1 view .LVU943
 2727              		.loc 1 895 13 is_stmt 0 view .LVU944
 2728 0038 122D     		cmp	r5, #18
 2729 003a 2AD0     		beq	.L158
 2730 003c 0020     		movs	r0, #0
 2731              	.LVL420:
ARM GAS  C:\Users\anmh1\AppData\Local\Temp\ccrmGbOb.s 			page 74


 2732              		.loc 1 895 13 view .LVU945
 2733 003e 36E0     		b	.L129
 2734              	.LVL421:
 2735              	.L154:
 855:Core/Src/vl53l0x_api_core.c **** 		(VCSELPulsePeriodPCLK < MinFinalVcselPeriodPCLK ||
 2736              		.loc 1 855 65 discriminator 1 view .LVU946
 2737 0040 072D     		cmp	r5, #7
 2738 0042 40F25E81 		bls	.L148
 856:Core/Src/vl53l0x_api_core.c **** 		 VCSELPulsePeriodPCLK > MaxFinalVcselPeriodPCLK)) {
 2739              		.loc 1 856 51 view .LVU947
 2740 0046 0E2D     		cmp	r5, #14
 2741 0048 EFD9     		bls	.L126
 2742 004a 6FF00300 		mvn	r0, #3
 2743              	.LVL422:
 856:Core/Src/vl53l0x_api_core.c **** 		 VCSELPulsePeriodPCLK > MaxFinalVcselPeriodPCLK)) {
 2744              		.loc 1 856 51 view .LVU948
 2745 004e 12E1     		b	.L124
 2746              	.LVL423:
 2747              	.L155:
 873:Core/Src/vl53l0x_api_core.c **** 				VL53L0X_REG_PRE_RANGE_CONFIG_VALID_PHASE_HIGH,
 2748              		.loc 1 873 4 is_stmt 1 view .LVU949
 873:Core/Src/vl53l0x_api_core.c **** 				VL53L0X_REG_PRE_RANGE_CONFIG_VALID_PHASE_HIGH,
 2749              		.loc 1 873 13 is_stmt 0 view .LVU950
 2750 0050 1822     		movs	r2, #24
 2751              	.LVL424:
 873:Core/Src/vl53l0x_api_core.c **** 				VL53L0X_REG_PRE_RANGE_CONFIG_VALID_PHASE_HIGH,
 2752              		.loc 1 873 13 view .LVU951
 2753 0052 5721     		movs	r1, #87
 2754              	.LVL425:
 873:Core/Src/vl53l0x_api_core.c **** 				VL53L0X_REG_PRE_RANGE_CONFIG_VALID_PHASE_HIGH,
 2755              		.loc 1 873 13 view .LVU952
 2756 0054 2046     		mov	r0, r4
 2757              	.LVL426:
 873:Core/Src/vl53l0x_api_core.c **** 				VL53L0X_REG_PRE_RANGE_CONFIG_VALID_PHASE_HIGH,
 2758              		.loc 1 873 13 view .LVU953
 2759 0056 FFF7FEFF 		bl	VL53L0X_WrByte
 2760              	.LVL427:
 876:Core/Src/vl53l0x_api_core.c **** 				VL53L0X_REG_PRE_RANGE_CONFIG_VALID_PHASE_LOW,
 2761              		.loc 1 876 4 is_stmt 1 view .LVU954
 876:Core/Src/vl53l0x_api_core.c **** 				VL53L0X_REG_PRE_RANGE_CONFIG_VALID_PHASE_LOW,
 2762              		.loc 1 876 13 is_stmt 0 view .LVU955
 2763 005a 0822     		movs	r2, #8
 2764 005c 5621     		movs	r1, #86
 2765 005e 2046     		mov	r0, r4
 2766 0060 FFF7FEFF 		bl	VL53L0X_WrByte
 2767              	.LVL428:
 876:Core/Src/vl53l0x_api_core.c **** 				VL53L0X_REG_PRE_RANGE_CONFIG_VALID_PHASE_LOW,
 2768              		.loc 1 876 13 view .LVU956
 2769 0064 23E0     		b	.L129
 2770              	.LVL429:
 2771              	.L156:
 881:Core/Src/vl53l0x_api_core.c **** 				VL53L0X_REG_PRE_RANGE_CONFIG_VALID_PHASE_HIGH,
 2772              		.loc 1 881 4 is_stmt 1 view .LVU957
 881:Core/Src/vl53l0x_api_core.c **** 				VL53L0X_REG_PRE_RANGE_CONFIG_VALID_PHASE_HIGH,
 2773              		.loc 1 881 13 is_stmt 0 view .LVU958
 2774 0066 3022     		movs	r2, #48
 2775              	.LVL430:
ARM GAS  C:\Users\anmh1\AppData\Local\Temp\ccrmGbOb.s 			page 75


 881:Core/Src/vl53l0x_api_core.c **** 				VL53L0X_REG_PRE_RANGE_CONFIG_VALID_PHASE_HIGH,
 2776              		.loc 1 881 13 view .LVU959
 2777 0068 5721     		movs	r1, #87
 2778              	.LVL431:
 881:Core/Src/vl53l0x_api_core.c **** 				VL53L0X_REG_PRE_RANGE_CONFIG_VALID_PHASE_HIGH,
 2779              		.loc 1 881 13 view .LVU960
 2780 006a 2046     		mov	r0, r4
 2781              	.LVL432:
 881:Core/Src/vl53l0x_api_core.c **** 				VL53L0X_REG_PRE_RANGE_CONFIG_VALID_PHASE_HIGH,
 2782              		.loc 1 881 13 view .LVU961
 2783 006c FFF7FEFF 		bl	VL53L0X_WrByte
 2784              	.LVL433:
 884:Core/Src/vl53l0x_api_core.c **** 				VL53L0X_REG_PRE_RANGE_CONFIG_VALID_PHASE_LOW,
 2785              		.loc 1 884 4 is_stmt 1 view .LVU962
 884:Core/Src/vl53l0x_api_core.c **** 				VL53L0X_REG_PRE_RANGE_CONFIG_VALID_PHASE_LOW,
 2786              		.loc 1 884 13 is_stmt 0 view .LVU963
 2787 0070 0822     		movs	r2, #8
 2788 0072 5621     		movs	r1, #86
 2789 0074 2046     		mov	r0, r4
 2790 0076 FFF7FEFF 		bl	VL53L0X_WrByte
 2791              	.LVL434:
 884:Core/Src/vl53l0x_api_core.c **** 				VL53L0X_REG_PRE_RANGE_CONFIG_VALID_PHASE_LOW,
 2792              		.loc 1 884 13 view .LVU964
 2793 007a 18E0     		b	.L129
 2794              	.LVL435:
 2795              	.L157:
 889:Core/Src/vl53l0x_api_core.c **** 				VL53L0X_REG_PRE_RANGE_CONFIG_VALID_PHASE_HIGH,
 2796              		.loc 1 889 4 is_stmt 1 view .LVU965
 889:Core/Src/vl53l0x_api_core.c **** 				VL53L0X_REG_PRE_RANGE_CONFIG_VALID_PHASE_HIGH,
 2797              		.loc 1 889 13 is_stmt 0 view .LVU966
 2798 007c 4022     		movs	r2, #64
 2799              	.LVL436:
 889:Core/Src/vl53l0x_api_core.c **** 				VL53L0X_REG_PRE_RANGE_CONFIG_VALID_PHASE_HIGH,
 2800              		.loc 1 889 13 view .LVU967
 2801 007e 5721     		movs	r1, #87
 2802              	.LVL437:
 889:Core/Src/vl53l0x_api_core.c **** 				VL53L0X_REG_PRE_RANGE_CONFIG_VALID_PHASE_HIGH,
 2803              		.loc 1 889 13 view .LVU968
 2804 0080 2046     		mov	r0, r4
 2805              	.LVL438:
 889:Core/Src/vl53l0x_api_core.c **** 				VL53L0X_REG_PRE_RANGE_CONFIG_VALID_PHASE_HIGH,
 2806              		.loc 1 889 13 view .LVU969
 2807 0082 FFF7FEFF 		bl	VL53L0X_WrByte
 2808              	.LVL439:
 892:Core/Src/vl53l0x_api_core.c **** 				VL53L0X_REG_PRE_RANGE_CONFIG_VALID_PHASE_LOW,
 2809              		.loc 1 892 4 is_stmt 1 view .LVU970
 892:Core/Src/vl53l0x_api_core.c **** 				VL53L0X_REG_PRE_RANGE_CONFIG_VALID_PHASE_LOW,
 2810              		.loc 1 892 13 is_stmt 0 view .LVU971
 2811 0086 0822     		movs	r2, #8
 2812 0088 5621     		movs	r1, #86
 2813 008a 2046     		mov	r0, r4
 2814 008c FFF7FEFF 		bl	VL53L0X_WrByte
 2815              	.LVL440:
 892:Core/Src/vl53l0x_api_core.c **** 				VL53L0X_REG_PRE_RANGE_CONFIG_VALID_PHASE_LOW,
 2816              		.loc 1 892 13 view .LVU972
 2817 0090 0DE0     		b	.L129
 2818              	.LVL441:
ARM GAS  C:\Users\anmh1\AppData\Local\Temp\ccrmGbOb.s 			page 76


 2819              	.L158:
 896:Core/Src/vl53l0x_api_core.c **** 
 897:Core/Src/vl53l0x_api_core.c **** 			Status = VL53L0X_WrByte(Dev,
 2820              		.loc 1 897 4 is_stmt 1 view .LVU973
 2821              		.loc 1 897 13 is_stmt 0 view .LVU974
 2822 0092 5022     		movs	r2, #80
 2823              	.LVL442:
 2824              		.loc 1 897 13 view .LVU975
 2825 0094 5721     		movs	r1, #87
 2826              	.LVL443:
 2827              		.loc 1 897 13 view .LVU976
 2828 0096 2046     		mov	r0, r4
 2829              	.LVL444:
 2830              		.loc 1 897 13 view .LVU977
 2831 0098 FFF7FEFF 		bl	VL53L0X_WrByte
 2832              	.LVL445:
 898:Core/Src/vl53l0x_api_core.c **** 				VL53L0X_REG_PRE_RANGE_CONFIG_VALID_PHASE_HIGH,
 899:Core/Src/vl53l0x_api_core.c **** 				0x50);
 900:Core/Src/vl53l0x_api_core.c **** 			Status = VL53L0X_WrByte(Dev,
 2833              		.loc 1 900 4 is_stmt 1 view .LVU978
 2834              		.loc 1 900 13 is_stmt 0 view .LVU979
 2835 009c 0822     		movs	r2, #8
 2836 009e 5621     		movs	r1, #86
 2837 00a0 2046     		mov	r0, r4
 2838 00a2 FFF7FEFF 		bl	VL53L0X_WrByte
 2839              	.LVL446:
 2840              		.loc 1 900 13 view .LVU980
 2841 00a6 02E0     		b	.L129
 2842              	.LVL447:
 2843              	.L127:
 901:Core/Src/vl53l0x_api_core.c **** 				VL53L0X_REG_PRE_RANGE_CONFIG_VALID_PHASE_LOW,
 902:Core/Src/vl53l0x_api_core.c **** 				0x08);
 903:Core/Src/vl53l0x_api_core.c **** 		}
 904:Core/Src/vl53l0x_api_core.c **** 	} else if (VcselPeriodType == VL53L0X_VCSEL_PERIOD_FINAL_RANGE) {
 2844              		.loc 1 904 9 is_stmt 1 view .LVU981
 2845              		.loc 1 904 12 is_stmt 0 view .LVU982
 2846 00a8 012E     		cmp	r6, #1
 2847 00aa 10D0     		beq	.L159
 2848 00ac 0020     		movs	r0, #0
 2849              	.LVL448:
 2850              	.L129:
 905:Core/Src/vl53l0x_api_core.c **** 
 906:Core/Src/vl53l0x_api_core.c **** 		if (VCSELPulsePeriodPCLK == 8) {
 907:Core/Src/vl53l0x_api_core.c **** 
 908:Core/Src/vl53l0x_api_core.c **** 			Status = VL53L0X_WrByte(Dev,
 909:Core/Src/vl53l0x_api_core.c **** 				VL53L0X_REG_FINAL_RANGE_CONFIG_VALID_PHASE_HIGH,
 910:Core/Src/vl53l0x_api_core.c **** 				0x10);
 911:Core/Src/vl53l0x_api_core.c **** 			Status = VL53L0X_WrByte(Dev,
 912:Core/Src/vl53l0x_api_core.c **** 				VL53L0X_REG_FINAL_RANGE_CONFIG_VALID_PHASE_LOW,
 913:Core/Src/vl53l0x_api_core.c **** 				0x08);
 914:Core/Src/vl53l0x_api_core.c **** 
 915:Core/Src/vl53l0x_api_core.c **** 			Status |= VL53L0X_WrByte(Dev,
 916:Core/Src/vl53l0x_api_core.c **** 				VL53L0X_REG_GLOBAL_CONFIG_VCSEL_WIDTH, 0x02);
 917:Core/Src/vl53l0x_api_core.c **** 			Status |= VL53L0X_WrByte(Dev,
 918:Core/Src/vl53l0x_api_core.c **** 				VL53L0X_REG_ALGO_PHASECAL_CONFIG_TIMEOUT, 0x0C);
 919:Core/Src/vl53l0x_api_core.c **** 
 920:Core/Src/vl53l0x_api_core.c **** 			Status |= VL53L0X_WrByte(Dev, 0xff, 0x01);
ARM GAS  C:\Users\anmh1\AppData\Local\Temp\ccrmGbOb.s 			page 77


 921:Core/Src/vl53l0x_api_core.c **** 			Status |= VL53L0X_WrByte(Dev,
 922:Core/Src/vl53l0x_api_core.c **** 				VL53L0X_REG_ALGO_PHASECAL_LIM,
 923:Core/Src/vl53l0x_api_core.c **** 				0x30);
 924:Core/Src/vl53l0x_api_core.c **** 			Status |= VL53L0X_WrByte(Dev, 0xff, 0x00);
 925:Core/Src/vl53l0x_api_core.c **** 		} else if (VCSELPulsePeriodPCLK == 10) {
 926:Core/Src/vl53l0x_api_core.c **** 
 927:Core/Src/vl53l0x_api_core.c **** 			Status = VL53L0X_WrByte(Dev,
 928:Core/Src/vl53l0x_api_core.c **** 				VL53L0X_REG_FINAL_RANGE_CONFIG_VALID_PHASE_HIGH,
 929:Core/Src/vl53l0x_api_core.c **** 				0x28);
 930:Core/Src/vl53l0x_api_core.c **** 			Status = VL53L0X_WrByte(Dev,
 931:Core/Src/vl53l0x_api_core.c **** 				VL53L0X_REG_FINAL_RANGE_CONFIG_VALID_PHASE_LOW,
 932:Core/Src/vl53l0x_api_core.c **** 				0x08);
 933:Core/Src/vl53l0x_api_core.c **** 
 934:Core/Src/vl53l0x_api_core.c **** 			Status |= VL53L0X_WrByte(Dev,
 935:Core/Src/vl53l0x_api_core.c **** 				VL53L0X_REG_GLOBAL_CONFIG_VCSEL_WIDTH, 0x03);
 936:Core/Src/vl53l0x_api_core.c **** 			Status |= VL53L0X_WrByte(Dev,
 937:Core/Src/vl53l0x_api_core.c **** 				VL53L0X_REG_ALGO_PHASECAL_CONFIG_TIMEOUT, 0x09);
 938:Core/Src/vl53l0x_api_core.c **** 
 939:Core/Src/vl53l0x_api_core.c **** 			Status |= VL53L0X_WrByte(Dev, 0xff, 0x01);
 940:Core/Src/vl53l0x_api_core.c **** 			Status |= VL53L0X_WrByte(Dev,
 941:Core/Src/vl53l0x_api_core.c **** 				VL53L0X_REG_ALGO_PHASECAL_LIM,
 942:Core/Src/vl53l0x_api_core.c **** 				0x20);
 943:Core/Src/vl53l0x_api_core.c **** 			Status |= VL53L0X_WrByte(Dev, 0xff, 0x00);
 944:Core/Src/vl53l0x_api_core.c **** 		} else if (VCSELPulsePeriodPCLK == 12) {
 945:Core/Src/vl53l0x_api_core.c **** 
 946:Core/Src/vl53l0x_api_core.c **** 			Status = VL53L0X_WrByte(Dev,
 947:Core/Src/vl53l0x_api_core.c **** 				VL53L0X_REG_FINAL_RANGE_CONFIG_VALID_PHASE_HIGH,
 948:Core/Src/vl53l0x_api_core.c **** 				0x38);
 949:Core/Src/vl53l0x_api_core.c **** 			Status = VL53L0X_WrByte(Dev,
 950:Core/Src/vl53l0x_api_core.c **** 				VL53L0X_REG_FINAL_RANGE_CONFIG_VALID_PHASE_LOW,
 951:Core/Src/vl53l0x_api_core.c **** 				0x08);
 952:Core/Src/vl53l0x_api_core.c **** 
 953:Core/Src/vl53l0x_api_core.c **** 			Status |= VL53L0X_WrByte(Dev,
 954:Core/Src/vl53l0x_api_core.c **** 				VL53L0X_REG_GLOBAL_CONFIG_VCSEL_WIDTH, 0x03);
 955:Core/Src/vl53l0x_api_core.c **** 			Status |= VL53L0X_WrByte(Dev,
 956:Core/Src/vl53l0x_api_core.c **** 				VL53L0X_REG_ALGO_PHASECAL_CONFIG_TIMEOUT, 0x08);
 957:Core/Src/vl53l0x_api_core.c **** 
 958:Core/Src/vl53l0x_api_core.c **** 			Status |= VL53L0X_WrByte(Dev, 0xff, 0x01);
 959:Core/Src/vl53l0x_api_core.c **** 			Status |= VL53L0X_WrByte(Dev,
 960:Core/Src/vl53l0x_api_core.c **** 				VL53L0X_REG_ALGO_PHASECAL_LIM,
 961:Core/Src/vl53l0x_api_core.c **** 				0x20);
 962:Core/Src/vl53l0x_api_core.c **** 			Status |= VL53L0X_WrByte(Dev, 0xff, 0x00);
 963:Core/Src/vl53l0x_api_core.c **** 		} else if (VCSELPulsePeriodPCLK == 14) {
 964:Core/Src/vl53l0x_api_core.c **** 
 965:Core/Src/vl53l0x_api_core.c **** 			Status = VL53L0X_WrByte(Dev,
 966:Core/Src/vl53l0x_api_core.c **** 				VL53L0X_REG_FINAL_RANGE_CONFIG_VALID_PHASE_HIGH,
 967:Core/Src/vl53l0x_api_core.c **** 				0x048);
 968:Core/Src/vl53l0x_api_core.c **** 			Status = VL53L0X_WrByte(Dev,
 969:Core/Src/vl53l0x_api_core.c **** 				VL53L0X_REG_FINAL_RANGE_CONFIG_VALID_PHASE_LOW,
 970:Core/Src/vl53l0x_api_core.c **** 				0x08);
 971:Core/Src/vl53l0x_api_core.c **** 
 972:Core/Src/vl53l0x_api_core.c **** 			Status |= VL53L0X_WrByte(Dev,
 973:Core/Src/vl53l0x_api_core.c **** 				VL53L0X_REG_GLOBAL_CONFIG_VCSEL_WIDTH, 0x03);
 974:Core/Src/vl53l0x_api_core.c **** 			Status |= VL53L0X_WrByte(Dev,
 975:Core/Src/vl53l0x_api_core.c **** 				VL53L0X_REG_ALGO_PHASECAL_CONFIG_TIMEOUT, 0x07);
 976:Core/Src/vl53l0x_api_core.c **** 
 977:Core/Src/vl53l0x_api_core.c **** 			Status |= VL53L0X_WrByte(Dev, 0xff, 0x01);
ARM GAS  C:\Users\anmh1\AppData\Local\Temp\ccrmGbOb.s 			page 78


 978:Core/Src/vl53l0x_api_core.c **** 			Status |= VL53L0X_WrByte(Dev,
 979:Core/Src/vl53l0x_api_core.c **** 				VL53L0X_REG_ALGO_PHASECAL_LIM,
 980:Core/Src/vl53l0x_api_core.c **** 				0x20);
 981:Core/Src/vl53l0x_api_core.c **** 			Status |= VL53L0X_WrByte(Dev, 0xff, 0x00);
 982:Core/Src/vl53l0x_api_core.c **** 		}
 983:Core/Src/vl53l0x_api_core.c **** 	}
 984:Core/Src/vl53l0x_api_core.c **** 
 985:Core/Src/vl53l0x_api_core.c **** 
 986:Core/Src/vl53l0x_api_core.c **** 	/* Re-calculate and apply timeouts, in macro periods */
 987:Core/Src/vl53l0x_api_core.c **** 
 988:Core/Src/vl53l0x_api_core.c **** 	if (Status == VL53L0X_ERROR_NONE) {
 2851              		.loc 1 988 2 is_stmt 1 view .LVU983
 2852              		.loc 1 988 5 is_stmt 0 view .LVU984
 2853 00ae 0028     		cmp	r0, #0
 2854 00b0 40F0DF80 		bne	.L135
 989:Core/Src/vl53l0x_api_core.c **** 		vcsel_period_reg = VL53L0X_encode_vcsel_period((uint8_t)
 2855              		.loc 1 989 3 is_stmt 1 view .LVU985
 2856              		.loc 1 989 22 is_stmt 0 view .LVU986
 2857 00b4 2846     		mov	r0, r5
 2858              	.LVL449:
 2859              		.loc 1 989 22 view .LVU987
 2860 00b6 FFF7FEFF 		bl	VL53L0X_encode_vcsel_period
 2861              	.LVL450:
 2862 00ba 0746     		mov	r7, r0
 2863              	.LVL451:
 990:Core/Src/vl53l0x_api_core.c **** 			VCSELPulsePeriodPCLK);
 991:Core/Src/vl53l0x_api_core.c **** 
 992:Core/Src/vl53l0x_api_core.c **** 		/* When the VCSEL period for the pre or final range is changed,
 993:Core/Src/vl53l0x_api_core.c **** 		* the corresponding timeout must be read from the device using
 994:Core/Src/vl53l0x_api_core.c **** 		* the current VCSEL period, then the new VCSEL period can be
 995:Core/Src/vl53l0x_api_core.c **** 		* applied. The timeout then must be written back to the device
 996:Core/Src/vl53l0x_api_core.c **** 		* using the new VCSEL period.
 997:Core/Src/vl53l0x_api_core.c **** 		*
 998:Core/Src/vl53l0x_api_core.c **** 		* For the MSRC timeout, the same applies - this timeout being
 999:Core/Src/vl53l0x_api_core.c **** 		* dependant on the pre-range vcsel period.
1000:Core/Src/vl53l0x_api_core.c **** 		*/
1001:Core/Src/vl53l0x_api_core.c **** 		switch (VcselPeriodType) {
 2864              		.loc 1 1001 3 is_stmt 1 view .LVU988
 2865 00bc 002E     		cmp	r6, #0
 2866 00be 00F0CD80 		beq	.L136
 2867 00c2 012E     		cmp	r6, #1
 2868 00c4 00F0F180 		beq	.L137
 2869 00c8 6FF00300 		mvn	r0, #3
 2870 00cc D2E0     		b	.L138
 2871              	.LVL452:
 2872              	.L159:
 906:Core/Src/vl53l0x_api_core.c **** 
 2873              		.loc 1 906 3 view .LVU989
 906:Core/Src/vl53l0x_api_core.c **** 
 2874              		.loc 1 906 6 is_stmt 0 view .LVU990
 2875 00ce 082D     		cmp	r5, #8
 2876 00d0 08D0     		beq	.L160
 925:Core/Src/vl53l0x_api_core.c **** 
 2877              		.loc 1 925 10 is_stmt 1 view .LVU991
 925:Core/Src/vl53l0x_api_core.c **** 
 2878              		.loc 1 925 13 is_stmt 0 view .LVU992
 2879 00d2 0A2D     		cmp	r5, #10
ARM GAS  C:\Users\anmh1\AppData\Local\Temp\ccrmGbOb.s 			page 79


 2880 00d4 35D0     		beq	.L161
 944:Core/Src/vl53l0x_api_core.c **** 
 2881              		.loc 1 944 10 is_stmt 1 view .LVU993
 944:Core/Src/vl53l0x_api_core.c **** 
 2882              		.loc 1 944 13 is_stmt 0 view .LVU994
 2883 00d6 0C2D     		cmp	r5, #12
 2884 00d8 62D0     		beq	.L162
 963:Core/Src/vl53l0x_api_core.c **** 
 2885              		.loc 1 963 10 is_stmt 1 view .LVU995
 963:Core/Src/vl53l0x_api_core.c **** 
 2886              		.loc 1 963 13 is_stmt 0 view .LVU996
 2887 00da 0E2D     		cmp	r5, #14
 2888 00dc 00F08F80 		beq	.L163
 2889 00e0 0020     		movs	r0, #0
 2890              	.LVL453:
 963:Core/Src/vl53l0x_api_core.c **** 
 2891              		.loc 1 963 13 view .LVU997
 2892 00e2 E4E7     		b	.L129
 2893              	.LVL454:
 2894              	.L160:
 908:Core/Src/vl53l0x_api_core.c **** 				VL53L0X_REG_FINAL_RANGE_CONFIG_VALID_PHASE_HIGH,
 2895              		.loc 1 908 4 is_stmt 1 view .LVU998
 908:Core/Src/vl53l0x_api_core.c **** 				VL53L0X_REG_FINAL_RANGE_CONFIG_VALID_PHASE_HIGH,
 2896              		.loc 1 908 13 is_stmt 0 view .LVU999
 2897 00e4 1022     		movs	r2, #16
 2898              	.LVL455:
 908:Core/Src/vl53l0x_api_core.c **** 				VL53L0X_REG_FINAL_RANGE_CONFIG_VALID_PHASE_HIGH,
 2899              		.loc 1 908 13 view .LVU1000
 2900 00e6 4821     		movs	r1, #72
 2901              	.LVL456:
 908:Core/Src/vl53l0x_api_core.c **** 				VL53L0X_REG_FINAL_RANGE_CONFIG_VALID_PHASE_HIGH,
 2902              		.loc 1 908 13 view .LVU1001
 2903 00e8 2046     		mov	r0, r4
 2904              	.LVL457:
 908:Core/Src/vl53l0x_api_core.c **** 				VL53L0X_REG_FINAL_RANGE_CONFIG_VALID_PHASE_HIGH,
 2905              		.loc 1 908 13 view .LVU1002
 2906 00ea FFF7FEFF 		bl	VL53L0X_WrByte
 2907              	.LVL458:
 911:Core/Src/vl53l0x_api_core.c **** 				VL53L0X_REG_FINAL_RANGE_CONFIG_VALID_PHASE_LOW,
 2908              		.loc 1 911 4 is_stmt 1 view .LVU1003
 911:Core/Src/vl53l0x_api_core.c **** 				VL53L0X_REG_FINAL_RANGE_CONFIG_VALID_PHASE_LOW,
 2909              		.loc 1 911 13 is_stmt 0 view .LVU1004
 2910 00ee 0822     		movs	r2, #8
 2911 00f0 4721     		movs	r1, #71
 2912 00f2 2046     		mov	r0, r4
 2913 00f4 FFF7FEFF 		bl	VL53L0X_WrByte
 2914              	.LVL459:
 2915 00f8 0746     		mov	r7, r0
 2916              	.LVL460:
 915:Core/Src/vl53l0x_api_core.c **** 				VL53L0X_REG_GLOBAL_CONFIG_VCSEL_WIDTH, 0x02);
 2917              		.loc 1 915 4 is_stmt 1 view .LVU1005
 915:Core/Src/vl53l0x_api_core.c **** 				VL53L0X_REG_GLOBAL_CONFIG_VCSEL_WIDTH, 0x02);
 2918              		.loc 1 915 14 is_stmt 0 view .LVU1006
 2919 00fa 0222     		movs	r2, #2
 2920 00fc 3221     		movs	r1, #50
 2921 00fe 2046     		mov	r0, r4
 2922 0100 FFF7FEFF 		bl	VL53L0X_WrByte
ARM GAS  C:\Users\anmh1\AppData\Local\Temp\ccrmGbOb.s 			page 80


 2923              	.LVL461:
 915:Core/Src/vl53l0x_api_core.c **** 				VL53L0X_REG_GLOBAL_CONFIG_VCSEL_WIDTH, 0x02);
 2924              		.loc 1 915 11 view .LVU1007
 2925 0104 0743     		orrs	r7, r7, r0
 2926              	.LVL462:
 915:Core/Src/vl53l0x_api_core.c **** 				VL53L0X_REG_GLOBAL_CONFIG_VCSEL_WIDTH, 0x02);
 2927              		.loc 1 915 11 view .LVU1008
 2928 0106 7FB2     		sxtb	r7, r7
 2929              	.LVL463:
 917:Core/Src/vl53l0x_api_core.c **** 				VL53L0X_REG_ALGO_PHASECAL_CONFIG_TIMEOUT, 0x0C);
 2930              		.loc 1 917 4 is_stmt 1 view .LVU1009
 917:Core/Src/vl53l0x_api_core.c **** 				VL53L0X_REG_ALGO_PHASECAL_CONFIG_TIMEOUT, 0x0C);
 2931              		.loc 1 917 14 is_stmt 0 view .LVU1010
 2932 0108 0C22     		movs	r2, #12
 2933 010a 3021     		movs	r1, #48
 2934 010c 2046     		mov	r0, r4
 2935 010e FFF7FEFF 		bl	VL53L0X_WrByte
 2936              	.LVL464:
 917:Core/Src/vl53l0x_api_core.c **** 				VL53L0X_REG_ALGO_PHASECAL_CONFIG_TIMEOUT, 0x0C);
 2937              		.loc 1 917 11 view .LVU1011
 2938 0112 0743     		orrs	r7, r7, r0
 2939              	.LVL465:
 917:Core/Src/vl53l0x_api_core.c **** 				VL53L0X_REG_ALGO_PHASECAL_CONFIG_TIMEOUT, 0x0C);
 2940              		.loc 1 917 11 view .LVU1012
 2941 0114 7FB2     		sxtb	r7, r7
 2942              	.LVL466:
 920:Core/Src/vl53l0x_api_core.c **** 			Status |= VL53L0X_WrByte(Dev,
 2943              		.loc 1 920 4 is_stmt 1 view .LVU1013
 920:Core/Src/vl53l0x_api_core.c **** 			Status |= VL53L0X_WrByte(Dev,
 2944              		.loc 1 920 14 is_stmt 0 view .LVU1014
 2945 0116 0122     		movs	r2, #1
 2946 0118 FF21     		movs	r1, #255
 2947 011a 2046     		mov	r0, r4
 2948 011c FFF7FEFF 		bl	VL53L0X_WrByte
 2949              	.LVL467:
 920:Core/Src/vl53l0x_api_core.c **** 			Status |= VL53L0X_WrByte(Dev,
 2950              		.loc 1 920 11 view .LVU1015
 2951 0120 0743     		orrs	r7, r7, r0
 2952              	.LVL468:
 920:Core/Src/vl53l0x_api_core.c **** 			Status |= VL53L0X_WrByte(Dev,
 2953              		.loc 1 920 11 view .LVU1016
 2954 0122 7FB2     		sxtb	r7, r7
 2955              	.LVL469:
 921:Core/Src/vl53l0x_api_core.c **** 				VL53L0X_REG_ALGO_PHASECAL_LIM,
 2956              		.loc 1 921 4 is_stmt 1 view .LVU1017
 921:Core/Src/vl53l0x_api_core.c **** 				VL53L0X_REG_ALGO_PHASECAL_LIM,
 2957              		.loc 1 921 14 is_stmt 0 view .LVU1018
 2958 0124 3022     		movs	r2, #48
 2959 0126 1146     		mov	r1, r2
 2960 0128 2046     		mov	r0, r4
 2961 012a FFF7FEFF 		bl	VL53L0X_WrByte
 2962              	.LVL470:
 921:Core/Src/vl53l0x_api_core.c **** 				VL53L0X_REG_ALGO_PHASECAL_LIM,
 2963              		.loc 1 921 11 view .LVU1019
 2964 012e 0743     		orrs	r7, r7, r0
 2965              	.LVL471:
 921:Core/Src/vl53l0x_api_core.c **** 				VL53L0X_REG_ALGO_PHASECAL_LIM,
ARM GAS  C:\Users\anmh1\AppData\Local\Temp\ccrmGbOb.s 			page 81


 2966              		.loc 1 921 11 view .LVU1020
 2967 0130 7FB2     		sxtb	r7, r7
 2968              	.LVL472:
 924:Core/Src/vl53l0x_api_core.c **** 		} else if (VCSELPulsePeriodPCLK == 10) {
 2969              		.loc 1 924 4 is_stmt 1 view .LVU1021
 924:Core/Src/vl53l0x_api_core.c **** 		} else if (VCSELPulsePeriodPCLK == 10) {
 2970              		.loc 1 924 14 is_stmt 0 view .LVU1022
 2971 0132 0022     		movs	r2, #0
 2972 0134 FF21     		movs	r1, #255
 2973 0136 2046     		mov	r0, r4
 2974 0138 FFF7FEFF 		bl	VL53L0X_WrByte
 2975              	.LVL473:
 924:Core/Src/vl53l0x_api_core.c **** 		} else if (VCSELPulsePeriodPCLK == 10) {
 2976              		.loc 1 924 11 view .LVU1023
 2977 013c 3843     		orrs	r0, r0, r7
 2978 013e 40B2     		sxtb	r0, r0
 2979              	.LVL474:
 924:Core/Src/vl53l0x_api_core.c **** 		} else if (VCSELPulsePeriodPCLK == 10) {
 2980              		.loc 1 924 11 view .LVU1024
 2981 0140 B5E7     		b	.L129
 2982              	.LVL475:
 2983              	.L161:
 927:Core/Src/vl53l0x_api_core.c **** 				VL53L0X_REG_FINAL_RANGE_CONFIG_VALID_PHASE_HIGH,
 2984              		.loc 1 927 4 is_stmt 1 view .LVU1025
 927:Core/Src/vl53l0x_api_core.c **** 				VL53L0X_REG_FINAL_RANGE_CONFIG_VALID_PHASE_HIGH,
 2985              		.loc 1 927 13 is_stmt 0 view .LVU1026
 2986 0142 2822     		movs	r2, #40
 2987              	.LVL476:
 927:Core/Src/vl53l0x_api_core.c **** 				VL53L0X_REG_FINAL_RANGE_CONFIG_VALID_PHASE_HIGH,
 2988              		.loc 1 927 13 view .LVU1027
 2989 0144 4821     		movs	r1, #72
 2990              	.LVL477:
 927:Core/Src/vl53l0x_api_core.c **** 				VL53L0X_REG_FINAL_RANGE_CONFIG_VALID_PHASE_HIGH,
 2991              		.loc 1 927 13 view .LVU1028
 2992 0146 2046     		mov	r0, r4
 2993              	.LVL478:
 927:Core/Src/vl53l0x_api_core.c **** 				VL53L0X_REG_FINAL_RANGE_CONFIG_VALID_PHASE_HIGH,
 2994              		.loc 1 927 13 view .LVU1029
 2995 0148 FFF7FEFF 		bl	VL53L0X_WrByte
 2996              	.LVL479:
 930:Core/Src/vl53l0x_api_core.c **** 				VL53L0X_REG_FINAL_RANGE_CONFIG_VALID_PHASE_LOW,
 2997              		.loc 1 930 4 is_stmt 1 view .LVU1030
 930:Core/Src/vl53l0x_api_core.c **** 				VL53L0X_REG_FINAL_RANGE_CONFIG_VALID_PHASE_LOW,
 2998              		.loc 1 930 13 is_stmt 0 view .LVU1031
 2999 014c 0822     		movs	r2, #8
 3000 014e 4721     		movs	r1, #71
 3001 0150 2046     		mov	r0, r4
 3002 0152 FFF7FEFF 		bl	VL53L0X_WrByte
 3003              	.LVL480:
 3004 0156 0746     		mov	r7, r0
 3005              	.LVL481:
 934:Core/Src/vl53l0x_api_core.c **** 				VL53L0X_REG_GLOBAL_CONFIG_VCSEL_WIDTH, 0x03);
 3006              		.loc 1 934 4 is_stmt 1 view .LVU1032
 934:Core/Src/vl53l0x_api_core.c **** 				VL53L0X_REG_GLOBAL_CONFIG_VCSEL_WIDTH, 0x03);
 3007              		.loc 1 934 14 is_stmt 0 view .LVU1033
 3008 0158 0322     		movs	r2, #3
 3009 015a 3221     		movs	r1, #50
ARM GAS  C:\Users\anmh1\AppData\Local\Temp\ccrmGbOb.s 			page 82


 3010 015c 2046     		mov	r0, r4
 3011 015e FFF7FEFF 		bl	VL53L0X_WrByte
 3012              	.LVL482:
 934:Core/Src/vl53l0x_api_core.c **** 				VL53L0X_REG_GLOBAL_CONFIG_VCSEL_WIDTH, 0x03);
 3013              		.loc 1 934 11 view .LVU1034
 3014 0162 0743     		orrs	r7, r7, r0
 3015              	.LVL483:
 934:Core/Src/vl53l0x_api_core.c **** 				VL53L0X_REG_GLOBAL_CONFIG_VCSEL_WIDTH, 0x03);
 3016              		.loc 1 934 11 view .LVU1035
 3017 0164 7FB2     		sxtb	r7, r7
 3018              	.LVL484:
 936:Core/Src/vl53l0x_api_core.c **** 				VL53L0X_REG_ALGO_PHASECAL_CONFIG_TIMEOUT, 0x09);
 3019              		.loc 1 936 4 is_stmt 1 view .LVU1036
 936:Core/Src/vl53l0x_api_core.c **** 				VL53L0X_REG_ALGO_PHASECAL_CONFIG_TIMEOUT, 0x09);
 3020              		.loc 1 936 14 is_stmt 0 view .LVU1037
 3021 0166 0922     		movs	r2, #9
 3022 0168 3021     		movs	r1, #48
 3023 016a 2046     		mov	r0, r4
 3024 016c FFF7FEFF 		bl	VL53L0X_WrByte
 3025              	.LVL485:
 936:Core/Src/vl53l0x_api_core.c **** 				VL53L0X_REG_ALGO_PHASECAL_CONFIG_TIMEOUT, 0x09);
 3026              		.loc 1 936 11 view .LVU1038
 3027 0170 0743     		orrs	r7, r7, r0
 3028              	.LVL486:
 936:Core/Src/vl53l0x_api_core.c **** 				VL53L0X_REG_ALGO_PHASECAL_CONFIG_TIMEOUT, 0x09);
 3029              		.loc 1 936 11 view .LVU1039
 3030 0172 7FB2     		sxtb	r7, r7
 3031              	.LVL487:
 939:Core/Src/vl53l0x_api_core.c **** 			Status |= VL53L0X_WrByte(Dev,
 3032              		.loc 1 939 4 is_stmt 1 view .LVU1040
 939:Core/Src/vl53l0x_api_core.c **** 			Status |= VL53L0X_WrByte(Dev,
 3033              		.loc 1 939 14 is_stmt 0 view .LVU1041
 3034 0174 0122     		movs	r2, #1
 3035 0176 FF21     		movs	r1, #255
 3036 0178 2046     		mov	r0, r4
 3037 017a FFF7FEFF 		bl	VL53L0X_WrByte
 3038              	.LVL488:
 939:Core/Src/vl53l0x_api_core.c **** 			Status |= VL53L0X_WrByte(Dev,
 3039              		.loc 1 939 11 view .LVU1042
 3040 017e 0743     		orrs	r7, r7, r0
 3041              	.LVL489:
 939:Core/Src/vl53l0x_api_core.c **** 			Status |= VL53L0X_WrByte(Dev,
 3042              		.loc 1 939 11 view .LVU1043
 3043 0180 7FB2     		sxtb	r7, r7
 3044              	.LVL490:
 940:Core/Src/vl53l0x_api_core.c **** 				VL53L0X_REG_ALGO_PHASECAL_LIM,
 3045              		.loc 1 940 4 is_stmt 1 view .LVU1044
 940:Core/Src/vl53l0x_api_core.c **** 				VL53L0X_REG_ALGO_PHASECAL_LIM,
 3046              		.loc 1 940 14 is_stmt 0 view .LVU1045
 3047 0182 2022     		movs	r2, #32
 3048 0184 3021     		movs	r1, #48
 3049 0186 2046     		mov	r0, r4
 3050 0188 FFF7FEFF 		bl	VL53L0X_WrByte
 3051              	.LVL491:
 940:Core/Src/vl53l0x_api_core.c **** 				VL53L0X_REG_ALGO_PHASECAL_LIM,
 3052              		.loc 1 940 11 view .LVU1046
 3053 018c 0743     		orrs	r7, r7, r0
ARM GAS  C:\Users\anmh1\AppData\Local\Temp\ccrmGbOb.s 			page 83


 3054              	.LVL492:
 940:Core/Src/vl53l0x_api_core.c **** 				VL53L0X_REG_ALGO_PHASECAL_LIM,
 3055              		.loc 1 940 11 view .LVU1047
 3056 018e 7FB2     		sxtb	r7, r7
 3057              	.LVL493:
 943:Core/Src/vl53l0x_api_core.c **** 		} else if (VCSELPulsePeriodPCLK == 12) {
 3058              		.loc 1 943 4 is_stmt 1 view .LVU1048
 943:Core/Src/vl53l0x_api_core.c **** 		} else if (VCSELPulsePeriodPCLK == 12) {
 3059              		.loc 1 943 14 is_stmt 0 view .LVU1049
 3060 0190 0022     		movs	r2, #0
 3061 0192 FF21     		movs	r1, #255
 3062 0194 2046     		mov	r0, r4
 3063 0196 FFF7FEFF 		bl	VL53L0X_WrByte
 3064              	.LVL494:
 943:Core/Src/vl53l0x_api_core.c **** 		} else if (VCSELPulsePeriodPCLK == 12) {
 3065              		.loc 1 943 11 view .LVU1050
 3066 019a 3843     		orrs	r0, r0, r7
 3067 019c 40B2     		sxtb	r0, r0
 3068              	.LVL495:
 943:Core/Src/vl53l0x_api_core.c **** 		} else if (VCSELPulsePeriodPCLK == 12) {
 3069              		.loc 1 943 11 view .LVU1051
 3070 019e 86E7     		b	.L129
 3071              	.LVL496:
 3072              	.L162:
 946:Core/Src/vl53l0x_api_core.c **** 				VL53L0X_REG_FINAL_RANGE_CONFIG_VALID_PHASE_HIGH,
 3073              		.loc 1 946 4 is_stmt 1 view .LVU1052
 946:Core/Src/vl53l0x_api_core.c **** 				VL53L0X_REG_FINAL_RANGE_CONFIG_VALID_PHASE_HIGH,
 3074              		.loc 1 946 13 is_stmt 0 view .LVU1053
 3075 01a0 3822     		movs	r2, #56
 3076              	.LVL497:
 946:Core/Src/vl53l0x_api_core.c **** 				VL53L0X_REG_FINAL_RANGE_CONFIG_VALID_PHASE_HIGH,
 3077              		.loc 1 946 13 view .LVU1054
 3078 01a2 4821     		movs	r1, #72
 3079              	.LVL498:
 946:Core/Src/vl53l0x_api_core.c **** 				VL53L0X_REG_FINAL_RANGE_CONFIG_VALID_PHASE_HIGH,
 3080              		.loc 1 946 13 view .LVU1055
 3081 01a4 2046     		mov	r0, r4
 3082              	.LVL499:
 946:Core/Src/vl53l0x_api_core.c **** 				VL53L0X_REG_FINAL_RANGE_CONFIG_VALID_PHASE_HIGH,
 3083              		.loc 1 946 13 view .LVU1056
 3084 01a6 FFF7FEFF 		bl	VL53L0X_WrByte
 3085              	.LVL500:
 949:Core/Src/vl53l0x_api_core.c **** 				VL53L0X_REG_FINAL_RANGE_CONFIG_VALID_PHASE_LOW,
 3086              		.loc 1 949 4 is_stmt 1 view .LVU1057
 949:Core/Src/vl53l0x_api_core.c **** 				VL53L0X_REG_FINAL_RANGE_CONFIG_VALID_PHASE_LOW,
 3087              		.loc 1 949 13 is_stmt 0 view .LVU1058
 3088 01aa 0822     		movs	r2, #8
 3089 01ac 4721     		movs	r1, #71
 3090 01ae 2046     		mov	r0, r4
 3091 01b0 FFF7FEFF 		bl	VL53L0X_WrByte
 3092              	.LVL501:
 3093 01b4 0746     		mov	r7, r0
 3094              	.LVL502:
 953:Core/Src/vl53l0x_api_core.c **** 				VL53L0X_REG_GLOBAL_CONFIG_VCSEL_WIDTH, 0x03);
 3095              		.loc 1 953 4 is_stmt 1 view .LVU1059
 953:Core/Src/vl53l0x_api_core.c **** 				VL53L0X_REG_GLOBAL_CONFIG_VCSEL_WIDTH, 0x03);
 3096              		.loc 1 953 14 is_stmt 0 view .LVU1060
ARM GAS  C:\Users\anmh1\AppData\Local\Temp\ccrmGbOb.s 			page 84


 3097 01b6 0322     		movs	r2, #3
 3098 01b8 3221     		movs	r1, #50
 3099 01ba 2046     		mov	r0, r4
 3100 01bc FFF7FEFF 		bl	VL53L0X_WrByte
 3101              	.LVL503:
 953:Core/Src/vl53l0x_api_core.c **** 				VL53L0X_REG_GLOBAL_CONFIG_VCSEL_WIDTH, 0x03);
 3102              		.loc 1 953 11 view .LVU1061
 3103 01c0 0743     		orrs	r7, r7, r0
 3104              	.LVL504:
 953:Core/Src/vl53l0x_api_core.c **** 				VL53L0X_REG_GLOBAL_CONFIG_VCSEL_WIDTH, 0x03);
 3105              		.loc 1 953 11 view .LVU1062
 3106 01c2 7FB2     		sxtb	r7, r7
 3107              	.LVL505:
 955:Core/Src/vl53l0x_api_core.c **** 				VL53L0X_REG_ALGO_PHASECAL_CONFIG_TIMEOUT, 0x08);
 3108              		.loc 1 955 4 is_stmt 1 view .LVU1063
 955:Core/Src/vl53l0x_api_core.c **** 				VL53L0X_REG_ALGO_PHASECAL_CONFIG_TIMEOUT, 0x08);
 3109              		.loc 1 955 14 is_stmt 0 view .LVU1064
 3110 01c4 0822     		movs	r2, #8
 3111 01c6 3021     		movs	r1, #48
 3112 01c8 2046     		mov	r0, r4
 3113 01ca FFF7FEFF 		bl	VL53L0X_WrByte
 3114              	.LVL506:
 955:Core/Src/vl53l0x_api_core.c **** 				VL53L0X_REG_ALGO_PHASECAL_CONFIG_TIMEOUT, 0x08);
 3115              		.loc 1 955 11 view .LVU1065
 3116 01ce 0743     		orrs	r7, r7, r0
 3117              	.LVL507:
 955:Core/Src/vl53l0x_api_core.c **** 				VL53L0X_REG_ALGO_PHASECAL_CONFIG_TIMEOUT, 0x08);
 3118              		.loc 1 955 11 view .LVU1066
 3119 01d0 7FB2     		sxtb	r7, r7
 3120              	.LVL508:
 958:Core/Src/vl53l0x_api_core.c **** 			Status |= VL53L0X_WrByte(Dev,
 3121              		.loc 1 958 4 is_stmt 1 view .LVU1067
 958:Core/Src/vl53l0x_api_core.c **** 			Status |= VL53L0X_WrByte(Dev,
 3122              		.loc 1 958 14 is_stmt 0 view .LVU1068
 3123 01d2 0122     		movs	r2, #1
 3124 01d4 FF21     		movs	r1, #255
 3125 01d6 2046     		mov	r0, r4
 3126 01d8 FFF7FEFF 		bl	VL53L0X_WrByte
 3127              	.LVL509:
 958:Core/Src/vl53l0x_api_core.c **** 			Status |= VL53L0X_WrByte(Dev,
 3128              		.loc 1 958 11 view .LVU1069
 3129 01dc 0743     		orrs	r7, r7, r0
 3130              	.LVL510:
 958:Core/Src/vl53l0x_api_core.c **** 			Status |= VL53L0X_WrByte(Dev,
 3131              		.loc 1 958 11 view .LVU1070
 3132 01de 7FB2     		sxtb	r7, r7
 3133              	.LVL511:
 959:Core/Src/vl53l0x_api_core.c **** 				VL53L0X_REG_ALGO_PHASECAL_LIM,
 3134              		.loc 1 959 4 is_stmt 1 view .LVU1071
 959:Core/Src/vl53l0x_api_core.c **** 				VL53L0X_REG_ALGO_PHASECAL_LIM,
 3135              		.loc 1 959 14 is_stmt 0 view .LVU1072
 3136 01e0 2022     		movs	r2, #32
 3137 01e2 3021     		movs	r1, #48
 3138 01e4 2046     		mov	r0, r4
 3139 01e6 FFF7FEFF 		bl	VL53L0X_WrByte
 3140              	.LVL512:
 959:Core/Src/vl53l0x_api_core.c **** 				VL53L0X_REG_ALGO_PHASECAL_LIM,
ARM GAS  C:\Users\anmh1\AppData\Local\Temp\ccrmGbOb.s 			page 85


 3141              		.loc 1 959 11 view .LVU1073
 3142 01ea 0743     		orrs	r7, r7, r0
 3143              	.LVL513:
 959:Core/Src/vl53l0x_api_core.c **** 				VL53L0X_REG_ALGO_PHASECAL_LIM,
 3144              		.loc 1 959 11 view .LVU1074
 3145 01ec 7FB2     		sxtb	r7, r7
 3146              	.LVL514:
 962:Core/Src/vl53l0x_api_core.c **** 		} else if (VCSELPulsePeriodPCLK == 14) {
 3147              		.loc 1 962 4 is_stmt 1 view .LVU1075
 962:Core/Src/vl53l0x_api_core.c **** 		} else if (VCSELPulsePeriodPCLK == 14) {
 3148              		.loc 1 962 14 is_stmt 0 view .LVU1076
 3149 01ee 0022     		movs	r2, #0
 3150 01f0 FF21     		movs	r1, #255
 3151 01f2 2046     		mov	r0, r4
 3152 01f4 FFF7FEFF 		bl	VL53L0X_WrByte
 3153              	.LVL515:
 962:Core/Src/vl53l0x_api_core.c **** 		} else if (VCSELPulsePeriodPCLK == 14) {
 3154              		.loc 1 962 11 view .LVU1077
 3155 01f8 3843     		orrs	r0, r0, r7
 3156 01fa 40B2     		sxtb	r0, r0
 3157              	.LVL516:
 962:Core/Src/vl53l0x_api_core.c **** 		} else if (VCSELPulsePeriodPCLK == 14) {
 3158              		.loc 1 962 11 view .LVU1078
 3159 01fc 57E7     		b	.L129
 3160              	.LVL517:
 3161              	.L163:
 965:Core/Src/vl53l0x_api_core.c **** 				VL53L0X_REG_FINAL_RANGE_CONFIG_VALID_PHASE_HIGH,
 3162              		.loc 1 965 4 is_stmt 1 view .LVU1079
 965:Core/Src/vl53l0x_api_core.c **** 				VL53L0X_REG_FINAL_RANGE_CONFIG_VALID_PHASE_HIGH,
 3163              		.loc 1 965 13 is_stmt 0 view .LVU1080
 3164 01fe 4822     		movs	r2, #72
 3165              	.LVL518:
 965:Core/Src/vl53l0x_api_core.c **** 				VL53L0X_REG_FINAL_RANGE_CONFIG_VALID_PHASE_HIGH,
 3166              		.loc 1 965 13 view .LVU1081
 3167 0200 1146     		mov	r1, r2
 3168              	.LVL519:
 965:Core/Src/vl53l0x_api_core.c **** 				VL53L0X_REG_FINAL_RANGE_CONFIG_VALID_PHASE_HIGH,
 3169              		.loc 1 965 13 view .LVU1082
 3170 0202 2046     		mov	r0, r4
 3171              	.LVL520:
 965:Core/Src/vl53l0x_api_core.c **** 				VL53L0X_REG_FINAL_RANGE_CONFIG_VALID_PHASE_HIGH,
 3172              		.loc 1 965 13 view .LVU1083
 3173 0204 FFF7FEFF 		bl	VL53L0X_WrByte
 3174              	.LVL521:
 968:Core/Src/vl53l0x_api_core.c **** 				VL53L0X_REG_FINAL_RANGE_CONFIG_VALID_PHASE_LOW,
 3175              		.loc 1 968 4 is_stmt 1 view .LVU1084
 968:Core/Src/vl53l0x_api_core.c **** 				VL53L0X_REG_FINAL_RANGE_CONFIG_VALID_PHASE_LOW,
 3176              		.loc 1 968 13 is_stmt 0 view .LVU1085
 3177 0208 0822     		movs	r2, #8
 3178 020a 4721     		movs	r1, #71
 3179 020c 2046     		mov	r0, r4
