ARM GAS  C:\Users\anmh1\AppData\Local\Temp\ccBPLcM2.s 			page 1


   1              		.cpu cortex-m4
   2              		.eabi_attribute 27, 1
   3              		.eabi_attribute 28, 1
   4              		.eabi_attribute 20, 1
   5              		.eabi_attribute 21, 1
   6              		.eabi_attribute 23, 3
   7              		.eabi_attribute 24, 1
   8              		.eabi_attribute 25, 1
   9              		.eabi_attribute 26, 1
  10              		.eabi_attribute 30, 1
  11              		.eabi_attribute 34, 1
  12              		.eabi_attribute 18, 4
  13              		.file	"vl53l0x_api.c"
  14              		.text
  15              	.Ltext0:
  16              		.cfi_sections	.debug_frame
  17              		.section	.text.VL53L0X_GetVersion,"ax",%progbits
  18              		.align	1
  19              		.global	VL53L0X_GetVersion
  20              		.arch armv7e-m
  21              		.syntax unified
  22              		.thumb
  23              		.thumb_func
  24              		.fpu fpv4-sp-d16
  26              	VL53L0X_GetVersion:
  27              	.LVL0:
  28              	.LFB133:
  29              		.file 1 "Core/Src/vl53l0x_api.c"
   1:Core/Src/vl53l0x_api.c **** /*******************************************************************************
   2:Core/Src/vl53l0x_api.c ****  Copyright © 2016, STMicroelectronics International N.V.
   3:Core/Src/vl53l0x_api.c ****  All rights reserved.
   4:Core/Src/vl53l0x_api.c **** 
   5:Core/Src/vl53l0x_api.c ****  Redistribution and use in source and binary forms, with or without
   6:Core/Src/vl53l0x_api.c ****  modification, are permitted provided that the following conditions are met:
   7:Core/Src/vl53l0x_api.c ****  * Redistributions of source code must retain the above copyright
   8:Core/Src/vl53l0x_api.c ****  notice, this list of conditions and the following disclaimer.
   9:Core/Src/vl53l0x_api.c ****  * Redistributions in binary form must reproduce the above copyright
  10:Core/Src/vl53l0x_api.c ****  notice, this list of conditions and the following disclaimer in the
  11:Core/Src/vl53l0x_api.c ****  documentation and/or other materials provided with the distribution.
  12:Core/Src/vl53l0x_api.c ****  * Neither the name of STMicroelectronics nor the
  13:Core/Src/vl53l0x_api.c ****  names of its contributors may be used to endorse or promote products
  14:Core/Src/vl53l0x_api.c ****  derived from this software without specific prior written permission.
  15:Core/Src/vl53l0x_api.c **** 
  16:Core/Src/vl53l0x_api.c ****  THIS SOFTWARE IS PROVIDED BY THE COPYRIGHT HOLDERS AND CONTRIBUTORS "AS IS" AND
  17:Core/Src/vl53l0x_api.c ****  ANY EXPRESS OR IMPLIED WARRANTIES, INCLUDING, BUT NOT LIMITED TO, THE IMPLIED
  18:Core/Src/vl53l0x_api.c ****  WARRANTIES OF MERCHANTABILITY, FITNESS FOR A PARTICULAR PURPOSE, AND
  19:Core/Src/vl53l0x_api.c ****  NON-INFRINGEMENT OF INTELLECTUAL PROPERTY RIGHTS ARE DISCLAIMED.
  20:Core/Src/vl53l0x_api.c ****  IN NO EVENT SHALL STMICROELECTRONICS INTERNATIONAL N.V. BE LIABLE FOR ANY
  21:Core/Src/vl53l0x_api.c ****  DIRECT, INDIRECT, INCIDENTAL, SPECIAL, EXEMPLARY, OR CONSEQUENTIAL DAMAGES
  22:Core/Src/vl53l0x_api.c ****  (INCLUDING, BUT NOT LIMITED TO, PROCUREMENT OF SUBSTITUTE GOODS OR SERVICES;
  23:Core/Src/vl53l0x_api.c ****  LOSS OF USE, DATA, OR PROFITS; OR BUSINESS INTERRUPTION) HOWEVER CAUSED AND
  24:Core/Src/vl53l0x_api.c ****  ON ANY THEORY OF LIABILITY, WHETHER IN CONTRACT, STRICT LIABILITY, OR TORT
  25:Core/Src/vl53l0x_api.c ****  (INCLUDING NEGLIGENCE OR OTHERWISE) ARISING IN ANY WAY OUT OF THE USE OF THIS
  26:Core/Src/vl53l0x_api.c ****  SOFTWARE, EVEN IF ADVISED OF THE POSSIBILITY OF SUCH DAMAGE.
  27:Core/Src/vl53l0x_api.c ****  ******************************************************************************/
  28:Core/Src/vl53l0x_api.c **** 
  29:Core/Src/vl53l0x_api.c **** #include "vl53l0x_api.h"
ARM GAS  C:\Users\anmh1\AppData\Local\Temp\ccBPLcM2.s 			page 2


  30:Core/Src/vl53l0x_api.c **** #include "vl53l0x_tuning.h"
  31:Core/Src/vl53l0x_api.c **** #include "vl53l0x_interrupt_threshold_settings.h"
  32:Core/Src/vl53l0x_api.c **** #include "vl53l0x_api_core.h"
  33:Core/Src/vl53l0x_api.c **** #include "vl53l0x_api_calibration.h"
  34:Core/Src/vl53l0x_api.c **** #include "vl53l0x_api_strings.h"
  35:Core/Src/vl53l0x_api.c **** 
  36:Core/Src/vl53l0x_api.c **** #ifndef __KERNEL__
  37:Core/Src/vl53l0x_api.c **** #include <stdlib.h>
  38:Core/Src/vl53l0x_api.c **** #endif
  39:Core/Src/vl53l0x_api.c **** #define LOG_FUNCTION_START(fmt, ...) \
  40:Core/Src/vl53l0x_api.c **** 	_LOG_FUNCTION_START(TRACE_MODULE_API, fmt, ##__VA_ARGS__)
  41:Core/Src/vl53l0x_api.c **** #define LOG_FUNCTION_END(status, ...) \
  42:Core/Src/vl53l0x_api.c **** 	_LOG_FUNCTION_END(TRACE_MODULE_API, status, ##__VA_ARGS__)
  43:Core/Src/vl53l0x_api.c **** #define LOG_FUNCTION_END_FMT(status, fmt, ...) \
  44:Core/Src/vl53l0x_api.c **** 	_LOG_FUNCTION_END_FMT(TRACE_MODULE_API, status, fmt, ##__VA_ARGS__)
  45:Core/Src/vl53l0x_api.c **** 
  46:Core/Src/vl53l0x_api.c **** #ifdef VL53L0X_LOG_ENABLE
  47:Core/Src/vl53l0x_api.c **** #define trace_print(level, ...) trace_print_module_function(TRACE_MODULE_API, \
  48:Core/Src/vl53l0x_api.c **** 	level, TRACE_FUNCTION_NONE, ##__VA_ARGS__)
  49:Core/Src/vl53l0x_api.c **** #endif
  50:Core/Src/vl53l0x_api.c **** 
  51:Core/Src/vl53l0x_api.c **** /* Group PAL General Functions */
  52:Core/Src/vl53l0x_api.c **** 
  53:Core/Src/vl53l0x_api.c **** VL53L0X_Error VL53L0X_GetVersion(VL53L0X_Version_t *pVersion)
  54:Core/Src/vl53l0x_api.c **** {
  30              		.loc 1 54 1 view -0
  31              		.cfi_startproc
  32              		@ args = 0, pretend = 0, frame = 0
  33              		@ frame_needed = 0, uses_anonymous_args = 0
  34              		@ link register save eliminated.
  35              		.loc 1 54 1 is_stmt 0 view .LVU1
  36 0000 0346     		mov	r3, r0
  55:Core/Src/vl53l0x_api.c **** 	VL53L0X_Error Status = VL53L0X_ERROR_NONE;
  37              		.loc 1 55 2 is_stmt 1 view .LVU2
  38              	.LVL1:
  56:Core/Src/vl53l0x_api.c **** 	LOG_FUNCTION_START("");
  39              		.loc 1 56 2 view .LVU3
  57:Core/Src/vl53l0x_api.c **** 
  58:Core/Src/vl53l0x_api.c **** 	pVersion->major = VL53L0X_IMPLEMENTATION_VER_MAJOR;
  40              		.loc 1 58 2 view .LVU4
  41              		.loc 1 58 18 is_stmt 0 view .LVU5
  42 0002 0122     		movs	r2, #1
  43 0004 0271     		strb	r2, [r0, #4]
  59:Core/Src/vl53l0x_api.c **** 	pVersion->minor = VL53L0X_IMPLEMENTATION_VER_MINOR;
  44              		.loc 1 59 2 is_stmt 1 view .LVU6
  45              		.loc 1 59 18 is_stmt 0 view .LVU7
  46 0006 0020     		movs	r0, #0
  47              	.LVL2:
  48              		.loc 1 59 18 view .LVU8
  49 0008 5871     		strb	r0, [r3, #5]
  60:Core/Src/vl53l0x_api.c **** 	pVersion->build = VL53L0X_IMPLEMENTATION_VER_SUB;
  50              		.loc 1 60 2 is_stmt 1 view .LVU9
  51              		.loc 1 60 18 is_stmt 0 view .LVU10
  52 000a 0222     		movs	r2, #2
  53 000c 9A71     		strb	r2, [r3, #6]
  61:Core/Src/vl53l0x_api.c **** 
  62:Core/Src/vl53l0x_api.c **** 	pVersion->revision = VL53L0X_IMPLEMENTATION_VER_REVISION;
ARM GAS  C:\Users\anmh1\AppData\Local\Temp\ccBPLcM2.s 			page 3


  54              		.loc 1 62 2 is_stmt 1 view .LVU11
  55              		.loc 1 62 21 is_stmt 0 view .LVU12
  56 000e 41F2D722 		movw	r2, #4823
  57 0012 1A60     		str	r2, [r3]
  63:Core/Src/vl53l0x_api.c **** 
  64:Core/Src/vl53l0x_api.c **** 	LOG_FUNCTION_END(Status);
  58              		.loc 1 64 2 is_stmt 1 view .LVU13
  65:Core/Src/vl53l0x_api.c **** 	return Status;
  59              		.loc 1 65 2 view .LVU14
  66:Core/Src/vl53l0x_api.c **** }
  60              		.loc 1 66 1 is_stmt 0 view .LVU15
  61 0014 7047     		bx	lr
  62              		.cfi_endproc
  63              	.LFE133:
  65              		.section	.text.VL53L0X_GetPalSpecVersion,"ax",%progbits
  66              		.align	1
  67              		.global	VL53L0X_GetPalSpecVersion
  68              		.syntax unified
  69              		.thumb
  70              		.thumb_func
  71              		.fpu fpv4-sp-d16
  73              	VL53L0X_GetPalSpecVersion:
  74              	.LVL3:
  75              	.LFB134:
  67:Core/Src/vl53l0x_api.c **** 
  68:Core/Src/vl53l0x_api.c **** VL53L0X_Error VL53L0X_GetPalSpecVersion(VL53L0X_Version_t *pPalSpecVersion)
  69:Core/Src/vl53l0x_api.c **** {
  76              		.loc 1 69 1 is_stmt 1 view -0
  77              		.cfi_startproc
  78              		@ args = 0, pretend = 0, frame = 0
  79              		@ frame_needed = 0, uses_anonymous_args = 0
  80              		@ link register save eliminated.
  70:Core/Src/vl53l0x_api.c **** 	VL53L0X_Error Status = VL53L0X_ERROR_NONE;
  81              		.loc 1 70 2 view .LVU17
  71:Core/Src/vl53l0x_api.c **** 
  72:Core/Src/vl53l0x_api.c **** 	LOG_FUNCTION_START("");
  82              		.loc 1 72 2 view .LVU18
  73:Core/Src/vl53l0x_api.c **** 
  74:Core/Src/vl53l0x_api.c **** 	pPalSpecVersion->major = VL53L0X_SPECIFICATION_VER_MAJOR;
  83              		.loc 1 74 2 view .LVU19
  84              		.loc 1 74 25 is_stmt 0 view .LVU20
  85 0000 0123     		movs	r3, #1
  86 0002 0371     		strb	r3, [r0, #4]
  75:Core/Src/vl53l0x_api.c **** 	pPalSpecVersion->minor = VL53L0X_SPECIFICATION_VER_MINOR;
  87              		.loc 1 75 2 is_stmt 1 view .LVU21
  88              		.loc 1 75 25 is_stmt 0 view .LVU22
  89 0004 0223     		movs	r3, #2
  90 0006 4371     		strb	r3, [r0, #5]
  76:Core/Src/vl53l0x_api.c **** 	pPalSpecVersion->build = VL53L0X_SPECIFICATION_VER_SUB;
  91              		.loc 1 76 2 is_stmt 1 view .LVU23
  92              		.loc 1 76 25 is_stmt 0 view .LVU24
  93 0008 0723     		movs	r3, #7
  94 000a 8371     		strb	r3, [r0, #6]
  77:Core/Src/vl53l0x_api.c **** 
  78:Core/Src/vl53l0x_api.c **** 	pPalSpecVersion->revision = VL53L0X_SPECIFICATION_VER_REVISION;
  95              		.loc 1 78 2 is_stmt 1 view .LVU25
  96              		.loc 1 78 28 is_stmt 0 view .LVU26
ARM GAS  C:\Users\anmh1\AppData\Local\Temp\ccBPLcM2.s 			page 4


  97 000c 4FF4B463 		mov	r3, #1440
  98 0010 0360     		str	r3, [r0]
  79:Core/Src/vl53l0x_api.c **** 
  80:Core/Src/vl53l0x_api.c **** 	LOG_FUNCTION_END(Status);
  99              		.loc 1 80 2 is_stmt 1 view .LVU27
  81:Core/Src/vl53l0x_api.c **** 	return Status;
 100              		.loc 1 81 2 view .LVU28
  82:Core/Src/vl53l0x_api.c **** }
 101              		.loc 1 82 1 is_stmt 0 view .LVU29
 102 0012 0020     		movs	r0, #0
 103              	.LVL4:
 104              		.loc 1 82 1 view .LVU30
 105 0014 7047     		bx	lr
 106              		.cfi_endproc
 107              	.LFE134:
 109              		.section	.text.VL53L0X_GetProductRevision,"ax",%progbits
 110              		.align	1
 111              		.global	VL53L0X_GetProductRevision
 112              		.syntax unified
 113              		.thumb
 114              		.thumb_func
 115              		.fpu fpv4-sp-d16
 117              	VL53L0X_GetProductRevision:
 118              	.LVL5:
 119              	.LFB135:
  83:Core/Src/vl53l0x_api.c **** 
  84:Core/Src/vl53l0x_api.c **** VL53L0X_Error VL53L0X_GetProductRevision(VL53L0X_DEV Dev,
  85:Core/Src/vl53l0x_api.c **** 	uint8_t *pProductRevisionMajor, uint8_t *pProductRevisionMinor)
  86:Core/Src/vl53l0x_api.c **** {
 120              		.loc 1 86 1 is_stmt 1 view -0
 121              		.cfi_startproc
 122              		@ args = 0, pretend = 0, frame = 8
 123              		@ frame_needed = 0, uses_anonymous_args = 0
 124              		.loc 1 86 1 is_stmt 0 view .LVU32
 125 0000 30B5     		push	{r4, r5, lr}
 126              		.cfi_def_cfa_offset 12
 127              		.cfi_offset 4, -12
 128              		.cfi_offset 5, -8
 129              		.cfi_offset 14, -4
 130 0002 83B0     		sub	sp, sp, #12
 131              		.cfi_def_cfa_offset 24
 132 0004 0D46     		mov	r5, r1
 133 0006 1446     		mov	r4, r2
  87:Core/Src/vl53l0x_api.c **** 	VL53L0X_Error Status = VL53L0X_ERROR_NONE;
 134              		.loc 1 87 2 is_stmt 1 view .LVU33
 135              	.LVL6:
  88:Core/Src/vl53l0x_api.c **** 	uint8_t revision_id;
 136              		.loc 1 88 2 view .LVU34
  89:Core/Src/vl53l0x_api.c **** 
  90:Core/Src/vl53l0x_api.c **** 	LOG_FUNCTION_START("");
 137              		.loc 1 90 2 view .LVU35
  91:Core/Src/vl53l0x_api.c **** 
  92:Core/Src/vl53l0x_api.c **** 	Status = VL53L0X_RdByte(Dev, VL53L0X_REG_IDENTIFICATION_REVISION_ID,
 138              		.loc 1 92 2 view .LVU36
 139              		.loc 1 92 11 is_stmt 0 view .LVU37
 140 0008 0DF10702 		add	r2, sp, #7
 141              	.LVL7:
ARM GAS  C:\Users\anmh1\AppData\Local\Temp\ccBPLcM2.s 			page 5


 142              		.loc 1 92 11 view .LVU38
 143 000c C221     		movs	r1, #194
 144              	.LVL8:
 145              		.loc 1 92 11 view .LVU39
 146 000e FFF7FEFF 		bl	VL53L0X_RdByte
 147              	.LVL9:
  93:Core/Src/vl53l0x_api.c **** 		&revision_id);
  94:Core/Src/vl53l0x_api.c **** 	*pProductRevisionMajor = 1;
 148              		.loc 1 94 2 is_stmt 1 view .LVU40
 149              		.loc 1 94 25 is_stmt 0 view .LVU41
 150 0012 0123     		movs	r3, #1
 151 0014 2B70     		strb	r3, [r5]
  95:Core/Src/vl53l0x_api.c **** 	*pProductRevisionMinor = (revision_id & 0xF0) >> 4;
 152              		.loc 1 95 2 is_stmt 1 view .LVU42
 153              		.loc 1 95 48 is_stmt 0 view .LVU43
 154 0016 9DF80730 		ldrb	r3, [sp, #7]	@ zero_extendqisi2
 155 001a 1B09     		lsrs	r3, r3, #4
 156              		.loc 1 95 25 view .LVU44
 157 001c 2370     		strb	r3, [r4]
  96:Core/Src/vl53l0x_api.c **** 
  97:Core/Src/vl53l0x_api.c **** 	LOG_FUNCTION_END(Status);
 158              		.loc 1 97 2 is_stmt 1 view .LVU45
  98:Core/Src/vl53l0x_api.c **** 	return Status;
 159              		.loc 1 98 2 view .LVU46
  99:Core/Src/vl53l0x_api.c **** 
 100:Core/Src/vl53l0x_api.c **** }
 160              		.loc 1 100 1 is_stmt 0 view .LVU47
 161 001e 03B0     		add	sp, sp, #12
 162              		.cfi_def_cfa_offset 12
 163              		@ sp needed
 164 0020 30BD     		pop	{r4, r5, pc}
 165              		.loc 1 100 1 view .LVU48
 166              		.cfi_endproc
 167              	.LFE135:
 169              		.section	.text.VL53L0X_GetDeviceInfo,"ax",%progbits
 170              		.align	1
 171              		.global	VL53L0X_GetDeviceInfo
 172              		.syntax unified
 173              		.thumb
 174              		.thumb_func
 175              		.fpu fpv4-sp-d16
 177              	VL53L0X_GetDeviceInfo:
 178              	.LVL10:
 179              	.LFB136:
 101:Core/Src/vl53l0x_api.c **** 
 102:Core/Src/vl53l0x_api.c **** VL53L0X_Error VL53L0X_GetDeviceInfo(VL53L0X_DEV Dev,
 103:Core/Src/vl53l0x_api.c **** 	VL53L0X_DeviceInfo_t *pVL53L0X_DeviceInfo)
 104:Core/Src/vl53l0x_api.c **** {
 180              		.loc 1 104 1 is_stmt 1 view -0
 181              		.cfi_startproc
 182              		@ args = 0, pretend = 0, frame = 0
 183              		@ frame_needed = 0, uses_anonymous_args = 0
 184              		.loc 1 104 1 is_stmt 0 view .LVU50
 185 0000 08B5     		push	{r3, lr}
 186              		.cfi_def_cfa_offset 8
 187              		.cfi_offset 3, -8
 188              		.cfi_offset 14, -4
ARM GAS  C:\Users\anmh1\AppData\Local\Temp\ccBPLcM2.s 			page 6


 105:Core/Src/vl53l0x_api.c **** 	VL53L0X_Error Status = VL53L0X_ERROR_NONE;
 189              		.loc 1 105 2 is_stmt 1 view .LVU51
 190              	.LVL11:
 106:Core/Src/vl53l0x_api.c **** 	LOG_FUNCTION_START("");
 191              		.loc 1 106 2 view .LVU52
 107:Core/Src/vl53l0x_api.c **** 
 108:Core/Src/vl53l0x_api.c **** 	Status = VL53L0X_get_device_info(Dev, pVL53L0X_DeviceInfo);
 192              		.loc 1 108 2 view .LVU53
 193              		.loc 1 108 11 is_stmt 0 view .LVU54
 194 0002 FFF7FEFF 		bl	VL53L0X_get_device_info
 195              	.LVL12:
 109:Core/Src/vl53l0x_api.c **** 
 110:Core/Src/vl53l0x_api.c **** 	LOG_FUNCTION_END(Status);
 196              		.loc 1 110 2 is_stmt 1 view .LVU55
 111:Core/Src/vl53l0x_api.c **** 	return Status;
 197              		.loc 1 111 2 view .LVU56
 112:Core/Src/vl53l0x_api.c **** }
 198              		.loc 1 112 1 is_stmt 0 view .LVU57
 199 0006 08BD     		pop	{r3, pc}
 200              		.cfi_endproc
 201              	.LFE136:
 203              		.section	.text.VL53L0X_GetDeviceErrorStatus,"ax",%progbits
 204              		.align	1
 205              		.global	VL53L0X_GetDeviceErrorStatus
 206              		.syntax unified
 207              		.thumb
 208              		.thumb_func
 209              		.fpu fpv4-sp-d16
 211              	VL53L0X_GetDeviceErrorStatus:
 212              	.LVL13:
 213              	.LFB137:
 113:Core/Src/vl53l0x_api.c **** 
 114:Core/Src/vl53l0x_api.c **** VL53L0X_Error VL53L0X_GetDeviceErrorStatus(VL53L0X_DEV Dev,
 115:Core/Src/vl53l0x_api.c **** 	VL53L0X_DeviceError *pDeviceErrorStatus)
 116:Core/Src/vl53l0x_api.c **** {
 214              		.loc 1 116 1 is_stmt 1 view -0
 215              		.cfi_startproc
 216              		@ args = 0, pretend = 0, frame = 8
 217              		@ frame_needed = 0, uses_anonymous_args = 0
 218              		.loc 1 116 1 is_stmt 0 view .LVU59
 219 0000 10B5     		push	{r4, lr}
 220              		.cfi_def_cfa_offset 8
 221              		.cfi_offset 4, -8
 222              		.cfi_offset 14, -4
 223 0002 82B0     		sub	sp, sp, #8
 224              		.cfi_def_cfa_offset 16
 225 0004 0C46     		mov	r4, r1
 117:Core/Src/vl53l0x_api.c **** 	VL53L0X_Error Status = VL53L0X_ERROR_NONE;
 226              		.loc 1 117 2 is_stmt 1 view .LVU60
 227              	.LVL14:
 118:Core/Src/vl53l0x_api.c **** 	uint8_t RangeStatus;
 228              		.loc 1 118 2 view .LVU61
 119:Core/Src/vl53l0x_api.c **** 
 120:Core/Src/vl53l0x_api.c **** 	LOG_FUNCTION_START("");
 229              		.loc 1 120 2 view .LVU62
 121:Core/Src/vl53l0x_api.c **** 
 122:Core/Src/vl53l0x_api.c **** 	Status = VL53L0X_RdByte(Dev, VL53L0X_REG_RESULT_RANGE_STATUS,
ARM GAS  C:\Users\anmh1\AppData\Local\Temp\ccBPLcM2.s 			page 7


 230              		.loc 1 122 2 view .LVU63
 231              		.loc 1 122 11 is_stmt 0 view .LVU64
 232 0006 0DF10702 		add	r2, sp, #7
 233 000a 1421     		movs	r1, #20
 234              	.LVL15:
 235              		.loc 1 122 11 view .LVU65
 236 000c FFF7FEFF 		bl	VL53L0X_RdByte
 237              	.LVL16:
 123:Core/Src/vl53l0x_api.c **** 		&RangeStatus);
 124:Core/Src/vl53l0x_api.c **** 
 125:Core/Src/vl53l0x_api.c **** 	*pDeviceErrorStatus = (VL53L0X_DeviceError)((RangeStatus & 0x78) >> 3);
 238              		.loc 1 125 2 is_stmt 1 view .LVU66
 239              		.loc 1 125 67 is_stmt 0 view .LVU67
 240 0010 9DF80730 		ldrb	r3, [sp, #7]	@ zero_extendqisi2
 241              		.loc 1 125 24 view .LVU68
 242 0014 C3F3C303 		ubfx	r3, r3, #3, #4
 243              		.loc 1 125 22 view .LVU69
 244 0018 2370     		strb	r3, [r4]
 126:Core/Src/vl53l0x_api.c **** 
 127:Core/Src/vl53l0x_api.c **** 	LOG_FUNCTION_END(Status);
 245              		.loc 1 127 2 is_stmt 1 view .LVU70
 128:Core/Src/vl53l0x_api.c **** 	return Status;
 246              		.loc 1 128 2 view .LVU71
 129:Core/Src/vl53l0x_api.c **** }
 247              		.loc 1 129 1 is_stmt 0 view .LVU72
 248 001a 02B0     		add	sp, sp, #8
 249              		.cfi_def_cfa_offset 8
 250              		@ sp needed
 251 001c 10BD     		pop	{r4, pc}
 252              		.loc 1 129 1 view .LVU73
 253              		.cfi_endproc
 254              	.LFE137:
 256              		.section	.text.VL53L0X_GetDeviceErrorString,"ax",%progbits
 257              		.align	1
 258              		.global	VL53L0X_GetDeviceErrorString
 259              		.syntax unified
 260              		.thumb
 261              		.thumb_func
 262              		.fpu fpv4-sp-d16
 264              	VL53L0X_GetDeviceErrorString:
 265              	.LVL17:
 266              	.LFB138:
 130:Core/Src/vl53l0x_api.c **** 
 131:Core/Src/vl53l0x_api.c **** 
 132:Core/Src/vl53l0x_api.c **** VL53L0X_Error VL53L0X_GetDeviceErrorString(VL53L0X_DeviceError ErrorCode,
 133:Core/Src/vl53l0x_api.c **** 	char *pDeviceErrorString)
 134:Core/Src/vl53l0x_api.c **** {
 267              		.loc 1 134 1 is_stmt 1 view -0
 268              		.cfi_startproc
 269              		@ args = 0, pretend = 0, frame = 0
 270              		@ frame_needed = 0, uses_anonymous_args = 0
 271              		.loc 1 134 1 is_stmt 0 view .LVU75
 272 0000 08B5     		push	{r3, lr}
 273              		.cfi_def_cfa_offset 8
 274              		.cfi_offset 3, -8
 275              		.cfi_offset 14, -4
 135:Core/Src/vl53l0x_api.c **** 	VL53L0X_Error Status = VL53L0X_ERROR_NONE;
ARM GAS  C:\Users\anmh1\AppData\Local\Temp\ccBPLcM2.s 			page 8


 276              		.loc 1 135 2 is_stmt 1 view .LVU76
 277              	.LVL18:
 136:Core/Src/vl53l0x_api.c **** 
 137:Core/Src/vl53l0x_api.c **** 	LOG_FUNCTION_START("");
 278              		.loc 1 137 2 view .LVU77
 138:Core/Src/vl53l0x_api.c **** 
 139:Core/Src/vl53l0x_api.c **** 	Status = VL53L0X_get_device_error_string(ErrorCode, pDeviceErrorString);
 279              		.loc 1 139 2 view .LVU78
 280              		.loc 1 139 11 is_stmt 0 view .LVU79
 281 0002 FFF7FEFF 		bl	VL53L0X_get_device_error_string
 282              	.LVL19:
 140:Core/Src/vl53l0x_api.c **** 
 141:Core/Src/vl53l0x_api.c **** 	LOG_FUNCTION_END(Status);
 283              		.loc 1 141 2 is_stmt 1 view .LVU80
 142:Core/Src/vl53l0x_api.c **** 	return Status;
 284              		.loc 1 142 2 view .LVU81
 143:Core/Src/vl53l0x_api.c **** }
 285              		.loc 1 143 1 is_stmt 0 view .LVU82
 286 0006 08BD     		pop	{r3, pc}
 287              		.cfi_endproc
 288              	.LFE138:
 290              		.section	.text.VL53L0X_GetRangeStatusString,"ax",%progbits
 291              		.align	1
 292              		.global	VL53L0X_GetRangeStatusString
 293              		.syntax unified
 294              		.thumb
 295              		.thumb_func
 296              		.fpu fpv4-sp-d16
 298              	VL53L0X_GetRangeStatusString:
 299              	.LVL20:
 300              	.LFB139:
 144:Core/Src/vl53l0x_api.c **** 
 145:Core/Src/vl53l0x_api.c **** VL53L0X_Error VL53L0X_GetRangeStatusString(uint8_t RangeStatus,
 146:Core/Src/vl53l0x_api.c **** 	char *pRangeStatusString)
 147:Core/Src/vl53l0x_api.c **** {
 301              		.loc 1 147 1 is_stmt 1 view -0
 302              		.cfi_startproc
 303              		@ args = 0, pretend = 0, frame = 0
 304              		@ frame_needed = 0, uses_anonymous_args = 0
 305              		.loc 1 147 1 is_stmt 0 view .LVU84
 306 0000 08B5     		push	{r3, lr}
 307              		.cfi_def_cfa_offset 8
 308              		.cfi_offset 3, -8
 309              		.cfi_offset 14, -4
 148:Core/Src/vl53l0x_api.c **** 	VL53L0X_Error Status = VL53L0X_ERROR_NONE;
 310              		.loc 1 148 2 is_stmt 1 view .LVU85
 311              	.LVL21:
 149:Core/Src/vl53l0x_api.c **** 	LOG_FUNCTION_START("");
 312              		.loc 1 149 2 view .LVU86
 150:Core/Src/vl53l0x_api.c **** 
 151:Core/Src/vl53l0x_api.c **** 	Status = VL53L0X_get_range_status_string(RangeStatus,
 313              		.loc 1 151 2 view .LVU87
 314              		.loc 1 151 11 is_stmt 0 view .LVU88
 315 0002 FFF7FEFF 		bl	VL53L0X_get_range_status_string
 316              	.LVL22:
 152:Core/Src/vl53l0x_api.c **** 		pRangeStatusString);
 153:Core/Src/vl53l0x_api.c **** 
ARM GAS  C:\Users\anmh1\AppData\Local\Temp\ccBPLcM2.s 			page 9


 154:Core/Src/vl53l0x_api.c **** 	LOG_FUNCTION_END(Status);
 317              		.loc 1 154 2 is_stmt 1 view .LVU89
 155:Core/Src/vl53l0x_api.c **** 	return Status;
 318              		.loc 1 155 2 view .LVU90
 156:Core/Src/vl53l0x_api.c **** }
 319              		.loc 1 156 1 is_stmt 0 view .LVU91
 320 0006 08BD     		pop	{r3, pc}
 321              		.cfi_endproc
 322              	.LFE139:
 324              		.section	.text.VL53L0X_GetPalErrorString,"ax",%progbits
 325              		.align	1
 326              		.global	VL53L0X_GetPalErrorString
 327              		.syntax unified
 328              		.thumb
 329              		.thumb_func
 330              		.fpu fpv4-sp-d16
 332              	VL53L0X_GetPalErrorString:
 333              	.LVL23:
 334              	.LFB140:
 157:Core/Src/vl53l0x_api.c **** 
 158:Core/Src/vl53l0x_api.c **** VL53L0X_Error VL53L0X_GetPalErrorString(VL53L0X_Error PalErrorCode,
 159:Core/Src/vl53l0x_api.c **** 	char *pPalErrorString)
 160:Core/Src/vl53l0x_api.c **** {
 335              		.loc 1 160 1 is_stmt 1 view -0
 336              		.cfi_startproc
 337              		@ args = 0, pretend = 0, frame = 0
 338              		@ frame_needed = 0, uses_anonymous_args = 0
 339              		.loc 1 160 1 is_stmt 0 view .LVU93
 340 0000 08B5     		push	{r3, lr}
 341              		.cfi_def_cfa_offset 8
 342              		.cfi_offset 3, -8
 343              		.cfi_offset 14, -4
 161:Core/Src/vl53l0x_api.c **** 	VL53L0X_Error Status = VL53L0X_ERROR_NONE;
 344              		.loc 1 161 2 is_stmt 1 view .LVU94
 345              	.LVL24:
 162:Core/Src/vl53l0x_api.c **** 	LOG_FUNCTION_START("");
 346              		.loc 1 162 2 view .LVU95
 163:Core/Src/vl53l0x_api.c **** 
 164:Core/Src/vl53l0x_api.c **** 	Status = VL53L0X_get_pal_error_string(PalErrorCode, pPalErrorString);
 347              		.loc 1 164 2 view .LVU96
 348              		.loc 1 164 11 is_stmt 0 view .LVU97
 349 0002 FFF7FEFF 		bl	VL53L0X_get_pal_error_string
 350              	.LVL25:
 165:Core/Src/vl53l0x_api.c **** 
 166:Core/Src/vl53l0x_api.c **** 	LOG_FUNCTION_END(Status);
 351              		.loc 1 166 2 is_stmt 1 view .LVU98
 167:Core/Src/vl53l0x_api.c **** 	return Status;
 352              		.loc 1 167 2 view .LVU99
 168:Core/Src/vl53l0x_api.c **** }
 353              		.loc 1 168 1 is_stmt 0 view .LVU100
 354 0006 08BD     		pop	{r3, pc}
 355              		.cfi_endproc
 356              	.LFE140:
 358              		.section	.text.VL53L0X_GetPalStateString,"ax",%progbits
 359              		.align	1
 360              		.global	VL53L0X_GetPalStateString
 361              		.syntax unified
ARM GAS  C:\Users\anmh1\AppData\Local\Temp\ccBPLcM2.s 			page 10


 362              		.thumb
 363              		.thumb_func
 364              		.fpu fpv4-sp-d16
 366              	VL53L0X_GetPalStateString:
 367              	.LVL26:
 368              	.LFB141:
 169:Core/Src/vl53l0x_api.c **** 
 170:Core/Src/vl53l0x_api.c **** VL53L0X_Error VL53L0X_GetPalStateString(VL53L0X_State PalStateCode,
 171:Core/Src/vl53l0x_api.c **** 	char *pPalStateString)
 172:Core/Src/vl53l0x_api.c **** {
 369              		.loc 1 172 1 is_stmt 1 view -0
 370              		.cfi_startproc
 371              		@ args = 0, pretend = 0, frame = 0
 372              		@ frame_needed = 0, uses_anonymous_args = 0
 373              		.loc 1 172 1 is_stmt 0 view .LVU102
 374 0000 08B5     		push	{r3, lr}
 375              		.cfi_def_cfa_offset 8
 376              		.cfi_offset 3, -8
 377              		.cfi_offset 14, -4
 173:Core/Src/vl53l0x_api.c **** 	VL53L0X_Error Status = VL53L0X_ERROR_NONE;
 378              		.loc 1 173 2 is_stmt 1 view .LVU103
 379              	.LVL27:
 174:Core/Src/vl53l0x_api.c **** 	LOG_FUNCTION_START("");
 380              		.loc 1 174 2 view .LVU104
 175:Core/Src/vl53l0x_api.c **** 
 176:Core/Src/vl53l0x_api.c **** 	Status = VL53L0X_get_pal_state_string(PalStateCode, pPalStateString);
 381              		.loc 1 176 2 view .LVU105
 382              		.loc 1 176 11 is_stmt 0 view .LVU106
 383 0002 FFF7FEFF 		bl	VL53L0X_get_pal_state_string
 384              	.LVL28:
 177:Core/Src/vl53l0x_api.c **** 
 178:Core/Src/vl53l0x_api.c **** 	LOG_FUNCTION_END(Status);
 385              		.loc 1 178 2 is_stmt 1 view .LVU107
 179:Core/Src/vl53l0x_api.c **** 	return Status;
 386              		.loc 1 179 2 view .LVU108
 180:Core/Src/vl53l0x_api.c **** }
 387              		.loc 1 180 1 is_stmt 0 view .LVU109
 388 0006 08BD     		pop	{r3, pc}
 389              		.cfi_endproc
 390              	.LFE141:
 392              		.section	.text.VL53L0X_GetPalState,"ax",%progbits
 393              		.align	1
 394              		.global	VL53L0X_GetPalState
 395              		.syntax unified
 396              		.thumb
 397              		.thumb_func
 398              		.fpu fpv4-sp-d16
 400              	VL53L0X_GetPalState:
 401              	.LVL29:
 402              	.LFB142:
 181:Core/Src/vl53l0x_api.c **** 
 182:Core/Src/vl53l0x_api.c **** VL53L0X_Error VL53L0X_GetPalState(VL53L0X_DEV Dev, VL53L0X_State *pPalState)
 183:Core/Src/vl53l0x_api.c **** {
 403              		.loc 1 183 1 is_stmt 1 view -0
 404              		.cfi_startproc
 405              		@ args = 0, pretend = 0, frame = 0
 406              		@ frame_needed = 0, uses_anonymous_args = 0
ARM GAS  C:\Users\anmh1\AppData\Local\Temp\ccBPLcM2.s 			page 11


 407              		@ link register save eliminated.
 184:Core/Src/vl53l0x_api.c **** 	VL53L0X_Error Status = VL53L0X_ERROR_NONE;
 408              		.loc 1 184 2 view .LVU111
 185:Core/Src/vl53l0x_api.c **** 	LOG_FUNCTION_START("");
 409              		.loc 1 185 2 view .LVU112
 186:Core/Src/vl53l0x_api.c **** 
 187:Core/Src/vl53l0x_api.c **** 	*pPalState = PALDevDataGet(Dev, PalState);
 410              		.loc 1 187 2 view .LVU113
 411              		.loc 1 187 15 is_stmt 0 view .LVU114
 412 0000 90F83231 		ldrb	r3, [r0, #306]	@ zero_extendqisi2
 413              		.loc 1 187 13 view .LVU115
 414 0004 0B70     		strb	r3, [r1]
 188:Core/Src/vl53l0x_api.c **** 
 189:Core/Src/vl53l0x_api.c **** 	LOG_FUNCTION_END(Status);
 415              		.loc 1 189 2 is_stmt 1 view .LVU116
 190:Core/Src/vl53l0x_api.c **** 	return Status;
 416              		.loc 1 190 2 view .LVU117
 191:Core/Src/vl53l0x_api.c **** }
 417              		.loc 1 191 1 is_stmt 0 view .LVU118
 418 0006 0020     		movs	r0, #0
 419              	.LVL30:
 420              		.loc 1 191 1 view .LVU119
 421 0008 7047     		bx	lr
 422              		.cfi_endproc
 423              	.LFE142:
 425              		.section	.text.VL53L0X_GetPowerMode,"ax",%progbits
 426              		.align	1
 427              		.global	VL53L0X_GetPowerMode
 428              		.syntax unified
 429              		.thumb
 430              		.thumb_func
 431              		.fpu fpv4-sp-d16
 433              	VL53L0X_GetPowerMode:
 434              	.LVL31:
 435              	.LFB144:
 192:Core/Src/vl53l0x_api.c **** 
 193:Core/Src/vl53l0x_api.c **** VL53L0X_Error VL53L0X_SetPowerMode(VL53L0X_DEV Dev, VL53L0X_PowerModes PowerMode)
 194:Core/Src/vl53l0x_api.c **** {
 195:Core/Src/vl53l0x_api.c **** 	VL53L0X_Error Status = VL53L0X_ERROR_NONE;
 196:Core/Src/vl53l0x_api.c **** 	LOG_FUNCTION_START("");
 197:Core/Src/vl53l0x_api.c **** 
 198:Core/Src/vl53l0x_api.c **** 	/* Only level1 of Power mode exists */
 199:Core/Src/vl53l0x_api.c **** 	if ((PowerMode != VL53L0X_POWERMODE_STANDBY_LEVEL1)
 200:Core/Src/vl53l0x_api.c **** 		&& (PowerMode != VL53L0X_POWERMODE_IDLE_LEVEL1)) {
 201:Core/Src/vl53l0x_api.c **** 		Status = VL53L0X_ERROR_MODE_NOT_SUPPORTED;
 202:Core/Src/vl53l0x_api.c **** 	} else if (PowerMode == VL53L0X_POWERMODE_STANDBY_LEVEL1) {
 203:Core/Src/vl53l0x_api.c **** 		/* set the standby level1 of power mode */
 204:Core/Src/vl53l0x_api.c **** 		Status = VL53L0X_WrByte(Dev, 0x80, 0x00);
 205:Core/Src/vl53l0x_api.c **** 		if (Status == VL53L0X_ERROR_NONE) {
 206:Core/Src/vl53l0x_api.c **** 			/* Set PAL State to standby */
 207:Core/Src/vl53l0x_api.c **** 			PALDevDataSet(Dev, PalState, VL53L0X_STATE_STANDBY);
 208:Core/Src/vl53l0x_api.c **** 			PALDevDataSet(Dev, PowerMode,
 209:Core/Src/vl53l0x_api.c **** 				VL53L0X_POWERMODE_STANDBY_LEVEL1);
 210:Core/Src/vl53l0x_api.c **** 		}
 211:Core/Src/vl53l0x_api.c **** 
 212:Core/Src/vl53l0x_api.c **** 	} else {
 213:Core/Src/vl53l0x_api.c **** 		/* VL53L0X_POWERMODE_IDLE_LEVEL1 */
ARM GAS  C:\Users\anmh1\AppData\Local\Temp\ccBPLcM2.s 			page 12


 214:Core/Src/vl53l0x_api.c **** 		Status = VL53L0X_WrByte(Dev, 0x80, 0x00);
 215:Core/Src/vl53l0x_api.c **** 		if (Status == VL53L0X_ERROR_NONE)
 216:Core/Src/vl53l0x_api.c **** 			Status = VL53L0X_StaticInit(Dev);
 217:Core/Src/vl53l0x_api.c **** 
 218:Core/Src/vl53l0x_api.c **** 		if (Status == VL53L0X_ERROR_NONE)
 219:Core/Src/vl53l0x_api.c **** 			PALDevDataSet(Dev, PowerMode,
 220:Core/Src/vl53l0x_api.c **** 				VL53L0X_POWERMODE_IDLE_LEVEL1);
 221:Core/Src/vl53l0x_api.c **** 
 222:Core/Src/vl53l0x_api.c **** 	}
 223:Core/Src/vl53l0x_api.c **** 
 224:Core/Src/vl53l0x_api.c **** 	LOG_FUNCTION_END(Status);
 225:Core/Src/vl53l0x_api.c **** 	return Status;
 226:Core/Src/vl53l0x_api.c **** }
 227:Core/Src/vl53l0x_api.c **** 
 228:Core/Src/vl53l0x_api.c **** VL53L0X_Error VL53L0X_GetPowerMode(VL53L0X_DEV Dev, VL53L0X_PowerModes *pPowerMode)
 229:Core/Src/vl53l0x_api.c **** {
 436              		.loc 1 229 1 is_stmt 1 view -0
 437              		.cfi_startproc
 438              		@ args = 0, pretend = 0, frame = 8
 439              		@ frame_needed = 0, uses_anonymous_args = 0
 440              		.loc 1 229 1 is_stmt 0 view .LVU121
 441 0000 10B5     		push	{r4, lr}
 442              		.cfi_def_cfa_offset 8
 443              		.cfi_offset 4, -8
 444              		.cfi_offset 14, -4
 445 0002 82B0     		sub	sp, sp, #8
 446              		.cfi_def_cfa_offset 16
 447 0004 0446     		mov	r4, r0
 230:Core/Src/vl53l0x_api.c **** 	VL53L0X_Error Status = VL53L0X_ERROR_NONE;
 448              		.loc 1 230 2 is_stmt 1 view .LVU122
 449              	.LVL32:
 231:Core/Src/vl53l0x_api.c **** 	uint8_t Byte;
 450              		.loc 1 231 2 view .LVU123
 232:Core/Src/vl53l0x_api.c **** 	LOG_FUNCTION_START("");
 451              		.loc 1 232 2 view .LVU124
 233:Core/Src/vl53l0x_api.c **** 
 234:Core/Src/vl53l0x_api.c **** 	/* Only level1 of Power mode exists */
 235:Core/Src/vl53l0x_api.c **** 	Status = VL53L0X_RdByte(Dev, 0x80, &Byte);
 452              		.loc 1 235 2 view .LVU125
 453              		.loc 1 235 11 is_stmt 0 view .LVU126
 454 0006 0DF10702 		add	r2, sp, #7
 455 000a 8021     		movs	r1, #128
 456              	.LVL33:
 457              		.loc 1 235 11 view .LVU127
 458 000c FFF7FEFF 		bl	VL53L0X_RdByte
 459              	.LVL34:
 236:Core/Src/vl53l0x_api.c **** 
 237:Core/Src/vl53l0x_api.c **** 	if (Status == VL53L0X_ERROR_NONE) {
 460              		.loc 1 237 2 is_stmt 1 view .LVU128
 461              		.loc 1 237 5 is_stmt 0 view .LVU129
 462 0010 30B9     		cbnz	r0, .L19
 238:Core/Src/vl53l0x_api.c **** 		if (Byte == 1) {
 463              		.loc 1 238 3 is_stmt 1 view .LVU130
 464              		.loc 1 238 12 is_stmt 0 view .LVU131
 465 0012 9DF80730 		ldrb	r3, [sp, #7]	@ zero_extendqisi2
 466              		.loc 1 238 6 view .LVU132
 467 0016 012B     		cmp	r3, #1
ARM GAS  C:\Users\anmh1\AppData\Local\Temp\ccBPLcM2.s 			page 13


 468 0018 04D0     		beq	.L22
 239:Core/Src/vl53l0x_api.c **** 			PALDevDataSet(Dev, PowerMode,
 240:Core/Src/vl53l0x_api.c **** 				VL53L0X_POWERMODE_IDLE_LEVEL1);
 241:Core/Src/vl53l0x_api.c **** 		} else {
 242:Core/Src/vl53l0x_api.c **** 			PALDevDataSet(Dev, PowerMode,
 469              		.loc 1 242 4 is_stmt 1 view .LVU133
 470 001a 0023     		movs	r3, #0
 471 001c 84F83331 		strb	r3, [r4, #307]
 472              	.L19:
 243:Core/Src/vl53l0x_api.c **** 				VL53L0X_POWERMODE_STANDBY_LEVEL1);
 244:Core/Src/vl53l0x_api.c **** 		}
 245:Core/Src/vl53l0x_api.c **** 	}
 246:Core/Src/vl53l0x_api.c **** 
 247:Core/Src/vl53l0x_api.c **** 	LOG_FUNCTION_END(Status);
 473              		.loc 1 247 2 view .LVU134
 248:Core/Src/vl53l0x_api.c **** 	return Status;
 474              		.loc 1 248 2 view .LVU135
 249:Core/Src/vl53l0x_api.c **** }
 475              		.loc 1 249 1 is_stmt 0 view .LVU136
 476 0020 02B0     		add	sp, sp, #8
 477              		.cfi_remember_state
 478              		.cfi_def_cfa_offset 8
 479              		@ sp needed
 480 0022 10BD     		pop	{r4, pc}
 481              	.LVL35:
 482              	.L22:
 483              		.cfi_restore_state
 239:Core/Src/vl53l0x_api.c **** 				VL53L0X_POWERMODE_IDLE_LEVEL1);
 484              		.loc 1 239 4 is_stmt 1 view .LVU137
 485 0024 0223     		movs	r3, #2
 486 0026 84F83331 		strb	r3, [r4, #307]
 487 002a F9E7     		b	.L19
 488              		.cfi_endproc
 489              	.LFE144:
 491              		.section	.text.VL53L0X_SetOffsetCalibrationDataMicroMeter,"ax",%progbits
 492              		.align	1
 493              		.global	VL53L0X_SetOffsetCalibrationDataMicroMeter
 494              		.syntax unified
 495              		.thumb
 496              		.thumb_func
 497              		.fpu fpv4-sp-d16
 499              	VL53L0X_SetOffsetCalibrationDataMicroMeter:
 500              	.LVL36:
 501              	.LFB145:
 250:Core/Src/vl53l0x_api.c **** 
 251:Core/Src/vl53l0x_api.c **** VL53L0X_Error VL53L0X_SetOffsetCalibrationDataMicroMeter(VL53L0X_DEV Dev,
 252:Core/Src/vl53l0x_api.c **** 	int32_t OffsetCalibrationDataMicroMeter)
 253:Core/Src/vl53l0x_api.c **** {
 502              		.loc 1 253 1 view -0
 503              		.cfi_startproc
 504              		@ args = 0, pretend = 0, frame = 0
 505              		@ frame_needed = 0, uses_anonymous_args = 0
 506              		.loc 1 253 1 is_stmt 0 view .LVU139
 507 0000 08B5     		push	{r3, lr}
 508              		.cfi_def_cfa_offset 8
 509              		.cfi_offset 3, -8
 510              		.cfi_offset 14, -4
ARM GAS  C:\Users\anmh1\AppData\Local\Temp\ccBPLcM2.s 			page 14


 254:Core/Src/vl53l0x_api.c **** 	VL53L0X_Error Status = VL53L0X_ERROR_NONE;
 511              		.loc 1 254 2 is_stmt 1 view .LVU140
 512              	.LVL37:
 255:Core/Src/vl53l0x_api.c **** 	LOG_FUNCTION_START("");
 513              		.loc 1 255 2 view .LVU141
 256:Core/Src/vl53l0x_api.c **** 
 257:Core/Src/vl53l0x_api.c **** 	Status = VL53L0X_set_offset_calibration_data_micro_meter(Dev,
 514              		.loc 1 257 2 view .LVU142
 515              		.loc 1 257 11 is_stmt 0 view .LVU143
 516 0002 FFF7FEFF 		bl	VL53L0X_set_offset_calibration_data_micro_meter
 517              	.LVL38:
 258:Core/Src/vl53l0x_api.c **** 		OffsetCalibrationDataMicroMeter);
 259:Core/Src/vl53l0x_api.c **** 
 260:Core/Src/vl53l0x_api.c **** 	LOG_FUNCTION_END(Status);
 518              		.loc 1 260 2 is_stmt 1 view .LVU144
 261:Core/Src/vl53l0x_api.c **** 	return Status;
 519              		.loc 1 261 2 view .LVU145
 262:Core/Src/vl53l0x_api.c **** }
 520              		.loc 1 262 1 is_stmt 0 view .LVU146
 521 0006 08BD     		pop	{r3, pc}
 522              		.cfi_endproc
 523              	.LFE145:
 525              		.section	.text.VL53L0X_GetOffsetCalibrationDataMicroMeter,"ax",%progbits
 526              		.align	1
 527              		.global	VL53L0X_GetOffsetCalibrationDataMicroMeter
 528              		.syntax unified
 529              		.thumb
 530              		.thumb_func
 531              		.fpu fpv4-sp-d16
 533              	VL53L0X_GetOffsetCalibrationDataMicroMeter:
 534              	.LVL39:
 535              	.LFB146:
 263:Core/Src/vl53l0x_api.c **** 
 264:Core/Src/vl53l0x_api.c **** VL53L0X_Error VL53L0X_GetOffsetCalibrationDataMicroMeter(VL53L0X_DEV Dev,
 265:Core/Src/vl53l0x_api.c **** 	int32_t *pOffsetCalibrationDataMicroMeter)
 266:Core/Src/vl53l0x_api.c **** {
 536              		.loc 1 266 1 is_stmt 1 view -0
 537              		.cfi_startproc
 538              		@ args = 0, pretend = 0, frame = 0
 539              		@ frame_needed = 0, uses_anonymous_args = 0
 540              		.loc 1 266 1 is_stmt 0 view .LVU148
 541 0000 08B5     		push	{r3, lr}
 542              		.cfi_def_cfa_offset 8
 543              		.cfi_offset 3, -8
 544              		.cfi_offset 14, -4
 267:Core/Src/vl53l0x_api.c **** 	VL53L0X_Error Status = VL53L0X_ERROR_NONE;
 545              		.loc 1 267 2 is_stmt 1 view .LVU149
 546              	.LVL40:
 268:Core/Src/vl53l0x_api.c **** 	LOG_FUNCTION_START("");
 547              		.loc 1 268 2 view .LVU150
 269:Core/Src/vl53l0x_api.c **** 
 270:Core/Src/vl53l0x_api.c **** 	Status = VL53L0X_get_offset_calibration_data_micro_meter(Dev,
 548              		.loc 1 270 2 view .LVU151
 549              		.loc 1 270 11 is_stmt 0 view .LVU152
 550 0002 FFF7FEFF 		bl	VL53L0X_get_offset_calibration_data_micro_meter
 551              	.LVL41:
 271:Core/Src/vl53l0x_api.c **** 		pOffsetCalibrationDataMicroMeter);
ARM GAS  C:\Users\anmh1\AppData\Local\Temp\ccBPLcM2.s 			page 15


 272:Core/Src/vl53l0x_api.c **** 
 273:Core/Src/vl53l0x_api.c **** 	LOG_FUNCTION_END(Status);
 552              		.loc 1 273 2 is_stmt 1 view .LVU153
 274:Core/Src/vl53l0x_api.c **** 	return Status;
 553              		.loc 1 274 2 view .LVU154
 275:Core/Src/vl53l0x_api.c **** }
 554              		.loc 1 275 1 is_stmt 0 view .LVU155
 555 0006 08BD     		pop	{r3, pc}
 556              		.cfi_endproc
 557              	.LFE146:
 559              		.section	.text.VL53L0X_SetLinearityCorrectiveGain,"ax",%progbits
 560              		.align	1
 561              		.global	VL53L0X_SetLinearityCorrectiveGain
 562              		.syntax unified
 563              		.thumb
 564              		.thumb_func
 565              		.fpu fpv4-sp-d16
 567              	VL53L0X_SetLinearityCorrectiveGain:
 568              	.LVL42:
 569              	.LFB147:
 276:Core/Src/vl53l0x_api.c **** 
 277:Core/Src/vl53l0x_api.c **** VL53L0X_Error VL53L0X_SetLinearityCorrectiveGain(VL53L0X_DEV Dev,
 278:Core/Src/vl53l0x_api.c **** 	int16_t LinearityCorrectiveGain)
 279:Core/Src/vl53l0x_api.c **** {
 570              		.loc 1 279 1 is_stmt 1 view -0
 571              		.cfi_startproc
 572              		@ args = 0, pretend = 0, frame = 0
 573              		@ frame_needed = 0, uses_anonymous_args = 0
 574              		.loc 1 279 1 is_stmt 0 view .LVU157
 575 0000 08B5     		push	{r3, lr}
 576              		.cfi_def_cfa_offset 8
 577              		.cfi_offset 3, -8
 578              		.cfi_offset 14, -4
 280:Core/Src/vl53l0x_api.c **** 	VL53L0X_Error Status = VL53L0X_ERROR_NONE;
 579              		.loc 1 280 2 is_stmt 1 view .LVU158
 580              	.LVL43:
 281:Core/Src/vl53l0x_api.c **** 	LOG_FUNCTION_START("");
 581              		.loc 1 281 2 view .LVU159
 282:Core/Src/vl53l0x_api.c **** 
 283:Core/Src/vl53l0x_api.c **** 	if ((LinearityCorrectiveGain < 0) || (LinearityCorrectiveGain > 1000))
 582              		.loc 1 283 2 view .LVU160
 583              		.loc 1 283 36 is_stmt 0 view .LVU161
 584 0002 8BB2     		uxth	r3, r1
 585              		.loc 1 283 5 view .LVU162
 586 0004 B3F57A7F 		cmp	r3, #1000
 587 0008 0BD8     		bhi	.L29
 284:Core/Src/vl53l0x_api.c **** 		Status = VL53L0X_ERROR_INVALID_PARAMS;
 285:Core/Src/vl53l0x_api.c **** 	else {
 286:Core/Src/vl53l0x_api.c **** 		PALDevDataSet(Dev, LinearityCorrectiveGain,
 588              		.loc 1 286 3 is_stmt 1 view .LVU163
 589 000a A0F85231 		strh	r3, [r0, #338]	@ movhi
 287:Core/Src/vl53l0x_api.c **** 			LinearityCorrectiveGain);
 288:Core/Src/vl53l0x_api.c **** 
 289:Core/Src/vl53l0x_api.c **** 		if (LinearityCorrectiveGain != 1000) {
 590              		.loc 1 289 3 view .LVU164
 591              		.loc 1 289 6 is_stmt 0 view .LVU165
 592 000e B1F57A7F 		cmp	r1, #1000
ARM GAS  C:\Users\anmh1\AppData\Local\Temp\ccBPLcM2.s 			page 16


 593 0012 01D1     		bne	.L32
 280:Core/Src/vl53l0x_api.c **** 	LOG_FUNCTION_START("");
 594              		.loc 1 280 16 view .LVU166
 595 0014 0020     		movs	r0, #0
 596              	.LVL44:
 597              	.L28:
 290:Core/Src/vl53l0x_api.c **** 			/* Disable FW Xtalk */
 291:Core/Src/vl53l0x_api.c **** 			Status = VL53L0X_WrWord(Dev,
 292:Core/Src/vl53l0x_api.c **** 			VL53L0X_REG_CROSSTALK_COMPENSATION_PEAK_RATE_MCPS, 0);
 293:Core/Src/vl53l0x_api.c **** 		}
 294:Core/Src/vl53l0x_api.c **** 	}
 295:Core/Src/vl53l0x_api.c **** 
 296:Core/Src/vl53l0x_api.c **** 	LOG_FUNCTION_END(Status);
 598              		.loc 1 296 2 is_stmt 1 view .LVU167
 297:Core/Src/vl53l0x_api.c **** 	return Status;
 599              		.loc 1 297 2 view .LVU168
 298:Core/Src/vl53l0x_api.c **** }
 600              		.loc 1 298 1 is_stmt 0 view .LVU169
 601 0016 08BD     		pop	{r3, pc}
 602              	.LVL45:
 603              	.L32:
 291:Core/Src/vl53l0x_api.c **** 			VL53L0X_REG_CROSSTALK_COMPENSATION_PEAK_RATE_MCPS, 0);
 604              		.loc 1 291 4 is_stmt 1 view .LVU170
 291:Core/Src/vl53l0x_api.c **** 			VL53L0X_REG_CROSSTALK_COMPENSATION_PEAK_RATE_MCPS, 0);
 605              		.loc 1 291 13 is_stmt 0 view .LVU171
 606 0018 0022     		movs	r2, #0
 607 001a 2021     		movs	r1, #32
 608              	.LVL46:
 291:Core/Src/vl53l0x_api.c **** 			VL53L0X_REG_CROSSTALK_COMPENSATION_PEAK_RATE_MCPS, 0);
 609              		.loc 1 291 13 view .LVU172
 610 001c FFF7FEFF 		bl	VL53L0X_WrWord
 611              	.LVL47:
 291:Core/Src/vl53l0x_api.c **** 			VL53L0X_REG_CROSSTALK_COMPENSATION_PEAK_RATE_MCPS, 0);
 612              		.loc 1 291 13 view .LVU173
 613 0020 F9E7     		b	.L28
 614              	.LVL48:
 615              	.L29:
 284:Core/Src/vl53l0x_api.c **** 	else {
 616              		.loc 1 284 10 view .LVU174
 617 0022 6FF00300 		mvn	r0, #3
 618              	.LVL49:
 284:Core/Src/vl53l0x_api.c **** 	else {
 619              		.loc 1 284 10 view .LVU175
 620 0026 F6E7     		b	.L28
 621              		.cfi_endproc
 622              	.LFE147:
 624              		.section	.text.VL53L0X_GetLinearityCorrectiveGain,"ax",%progbits
 625              		.align	1
 626              		.global	VL53L0X_GetLinearityCorrectiveGain
 627              		.syntax unified
 628              		.thumb
 629              		.thumb_func
 630              		.fpu fpv4-sp-d16
 632              	VL53L0X_GetLinearityCorrectiveGain:
 633              	.LVL50:
 634              	.LFB148:
 299:Core/Src/vl53l0x_api.c **** 
ARM GAS  C:\Users\anmh1\AppData\Local\Temp\ccBPLcM2.s 			page 17


 300:Core/Src/vl53l0x_api.c **** VL53L0X_Error VL53L0X_GetLinearityCorrectiveGain(VL53L0X_DEV Dev,
 301:Core/Src/vl53l0x_api.c **** 	uint16_t *pLinearityCorrectiveGain)
 302:Core/Src/vl53l0x_api.c **** {
 635              		.loc 1 302 1 is_stmt 1 view -0
 636              		.cfi_startproc
 637              		@ args = 0, pretend = 0, frame = 0
 638              		@ frame_needed = 0, uses_anonymous_args = 0
 639              		@ link register save eliminated.
 303:Core/Src/vl53l0x_api.c **** 	VL53L0X_Error Status = VL53L0X_ERROR_NONE;
 640              		.loc 1 303 2 view .LVU177
 304:Core/Src/vl53l0x_api.c **** 	LOG_FUNCTION_START("");
 641              		.loc 1 304 2 view .LVU178
 305:Core/Src/vl53l0x_api.c **** 
 306:Core/Src/vl53l0x_api.c **** 	*pLinearityCorrectiveGain = PALDevDataGet(Dev, LinearityCorrectiveGain);
 642              		.loc 1 306 2 view .LVU179
 643              		.loc 1 306 30 is_stmt 0 view .LVU180
 644 0000 B0F85231 		ldrh	r3, [r0, #338]
 645              		.loc 1 306 28 view .LVU181
 646 0004 0B80     		strh	r3, [r1]	@ movhi
 307:Core/Src/vl53l0x_api.c **** 
 308:Core/Src/vl53l0x_api.c **** 	LOG_FUNCTION_END(Status);
 647              		.loc 1 308 2 is_stmt 1 view .LVU182
 309:Core/Src/vl53l0x_api.c **** 	return Status;
 648              		.loc 1 309 2 view .LVU183
 310:Core/Src/vl53l0x_api.c **** }
 649              		.loc 1 310 1 is_stmt 0 view .LVU184
 650 0006 0020     		movs	r0, #0
 651              	.LVL51:
 652              		.loc 1 310 1 view .LVU185
 653 0008 7047     		bx	lr
 654              		.cfi_endproc
 655              	.LFE148:
 657              		.section	.text.VL53L0X_SetGroupParamHold,"ax",%progbits
 658              		.align	1
 659              		.global	VL53L0X_SetGroupParamHold
 660              		.syntax unified
 661              		.thumb
 662              		.thumb_func
 663              		.fpu fpv4-sp-d16
 665              	VL53L0X_SetGroupParamHold:
 666              	.LVL52:
 667              	.LFB149:
 311:Core/Src/vl53l0x_api.c **** 
 312:Core/Src/vl53l0x_api.c **** VL53L0X_Error VL53L0X_SetGroupParamHold(VL53L0X_DEV Dev, uint8_t GroupParamHold)
 313:Core/Src/vl53l0x_api.c **** {
 668              		.loc 1 313 1 is_stmt 1 view -0
 669              		.cfi_startproc
 670              		@ args = 0, pretend = 0, frame = 0
 671              		@ frame_needed = 0, uses_anonymous_args = 0
 672              		@ link register save eliminated.
 314:Core/Src/vl53l0x_api.c **** 	VL53L0X_Error Status = VL53L0X_ERROR_NOT_IMPLEMENTED;
 673              		.loc 1 314 2 view .LVU187
 315:Core/Src/vl53l0x_api.c **** 	LOG_FUNCTION_START("");
 674              		.loc 1 315 2 view .LVU188
 316:Core/Src/vl53l0x_api.c **** 
 317:Core/Src/vl53l0x_api.c **** 	/* not implemented on VL53L0X */
 318:Core/Src/vl53l0x_api.c **** 
ARM GAS  C:\Users\anmh1\AppData\Local\Temp\ccBPLcM2.s 			page 18


 319:Core/Src/vl53l0x_api.c **** 	LOG_FUNCTION_END(Status);
 675              		.loc 1 319 2 view .LVU189
 320:Core/Src/vl53l0x_api.c **** 	return Status;
 676              		.loc 1 320 2 view .LVU190
 321:Core/Src/vl53l0x_api.c **** }
 677              		.loc 1 321 1 is_stmt 0 view .LVU191
 678 0000 6FF06200 		mvn	r0, #98
 679              	.LVL53:
 680              		.loc 1 321 1 view .LVU192
 681 0004 7047     		bx	lr
 682              		.cfi_endproc
 683              	.LFE149:
 685              		.section	.text.VL53L0X_GetUpperLimitMilliMeter,"ax",%progbits
 686              		.align	1
 687              		.global	VL53L0X_GetUpperLimitMilliMeter
 688              		.syntax unified
 689              		.thumb
 690              		.thumb_func
 691              		.fpu fpv4-sp-d16
 693              	VL53L0X_GetUpperLimitMilliMeter:
 694              	.LVL54:
 695              	.LFB150:
 322:Core/Src/vl53l0x_api.c **** 
 323:Core/Src/vl53l0x_api.c **** VL53L0X_Error VL53L0X_GetUpperLimitMilliMeter(VL53L0X_DEV Dev,
 324:Core/Src/vl53l0x_api.c **** 	uint16_t *pUpperLimitMilliMeter)
 325:Core/Src/vl53l0x_api.c **** {
 696              		.loc 1 325 1 is_stmt 1 view -0
 697              		.cfi_startproc
 698              		@ args = 0, pretend = 0, frame = 0
 699              		@ frame_needed = 0, uses_anonymous_args = 0
 700              		@ link register save eliminated.
 326:Core/Src/vl53l0x_api.c **** 	VL53L0X_Error Status = VL53L0X_ERROR_NOT_IMPLEMENTED;
 701              		.loc 1 326 2 view .LVU194
 327:Core/Src/vl53l0x_api.c **** 	LOG_FUNCTION_START("");
 702              		.loc 1 327 2 view .LVU195
 328:Core/Src/vl53l0x_api.c **** 
 329:Core/Src/vl53l0x_api.c **** 	/* not implemented on VL53L0X */
 330:Core/Src/vl53l0x_api.c **** 
 331:Core/Src/vl53l0x_api.c **** 	LOG_FUNCTION_END(Status);
 703              		.loc 1 331 2 view .LVU196
 332:Core/Src/vl53l0x_api.c **** 	return Status;
 704              		.loc 1 332 2 view .LVU197
 333:Core/Src/vl53l0x_api.c **** }
 705              		.loc 1 333 1 is_stmt 0 view .LVU198
 706 0000 6FF06200 		mvn	r0, #98
 707              	.LVL55:
 708              		.loc 1 333 1 view .LVU199
 709 0004 7047     		bx	lr
 710              		.cfi_endproc
 711              	.LFE150:
 713              		.section	.text.VL53L0X_GetTotalSignalRate,"ax",%progbits
 714              		.align	1
 715              		.global	VL53L0X_GetTotalSignalRate
 716              		.syntax unified
 717              		.thumb
 718              		.thumb_func
 719              		.fpu fpv4-sp-d16
ARM GAS  C:\Users\anmh1\AppData\Local\Temp\ccBPLcM2.s 			page 19


 721              	VL53L0X_GetTotalSignalRate:
 722              	.LVL56:
 723              	.LFB151:
 334:Core/Src/vl53l0x_api.c **** 
 335:Core/Src/vl53l0x_api.c **** VL53L0X_Error VL53L0X_GetTotalSignalRate(VL53L0X_DEV Dev,
 336:Core/Src/vl53l0x_api.c **** 	FixPoint1616_t *pTotalSignalRate)
 337:Core/Src/vl53l0x_api.c **** {
 724              		.loc 1 337 1 is_stmt 1 view -0
 725              		.cfi_startproc
 726              		@ args = 0, pretend = 0, frame = 32
 727              		@ frame_needed = 0, uses_anonymous_args = 0
 728              		.loc 1 337 1 is_stmt 0 view .LVU201
 729 0000 F0B5     		push	{r4, r5, r6, r7, lr}
 730              		.cfi_def_cfa_offset 20
 731              		.cfi_offset 4, -20
 732              		.cfi_offset 5, -16
 733              		.cfi_offset 6, -12
 734              		.cfi_offset 7, -8
 735              		.cfi_offset 14, -4
 736 0002 89B0     		sub	sp, sp, #36
 737              		.cfi_def_cfa_offset 56
 738 0004 0646     		mov	r6, r0
 739 0006 0F46     		mov	r7, r1
 338:Core/Src/vl53l0x_api.c **** 	VL53L0X_Error Status = VL53L0X_ERROR_NONE;
 740              		.loc 1 338 2 is_stmt 1 view .LVU202
 741              	.LVL57:
 339:Core/Src/vl53l0x_api.c **** 	VL53L0X_RangingMeasurementData_t LastRangeDataBuffer;
 742              		.loc 1 339 2 view .LVU203
 340:Core/Src/vl53l0x_api.c **** 
 341:Core/Src/vl53l0x_api.c **** 	LOG_FUNCTION_START("");
 743              		.loc 1 341 2 view .LVU204
 342:Core/Src/vl53l0x_api.c **** 
 343:Core/Src/vl53l0x_api.c **** 	LastRangeDataBuffer = PALDevDataGet(Dev, LastRangeMeasure);
 744              		.loc 1 343 2 view .LVU205
 745              		.loc 1 343 22 is_stmt 0 view .LVU206
 746 0008 01AC     		add	r4, sp, #4
 747 000a 00F15005 		add	r5, r0, #80
 748 000e 0FCD     		ldmia	r5!, {r0, r1, r2, r3}
 749              	.LVL58:
 750              		.loc 1 343 22 view .LVU207
 751 0010 0FC4     		stmia	r4!, {r0, r1, r2, r3}
 752 0012 95E80700 		ldm	r5, {r0, r1, r2}
 753 0016 84E80700 		stm	r4, {r0, r1, r2}
 344:Core/Src/vl53l0x_api.c **** 
 345:Core/Src/vl53l0x_api.c **** 	Status = VL53L0X_get_total_signal_rate(
 754              		.loc 1 345 2 is_stmt 1 view .LVU208
 755              		.loc 1 345 11 is_stmt 0 view .LVU209
 756 001a 3A46     		mov	r2, r7
 757 001c 01A9     		add	r1, sp, #4
 758 001e 3046     		mov	r0, r6
 759 0020 FFF7FEFF 		bl	VL53L0X_get_total_signal_rate
 760              	.LVL59:
 346:Core/Src/vl53l0x_api.c **** 		Dev, &LastRangeDataBuffer, pTotalSignalRate);
 347:Core/Src/vl53l0x_api.c **** 
 348:Core/Src/vl53l0x_api.c **** 	LOG_FUNCTION_END(Status);
 761              		.loc 1 348 2 is_stmt 1 view .LVU210
 349:Core/Src/vl53l0x_api.c **** 	return Status;
ARM GAS  C:\Users\anmh1\AppData\Local\Temp\ccBPLcM2.s 			page 20


 762              		.loc 1 349 2 view .LVU211
 350:Core/Src/vl53l0x_api.c **** }
 763              		.loc 1 350 1 is_stmt 0 view .LVU212
 764 0024 09B0     		add	sp, sp, #36
 765              		.cfi_def_cfa_offset 20
 766              		@ sp needed
 767 0026 F0BD     		pop	{r4, r5, r6, r7, pc}
 768              		.loc 1 350 1 view .LVU213
 769              		.cfi_endproc
 770              	.LFE151:
 772              		.section	.text.VL53L0X_SetDeviceAddress,"ax",%progbits
 773              		.align	1
 774              		.global	VL53L0X_SetDeviceAddress
 775              		.syntax unified
 776              		.thumb
 777              		.thumb_func
 778              		.fpu fpv4-sp-d16
 780              	VL53L0X_SetDeviceAddress:
 781              	.LVL60:
 782              	.LFB152:
 351:Core/Src/vl53l0x_api.c **** 
 352:Core/Src/vl53l0x_api.c **** /* End Group PAL General Functions */
 353:Core/Src/vl53l0x_api.c **** 
 354:Core/Src/vl53l0x_api.c **** /* Group PAL Init Functions */
 355:Core/Src/vl53l0x_api.c **** VL53L0X_Error VL53L0X_SetDeviceAddress(VL53L0X_DEV Dev, uint8_t DeviceAddress)
 356:Core/Src/vl53l0x_api.c **** {
 783              		.loc 1 356 1 is_stmt 1 view -0
 784              		.cfi_startproc
 785              		@ args = 0, pretend = 0, frame = 0
 786              		@ frame_needed = 0, uses_anonymous_args = 0
 787              		.loc 1 356 1 is_stmt 0 view .LVU215
 788 0000 08B5     		push	{r3, lr}
 789              		.cfi_def_cfa_offset 8
 790              		.cfi_offset 3, -8
 791              		.cfi_offset 14, -4
 357:Core/Src/vl53l0x_api.c **** 	VL53L0X_Error Status = VL53L0X_ERROR_NONE;
 792              		.loc 1 357 2 is_stmt 1 view .LVU216
 793              	.LVL61:
 358:Core/Src/vl53l0x_api.c **** 	LOG_FUNCTION_START("");
 794              		.loc 1 358 2 view .LVU217
 359:Core/Src/vl53l0x_api.c **** 
 360:Core/Src/vl53l0x_api.c **** 	Status = VL53L0X_WrByte(Dev, VL53L0X_REG_I2C_SLAVE_DEVICE_ADDRESS,
 795              		.loc 1 360 2 view .LVU218
 796              		.loc 1 360 11 is_stmt 0 view .LVU219
 797 0002 4A08     		lsrs	r2, r1, #1
 798 0004 8A21     		movs	r1, #138
 799              	.LVL62:
 800              		.loc 1 360 11 view .LVU220
 801 0006 FFF7FEFF 		bl	VL53L0X_WrByte
 802              	.LVL63:
 361:Core/Src/vl53l0x_api.c **** 		DeviceAddress / 2);
 362:Core/Src/vl53l0x_api.c **** 
 363:Core/Src/vl53l0x_api.c **** 	LOG_FUNCTION_END(Status);
 803              		.loc 1 363 2 is_stmt 1 view .LVU221
 364:Core/Src/vl53l0x_api.c **** 	return Status;
 804              		.loc 1 364 2 view .LVU222
 365:Core/Src/vl53l0x_api.c **** }
ARM GAS  C:\Users\anmh1\AppData\Local\Temp\ccBPLcM2.s 			page 21


 805              		.loc 1 365 1 is_stmt 0 view .LVU223
 806 000a 08BD     		pop	{r3, pc}
 807              		.cfi_endproc
 808              	.LFE152:
 810              		.section	.text.VL53L0X_SetTuningSettingBuffer,"ax",%progbits
 811              		.align	1
 812              		.global	VL53L0X_SetTuningSettingBuffer
 813              		.syntax unified
 814              		.thumb
 815              		.thumb_func
 816              		.fpu fpv4-sp-d16
 818              	VL53L0X_SetTuningSettingBuffer:
 819              	.LVL64:
 820              	.LFB154:
 366:Core/Src/vl53l0x_api.c **** 
 367:Core/Src/vl53l0x_api.c **** VL53L0X_Error VL53L0X_DataInit(VL53L0X_DEV Dev)
 368:Core/Src/vl53l0x_api.c **** {
 369:Core/Src/vl53l0x_api.c **** 	VL53L0X_Error Status = VL53L0X_ERROR_NONE;
 370:Core/Src/vl53l0x_api.c **** 	VL53L0X_DeviceParameters_t CurrentParameters;
 371:Core/Src/vl53l0x_api.c **** 	int i;
 372:Core/Src/vl53l0x_api.c **** 	uint8_t StopVariable;
 373:Core/Src/vl53l0x_api.c **** 
 374:Core/Src/vl53l0x_api.c **** 	LOG_FUNCTION_START("");
 375:Core/Src/vl53l0x_api.c **** 
 376:Core/Src/vl53l0x_api.c **** 	/* by default the I2C is running at 1V8 if you want to change it you
 377:Core/Src/vl53l0x_api.c **** 	 * need to include this define at compilation level. */
 378:Core/Src/vl53l0x_api.c **** #ifdef USE_I2C_2V8
 379:Core/Src/vl53l0x_api.c **** 	Status = VL53L0X_UpdateByte(Dev,
 380:Core/Src/vl53l0x_api.c **** 		VL53L0X_REG_VHV_CONFIG_PAD_SCL_SDA__EXTSUP_HV,
 381:Core/Src/vl53l0x_api.c **** 		0xFE,
 382:Core/Src/vl53l0x_api.c **** 		0x01);
 383:Core/Src/vl53l0x_api.c **** #endif
 384:Core/Src/vl53l0x_api.c **** 
 385:Core/Src/vl53l0x_api.c **** 	/* Set I2C standard mode */
 386:Core/Src/vl53l0x_api.c **** 	if (Status == VL53L0X_ERROR_NONE)
 387:Core/Src/vl53l0x_api.c **** 		Status = VL53L0X_WrByte(Dev, 0x88, 0x00);
 388:Core/Src/vl53l0x_api.c **** 
 389:Core/Src/vl53l0x_api.c **** 	VL53L0X_SETDEVICESPECIFICPARAMETER(Dev, ReadDataFromDeviceDone, 0);
 390:Core/Src/vl53l0x_api.c **** 
 391:Core/Src/vl53l0x_api.c **** #ifdef USE_IQC_STATION
 392:Core/Src/vl53l0x_api.c **** 	if (Status == VL53L0X_ERROR_NONE)
 393:Core/Src/vl53l0x_api.c **** 		Status = VL53L0X_apply_offset_adjustment(Dev);
 394:Core/Src/vl53l0x_api.c **** #endif
 395:Core/Src/vl53l0x_api.c **** 
 396:Core/Src/vl53l0x_api.c **** 	/* Default value is 1000 for Linearity Corrective Gain */
 397:Core/Src/vl53l0x_api.c **** 	PALDevDataSet(Dev, LinearityCorrectiveGain, 1000);
 398:Core/Src/vl53l0x_api.c **** 
 399:Core/Src/vl53l0x_api.c **** 	/* Dmax default Parameter */
 400:Core/Src/vl53l0x_api.c **** 	PALDevDataSet(Dev, DmaxCalRangeMilliMeter, 400);
 401:Core/Src/vl53l0x_api.c **** 	PALDevDataSet(Dev, DmaxCalSignalRateRtnMegaCps,
 402:Core/Src/vl53l0x_api.c **** 		(FixPoint1616_t)((0x00016B85))); /* 1.42 No Cover Glass*/
 403:Core/Src/vl53l0x_api.c **** 
 404:Core/Src/vl53l0x_api.c **** 	/* Set Default static parameters
 405:Core/Src/vl53l0x_api.c **** 	 *set first temporary values 9.44MHz * 65536 = 618660 */
 406:Core/Src/vl53l0x_api.c **** 	VL53L0X_SETDEVICESPECIFICPARAMETER(Dev, OscFrequencyMHz, 618660);
 407:Core/Src/vl53l0x_api.c **** 
 408:Core/Src/vl53l0x_api.c **** 	/* Set Default XTalkCompensationRateMegaCps to 0  */
ARM GAS  C:\Users\anmh1\AppData\Local\Temp\ccBPLcM2.s 			page 22


 409:Core/Src/vl53l0x_api.c **** 	VL53L0X_SETPARAMETERFIELD(Dev, XTalkCompensationRateMegaCps, 0);
 410:Core/Src/vl53l0x_api.c **** 
 411:Core/Src/vl53l0x_api.c **** 	/* Get default parameters */
 412:Core/Src/vl53l0x_api.c **** 	Status = VL53L0X_GetDeviceParameters(Dev, &CurrentParameters);
 413:Core/Src/vl53l0x_api.c **** 	if (Status == VL53L0X_ERROR_NONE) {
 414:Core/Src/vl53l0x_api.c **** 		/* initialize PAL values */
 415:Core/Src/vl53l0x_api.c **** 		CurrentParameters.DeviceMode = VL53L0X_DEVICEMODE_SINGLE_RANGING;
 416:Core/Src/vl53l0x_api.c **** 		CurrentParameters.HistogramMode = VL53L0X_HISTOGRAMMODE_DISABLED;
 417:Core/Src/vl53l0x_api.c **** 		PALDevDataSet(Dev, CurrentParameters, CurrentParameters);
 418:Core/Src/vl53l0x_api.c **** 	}
 419:Core/Src/vl53l0x_api.c **** 
 420:Core/Src/vl53l0x_api.c **** 	/* Sigma estimator variable */
 421:Core/Src/vl53l0x_api.c **** 	PALDevDataSet(Dev, SigmaEstRefArray, 100);
 422:Core/Src/vl53l0x_api.c **** 	PALDevDataSet(Dev, SigmaEstEffPulseWidth, 900);
 423:Core/Src/vl53l0x_api.c **** 	PALDevDataSet(Dev, SigmaEstEffAmbWidth, 500);
 424:Core/Src/vl53l0x_api.c **** 	PALDevDataSet(Dev, targetRefRate, 0x0A00); /* 20 MCPS in 9:7 format */
 425:Core/Src/vl53l0x_api.c **** 
 426:Core/Src/vl53l0x_api.c **** 	/* Use internal default settings */
 427:Core/Src/vl53l0x_api.c **** 	PALDevDataSet(Dev, UseInternalTuningSettings, 1);
 428:Core/Src/vl53l0x_api.c **** 
 429:Core/Src/vl53l0x_api.c **** 	Status |= VL53L0X_WrByte(Dev, 0x80, 0x01);
 430:Core/Src/vl53l0x_api.c **** 	Status |= VL53L0X_WrByte(Dev, 0xFF, 0x01);
 431:Core/Src/vl53l0x_api.c **** 	Status |= VL53L0X_WrByte(Dev, 0x00, 0x00);
 432:Core/Src/vl53l0x_api.c **** 	Status |= VL53L0X_RdByte(Dev, 0x91, &StopVariable);
 433:Core/Src/vl53l0x_api.c **** 	PALDevDataSet(Dev, StopVariable, StopVariable);
 434:Core/Src/vl53l0x_api.c **** 	Status |= VL53L0X_WrByte(Dev, 0x00, 0x01);
 435:Core/Src/vl53l0x_api.c **** 	Status |= VL53L0X_WrByte(Dev, 0xFF, 0x00);
 436:Core/Src/vl53l0x_api.c **** 	Status |= VL53L0X_WrByte(Dev, 0x80, 0x00);
 437:Core/Src/vl53l0x_api.c **** 
 438:Core/Src/vl53l0x_api.c **** 	/* Enable all check */
 439:Core/Src/vl53l0x_api.c **** 	for (i = 0; i < VL53L0X_CHECKENABLE_NUMBER_OF_CHECKS; i++) {
 440:Core/Src/vl53l0x_api.c **** 		if (Status == VL53L0X_ERROR_NONE)
 441:Core/Src/vl53l0x_api.c **** 			Status |= VL53L0X_SetLimitCheckEnable(Dev, i, 1);
 442:Core/Src/vl53l0x_api.c **** 		else
 443:Core/Src/vl53l0x_api.c **** 			break;
 444:Core/Src/vl53l0x_api.c **** 
 445:Core/Src/vl53l0x_api.c **** 	}
 446:Core/Src/vl53l0x_api.c **** 
 447:Core/Src/vl53l0x_api.c **** 	/* Disable the following checks */
 448:Core/Src/vl53l0x_api.c **** 	if (Status == VL53L0X_ERROR_NONE)
 449:Core/Src/vl53l0x_api.c **** 		Status = VL53L0X_SetLimitCheckEnable(Dev,
 450:Core/Src/vl53l0x_api.c **** 			VL53L0X_CHECKENABLE_SIGNAL_REF_CLIP, 0);
 451:Core/Src/vl53l0x_api.c **** 
 452:Core/Src/vl53l0x_api.c **** 	if (Status == VL53L0X_ERROR_NONE)
 453:Core/Src/vl53l0x_api.c **** 		Status = VL53L0X_SetLimitCheckEnable(Dev,
 454:Core/Src/vl53l0x_api.c **** 			VL53L0X_CHECKENABLE_RANGE_IGNORE_THRESHOLD, 0);
 455:Core/Src/vl53l0x_api.c **** 
 456:Core/Src/vl53l0x_api.c **** 	if (Status == VL53L0X_ERROR_NONE)
 457:Core/Src/vl53l0x_api.c **** 		Status = VL53L0X_SetLimitCheckEnable(Dev,
 458:Core/Src/vl53l0x_api.c **** 			VL53L0X_CHECKENABLE_SIGNAL_RATE_MSRC, 0);
 459:Core/Src/vl53l0x_api.c **** 
 460:Core/Src/vl53l0x_api.c **** 	if (Status == VL53L0X_ERROR_NONE)
 461:Core/Src/vl53l0x_api.c **** 		Status = VL53L0X_SetLimitCheckEnable(Dev,
 462:Core/Src/vl53l0x_api.c **** 			VL53L0X_CHECKENABLE_SIGNAL_RATE_PRE_RANGE, 0);
 463:Core/Src/vl53l0x_api.c **** 
 464:Core/Src/vl53l0x_api.c **** 	/* Limit default values */
 465:Core/Src/vl53l0x_api.c **** 	if (Status == VL53L0X_ERROR_NONE) {
ARM GAS  C:\Users\anmh1\AppData\Local\Temp\ccBPLcM2.s 			page 23


 466:Core/Src/vl53l0x_api.c **** 		Status = VL53L0X_SetLimitCheckValue(Dev,
 467:Core/Src/vl53l0x_api.c **** 			VL53L0X_CHECKENABLE_SIGMA_FINAL_RANGE,
 468:Core/Src/vl53l0x_api.c **** 				(FixPoint1616_t)(18 * 65536));
 469:Core/Src/vl53l0x_api.c **** 	}
 470:Core/Src/vl53l0x_api.c **** 	if (Status == VL53L0X_ERROR_NONE) {
 471:Core/Src/vl53l0x_api.c **** 		Status = VL53L0X_SetLimitCheckValue(Dev,
 472:Core/Src/vl53l0x_api.c **** 			VL53L0X_CHECKENABLE_SIGNAL_RATE_FINAL_RANGE,
 473:Core/Src/vl53l0x_api.c **** 				(FixPoint1616_t)(25 * 65536 / 100));
 474:Core/Src/vl53l0x_api.c **** 				/* 0.25 * 65536 */
 475:Core/Src/vl53l0x_api.c **** 	}
 476:Core/Src/vl53l0x_api.c **** 
 477:Core/Src/vl53l0x_api.c **** 	if (Status == VL53L0X_ERROR_NONE) {
 478:Core/Src/vl53l0x_api.c **** 		Status = VL53L0X_SetLimitCheckValue(Dev,
 479:Core/Src/vl53l0x_api.c **** 			VL53L0X_CHECKENABLE_SIGNAL_REF_CLIP,
 480:Core/Src/vl53l0x_api.c **** 				(FixPoint1616_t)(35 * 65536));
 481:Core/Src/vl53l0x_api.c **** 	}
 482:Core/Src/vl53l0x_api.c **** 
 483:Core/Src/vl53l0x_api.c **** 	if (Status == VL53L0X_ERROR_NONE) {
 484:Core/Src/vl53l0x_api.c **** 		Status = VL53L0X_SetLimitCheckValue(Dev,
 485:Core/Src/vl53l0x_api.c **** 			VL53L0X_CHECKENABLE_RANGE_IGNORE_THRESHOLD,
 486:Core/Src/vl53l0x_api.c **** 				(FixPoint1616_t)(0 * 65536));
 487:Core/Src/vl53l0x_api.c **** 	}
 488:Core/Src/vl53l0x_api.c **** 
 489:Core/Src/vl53l0x_api.c **** 	if (Status == VL53L0X_ERROR_NONE) {
 490:Core/Src/vl53l0x_api.c **** 
 491:Core/Src/vl53l0x_api.c **** 		PALDevDataSet(Dev, SequenceConfig, 0xFF);
 492:Core/Src/vl53l0x_api.c **** 		Status = VL53L0X_WrByte(Dev, VL53L0X_REG_SYSTEM_SEQUENCE_CONFIG,
 493:Core/Src/vl53l0x_api.c **** 			0xFF);
 494:Core/Src/vl53l0x_api.c **** 
 495:Core/Src/vl53l0x_api.c **** 		/* Set PAL state to tell that we are waiting for call to
 496:Core/Src/vl53l0x_api.c **** 		 * VL53L0X_StaticInit */
 497:Core/Src/vl53l0x_api.c **** 		PALDevDataSet(Dev, PalState, VL53L0X_STATE_WAIT_STATICINIT);
 498:Core/Src/vl53l0x_api.c **** 	}
 499:Core/Src/vl53l0x_api.c **** 
 500:Core/Src/vl53l0x_api.c **** 	if (Status == VL53L0X_ERROR_NONE)
 501:Core/Src/vl53l0x_api.c **** 		VL53L0X_SETDEVICESPECIFICPARAMETER(Dev, RefSpadsInitialised, 0);
 502:Core/Src/vl53l0x_api.c **** 
 503:Core/Src/vl53l0x_api.c **** 
 504:Core/Src/vl53l0x_api.c **** 	LOG_FUNCTION_END(Status);
 505:Core/Src/vl53l0x_api.c **** 	return Status;
 506:Core/Src/vl53l0x_api.c **** }
 507:Core/Src/vl53l0x_api.c **** 
 508:Core/Src/vl53l0x_api.c **** VL53L0X_Error VL53L0X_SetTuningSettingBuffer(VL53L0X_DEV Dev,
 509:Core/Src/vl53l0x_api.c **** 	uint8_t *pTuningSettingBuffer, uint8_t UseInternalTuningSettings)
 510:Core/Src/vl53l0x_api.c **** {
 821              		.loc 1 510 1 is_stmt 1 view -0
 822              		.cfi_startproc
 823              		@ args = 0, pretend = 0, frame = 0
 824              		@ frame_needed = 0, uses_anonymous_args = 0
 825              		@ link register save eliminated.
 511:Core/Src/vl53l0x_api.c **** 	VL53L0X_Error Status = VL53L0X_ERROR_NONE;
 826              		.loc 1 511 2 view .LVU225
 512:Core/Src/vl53l0x_api.c **** 
 513:Core/Src/vl53l0x_api.c **** 	LOG_FUNCTION_START("");
 827              		.loc 1 513 2 view .LVU226
 514:Core/Src/vl53l0x_api.c **** 
 515:Core/Src/vl53l0x_api.c **** 	if (UseInternalTuningSettings == 1) {
ARM GAS  C:\Users\anmh1\AppData\Local\Temp\ccBPLcM2.s 			page 24


 828              		.loc 1 515 2 view .LVU227
 829              		.loc 1 515 5 is_stmt 0 view .LVU228
 830 0000 012A     		cmp	r2, #1
 831 0002 08D0     		beq	.L44
 516:Core/Src/vl53l0x_api.c **** 		/* Force use internal settings */
 517:Core/Src/vl53l0x_api.c **** 		PALDevDataSet(Dev, UseInternalTuningSettings, 1);
 518:Core/Src/vl53l0x_api.c **** 	} else {
 519:Core/Src/vl53l0x_api.c **** 
 520:Core/Src/vl53l0x_api.c **** 		/* check that the first byte is not 0 */
 521:Core/Src/vl53l0x_api.c **** 		if (*pTuningSettingBuffer != 0) {
 832              		.loc 1 521 3 is_stmt 1 view .LVU229
 833              		.loc 1 521 7 is_stmt 0 view .LVU230
 834 0004 0B78     		ldrb	r3, [r1]	@ zero_extendqisi2
 835              		.loc 1 521 6 view .LVU231
 836 0006 5BB1     		cbz	r3, .L43
 522:Core/Src/vl53l0x_api.c **** 			PALDevDataSet(Dev, pTuningSettingsPointer,
 837              		.loc 1 522 4 is_stmt 1 view .LVU232
 838 0008 C0F84C11 		str	r1, [r0, #332]
 523:Core/Src/vl53l0x_api.c **** 				pTuningSettingBuffer);
 524:Core/Src/vl53l0x_api.c **** 			PALDevDataSet(Dev, UseInternalTuningSettings, 0);
 839              		.loc 1 524 4 view .LVU233
 840 000c 0023     		movs	r3, #0
 841 000e 80F85031 		strb	r3, [r0, #336]
 511:Core/Src/vl53l0x_api.c **** 
 842              		.loc 1 511 16 is_stmt 0 view .LVU234
 843 0012 1846     		mov	r0, r3
 844              	.LVL65:
 511:Core/Src/vl53l0x_api.c **** 
 845              		.loc 1 511 16 view .LVU235
 846 0014 7047     		bx	lr
 847              	.LVL66:
 848              	.L44:
 517:Core/Src/vl53l0x_api.c **** 	} else {
 849              		.loc 1 517 3 is_stmt 1 view .LVU236
 850 0016 0123     		movs	r3, #1
 851 0018 80F85031 		strb	r3, [r0, #336]
 511:Core/Src/vl53l0x_api.c **** 
 852              		.loc 1 511 16 is_stmt 0 view .LVU237
 853 001c 0020     		movs	r0, #0
 854              	.LVL67:
 511:Core/Src/vl53l0x_api.c **** 
 855              		.loc 1 511 16 view .LVU238
 856 001e 7047     		bx	lr
 857              	.LVL68:
 858              	.L43:
 525:Core/Src/vl53l0x_api.c **** 
 526:Core/Src/vl53l0x_api.c **** 		} else {
 527:Core/Src/vl53l0x_api.c **** 			Status = VL53L0X_ERROR_INVALID_PARAMS;
 859              		.loc 1 527 11 view .LVU239
 860 0020 6FF00300 		mvn	r0, #3
 861              	.LVL69:
 528:Core/Src/vl53l0x_api.c **** 		}
 529:Core/Src/vl53l0x_api.c **** 	}
 530:Core/Src/vl53l0x_api.c **** 
 531:Core/Src/vl53l0x_api.c **** 	LOG_FUNCTION_END(Status);
 862              		.loc 1 531 2 is_stmt 1 view .LVU240
 532:Core/Src/vl53l0x_api.c **** 	return Status;
ARM GAS  C:\Users\anmh1\AppData\Local\Temp\ccBPLcM2.s 			page 25


 863              		.loc 1 532 2 view .LVU241
 533:Core/Src/vl53l0x_api.c **** }
 864              		.loc 1 533 1 is_stmt 0 view .LVU242
 865 0024 7047     		bx	lr
 866              		.cfi_endproc
 867              	.LFE154:
 869              		.section	.text.VL53L0X_GetTuningSettingBuffer,"ax",%progbits
 870              		.align	1
 871              		.global	VL53L0X_GetTuningSettingBuffer
 872              		.syntax unified
 873              		.thumb
 874              		.thumb_func
 875              		.fpu fpv4-sp-d16
 877              	VL53L0X_GetTuningSettingBuffer:
 878              	.LVL70:
 879              	.LFB155:
 534:Core/Src/vl53l0x_api.c **** 
 535:Core/Src/vl53l0x_api.c **** VL53L0X_Error VL53L0X_GetTuningSettingBuffer(VL53L0X_DEV Dev,
 536:Core/Src/vl53l0x_api.c **** 	uint8_t **ppTuningSettingBuffer, uint8_t *pUseInternalTuningSettings)
 537:Core/Src/vl53l0x_api.c **** {
 880              		.loc 1 537 1 is_stmt 1 view -0
 881              		.cfi_startproc
 882              		@ args = 0, pretend = 0, frame = 0
 883              		@ frame_needed = 0, uses_anonymous_args = 0
 884              		@ link register save eliminated.
 538:Core/Src/vl53l0x_api.c **** 	VL53L0X_Error Status = VL53L0X_ERROR_NONE;
 885              		.loc 1 538 2 view .LVU244
 539:Core/Src/vl53l0x_api.c **** 
 540:Core/Src/vl53l0x_api.c **** 	LOG_FUNCTION_START("");
 886              		.loc 1 540 2 view .LVU245
 541:Core/Src/vl53l0x_api.c **** 
 542:Core/Src/vl53l0x_api.c **** 	*ppTuningSettingBuffer = PALDevDataGet(Dev, pTuningSettingsPointer);
 887              		.loc 1 542 2 view .LVU246
 888              		.loc 1 542 27 is_stmt 0 view .LVU247
 889 0000 D0F84C31 		ldr	r3, [r0, #332]
 890              		.loc 1 542 25 view .LVU248
 891 0004 0B60     		str	r3, [r1]
 543:Core/Src/vl53l0x_api.c **** 	*pUseInternalTuningSettings = PALDevDataGet(Dev,
 892              		.loc 1 543 2 is_stmt 1 view .LVU249
 893              		.loc 1 543 32 is_stmt 0 view .LVU250
 894 0006 90F85031 		ldrb	r3, [r0, #336]	@ zero_extendqisi2
 895              		.loc 1 543 30 view .LVU251
 896 000a 1370     		strb	r3, [r2]
 544:Core/Src/vl53l0x_api.c **** 		UseInternalTuningSettings);
 545:Core/Src/vl53l0x_api.c **** 
 546:Core/Src/vl53l0x_api.c **** 	LOG_FUNCTION_END(Status);
 897              		.loc 1 546 2 is_stmt 1 view .LVU252
 547:Core/Src/vl53l0x_api.c **** 	return Status;
 898              		.loc 1 547 2 view .LVU253
 548:Core/Src/vl53l0x_api.c **** }
 899              		.loc 1 548 1 is_stmt 0 view .LVU254
 900 000c 0020     		movs	r0, #0
 901              	.LVL71:
 902              		.loc 1 548 1 view .LVU255
 903 000e 7047     		bx	lr
 904              		.cfi_endproc
 905              	.LFE155:
ARM GAS  C:\Users\anmh1\AppData\Local\Temp\ccBPLcM2.s 			page 26


 907              		.section	.text.VL53L0X_WaitDeviceBooted,"ax",%progbits
 908              		.align	1
 909              		.global	VL53L0X_WaitDeviceBooted
 910              		.syntax unified
 911              		.thumb
 912              		.thumb_func
 913              		.fpu fpv4-sp-d16
 915              	VL53L0X_WaitDeviceBooted:
 916              	.LVL72:
 917              	.LFB157:
 549:Core/Src/vl53l0x_api.c **** 
 550:Core/Src/vl53l0x_api.c **** VL53L0X_Error VL53L0X_StaticInit(VL53L0X_DEV Dev)
 551:Core/Src/vl53l0x_api.c **** {
 552:Core/Src/vl53l0x_api.c **** 	VL53L0X_Error Status = VL53L0X_ERROR_NONE;
 553:Core/Src/vl53l0x_api.c **** 	VL53L0X_DeviceParameters_t CurrentParameters = {0};
 554:Core/Src/vl53l0x_api.c **** 	uint8_t *pTuningSettingBuffer;
 555:Core/Src/vl53l0x_api.c **** 	uint16_t tempword = 0;
 556:Core/Src/vl53l0x_api.c **** 	uint8_t tempbyte = 0;
 557:Core/Src/vl53l0x_api.c **** 	uint8_t UseInternalTuningSettings = 0;
 558:Core/Src/vl53l0x_api.c **** 	uint32_t count = 0;
 559:Core/Src/vl53l0x_api.c **** 	uint8_t isApertureSpads = 0;
 560:Core/Src/vl53l0x_api.c **** 	uint32_t refSpadCount = 0;
 561:Core/Src/vl53l0x_api.c **** 	uint8_t ApertureSpads = 0;
 562:Core/Src/vl53l0x_api.c **** 	uint8_t vcselPulsePeriodPCLK;
 563:Core/Src/vl53l0x_api.c **** 	uint32_t seqTimeoutMicroSecs;
 564:Core/Src/vl53l0x_api.c **** 
 565:Core/Src/vl53l0x_api.c **** 	LOG_FUNCTION_START("");
 566:Core/Src/vl53l0x_api.c **** 
 567:Core/Src/vl53l0x_api.c **** 	Status = VL53L0X_get_info_from_device(Dev, 1);
 568:Core/Src/vl53l0x_api.c **** 
 569:Core/Src/vl53l0x_api.c **** 	/* set the ref spad from NVM */
 570:Core/Src/vl53l0x_api.c **** 	count	= (uint32_t)VL53L0X_GETDEVICESPECIFICPARAMETER(Dev,
 571:Core/Src/vl53l0x_api.c **** 		ReferenceSpadCount);
 572:Core/Src/vl53l0x_api.c **** 	ApertureSpads = VL53L0X_GETDEVICESPECIFICPARAMETER(Dev,
 573:Core/Src/vl53l0x_api.c **** 		ReferenceSpadType);
 574:Core/Src/vl53l0x_api.c **** 
 575:Core/Src/vl53l0x_api.c **** 	/* NVM value invalid */
 576:Core/Src/vl53l0x_api.c **** 	if ((ApertureSpads > 1) ||
 577:Core/Src/vl53l0x_api.c **** 		((ApertureSpads == 1) && (count > 32)) ||
 578:Core/Src/vl53l0x_api.c **** 		((ApertureSpads == 0) && (count > 12)))
 579:Core/Src/vl53l0x_api.c **** 		Status = VL53L0X_perform_ref_spad_management(Dev, &refSpadCount,
 580:Core/Src/vl53l0x_api.c **** 			&isApertureSpads);
 581:Core/Src/vl53l0x_api.c **** 	else
 582:Core/Src/vl53l0x_api.c **** 		Status = VL53L0X_set_reference_spads(Dev, count, ApertureSpads);
 583:Core/Src/vl53l0x_api.c **** 
 584:Core/Src/vl53l0x_api.c **** 
 585:Core/Src/vl53l0x_api.c **** 	/* Initialize tuning settings buffer to prevent compiler warning. */
 586:Core/Src/vl53l0x_api.c **** 	pTuningSettingBuffer = DefaultTuningSettings;
 587:Core/Src/vl53l0x_api.c **** 
 588:Core/Src/vl53l0x_api.c **** 	if (Status == VL53L0X_ERROR_NONE) {
 589:Core/Src/vl53l0x_api.c **** 		UseInternalTuningSettings = PALDevDataGet(Dev,
 590:Core/Src/vl53l0x_api.c **** 			UseInternalTuningSettings);
 591:Core/Src/vl53l0x_api.c **** 
 592:Core/Src/vl53l0x_api.c **** 		if (UseInternalTuningSettings == 0)
 593:Core/Src/vl53l0x_api.c **** 			pTuningSettingBuffer = PALDevDataGet(Dev,
 594:Core/Src/vl53l0x_api.c **** 				pTuningSettingsPointer);
 595:Core/Src/vl53l0x_api.c **** 		else
ARM GAS  C:\Users\anmh1\AppData\Local\Temp\ccBPLcM2.s 			page 27


 596:Core/Src/vl53l0x_api.c **** 			pTuningSettingBuffer = DefaultTuningSettings;
 597:Core/Src/vl53l0x_api.c **** 
 598:Core/Src/vl53l0x_api.c **** 	}
 599:Core/Src/vl53l0x_api.c **** 
 600:Core/Src/vl53l0x_api.c **** 	if (Status == VL53L0X_ERROR_NONE)
 601:Core/Src/vl53l0x_api.c **** 		Status = VL53L0X_load_tuning_settings(Dev, pTuningSettingBuffer);
 602:Core/Src/vl53l0x_api.c **** 
 603:Core/Src/vl53l0x_api.c **** 
 604:Core/Src/vl53l0x_api.c **** 	/* Set interrupt config to new sample ready */
 605:Core/Src/vl53l0x_api.c **** 	if (Status == VL53L0X_ERROR_NONE) {
 606:Core/Src/vl53l0x_api.c **** 		Status = VL53L0X_SetGpioConfig(Dev, 0, 0,
 607:Core/Src/vl53l0x_api.c **** 		VL53L0X_REG_SYSTEM_INTERRUPT_GPIO_NEW_SAMPLE_READY,
 608:Core/Src/vl53l0x_api.c **** 		VL53L0X_INTERRUPTPOLARITY_LOW);
 609:Core/Src/vl53l0x_api.c **** 	}
 610:Core/Src/vl53l0x_api.c **** 
 611:Core/Src/vl53l0x_api.c **** 	if (Status == VL53L0X_ERROR_NONE) {
 612:Core/Src/vl53l0x_api.c **** 		Status = VL53L0X_WrByte(Dev, 0xFF, 0x01);
 613:Core/Src/vl53l0x_api.c **** 		Status |= VL53L0X_RdWord(Dev, 0x84, &tempword);
 614:Core/Src/vl53l0x_api.c **** 		Status |= VL53L0X_WrByte(Dev, 0xFF, 0x00);
 615:Core/Src/vl53l0x_api.c **** 	}
 616:Core/Src/vl53l0x_api.c **** 
 617:Core/Src/vl53l0x_api.c **** 	if (Status == VL53L0X_ERROR_NONE) {
 618:Core/Src/vl53l0x_api.c **** 		VL53L0X_SETDEVICESPECIFICPARAMETER(Dev, OscFrequencyMHz,
 619:Core/Src/vl53l0x_api.c **** 			VL53L0X_FIXPOINT412TOFIXPOINT1616(tempword));
 620:Core/Src/vl53l0x_api.c **** 	}
 621:Core/Src/vl53l0x_api.c **** 
 622:Core/Src/vl53l0x_api.c **** 	/* After static init, some device parameters may be changed,
 623:Core/Src/vl53l0x_api.c **** 	 * so update them */
 624:Core/Src/vl53l0x_api.c **** 	if (Status == VL53L0X_ERROR_NONE)
 625:Core/Src/vl53l0x_api.c **** 		Status = VL53L0X_GetDeviceParameters(Dev, &CurrentParameters);
 626:Core/Src/vl53l0x_api.c **** 
 627:Core/Src/vl53l0x_api.c **** 
 628:Core/Src/vl53l0x_api.c **** 	if (Status == VL53L0X_ERROR_NONE) {
 629:Core/Src/vl53l0x_api.c **** 		Status = VL53L0X_GetFractionEnable(Dev, &tempbyte);
 630:Core/Src/vl53l0x_api.c **** 		if (Status == VL53L0X_ERROR_NONE)
 631:Core/Src/vl53l0x_api.c **** 			PALDevDataSet(Dev, RangeFractionalEnable, tempbyte);
 632:Core/Src/vl53l0x_api.c **** 
 633:Core/Src/vl53l0x_api.c **** 	}
 634:Core/Src/vl53l0x_api.c **** 
 635:Core/Src/vl53l0x_api.c **** 	if (Status == VL53L0X_ERROR_NONE)
 636:Core/Src/vl53l0x_api.c **** 		PALDevDataSet(Dev, CurrentParameters, CurrentParameters);
 637:Core/Src/vl53l0x_api.c **** 
 638:Core/Src/vl53l0x_api.c **** 
 639:Core/Src/vl53l0x_api.c **** 	/* read the sequence config and save it */
 640:Core/Src/vl53l0x_api.c **** 	if (Status == VL53L0X_ERROR_NONE) {
 641:Core/Src/vl53l0x_api.c **** 		Status = VL53L0X_RdByte(Dev,
 642:Core/Src/vl53l0x_api.c **** 		VL53L0X_REG_SYSTEM_SEQUENCE_CONFIG, &tempbyte);
 643:Core/Src/vl53l0x_api.c **** 		if (Status == VL53L0X_ERROR_NONE)
 644:Core/Src/vl53l0x_api.c **** 			PALDevDataSet(Dev, SequenceConfig, tempbyte);
 645:Core/Src/vl53l0x_api.c **** 
 646:Core/Src/vl53l0x_api.c **** 	}
 647:Core/Src/vl53l0x_api.c **** 
 648:Core/Src/vl53l0x_api.c **** 	/* Disable MSRC and TCC by default */
 649:Core/Src/vl53l0x_api.c **** 	if (Status == VL53L0X_ERROR_NONE)
 650:Core/Src/vl53l0x_api.c **** 		Status = VL53L0X_SetSequenceStepEnable(Dev,
 651:Core/Src/vl53l0x_api.c **** 					VL53L0X_SEQUENCESTEP_TCC, 0);
 652:Core/Src/vl53l0x_api.c **** 
ARM GAS  C:\Users\anmh1\AppData\Local\Temp\ccBPLcM2.s 			page 28


 653:Core/Src/vl53l0x_api.c **** 
 654:Core/Src/vl53l0x_api.c **** 	if (Status == VL53L0X_ERROR_NONE)
 655:Core/Src/vl53l0x_api.c **** 		Status = VL53L0X_SetSequenceStepEnable(Dev,
 656:Core/Src/vl53l0x_api.c **** 		VL53L0X_SEQUENCESTEP_MSRC, 0);
 657:Core/Src/vl53l0x_api.c **** 
 658:Core/Src/vl53l0x_api.c **** 
 659:Core/Src/vl53l0x_api.c **** 	/* Set PAL State to standby */
 660:Core/Src/vl53l0x_api.c **** 	if (Status == VL53L0X_ERROR_NONE)
 661:Core/Src/vl53l0x_api.c **** 		PALDevDataSet(Dev, PalState, VL53L0X_STATE_IDLE);
 662:Core/Src/vl53l0x_api.c **** 
 663:Core/Src/vl53l0x_api.c **** 
 664:Core/Src/vl53l0x_api.c **** 
 665:Core/Src/vl53l0x_api.c **** 	/* Store pre-range vcsel period */
 666:Core/Src/vl53l0x_api.c **** 	if (Status == VL53L0X_ERROR_NONE) {
 667:Core/Src/vl53l0x_api.c **** 		Status = VL53L0X_GetVcselPulsePeriod(
 668:Core/Src/vl53l0x_api.c **** 			Dev,
 669:Core/Src/vl53l0x_api.c **** 			VL53L0X_VCSEL_PERIOD_PRE_RANGE,
 670:Core/Src/vl53l0x_api.c **** 			&vcselPulsePeriodPCLK);
 671:Core/Src/vl53l0x_api.c **** 	}
 672:Core/Src/vl53l0x_api.c **** 
 673:Core/Src/vl53l0x_api.c **** 	if (Status == VL53L0X_ERROR_NONE) {
 674:Core/Src/vl53l0x_api.c **** 			VL53L0X_SETDEVICESPECIFICPARAMETER(
 675:Core/Src/vl53l0x_api.c **** 				Dev,
 676:Core/Src/vl53l0x_api.c **** 				PreRangeVcselPulsePeriod,
 677:Core/Src/vl53l0x_api.c **** 				vcselPulsePeriodPCLK);
 678:Core/Src/vl53l0x_api.c **** 	}
 679:Core/Src/vl53l0x_api.c **** 
 680:Core/Src/vl53l0x_api.c **** 	/* Store final-range vcsel period */
 681:Core/Src/vl53l0x_api.c **** 	if (Status == VL53L0X_ERROR_NONE) {
 682:Core/Src/vl53l0x_api.c **** 		Status = VL53L0X_GetVcselPulsePeriod(
 683:Core/Src/vl53l0x_api.c **** 			Dev,
 684:Core/Src/vl53l0x_api.c **** 			VL53L0X_VCSEL_PERIOD_FINAL_RANGE,
 685:Core/Src/vl53l0x_api.c **** 			&vcselPulsePeriodPCLK);
 686:Core/Src/vl53l0x_api.c **** 	}
 687:Core/Src/vl53l0x_api.c **** 
 688:Core/Src/vl53l0x_api.c **** 	if (Status == VL53L0X_ERROR_NONE) {
 689:Core/Src/vl53l0x_api.c **** 			VL53L0X_SETDEVICESPECIFICPARAMETER(
 690:Core/Src/vl53l0x_api.c **** 				Dev,
 691:Core/Src/vl53l0x_api.c **** 				FinalRangeVcselPulsePeriod,
 692:Core/Src/vl53l0x_api.c **** 				vcselPulsePeriodPCLK);
 693:Core/Src/vl53l0x_api.c **** 	}
 694:Core/Src/vl53l0x_api.c **** 
 695:Core/Src/vl53l0x_api.c **** 	/* Store pre-range timeout */
 696:Core/Src/vl53l0x_api.c **** 	if (Status == VL53L0X_ERROR_NONE) {
 697:Core/Src/vl53l0x_api.c **** 		Status = get_sequence_step_timeout(
 698:Core/Src/vl53l0x_api.c **** 			Dev,
 699:Core/Src/vl53l0x_api.c **** 			VL53L0X_SEQUENCESTEP_PRE_RANGE,
 700:Core/Src/vl53l0x_api.c **** 			&seqTimeoutMicroSecs);
 701:Core/Src/vl53l0x_api.c **** 	}
 702:Core/Src/vl53l0x_api.c **** 
 703:Core/Src/vl53l0x_api.c **** 	if (Status == VL53L0X_ERROR_NONE) {
 704:Core/Src/vl53l0x_api.c **** 		VL53L0X_SETDEVICESPECIFICPARAMETER(
 705:Core/Src/vl53l0x_api.c **** 			Dev,
 706:Core/Src/vl53l0x_api.c **** 			PreRangeTimeoutMicroSecs,
 707:Core/Src/vl53l0x_api.c **** 			seqTimeoutMicroSecs);
 708:Core/Src/vl53l0x_api.c **** 	}
 709:Core/Src/vl53l0x_api.c **** 
ARM GAS  C:\Users\anmh1\AppData\Local\Temp\ccBPLcM2.s 			page 29


 710:Core/Src/vl53l0x_api.c **** 	/* Store final-range timeout */
 711:Core/Src/vl53l0x_api.c **** 	if (Status == VL53L0X_ERROR_NONE) {
 712:Core/Src/vl53l0x_api.c **** 		Status = get_sequence_step_timeout(
 713:Core/Src/vl53l0x_api.c **** 			Dev,
 714:Core/Src/vl53l0x_api.c **** 			VL53L0X_SEQUENCESTEP_FINAL_RANGE,
 715:Core/Src/vl53l0x_api.c **** 			&seqTimeoutMicroSecs);
 716:Core/Src/vl53l0x_api.c **** 	}
 717:Core/Src/vl53l0x_api.c **** 
 718:Core/Src/vl53l0x_api.c **** 	if (Status == VL53L0X_ERROR_NONE) {
 719:Core/Src/vl53l0x_api.c **** 		VL53L0X_SETDEVICESPECIFICPARAMETER(
 720:Core/Src/vl53l0x_api.c **** 			Dev,
 721:Core/Src/vl53l0x_api.c **** 			FinalRangeTimeoutMicroSecs,
 722:Core/Src/vl53l0x_api.c **** 			seqTimeoutMicroSecs);
 723:Core/Src/vl53l0x_api.c **** 	}
 724:Core/Src/vl53l0x_api.c **** 
 725:Core/Src/vl53l0x_api.c **** 	LOG_FUNCTION_END(Status);
 726:Core/Src/vl53l0x_api.c **** 	return Status;
 727:Core/Src/vl53l0x_api.c **** }
 728:Core/Src/vl53l0x_api.c **** 
 729:Core/Src/vl53l0x_api.c **** VL53L0X_Error VL53L0X_WaitDeviceBooted(VL53L0X_DEV Dev)
 730:Core/Src/vl53l0x_api.c **** {
 918              		.loc 1 730 1 is_stmt 1 view -0
 919              		.cfi_startproc
 920              		@ args = 0, pretend = 0, frame = 0
 921              		@ frame_needed = 0, uses_anonymous_args = 0
 922              		@ link register save eliminated.
 731:Core/Src/vl53l0x_api.c **** 	VL53L0X_Error Status = VL53L0X_ERROR_NOT_IMPLEMENTED;
 923              		.loc 1 731 2 view .LVU257
 732:Core/Src/vl53l0x_api.c **** 	LOG_FUNCTION_START("");
 924              		.loc 1 732 2 view .LVU258
 733:Core/Src/vl53l0x_api.c **** 
 734:Core/Src/vl53l0x_api.c **** 	/* not implemented on VL53L0X */
 735:Core/Src/vl53l0x_api.c **** 
 736:Core/Src/vl53l0x_api.c **** 	LOG_FUNCTION_END(Status);
 925              		.loc 1 736 2 view .LVU259
 737:Core/Src/vl53l0x_api.c **** 	return Status;
 926              		.loc 1 737 2 view .LVU260
 738:Core/Src/vl53l0x_api.c **** }
 927              		.loc 1 738 1 is_stmt 0 view .LVU261
 928 0000 6FF06200 		mvn	r0, #98
 929              	.LVL73:
 930              		.loc 1 738 1 view .LVU262
 931 0004 7047     		bx	lr
 932              		.cfi_endproc
 933              	.LFE157:
 935              		.section	.text.VL53L0X_ResetDevice,"ax",%progbits
 936              		.align	1
 937              		.global	VL53L0X_ResetDevice
 938              		.syntax unified
 939              		.thumb
 940              		.thumb_func
 941              		.fpu fpv4-sp-d16
 943              	VL53L0X_ResetDevice:
 944              	.LVL74:
 945              	.LFB158:
 739:Core/Src/vl53l0x_api.c **** 
 740:Core/Src/vl53l0x_api.c **** VL53L0X_Error VL53L0X_ResetDevice(VL53L0X_DEV Dev)
ARM GAS  C:\Users\anmh1\AppData\Local\Temp\ccBPLcM2.s 			page 30


 741:Core/Src/vl53l0x_api.c **** {
 946              		.loc 1 741 1 is_stmt 1 view -0
 947              		.cfi_startproc
 948              		@ args = 0, pretend = 0, frame = 8
 949              		@ frame_needed = 0, uses_anonymous_args = 0
 950              		.loc 1 741 1 is_stmt 0 view .LVU264
 951 0000 30B5     		push	{r4, r5, lr}
 952              		.cfi_def_cfa_offset 12
 953              		.cfi_offset 4, -12
 954              		.cfi_offset 5, -8
 955              		.cfi_offset 14, -4
 956 0002 83B0     		sub	sp, sp, #12
 957              		.cfi_def_cfa_offset 24
 958 0004 0546     		mov	r5, r0
 742:Core/Src/vl53l0x_api.c **** 	VL53L0X_Error Status = VL53L0X_ERROR_NONE;
 959              		.loc 1 742 2 is_stmt 1 view .LVU265
 960              	.LVL75:
 743:Core/Src/vl53l0x_api.c **** 	uint8_t Byte;
 961              		.loc 1 743 2 view .LVU266
 744:Core/Src/vl53l0x_api.c **** 	LOG_FUNCTION_START("");
 962              		.loc 1 744 2 view .LVU267
 745:Core/Src/vl53l0x_api.c **** 
 746:Core/Src/vl53l0x_api.c **** 	/* Set reset bit */
 747:Core/Src/vl53l0x_api.c **** 	Status = VL53L0X_WrByte(Dev, VL53L0X_REG_SOFT_RESET_GO2_SOFT_RESET_N,
 963              		.loc 1 747 2 view .LVU268
 964              		.loc 1 747 11 is_stmt 0 view .LVU269
 965 0006 0022     		movs	r2, #0
 966 0008 BF21     		movs	r1, #191
 967 000a FFF7FEFF 		bl	VL53L0X_WrByte
 968              	.LVL76:
 748:Core/Src/vl53l0x_api.c **** 		0x00);
 749:Core/Src/vl53l0x_api.c **** 
 750:Core/Src/vl53l0x_api.c **** 	/* Wait for some time */
 751:Core/Src/vl53l0x_api.c **** 	if (Status == VL53L0X_ERROR_NONE) {
 969              		.loc 1 751 2 is_stmt 1 view .LVU270
 970              		.loc 1 751 5 is_stmt 0 view .LVU271
 971 000e 48B9     		cbnz	r0, .L48
 972              	.LVL77:
 973              	.L49:
 752:Core/Src/vl53l0x_api.c **** 		do {
 974              		.loc 1 752 3 is_stmt 1 discriminator 1 view .LVU272
 753:Core/Src/vl53l0x_api.c **** 			Status = VL53L0X_RdByte(Dev,
 975              		.loc 1 753 4 discriminator 1 view .LVU273
 976              		.loc 1 753 13 is_stmt 0 discriminator 1 view .LVU274
 977 0010 0DF10702 		add	r2, sp, #7
 978 0014 C021     		movs	r1, #192
 979 0016 2846     		mov	r0, r5
 980 0018 FFF7FEFF 		bl	VL53L0X_RdByte
 981              	.LVL78:
 754:Core/Src/vl53l0x_api.c **** 			VL53L0X_REG_IDENTIFICATION_MODEL_ID, &Byte);
 755:Core/Src/vl53l0x_api.c **** 		} while (Byte != 0x00);
 982              		.loc 1 755 11 is_stmt 1 discriminator 1 view .LVU275
 983              		.loc 1 755 17 is_stmt 0 discriminator 1 view .LVU276
 984 001c 9DF80730 		ldrb	r3, [sp, #7]	@ zero_extendqisi2
 985              		.loc 1 755 3 discriminator 1 view .LVU277
 986 0020 002B     		cmp	r3, #0
 987 0022 F5D1     		bne	.L49
ARM GAS  C:\Users\anmh1\AppData\Local\Temp\ccBPLcM2.s 			page 31


 988              	.L48:
 756:Core/Src/vl53l0x_api.c **** 	}
 757:Core/Src/vl53l0x_api.c **** 
 758:Core/Src/vl53l0x_api.c **** 	VL53L0X_PollingDelay(Dev);
 989              		.loc 1 758 2 is_stmt 1 view .LVU278
 990 0024 2846     		mov	r0, r5
 991 0026 FFF7FEFF 		bl	VL53L0X_PollingDelay
 992              	.LVL79:
 759:Core/Src/vl53l0x_api.c **** 
 760:Core/Src/vl53l0x_api.c **** 	/* Release reset */
 761:Core/Src/vl53l0x_api.c **** 	Status = VL53L0X_WrByte(Dev, VL53L0X_REG_SOFT_RESET_GO2_SOFT_RESET_N,
 993              		.loc 1 761 2 view .LVU279
 994              		.loc 1 761 11 is_stmt 0 view .LVU280
 995 002a 0122     		movs	r2, #1
 996 002c BF21     		movs	r1, #191
 997 002e 2846     		mov	r0, r5
 998 0030 FFF7FEFF 		bl	VL53L0X_WrByte
 999              	.LVL80:
 762:Core/Src/vl53l0x_api.c **** 		0x01);
 763:Core/Src/vl53l0x_api.c **** 
 764:Core/Src/vl53l0x_api.c **** 	/* Wait until correct boot-up of the device */
 765:Core/Src/vl53l0x_api.c **** 	if (Status == VL53L0X_ERROR_NONE) {
 1000              		.loc 1 765 2 is_stmt 1 view .LVU281
 1001              		.loc 1 765 5 is_stmt 0 view .LVU282
 1002 0034 0446     		mov	r4, r0
 1003 0036 50B9     		cbnz	r0, .L50
 1004              	.LVL81:
 1005              	.L51:
 766:Core/Src/vl53l0x_api.c **** 		do {
 1006              		.loc 1 766 3 is_stmt 1 discriminator 1 view .LVU283
 767:Core/Src/vl53l0x_api.c **** 			Status = VL53L0X_RdByte(Dev,
 1007              		.loc 1 767 4 discriminator 1 view .LVU284
 1008              		.loc 1 767 13 is_stmt 0 discriminator 1 view .LVU285
 1009 0038 0DF10702 		add	r2, sp, #7
 1010 003c C021     		movs	r1, #192
 1011 003e 2846     		mov	r0, r5
 1012 0040 FFF7FEFF 		bl	VL53L0X_RdByte
 1013              	.LVL82:
 1014 0044 0446     		mov	r4, r0
 1015              	.LVL83:
 768:Core/Src/vl53l0x_api.c **** 			VL53L0X_REG_IDENTIFICATION_MODEL_ID, &Byte);
 769:Core/Src/vl53l0x_api.c **** 		} while (Byte == 0x00);
 1016              		.loc 1 769 11 is_stmt 1 discriminator 1 view .LVU286
 1017              		.loc 1 769 17 is_stmt 0 discriminator 1 view .LVU287
 1018 0046 9DF80730 		ldrb	r3, [sp, #7]	@ zero_extendqisi2
 1019              		.loc 1 769 3 discriminator 1 view .LVU288
 1020 004a 002B     		cmp	r3, #0
 1021 004c F4D0     		beq	.L51
 1022              	.LVL84:
 1023              	.L50:
 770:Core/Src/vl53l0x_api.c **** 	}
 771:Core/Src/vl53l0x_api.c **** 
 772:Core/Src/vl53l0x_api.c **** 	VL53L0X_PollingDelay(Dev);
 1024              		.loc 1 772 2 is_stmt 1 view .LVU289
 1025 004e 2846     		mov	r0, r5
 1026 0050 FFF7FEFF 		bl	VL53L0X_PollingDelay
 1027              	.LVL85:
ARM GAS  C:\Users\anmh1\AppData\Local\Temp\ccBPLcM2.s 			page 32


 773:Core/Src/vl53l0x_api.c **** 
 774:Core/Src/vl53l0x_api.c **** 	/* Set PAL State to VL53L0X_STATE_POWERDOWN */
 775:Core/Src/vl53l0x_api.c **** 	if (Status == VL53L0X_ERROR_NONE)
 1028              		.loc 1 775 2 view .LVU290
 1029              		.loc 1 775 5 is_stmt 0 view .LVU291
 1030 0054 14B9     		cbnz	r4, .L52
 776:Core/Src/vl53l0x_api.c **** 		PALDevDataSet(Dev, PalState, VL53L0X_STATE_POWERDOWN);
 1031              		.loc 1 776 3 is_stmt 1 view .LVU292
 1032 0056 0023     		movs	r3, #0
 1033 0058 85F83231 		strb	r3, [r5, #306]
 1034              	.L52:
 777:Core/Src/vl53l0x_api.c **** 
 778:Core/Src/vl53l0x_api.c **** 
 779:Core/Src/vl53l0x_api.c **** 	LOG_FUNCTION_END(Status);
 1035              		.loc 1 779 2 view .LVU293
 780:Core/Src/vl53l0x_api.c **** 	return Status;
 1036              		.loc 1 780 2 view .LVU294
 781:Core/Src/vl53l0x_api.c **** }
 1037              		.loc 1 781 1 is_stmt 0 view .LVU295
 1038 005c 2046     		mov	r0, r4
 1039 005e 03B0     		add	sp, sp, #12
 1040              		.cfi_def_cfa_offset 12
 1041              		@ sp needed
 1042 0060 30BD     		pop	{r4, r5, pc}
 1043              		.loc 1 781 1 view .LVU296
 1044              		.cfi_endproc
 1045              	.LFE158:
 1047              		.section	.text.VL53L0X_SetDeviceMode,"ax",%progbits
 1048              		.align	1
 1049              		.global	VL53L0X_SetDeviceMode
 1050              		.syntax unified
 1051              		.thumb
 1052              		.thumb_func
 1053              		.fpu fpv4-sp-d16
 1055              	VL53L0X_SetDeviceMode:
 1056              	.LVL86:
 1057              	.LFB161:
 782:Core/Src/vl53l0x_api.c **** /* End Group PAL Init Functions */
 783:Core/Src/vl53l0x_api.c **** 
 784:Core/Src/vl53l0x_api.c **** /* Group PAL Parameters Functions */
 785:Core/Src/vl53l0x_api.c **** VL53L0X_Error VL53L0X_SetDeviceParameters(VL53L0X_DEV Dev,
 786:Core/Src/vl53l0x_api.c **** 	const VL53L0X_DeviceParameters_t *pDeviceParameters)
 787:Core/Src/vl53l0x_api.c **** {
 788:Core/Src/vl53l0x_api.c **** 	VL53L0X_Error Status = VL53L0X_ERROR_NONE;
 789:Core/Src/vl53l0x_api.c **** 	int i;
 790:Core/Src/vl53l0x_api.c **** 	LOG_FUNCTION_START("");
 791:Core/Src/vl53l0x_api.c **** 	Status = VL53L0X_SetDeviceMode(Dev, pDeviceParameters->DeviceMode);
 792:Core/Src/vl53l0x_api.c **** 
 793:Core/Src/vl53l0x_api.c **** 	if (Status == VL53L0X_ERROR_NONE)
 794:Core/Src/vl53l0x_api.c **** 		Status = VL53L0X_SetInterMeasurementPeriodMilliSeconds(Dev,
 795:Core/Src/vl53l0x_api.c **** 			pDeviceParameters->InterMeasurementPeriodMilliSeconds);
 796:Core/Src/vl53l0x_api.c **** 
 797:Core/Src/vl53l0x_api.c **** 
 798:Core/Src/vl53l0x_api.c **** 	if (Status == VL53L0X_ERROR_NONE)
 799:Core/Src/vl53l0x_api.c **** 		Status = VL53L0X_SetXTalkCompensationRateMegaCps(Dev,
 800:Core/Src/vl53l0x_api.c **** 			pDeviceParameters->XTalkCompensationRateMegaCps);
 801:Core/Src/vl53l0x_api.c **** 
ARM GAS  C:\Users\anmh1\AppData\Local\Temp\ccBPLcM2.s 			page 33


 802:Core/Src/vl53l0x_api.c **** 
 803:Core/Src/vl53l0x_api.c **** 	if (Status == VL53L0X_ERROR_NONE)
 804:Core/Src/vl53l0x_api.c **** 		Status = VL53L0X_SetOffsetCalibrationDataMicroMeter(Dev,
 805:Core/Src/vl53l0x_api.c **** 			pDeviceParameters->RangeOffsetMicroMeters);
 806:Core/Src/vl53l0x_api.c **** 
 807:Core/Src/vl53l0x_api.c **** 
 808:Core/Src/vl53l0x_api.c **** 	for (i = 0; i < VL53L0X_CHECKENABLE_NUMBER_OF_CHECKS; i++) {
 809:Core/Src/vl53l0x_api.c **** 		if (Status == VL53L0X_ERROR_NONE)
 810:Core/Src/vl53l0x_api.c **** 			Status |= VL53L0X_SetLimitCheckEnable(Dev, i,
 811:Core/Src/vl53l0x_api.c **** 				pDeviceParameters->LimitChecksEnable[i]);
 812:Core/Src/vl53l0x_api.c **** 		else
 813:Core/Src/vl53l0x_api.c **** 			break;
 814:Core/Src/vl53l0x_api.c **** 
 815:Core/Src/vl53l0x_api.c **** 		if (Status == VL53L0X_ERROR_NONE)
 816:Core/Src/vl53l0x_api.c **** 			Status |= VL53L0X_SetLimitCheckValue(Dev, i,
 817:Core/Src/vl53l0x_api.c **** 				pDeviceParameters->LimitChecksValue[i]);
 818:Core/Src/vl53l0x_api.c **** 		else
 819:Core/Src/vl53l0x_api.c **** 			break;
 820:Core/Src/vl53l0x_api.c **** 
 821:Core/Src/vl53l0x_api.c **** 	}
 822:Core/Src/vl53l0x_api.c **** 
 823:Core/Src/vl53l0x_api.c **** 	if (Status == VL53L0X_ERROR_NONE)
 824:Core/Src/vl53l0x_api.c **** 		Status = VL53L0X_SetWrapAroundCheckEnable(Dev,
 825:Core/Src/vl53l0x_api.c **** 			pDeviceParameters->WrapAroundCheckEnable);
 826:Core/Src/vl53l0x_api.c **** 
 827:Core/Src/vl53l0x_api.c **** 	if (Status == VL53L0X_ERROR_NONE)
 828:Core/Src/vl53l0x_api.c **** 		Status = VL53L0X_SetMeasurementTimingBudgetMicroSeconds(Dev,
 829:Core/Src/vl53l0x_api.c **** 			pDeviceParameters->MeasurementTimingBudgetMicroSeconds);
 830:Core/Src/vl53l0x_api.c **** 
 831:Core/Src/vl53l0x_api.c **** 
 832:Core/Src/vl53l0x_api.c **** 	LOG_FUNCTION_END(Status);
 833:Core/Src/vl53l0x_api.c **** 	return Status;
 834:Core/Src/vl53l0x_api.c **** }
 835:Core/Src/vl53l0x_api.c **** 
 836:Core/Src/vl53l0x_api.c **** VL53L0X_Error VL53L0X_GetDeviceParameters(VL53L0X_DEV Dev,
 837:Core/Src/vl53l0x_api.c **** 	VL53L0X_DeviceParameters_t *pDeviceParameters)
 838:Core/Src/vl53l0x_api.c **** {
 839:Core/Src/vl53l0x_api.c **** 	VL53L0X_Error Status = VL53L0X_ERROR_NONE;
 840:Core/Src/vl53l0x_api.c **** 	int i;
 841:Core/Src/vl53l0x_api.c **** 
 842:Core/Src/vl53l0x_api.c **** 	LOG_FUNCTION_START("");
 843:Core/Src/vl53l0x_api.c **** 
 844:Core/Src/vl53l0x_api.c **** 	Status = VL53L0X_GetDeviceMode(Dev, &(pDeviceParameters->DeviceMode));
 845:Core/Src/vl53l0x_api.c **** 
 846:Core/Src/vl53l0x_api.c **** 	if (Status == VL53L0X_ERROR_NONE)
 847:Core/Src/vl53l0x_api.c **** 		Status = VL53L0X_GetInterMeasurementPeriodMilliSeconds(Dev,
 848:Core/Src/vl53l0x_api.c **** 		&(pDeviceParameters->InterMeasurementPeriodMilliSeconds));
 849:Core/Src/vl53l0x_api.c **** 
 850:Core/Src/vl53l0x_api.c **** 
 851:Core/Src/vl53l0x_api.c **** 	if (Status == VL53L0X_ERROR_NONE)
 852:Core/Src/vl53l0x_api.c **** 		pDeviceParameters->XTalkCompensationEnable = 0;
 853:Core/Src/vl53l0x_api.c **** 
 854:Core/Src/vl53l0x_api.c **** 	if (Status == VL53L0X_ERROR_NONE)
 855:Core/Src/vl53l0x_api.c **** 		Status = VL53L0X_GetXTalkCompensationRateMegaCps(Dev,
 856:Core/Src/vl53l0x_api.c **** 			&(pDeviceParameters->XTalkCompensationRateMegaCps));
 857:Core/Src/vl53l0x_api.c **** 
 858:Core/Src/vl53l0x_api.c **** 
ARM GAS  C:\Users\anmh1\AppData\Local\Temp\ccBPLcM2.s 			page 34


 859:Core/Src/vl53l0x_api.c **** 	if (Status == VL53L0X_ERROR_NONE)
 860:Core/Src/vl53l0x_api.c **** 		Status = VL53L0X_GetOffsetCalibrationDataMicroMeter(Dev,
 861:Core/Src/vl53l0x_api.c **** 			&(pDeviceParameters->RangeOffsetMicroMeters));
 862:Core/Src/vl53l0x_api.c **** 
 863:Core/Src/vl53l0x_api.c **** 
 864:Core/Src/vl53l0x_api.c **** 	if (Status == VL53L0X_ERROR_NONE) {
 865:Core/Src/vl53l0x_api.c **** 		for (i = 0; i < VL53L0X_CHECKENABLE_NUMBER_OF_CHECKS; i++) {
 866:Core/Src/vl53l0x_api.c **** 			/* get first the values, then the enables.
 867:Core/Src/vl53l0x_api.c **** 			 * VL53L0X_GetLimitCheckValue will modify the enable
 868:Core/Src/vl53l0x_api.c **** 			 * flags
 869:Core/Src/vl53l0x_api.c **** 			 */
 870:Core/Src/vl53l0x_api.c **** 			if (Status == VL53L0X_ERROR_NONE) {
 871:Core/Src/vl53l0x_api.c **** 				Status |= VL53L0X_GetLimitCheckValue(Dev, i,
 872:Core/Src/vl53l0x_api.c **** 				&(pDeviceParameters->LimitChecksValue[i]));
 873:Core/Src/vl53l0x_api.c **** 			} else {
 874:Core/Src/vl53l0x_api.c **** 				break;
 875:Core/Src/vl53l0x_api.c **** 			}
 876:Core/Src/vl53l0x_api.c **** 			if (Status == VL53L0X_ERROR_NONE) {
 877:Core/Src/vl53l0x_api.c **** 				Status |= VL53L0X_GetLimitCheckEnable(Dev, i,
 878:Core/Src/vl53l0x_api.c **** 				&(pDeviceParameters->LimitChecksEnable[i]));
 879:Core/Src/vl53l0x_api.c **** 			} else {
 880:Core/Src/vl53l0x_api.c **** 				break;
 881:Core/Src/vl53l0x_api.c **** 			}
 882:Core/Src/vl53l0x_api.c **** 		}
 883:Core/Src/vl53l0x_api.c **** 	}
 884:Core/Src/vl53l0x_api.c **** 
 885:Core/Src/vl53l0x_api.c **** 	if (Status == VL53L0X_ERROR_NONE) {
 886:Core/Src/vl53l0x_api.c **** 		Status = VL53L0X_GetWrapAroundCheckEnable(Dev,
 887:Core/Src/vl53l0x_api.c **** 			&(pDeviceParameters->WrapAroundCheckEnable));
 888:Core/Src/vl53l0x_api.c **** 	}
 889:Core/Src/vl53l0x_api.c **** 
 890:Core/Src/vl53l0x_api.c **** 	/* Need to be done at the end as it uses VCSELPulsePeriod */
 891:Core/Src/vl53l0x_api.c **** 	if (Status == VL53L0X_ERROR_NONE) {
 892:Core/Src/vl53l0x_api.c **** 		Status = VL53L0X_GetMeasurementTimingBudgetMicroSeconds(Dev,
 893:Core/Src/vl53l0x_api.c **** 		&(pDeviceParameters->MeasurementTimingBudgetMicroSeconds));
 894:Core/Src/vl53l0x_api.c **** 	}
 895:Core/Src/vl53l0x_api.c **** 
 896:Core/Src/vl53l0x_api.c **** 	LOG_FUNCTION_END(Status);
 897:Core/Src/vl53l0x_api.c **** 	return Status;
 898:Core/Src/vl53l0x_api.c **** }
 899:Core/Src/vl53l0x_api.c **** 
 900:Core/Src/vl53l0x_api.c **** VL53L0X_Error VL53L0X_SetDeviceMode(VL53L0X_DEV Dev, VL53L0X_DeviceModes DeviceMode)
 901:Core/Src/vl53l0x_api.c **** {
 1058              		.loc 1 901 1 is_stmt 1 view -0
 1059              		.cfi_startproc
 1060              		@ args = 0, pretend = 0, frame = 0
 1061              		@ frame_needed = 0, uses_anonymous_args = 0
 1062              		@ link register save eliminated.
 902:Core/Src/vl53l0x_api.c **** 	VL53L0X_Error Status = VL53L0X_ERROR_NONE;
 1063              		.loc 1 902 2 view .LVU298
 903:Core/Src/vl53l0x_api.c **** 
 904:Core/Src/vl53l0x_api.c **** 	LOG_FUNCTION_START("%d", (int)DeviceMode);
 1064              		.loc 1 904 2 view .LVU299
 905:Core/Src/vl53l0x_api.c **** 
 906:Core/Src/vl53l0x_api.c **** 	switch (DeviceMode) {
 1065              		.loc 1 906 2 view .LVU300
 1066 0000 1529     		cmp	r1, #21
ARM GAS  C:\Users\anmh1\AppData\Local\Temp\ccBPLcM2.s 			page 35


 1067 0002 07D8     		bhi	.L56
 1068 0004 0122     		movs	r2, #1
 1069 0006 8A40     		lsls	r2, r2, r1
 1070 0008 054B     		ldr	r3, .L58
 1071 000a 1340     		ands	r3, r3, r2
 1072 000c 2BB1     		cbz	r3, .L57
 907:Core/Src/vl53l0x_api.c **** 	case VL53L0X_DEVICEMODE_SINGLE_RANGING:
 908:Core/Src/vl53l0x_api.c **** 	case VL53L0X_DEVICEMODE_CONTINUOUS_RANGING:
 909:Core/Src/vl53l0x_api.c **** 	case VL53L0X_DEVICEMODE_CONTINUOUS_TIMED_RANGING:
 910:Core/Src/vl53l0x_api.c **** 	case VL53L0X_DEVICEMODE_GPIO_DRIVE:
 911:Core/Src/vl53l0x_api.c **** 	case VL53L0X_DEVICEMODE_GPIO_OSC:
 912:Core/Src/vl53l0x_api.c **** 		/* Supported modes */
 913:Core/Src/vl53l0x_api.c **** 		VL53L0X_SETPARAMETERFIELD(Dev, DeviceMode, DeviceMode);
 1073              		.loc 1 913 3 view .LVU301
 1074 000e 0174     		strb	r1, [r0, #16]
 914:Core/Src/vl53l0x_api.c **** 		break;
 1075              		.loc 1 914 3 view .LVU302
 902:Core/Src/vl53l0x_api.c **** 
 1076              		.loc 1 902 16 is_stmt 0 view .LVU303
 1077 0010 0020     		movs	r0, #0
 1078              	.LVL87:
 1079              		.loc 1 914 3 view .LVU304
 1080 0012 7047     		bx	lr
 1081              	.LVL88:
 1082              	.L56:
 902:Core/Src/vl53l0x_api.c **** 
 1083              		.loc 1 902 16 view .LVU305
 1084 0014 6FF00700 		mvn	r0, #7
 1085              	.LVL89:
 902:Core/Src/vl53l0x_api.c **** 
 1086              		.loc 1 902 16 view .LVU306
 1087 0018 7047     		bx	lr
 1088              	.LVL90:
 1089              	.L57:
 902:Core/Src/vl53l0x_api.c **** 
 1090              		.loc 1 902 16 view .LVU307
 1091 001a 6FF00700 		mvn	r0, #7
 1092              	.LVL91:
 915:Core/Src/vl53l0x_api.c **** 	default:
 916:Core/Src/vl53l0x_api.c **** 		/* Unsupported mode */
 917:Core/Src/vl53l0x_api.c **** 		Status = VL53L0X_ERROR_MODE_NOT_SUPPORTED;
 918:Core/Src/vl53l0x_api.c **** 	}
 919:Core/Src/vl53l0x_api.c **** 
 920:Core/Src/vl53l0x_api.c **** 	LOG_FUNCTION_END(Status);
 1093              		.loc 1 920 2 is_stmt 1 view .LVU308
 921:Core/Src/vl53l0x_api.c **** 	return Status;
 1094              		.loc 1 921 2 view .LVU309
 922:Core/Src/vl53l0x_api.c **** }
 1095              		.loc 1 922 1 is_stmt 0 view .LVU310
 1096 001e 7047     		bx	lr
 1097              	.L59:
 1098              		.align	2
 1099              	.L58:
 1100 0020 0B003000 		.word	3145739
 1101              		.cfi_endproc
 1102              	.LFE161:
 1104              		.section	.text.VL53L0X_GetDeviceMode,"ax",%progbits
ARM GAS  C:\Users\anmh1\AppData\Local\Temp\ccBPLcM2.s 			page 36


 1105              		.align	1
 1106              		.global	VL53L0X_GetDeviceMode
 1107              		.syntax unified
 1108              		.thumb
 1109              		.thumb_func
 1110              		.fpu fpv4-sp-d16
 1112              	VL53L0X_GetDeviceMode:
 1113              	.LVL92:
 1114              	.LFB162:
 923:Core/Src/vl53l0x_api.c **** 
 924:Core/Src/vl53l0x_api.c **** VL53L0X_Error VL53L0X_GetDeviceMode(VL53L0X_DEV Dev,
 925:Core/Src/vl53l0x_api.c **** 	VL53L0X_DeviceModes *pDeviceMode)
 926:Core/Src/vl53l0x_api.c **** {
 1115              		.loc 1 926 1 is_stmt 1 view -0
 1116              		.cfi_startproc
 1117              		@ args = 0, pretend = 0, frame = 0
 1118              		@ frame_needed = 0, uses_anonymous_args = 0
 1119              		@ link register save eliminated.
 927:Core/Src/vl53l0x_api.c **** 	VL53L0X_Error Status = VL53L0X_ERROR_NONE;
 1120              		.loc 1 927 2 view .LVU312
 928:Core/Src/vl53l0x_api.c **** 	LOG_FUNCTION_START("");
 1121              		.loc 1 928 2 view .LVU313
 929:Core/Src/vl53l0x_api.c **** 
 930:Core/Src/vl53l0x_api.c **** 	VL53L0X_GETPARAMETERFIELD(Dev, DeviceMode, *pDeviceMode);
 1122              		.loc 1 930 2 view .LVU314
 1123 0000 037C     		ldrb	r3, [r0, #16]	@ zero_extendqisi2
 1124 0002 0B70     		strb	r3, [r1]
 931:Core/Src/vl53l0x_api.c **** 
 932:Core/Src/vl53l0x_api.c **** 	LOG_FUNCTION_END(Status);
 1125              		.loc 1 932 2 view .LVU315
 933:Core/Src/vl53l0x_api.c **** 	return Status;
 1126              		.loc 1 933 2 view .LVU316
 934:Core/Src/vl53l0x_api.c **** }
 1127              		.loc 1 934 1 is_stmt 0 view .LVU317
 1128 0004 0020     		movs	r0, #0
 1129              	.LVL93:
 1130              		.loc 1 934 1 view .LVU318
 1131 0006 7047     		bx	lr
 1132              		.cfi_endproc
 1133              	.LFE162:
 1135              		.section	.text.VL53L0X_SetRangeFractionEnable,"ax",%progbits
 1136              		.align	1
 1137              		.global	VL53L0X_SetRangeFractionEnable
 1138              		.syntax unified
 1139              		.thumb
 1140              		.thumb_func
 1141              		.fpu fpv4-sp-d16
 1143              	VL53L0X_SetRangeFractionEnable:
 1144              	.LVL94:
 1145              	.LFB163:
 935:Core/Src/vl53l0x_api.c **** 
 936:Core/Src/vl53l0x_api.c **** VL53L0X_Error VL53L0X_SetRangeFractionEnable(VL53L0X_DEV Dev,	uint8_t Enable)
 937:Core/Src/vl53l0x_api.c **** {
 1146              		.loc 1 937 1 is_stmt 1 view -0
 1147              		.cfi_startproc
 1148              		@ args = 0, pretend = 0, frame = 0
 1149              		@ frame_needed = 0, uses_anonymous_args = 0
ARM GAS  C:\Users\anmh1\AppData\Local\Temp\ccBPLcM2.s 			page 37


 1150              		.loc 1 937 1 is_stmt 0 view .LVU320
 1151 0000 38B5     		push	{r3, r4, r5, lr}
 1152              		.cfi_def_cfa_offset 16
 1153              		.cfi_offset 3, -16
 1154              		.cfi_offset 4, -12
 1155              		.cfi_offset 5, -8
 1156              		.cfi_offset 14, -4
 1157 0002 0546     		mov	r5, r0
 1158 0004 0C46     		mov	r4, r1
 938:Core/Src/vl53l0x_api.c **** 	VL53L0X_Error Status = VL53L0X_ERROR_NONE;
 1159              		.loc 1 938 2 is_stmt 1 view .LVU321
 1160              	.LVL95:
 939:Core/Src/vl53l0x_api.c **** 
 940:Core/Src/vl53l0x_api.c **** 	LOG_FUNCTION_START("%d", (int)Enable);
 1161              		.loc 1 940 2 view .LVU322
 941:Core/Src/vl53l0x_api.c **** 
 942:Core/Src/vl53l0x_api.c **** 	Status = VL53L0X_WrByte(Dev, VL53L0X_REG_SYSTEM_RANGE_CONFIG, Enable);
 1162              		.loc 1 942 2 view .LVU323
 1163              		.loc 1 942 11 is_stmt 0 view .LVU324
 1164 0006 0A46     		mov	r2, r1
 1165 0008 0921     		movs	r1, #9
 1166              	.LVL96:
 1167              		.loc 1 942 11 view .LVU325
 1168 000a FFF7FEFF 		bl	VL53L0X_WrByte
 1169              	.LVL97:
 943:Core/Src/vl53l0x_api.c **** 
 944:Core/Src/vl53l0x_api.c **** 	if (Status == VL53L0X_ERROR_NONE)
 1170              		.loc 1 944 2 is_stmt 1 view .LVU326
 1171              		.loc 1 944 5 is_stmt 0 view .LVU327
 1172 000e 08B9     		cbnz	r0, .L62
 945:Core/Src/vl53l0x_api.c **** 		PALDevDataSet(Dev, RangeFractionalEnable, Enable);
 1173              		.loc 1 945 3 is_stmt 1 view .LVU328
 1174 0010 85F83141 		strb	r4, [r5, #305]
 1175              	.L62:
 946:Core/Src/vl53l0x_api.c **** 
 947:Core/Src/vl53l0x_api.c **** 	LOG_FUNCTION_END(Status);
 1176              		.loc 1 947 2 view .LVU329
 948:Core/Src/vl53l0x_api.c **** 	return Status;
 1177              		.loc 1 948 2 view .LVU330
 949:Core/Src/vl53l0x_api.c **** }
 1178              		.loc 1 949 1 is_stmt 0 view .LVU331
 1179 0014 38BD     		pop	{r3, r4, r5, pc}
 1180              		.loc 1 949 1 view .LVU332
 1181              		.cfi_endproc
 1182              	.LFE163:
 1184              		.section	.text.VL53L0X_GetFractionEnable,"ax",%progbits
 1185              		.align	1
 1186              		.global	VL53L0X_GetFractionEnable
 1187              		.syntax unified
 1188              		.thumb
 1189              		.thumb_func
 1190              		.fpu fpv4-sp-d16
 1192              	VL53L0X_GetFractionEnable:
 1193              	.LVL98:
 1194              	.LFB164:
 950:Core/Src/vl53l0x_api.c **** 
 951:Core/Src/vl53l0x_api.c **** VL53L0X_Error VL53L0X_GetFractionEnable(VL53L0X_DEV Dev, uint8_t *pEnabled)
ARM GAS  C:\Users\anmh1\AppData\Local\Temp\ccBPLcM2.s 			page 38


 952:Core/Src/vl53l0x_api.c **** {
 1195              		.loc 1 952 1 is_stmt 1 view -0
 1196              		.cfi_startproc
 1197              		@ args = 0, pretend = 0, frame = 0
 1198              		@ frame_needed = 0, uses_anonymous_args = 0
 1199              		.loc 1 952 1 is_stmt 0 view .LVU334
 1200 0000 10B5     		push	{r4, lr}
 1201              		.cfi_def_cfa_offset 8
 1202              		.cfi_offset 4, -8
 1203              		.cfi_offset 14, -4
 1204 0002 0C46     		mov	r4, r1
 953:Core/Src/vl53l0x_api.c **** 	VL53L0X_Error Status = VL53L0X_ERROR_NONE;
 1205              		.loc 1 953 2 is_stmt 1 view .LVU335
 1206              	.LVL99:
 954:Core/Src/vl53l0x_api.c **** 	LOG_FUNCTION_START("");
 1207              		.loc 1 954 2 view .LVU336
 955:Core/Src/vl53l0x_api.c **** 
 956:Core/Src/vl53l0x_api.c **** 	Status = VL53L0X_RdByte(Dev, VL53L0X_REG_SYSTEM_RANGE_CONFIG, pEnabled);
 1208              		.loc 1 956 2 view .LVU337
 1209              		.loc 1 956 11 is_stmt 0 view .LVU338
 1210 0004 0A46     		mov	r2, r1
 1211 0006 0921     		movs	r1, #9
 1212              	.LVL100:
 1213              		.loc 1 956 11 view .LVU339
 1214 0008 FFF7FEFF 		bl	VL53L0X_RdByte
 1215              	.LVL101:
 957:Core/Src/vl53l0x_api.c **** 
 958:Core/Src/vl53l0x_api.c **** 	if (Status == VL53L0X_ERROR_NONE)
 1216              		.loc 1 958 2 is_stmt 1 view .LVU340
 1217              		.loc 1 958 5 is_stmt 0 view .LVU341
 1218 000c 18B9     		cbnz	r0, .L65
 959:Core/Src/vl53l0x_api.c **** 		*pEnabled = (*pEnabled & 1);
 1219              		.loc 1 959 3 is_stmt 1 view .LVU342
 1220              		.loc 1 959 16 is_stmt 0 view .LVU343
 1221 000e 2378     		ldrb	r3, [r4]	@ zero_extendqisi2
 1222              		.loc 1 959 26 view .LVU344
 1223 0010 03F00103 		and	r3, r3, #1
 1224              		.loc 1 959 13 view .LVU345
 1225 0014 2370     		strb	r3, [r4]
 1226              	.L65:
 960:Core/Src/vl53l0x_api.c **** 
 961:Core/Src/vl53l0x_api.c **** 	LOG_FUNCTION_END(Status);
 1227              		.loc 1 961 2 is_stmt 1 view .LVU346
 962:Core/Src/vl53l0x_api.c **** 	return Status;
 1228              		.loc 1 962 2 view .LVU347
 963:Core/Src/vl53l0x_api.c **** }
 1229              		.loc 1 963 1 is_stmt 0 view .LVU348
 1230 0016 10BD     		pop	{r4, pc}
 1231              		.loc 1 963 1 view .LVU349
 1232              		.cfi_endproc
 1233              	.LFE164:
 1235              		.section	.text.VL53L0X_SetHistogramMode,"ax",%progbits
 1236              		.align	1
 1237              		.global	VL53L0X_SetHistogramMode
 1238              		.syntax unified
 1239              		.thumb
 1240              		.thumb_func
ARM GAS  C:\Users\anmh1\AppData\Local\Temp\ccBPLcM2.s 			page 39


 1241              		.fpu fpv4-sp-d16
 1243              	VL53L0X_SetHistogramMode:
 1244              	.LVL102:
 1245              	.LFB165:
 964:Core/Src/vl53l0x_api.c **** 
 965:Core/Src/vl53l0x_api.c **** VL53L0X_Error VL53L0X_SetHistogramMode(VL53L0X_DEV Dev,
 966:Core/Src/vl53l0x_api.c **** 	VL53L0X_HistogramModes HistogramMode)
 967:Core/Src/vl53l0x_api.c **** {
 1246              		.loc 1 967 1 is_stmt 1 view -0
 1247              		.cfi_startproc
 1248              		@ args = 0, pretend = 0, frame = 0
 1249              		@ frame_needed = 0, uses_anonymous_args = 0
 1250              		@ link register save eliminated.
 968:Core/Src/vl53l0x_api.c **** 	VL53L0X_Error Status = VL53L0X_ERROR_NOT_IMPLEMENTED;
 1251              		.loc 1 968 2 view .LVU351
 969:Core/Src/vl53l0x_api.c **** 	LOG_FUNCTION_START("");
 1252              		.loc 1 969 2 view .LVU352
 970:Core/Src/vl53l0x_api.c **** 
 971:Core/Src/vl53l0x_api.c **** 	/* not implemented on VL53L0X */
 972:Core/Src/vl53l0x_api.c **** 
 973:Core/Src/vl53l0x_api.c **** 	LOG_FUNCTION_END(Status);
 1253              		.loc 1 973 2 view .LVU353
 974:Core/Src/vl53l0x_api.c **** 	return Status;
 1254              		.loc 1 974 2 view .LVU354
 975:Core/Src/vl53l0x_api.c **** }
 1255              		.loc 1 975 1 is_stmt 0 view .LVU355
 1256 0000 6FF06200 		mvn	r0, #98
 1257              	.LVL103:
 1258              		.loc 1 975 1 view .LVU356
 1259 0004 7047     		bx	lr
 1260              		.cfi_endproc
 1261              	.LFE165:
 1263              		.section	.text.VL53L0X_GetHistogramMode,"ax",%progbits
 1264              		.align	1
 1265              		.global	VL53L0X_GetHistogramMode
 1266              		.syntax unified
 1267              		.thumb
 1268              		.thumb_func
 1269              		.fpu fpv4-sp-d16
 1271              	VL53L0X_GetHistogramMode:
 1272              	.LVL104:
 1273              	.LFB166:
 976:Core/Src/vl53l0x_api.c **** 
 977:Core/Src/vl53l0x_api.c **** VL53L0X_Error VL53L0X_GetHistogramMode(VL53L0X_DEV Dev,
 978:Core/Src/vl53l0x_api.c **** 	VL53L0X_HistogramModes *pHistogramMode)
 979:Core/Src/vl53l0x_api.c **** {
 1274              		.loc 1 979 1 is_stmt 1 view -0
 1275              		.cfi_startproc
 1276              		@ args = 0, pretend = 0, frame = 0
 1277              		@ frame_needed = 0, uses_anonymous_args = 0
 1278              		@ link register save eliminated.
 980:Core/Src/vl53l0x_api.c **** 	VL53L0X_Error Status = VL53L0X_ERROR_NOT_IMPLEMENTED;
 1279              		.loc 1 980 2 view .LVU358
 981:Core/Src/vl53l0x_api.c **** 	LOG_FUNCTION_START("");
 1280              		.loc 1 981 2 view .LVU359
 982:Core/Src/vl53l0x_api.c **** 
 983:Core/Src/vl53l0x_api.c **** 	/* not implemented on VL53L0X */
ARM GAS  C:\Users\anmh1\AppData\Local\Temp\ccBPLcM2.s 			page 40


 984:Core/Src/vl53l0x_api.c **** 
 985:Core/Src/vl53l0x_api.c **** 	LOG_FUNCTION_END(Status);
 1281              		.loc 1 985 2 view .LVU360
 986:Core/Src/vl53l0x_api.c **** 	return Status;
 1282              		.loc 1 986 2 view .LVU361
 987:Core/Src/vl53l0x_api.c **** }
 1283              		.loc 1 987 1 is_stmt 0 view .LVU362
 1284 0000 6FF06200 		mvn	r0, #98
 1285              	.LVL105:
 1286              		.loc 1 987 1 view .LVU363
 1287 0004 7047     		bx	lr
 1288              		.cfi_endproc
 1289              	.LFE166:
 1291              		.section	.text.VL53L0X_SetMeasurementTimingBudgetMicroSeconds,"ax",%progbits
 1292              		.align	1
 1293              		.global	VL53L0X_SetMeasurementTimingBudgetMicroSeconds
 1294              		.syntax unified
 1295              		.thumb
 1296              		.thumb_func
 1297              		.fpu fpv4-sp-d16
 1299              	VL53L0X_SetMeasurementTimingBudgetMicroSeconds:
 1300              	.LVL106:
 1301              	.LFB167:
 988:Core/Src/vl53l0x_api.c **** 
 989:Core/Src/vl53l0x_api.c **** VL53L0X_Error VL53L0X_SetMeasurementTimingBudgetMicroSeconds(VL53L0X_DEV Dev,
 990:Core/Src/vl53l0x_api.c **** 	uint32_t MeasurementTimingBudgetMicroSeconds)
 991:Core/Src/vl53l0x_api.c **** {
 1302              		.loc 1 991 1 is_stmt 1 view -0
 1303              		.cfi_startproc
 1304              		@ args = 0, pretend = 0, frame = 0
 1305              		@ frame_needed = 0, uses_anonymous_args = 0
 1306              		.loc 1 991 1 is_stmt 0 view .LVU365
 1307 0000 08B5     		push	{r3, lr}
 1308              		.cfi_def_cfa_offset 8
 1309              		.cfi_offset 3, -8
 1310              		.cfi_offset 14, -4
 992:Core/Src/vl53l0x_api.c **** 	VL53L0X_Error Status = VL53L0X_ERROR_NONE;
 1311              		.loc 1 992 2 is_stmt 1 view .LVU366
 1312              	.LVL107:
 993:Core/Src/vl53l0x_api.c **** 	LOG_FUNCTION_START("");
 1313              		.loc 1 993 2 view .LVU367
 994:Core/Src/vl53l0x_api.c **** 
 995:Core/Src/vl53l0x_api.c **** 	Status = VL53L0X_set_measurement_timing_budget_micro_seconds(Dev,
 1314              		.loc 1 995 2 view .LVU368
 1315              		.loc 1 995 11 is_stmt 0 view .LVU369
 1316 0002 FFF7FEFF 		bl	VL53L0X_set_measurement_timing_budget_micro_seconds
 1317              	.LVL108:
 996:Core/Src/vl53l0x_api.c **** 		MeasurementTimingBudgetMicroSeconds);
 997:Core/Src/vl53l0x_api.c **** 
 998:Core/Src/vl53l0x_api.c **** 	LOG_FUNCTION_END(Status);
 1318              		.loc 1 998 2 is_stmt 1 view .LVU370
 999:Core/Src/vl53l0x_api.c **** 
1000:Core/Src/vl53l0x_api.c **** 	return Status;
 1319              		.loc 1 1000 2 view .LVU371
1001:Core/Src/vl53l0x_api.c **** }
 1320              		.loc 1 1001 1 is_stmt 0 view .LVU372
 1321 0006 08BD     		pop	{r3, pc}
ARM GAS  C:\Users\anmh1\AppData\Local\Temp\ccBPLcM2.s 			page 41


 1322              		.cfi_endproc
 1323              	.LFE167:
 1325              		.section	.text.VL53L0X_GetMeasurementTimingBudgetMicroSeconds,"ax",%progbits
 1326              		.align	1
 1327              		.global	VL53L0X_GetMeasurementTimingBudgetMicroSeconds
 1328              		.syntax unified
 1329              		.thumb
 1330              		.thumb_func
 1331              		.fpu fpv4-sp-d16
 1333              	VL53L0X_GetMeasurementTimingBudgetMicroSeconds:
 1334              	.LVL109:
 1335              	.LFB168:
1002:Core/Src/vl53l0x_api.c **** 
1003:Core/Src/vl53l0x_api.c **** VL53L0X_Error VL53L0X_GetMeasurementTimingBudgetMicroSeconds(VL53L0X_DEV Dev,
1004:Core/Src/vl53l0x_api.c **** 	uint32_t *pMeasurementTimingBudgetMicroSeconds)
1005:Core/Src/vl53l0x_api.c **** {
 1336              		.loc 1 1005 1 is_stmt 1 view -0
 1337              		.cfi_startproc
 1338              		@ args = 0, pretend = 0, frame = 0
 1339              		@ frame_needed = 0, uses_anonymous_args = 0
 1340              		.loc 1 1005 1 is_stmt 0 view .LVU374
 1341 0000 08B5     		push	{r3, lr}
 1342              		.cfi_def_cfa_offset 8
 1343              		.cfi_offset 3, -8
 1344              		.cfi_offset 14, -4
1006:Core/Src/vl53l0x_api.c **** 	VL53L0X_Error Status = VL53L0X_ERROR_NONE;
 1345              		.loc 1 1006 2 is_stmt 1 view .LVU375
 1346              	.LVL110:
1007:Core/Src/vl53l0x_api.c **** 	LOG_FUNCTION_START("");
 1347              		.loc 1 1007 2 view .LVU376
1008:Core/Src/vl53l0x_api.c **** 
1009:Core/Src/vl53l0x_api.c **** 	Status = VL53L0X_get_measurement_timing_budget_micro_seconds(Dev,
 1348              		.loc 1 1009 2 view .LVU377
 1349              		.loc 1 1009 11 is_stmt 0 view .LVU378
 1350 0002 FFF7FEFF 		bl	VL53L0X_get_measurement_timing_budget_micro_seconds
 1351              	.LVL111:
1010:Core/Src/vl53l0x_api.c **** 		pMeasurementTimingBudgetMicroSeconds);
1011:Core/Src/vl53l0x_api.c **** 
1012:Core/Src/vl53l0x_api.c **** 	LOG_FUNCTION_END(Status);
 1352              		.loc 1 1012 2 is_stmt 1 view .LVU379
1013:Core/Src/vl53l0x_api.c **** 	return Status;
 1353              		.loc 1 1013 2 view .LVU380
1014:Core/Src/vl53l0x_api.c **** }
 1354              		.loc 1 1014 1 is_stmt 0 view .LVU381
 1355 0006 08BD     		pop	{r3, pc}
 1356              		.cfi_endproc
 1357              	.LFE168:
 1359              		.section	.text.VL53L0X_SetVcselPulsePeriod,"ax",%progbits
 1360              		.align	1
 1361              		.global	VL53L0X_SetVcselPulsePeriod
 1362              		.syntax unified
 1363              		.thumb
 1364              		.thumb_func
 1365              		.fpu fpv4-sp-d16
 1367              	VL53L0X_SetVcselPulsePeriod:
 1368              	.LVL112:
 1369              	.LFB169:
ARM GAS  C:\Users\anmh1\AppData\Local\Temp\ccBPLcM2.s 			page 42


1015:Core/Src/vl53l0x_api.c **** 
1016:Core/Src/vl53l0x_api.c **** VL53L0X_Error VL53L0X_SetVcselPulsePeriod(VL53L0X_DEV Dev,
1017:Core/Src/vl53l0x_api.c **** 	VL53L0X_VcselPeriod VcselPeriodType, uint8_t VCSELPulsePeriodPCLK)
1018:Core/Src/vl53l0x_api.c **** {
 1370              		.loc 1 1018 1 is_stmt 1 view -0
 1371              		.cfi_startproc
 1372              		@ args = 0, pretend = 0, frame = 0
 1373              		@ frame_needed = 0, uses_anonymous_args = 0
 1374              		.loc 1 1018 1 is_stmt 0 view .LVU383
 1375 0000 08B5     		push	{r3, lr}
 1376              		.cfi_def_cfa_offset 8
 1377              		.cfi_offset 3, -8
 1378              		.cfi_offset 14, -4
1019:Core/Src/vl53l0x_api.c **** 	VL53L0X_Error Status = VL53L0X_ERROR_NONE;
 1379              		.loc 1 1019 2 is_stmt 1 view .LVU384
 1380              	.LVL113:
1020:Core/Src/vl53l0x_api.c **** 	LOG_FUNCTION_START("");
 1381              		.loc 1 1020 2 view .LVU385
1021:Core/Src/vl53l0x_api.c **** 
1022:Core/Src/vl53l0x_api.c **** 	Status = VL53L0X_set_vcsel_pulse_period(Dev, VcselPeriodType,
 1382              		.loc 1 1022 2 view .LVU386
 1383              		.loc 1 1022 11 is_stmt 0 view .LVU387
 1384 0002 FFF7FEFF 		bl	VL53L0X_set_vcsel_pulse_period
 1385              	.LVL114:
1023:Core/Src/vl53l0x_api.c **** 		VCSELPulsePeriodPCLK);
1024:Core/Src/vl53l0x_api.c **** 
1025:Core/Src/vl53l0x_api.c **** 	LOG_FUNCTION_END(Status);
 1386              		.loc 1 1025 2 is_stmt 1 view .LVU388
1026:Core/Src/vl53l0x_api.c **** 	return Status;
 1387              		.loc 1 1026 2 view .LVU389
1027:Core/Src/vl53l0x_api.c **** }
 1388              		.loc 1 1027 1 is_stmt 0 view .LVU390
 1389 0006 08BD     		pop	{r3, pc}
 1390              		.cfi_endproc
 1391              	.LFE169:
 1393              		.section	.text.VL53L0X_GetVcselPulsePeriod,"ax",%progbits
 1394              		.align	1
 1395              		.global	VL53L0X_GetVcselPulsePeriod
 1396              		.syntax unified
 1397              		.thumb
 1398              		.thumb_func
 1399              		.fpu fpv4-sp-d16
 1401              	VL53L0X_GetVcselPulsePeriod:
 1402              	.LVL115:
 1403              	.LFB170:
1028:Core/Src/vl53l0x_api.c **** 
1029:Core/Src/vl53l0x_api.c **** VL53L0X_Error VL53L0X_GetVcselPulsePeriod(VL53L0X_DEV Dev,
1030:Core/Src/vl53l0x_api.c **** 	VL53L0X_VcselPeriod VcselPeriodType, uint8_t *pVCSELPulsePeriodPCLK)
1031:Core/Src/vl53l0x_api.c **** {
 1404              		.loc 1 1031 1 is_stmt 1 view -0
 1405              		.cfi_startproc
 1406              		@ args = 0, pretend = 0, frame = 0
 1407              		@ frame_needed = 0, uses_anonymous_args = 0
 1408              		.loc 1 1031 1 is_stmt 0 view .LVU392
 1409 0000 08B5     		push	{r3, lr}
 1410              		.cfi_def_cfa_offset 8
 1411              		.cfi_offset 3, -8
ARM GAS  C:\Users\anmh1\AppData\Local\Temp\ccBPLcM2.s 			page 43


 1412              		.cfi_offset 14, -4
1032:Core/Src/vl53l0x_api.c **** 	VL53L0X_Error Status = VL53L0X_ERROR_NONE;
 1413              		.loc 1 1032 2 is_stmt 1 view .LVU393
 1414              	.LVL116:
1033:Core/Src/vl53l0x_api.c **** 	LOG_FUNCTION_START("");
 1415              		.loc 1 1033 2 view .LVU394
1034:Core/Src/vl53l0x_api.c **** 
1035:Core/Src/vl53l0x_api.c **** 	Status = VL53L0X_get_vcsel_pulse_period(Dev, VcselPeriodType,
 1416              		.loc 1 1035 2 view .LVU395
 1417              		.loc 1 1035 11 is_stmt 0 view .LVU396
 1418 0002 FFF7FEFF 		bl	VL53L0X_get_vcsel_pulse_period
 1419              	.LVL117:
1036:Core/Src/vl53l0x_api.c **** 		pVCSELPulsePeriodPCLK);
1037:Core/Src/vl53l0x_api.c **** 
1038:Core/Src/vl53l0x_api.c **** 	LOG_FUNCTION_END(Status);
 1420              		.loc 1 1038 2 is_stmt 1 view .LVU397
1039:Core/Src/vl53l0x_api.c **** 	return Status;
 1421              		.loc 1 1039 2 view .LVU398
1040:Core/Src/vl53l0x_api.c **** }
 1422              		.loc 1 1040 1 is_stmt 0 view .LVU399
 1423 0006 08BD     		pop	{r3, pc}
 1424              		.cfi_endproc
 1425              	.LFE170:
 1427              		.section	.text.VL53L0X_SetSequenceStepEnable,"ax",%progbits
 1428              		.align	1
 1429              		.global	VL53L0X_SetSequenceStepEnable
 1430              		.syntax unified
 1431              		.thumb
 1432              		.thumb_func
 1433              		.fpu fpv4-sp-d16
 1435              	VL53L0X_SetSequenceStepEnable:
 1436              	.LVL118:
 1437              	.LFB171:
1041:Core/Src/vl53l0x_api.c **** 
1042:Core/Src/vl53l0x_api.c **** VL53L0X_Error VL53L0X_SetSequenceStepEnable(VL53L0X_DEV Dev,
1043:Core/Src/vl53l0x_api.c **** 	VL53L0X_SequenceStepId SequenceStepId, uint8_t SequenceStepEnabled)
1044:Core/Src/vl53l0x_api.c **** {
 1438              		.loc 1 1044 1 is_stmt 1 view -0
 1439              		.cfi_startproc
 1440              		@ args = 0, pretend = 0, frame = 8
 1441              		@ frame_needed = 0, uses_anonymous_args = 0
 1442              		.loc 1 1044 1 is_stmt 0 view .LVU401
 1443 0000 F0B5     		push	{r4, r5, r6, r7, lr}
 1444              		.cfi_def_cfa_offset 20
 1445              		.cfi_offset 4, -20
 1446              		.cfi_offset 5, -16
 1447              		.cfi_offset 6, -12
 1448              		.cfi_offset 7, -8
 1449              		.cfi_offset 14, -4
 1450 0002 83B0     		sub	sp, sp, #12
 1451              		.cfi_def_cfa_offset 32
 1452 0004 0646     		mov	r6, r0
 1453 0006 0C46     		mov	r4, r1
 1454 0008 1746     		mov	r7, r2
1045:Core/Src/vl53l0x_api.c **** 	VL53L0X_Error Status = VL53L0X_ERROR_NONE;
 1455              		.loc 1 1045 2 is_stmt 1 view .LVU402
 1456              	.LVL119:
ARM GAS  C:\Users\anmh1\AppData\Local\Temp\ccBPLcM2.s 			page 44


1046:Core/Src/vl53l0x_api.c **** 	uint8_t SequenceConfig = 0;
 1457              		.loc 1 1046 2 view .LVU403
 1458              		.loc 1 1046 10 is_stmt 0 view .LVU404
 1459 000a 0023     		movs	r3, #0
 1460 000c 8DF80730 		strb	r3, [sp, #7]
1047:Core/Src/vl53l0x_api.c **** 	uint8_t SequenceConfigNew = 0;
 1461              		.loc 1 1047 2 is_stmt 1 view .LVU405
 1462              	.LVL120:
1048:Core/Src/vl53l0x_api.c **** 	uint32_t MeasurementTimingBudgetMicroSeconds;
 1463              		.loc 1 1048 2 view .LVU406
1049:Core/Src/vl53l0x_api.c **** 	LOG_FUNCTION_START("");
 1464              		.loc 1 1049 2 view .LVU407
1050:Core/Src/vl53l0x_api.c **** 
1051:Core/Src/vl53l0x_api.c **** 	Status = VL53L0X_RdByte(Dev, VL53L0X_REG_SYSTEM_SEQUENCE_CONFIG,
 1465              		.loc 1 1051 2 view .LVU408
 1466              		.loc 1 1051 11 is_stmt 0 view .LVU409
 1467 0010 0DF10702 		add	r2, sp, #7
 1468              	.LVL121:
 1469              		.loc 1 1051 11 view .LVU410
 1470 0014 0121     		movs	r1, #1
 1471              	.LVL122:
 1472              		.loc 1 1051 11 view .LVU411
 1473 0016 FFF7FEFF 		bl	VL53L0X_RdByte
 1474              	.LVL123:
1052:Core/Src/vl53l0x_api.c **** 		&SequenceConfig);
1053:Core/Src/vl53l0x_api.c **** 
1054:Core/Src/vl53l0x_api.c **** 	SequenceConfigNew = SequenceConfig;
 1475              		.loc 1 1054 2 is_stmt 1 view .LVU412
 1476              		.loc 1 1054 20 is_stmt 0 view .LVU413
 1477 001a 9DF80730 		ldrb	r3, [sp, #7]	@ zero_extendqisi2
 1478              	.LVL124:
1055:Core/Src/vl53l0x_api.c **** 
1056:Core/Src/vl53l0x_api.c **** 	if (Status == VL53L0X_ERROR_NONE) {
 1479              		.loc 1 1056 2 is_stmt 1 view .LVU414
 1480              		.loc 1 1056 5 is_stmt 0 view .LVU415
 1481 001e 0546     		mov	r5, r0
 1482 0020 68BB     		cbnz	r0, .L95
1057:Core/Src/vl53l0x_api.c **** 		if (SequenceStepEnabled == 1) {
 1483              		.loc 1 1057 3 is_stmt 1 view .LVU416
 1484              		.loc 1 1057 6 is_stmt 0 view .LVU417
 1485 0022 012F     		cmp	r7, #1
 1486 0024 06D0     		beq	.L99
1058:Core/Src/vl53l0x_api.c **** 
1059:Core/Src/vl53l0x_api.c **** 			/* Enable requested sequence step
1060:Core/Src/vl53l0x_api.c **** 			 */
1061:Core/Src/vl53l0x_api.c **** 			switch (SequenceStepId) {
1062:Core/Src/vl53l0x_api.c **** 			case VL53L0X_SEQUENCESTEP_TCC:
1063:Core/Src/vl53l0x_api.c **** 				SequenceConfigNew |= 0x10;
1064:Core/Src/vl53l0x_api.c **** 				break;
1065:Core/Src/vl53l0x_api.c **** 			case VL53L0X_SEQUENCESTEP_DSS:
1066:Core/Src/vl53l0x_api.c **** 				SequenceConfigNew |= 0x28;
1067:Core/Src/vl53l0x_api.c **** 				break;
1068:Core/Src/vl53l0x_api.c **** 			case VL53L0X_SEQUENCESTEP_MSRC:
1069:Core/Src/vl53l0x_api.c **** 				SequenceConfigNew |= 0x04;
1070:Core/Src/vl53l0x_api.c **** 				break;
1071:Core/Src/vl53l0x_api.c **** 			case VL53L0X_SEQUENCESTEP_PRE_RANGE:
1072:Core/Src/vl53l0x_api.c **** 				SequenceConfigNew |= 0x40;
ARM GAS  C:\Users\anmh1\AppData\Local\Temp\ccBPLcM2.s 			page 45


1073:Core/Src/vl53l0x_api.c **** 				break;
1074:Core/Src/vl53l0x_api.c **** 			case VL53L0X_SEQUENCESTEP_FINAL_RANGE:
1075:Core/Src/vl53l0x_api.c **** 				SequenceConfigNew |= 0x80;
1076:Core/Src/vl53l0x_api.c **** 				break;
1077:Core/Src/vl53l0x_api.c **** 			default:
1078:Core/Src/vl53l0x_api.c **** 				Status = VL53L0X_ERROR_INVALID_PARAMS;
1079:Core/Src/vl53l0x_api.c **** 			}
1080:Core/Src/vl53l0x_api.c **** 		} else {
1081:Core/Src/vl53l0x_api.c **** 			/* Disable requested sequence step
1082:Core/Src/vl53l0x_api.c **** 			 */
1083:Core/Src/vl53l0x_api.c **** 			switch (SequenceStepId) {
 1487              		.loc 1 1083 4 is_stmt 1 view .LVU418
 1488 0026 042C     		cmp	r4, #4
 1489 0028 38D8     		bhi	.L97
 1490 002a DFE804F0 		tbb	[pc, r4]
 1491              	.L87:
 1492 002e 19       		.byte	(.L91-.L87)/2
 1493 002f 1C       		.byte	(.L90-.L87)/2
 1494 0030 1F       		.byte	(.L89-.L87)/2
 1495 0031 22       		.byte	(.L88-.L87)/2
 1496 0032 25       		.byte	(.L86-.L87)/2
 1497 0033 00       		.p2align 1
 1498              	.L99:
1061:Core/Src/vl53l0x_api.c **** 			case VL53L0X_SEQUENCESTEP_TCC:
 1499              		.loc 1 1061 4 view .LVU419
 1500 0034 042C     		cmp	r4, #4
 1501 0036 2DD8     		bhi	.L96
 1502 0038 DFE804F0 		tbb	[pc, r4]
 1503              	.L81:
 1504 003c 03       		.byte	(.L85-.L81)/2
 1505 003d 06       		.byte	(.L84-.L81)/2
 1506 003e 09       		.byte	(.L83-.L81)/2
 1507 003f 0C       		.byte	(.L82-.L81)/2
 1508 0040 0F       		.byte	(.L80-.L81)/2
 1509 0041 00       		.p2align 1
 1510              	.L85:
1063:Core/Src/vl53l0x_api.c **** 				break;
 1511              		.loc 1 1063 5 view .LVU420
1063:Core/Src/vl53l0x_api.c **** 				break;
 1512              		.loc 1 1063 23 is_stmt 0 view .LVU421
 1513 0042 43F01004 		orr	r4, r3, #16
 1514              	.LVL125:
1064:Core/Src/vl53l0x_api.c **** 			case VL53L0X_SEQUENCESTEP_DSS:
 1515              		.loc 1 1064 5 is_stmt 1 view .LVU422
 1516 0046 1BE0     		b	.L78
 1517              	.LVL126:
 1518              	.L84:
1066:Core/Src/vl53l0x_api.c **** 				break;
 1519              		.loc 1 1066 5 view .LVU423
1066:Core/Src/vl53l0x_api.c **** 				break;
 1520              		.loc 1 1066 23 is_stmt 0 view .LVU424
 1521 0048 43F02804 		orr	r4, r3, #40
 1522              	.LVL127:
1067:Core/Src/vl53l0x_api.c **** 			case VL53L0X_SEQUENCESTEP_MSRC:
 1523              		.loc 1 1067 5 is_stmt 1 view .LVU425
 1524 004c 18E0     		b	.L78
 1525              	.LVL128:
ARM GAS  C:\Users\anmh1\AppData\Local\Temp\ccBPLcM2.s 			page 46


 1526              	.L83:
1069:Core/Src/vl53l0x_api.c **** 				break;
 1527              		.loc 1 1069 5 view .LVU426
1069:Core/Src/vl53l0x_api.c **** 				break;
 1528              		.loc 1 1069 23 is_stmt 0 view .LVU427
 1529 004e 43F00404 		orr	r4, r3, #4
 1530              	.LVL129:
1070:Core/Src/vl53l0x_api.c **** 			case VL53L0X_SEQUENCESTEP_PRE_RANGE:
 1531              		.loc 1 1070 5 is_stmt 1 view .LVU428
 1532 0052 15E0     		b	.L78
 1533              	.LVL130:
 1534              	.L82:
1072:Core/Src/vl53l0x_api.c **** 				break;
 1535              		.loc 1 1072 5 view .LVU429
1072:Core/Src/vl53l0x_api.c **** 				break;
 1536              		.loc 1 1072 23 is_stmt 0 view .LVU430
 1537 0054 43F04004 		orr	r4, r3, #64
 1538              	.LVL131:
1073:Core/Src/vl53l0x_api.c **** 			case VL53L0X_SEQUENCESTEP_FINAL_RANGE:
 1539              		.loc 1 1073 5 is_stmt 1 view .LVU431
 1540 0058 12E0     		b	.L78
 1541              	.LVL132:
 1542              	.L80:
1075:Core/Src/vl53l0x_api.c **** 				break;
 1543              		.loc 1 1075 5 view .LVU432
1075:Core/Src/vl53l0x_api.c **** 				break;
 1544              		.loc 1 1075 23 is_stmt 0 view .LVU433
 1545 005a 43F08004 		orr	r4, r3, #128
 1546              	.LVL133:
1076:Core/Src/vl53l0x_api.c **** 			default:
 1547              		.loc 1 1076 5 is_stmt 1 view .LVU434
 1548 005e 0FE0     		b	.L78
 1549              	.LVL134:
 1550              	.L91:
1084:Core/Src/vl53l0x_api.c **** 			case VL53L0X_SEQUENCESTEP_TCC:
1085:Core/Src/vl53l0x_api.c **** 				SequenceConfigNew &= 0xef;
 1551              		.loc 1 1085 5 view .LVU435
 1552              		.loc 1 1085 23 is_stmt 0 view .LVU436
 1553 0060 03F0EF04 		and	r4, r3, #239
 1554              	.LVL135:
1086:Core/Src/vl53l0x_api.c **** 				break;
 1555              		.loc 1 1086 5 is_stmt 1 view .LVU437
 1556 0064 0CE0     		b	.L78
 1557              	.LVL136:
 1558              	.L90:
1087:Core/Src/vl53l0x_api.c **** 			case VL53L0X_SEQUENCESTEP_DSS:
1088:Core/Src/vl53l0x_api.c **** 				SequenceConfigNew &= 0xd7;
 1559              		.loc 1 1088 5 view .LVU438
 1560              		.loc 1 1088 23 is_stmt 0 view .LVU439
 1561 0066 03F0D704 		and	r4, r3, #215
 1562              	.LVL137:
1089:Core/Src/vl53l0x_api.c **** 				break;
 1563              		.loc 1 1089 5 is_stmt 1 view .LVU440
 1564 006a 09E0     		b	.L78
 1565              	.LVL138:
 1566              	.L89:
1090:Core/Src/vl53l0x_api.c **** 			case VL53L0X_SEQUENCESTEP_MSRC:
ARM GAS  C:\Users\anmh1\AppData\Local\Temp\ccBPLcM2.s 			page 47


1091:Core/Src/vl53l0x_api.c **** 				SequenceConfigNew &= 0xfb;
 1567              		.loc 1 1091 5 view .LVU441
 1568              		.loc 1 1091 23 is_stmt 0 view .LVU442
 1569 006c 03F0FB04 		and	r4, r3, #251
 1570              	.LVL139:
1092:Core/Src/vl53l0x_api.c **** 				break;
 1571              		.loc 1 1092 5 is_stmt 1 view .LVU443
 1572 0070 06E0     		b	.L78
 1573              	.LVL140:
 1574              	.L88:
1093:Core/Src/vl53l0x_api.c **** 			case VL53L0X_SEQUENCESTEP_PRE_RANGE:
1094:Core/Src/vl53l0x_api.c **** 				SequenceConfigNew &= 0xbf;
 1575              		.loc 1 1094 5 view .LVU444
 1576              		.loc 1 1094 23 is_stmt 0 view .LVU445
 1577 0072 03F0BF04 		and	r4, r3, #191
 1578              	.LVL141:
1095:Core/Src/vl53l0x_api.c **** 				break;
 1579              		.loc 1 1095 5 is_stmt 1 view .LVU446
 1580 0076 03E0     		b	.L78
 1581              	.LVL142:
 1582              	.L86:
1096:Core/Src/vl53l0x_api.c **** 			case VL53L0X_SEQUENCESTEP_FINAL_RANGE:
1097:Core/Src/vl53l0x_api.c **** 				SequenceConfigNew &= 0x7f;
 1583              		.loc 1 1097 5 view .LVU447
 1584              		.loc 1 1097 23 is_stmt 0 view .LVU448
 1585 0078 03F07F04 		and	r4, r3, #127
 1586              	.LVL143:
1098:Core/Src/vl53l0x_api.c **** 				break;
 1587              		.loc 1 1098 5 is_stmt 1 view .LVU449
 1588 007c 00E0     		b	.L78
 1589              	.LVL144:
 1590              	.L95:
1054:Core/Src/vl53l0x_api.c **** 
 1591              		.loc 1 1054 20 is_stmt 0 view .LVU450
 1592 007e 1C46     		mov	r4, r3
 1593              	.LVL145:
 1594              	.L78:
1099:Core/Src/vl53l0x_api.c **** 			default:
1100:Core/Src/vl53l0x_api.c **** 				Status = VL53L0X_ERROR_INVALID_PARAMS;
1101:Core/Src/vl53l0x_api.c **** 			}
1102:Core/Src/vl53l0x_api.c **** 		}
1103:Core/Src/vl53l0x_api.c **** 	}
1104:Core/Src/vl53l0x_api.c **** 
1105:Core/Src/vl53l0x_api.c **** 	if (SequenceConfigNew != SequenceConfig) {
 1595              		.loc 1 1105 2 is_stmt 1 view .LVU451
 1596              		.loc 1 1105 5 is_stmt 0 view .LVU452
 1597 0080 9C42     		cmp	r4, r3
 1598 0082 04D0     		beq	.L92
1106:Core/Src/vl53l0x_api.c **** 		/* Apply New Setting */
1107:Core/Src/vl53l0x_api.c **** 		if (Status == VL53L0X_ERROR_NONE) {
 1599              		.loc 1 1107 3 is_stmt 1 view .LVU453
 1600              		.loc 1 1107 6 is_stmt 0 view .LVU454
 1601 0084 75B1     		cbz	r5, .L100
 1602              	.L93:
1108:Core/Src/vl53l0x_api.c **** 			Status = VL53L0X_WrByte(Dev,
1109:Core/Src/vl53l0x_api.c **** 			VL53L0X_REG_SYSTEM_SEQUENCE_CONFIG, SequenceConfigNew);
1110:Core/Src/vl53l0x_api.c **** 		}
ARM GAS  C:\Users\anmh1\AppData\Local\Temp\ccBPLcM2.s 			page 48


1111:Core/Src/vl53l0x_api.c **** 		if (Status == VL53L0X_ERROR_NONE)
 1603              		.loc 1 1111 3 is_stmt 1 view .LVU455
 1604              		.loc 1 1111 6 is_stmt 0 view .LVU456
 1605 0086 0DB9     		cbnz	r5, .L94
1112:Core/Src/vl53l0x_api.c **** 			PALDevDataSet(Dev, SequenceConfig, SequenceConfigNew);
 1606              		.loc 1 1112 4 is_stmt 1 view .LVU457
 1607 0088 86F83041 		strb	r4, [r6, #304]
 1608              	.L94:
1113:Core/Src/vl53l0x_api.c **** 
1114:Core/Src/vl53l0x_api.c **** 
1115:Core/Src/vl53l0x_api.c **** 		/* Recalculate timing budget */
1116:Core/Src/vl53l0x_api.c **** 		if (Status == VL53L0X_ERROR_NONE) {
 1609              		.loc 1 1116 3 view .LVU458
 1610              		.loc 1 1116 6 is_stmt 0 view .LVU459
 1611 008c 8DB1     		cbz	r5, .L101
 1612              	.L92:
1117:Core/Src/vl53l0x_api.c **** 			VL53L0X_GETPARAMETERFIELD(Dev,
1118:Core/Src/vl53l0x_api.c **** 				MeasurementTimingBudgetMicroSeconds,
1119:Core/Src/vl53l0x_api.c **** 				MeasurementTimingBudgetMicroSeconds);
1120:Core/Src/vl53l0x_api.c **** 
1121:Core/Src/vl53l0x_api.c **** 			VL53L0X_SetMeasurementTimingBudgetMicroSeconds(Dev,
1122:Core/Src/vl53l0x_api.c **** 				MeasurementTimingBudgetMicroSeconds);
1123:Core/Src/vl53l0x_api.c **** 		}
1124:Core/Src/vl53l0x_api.c **** 	}
1125:Core/Src/vl53l0x_api.c **** 
1126:Core/Src/vl53l0x_api.c **** 	LOG_FUNCTION_END(Status);
 1613              		.loc 1 1126 2 is_stmt 1 view .LVU460
1127:Core/Src/vl53l0x_api.c **** 
1128:Core/Src/vl53l0x_api.c **** 	return Status;
 1614              		.loc 1 1128 2 view .LVU461
1129:Core/Src/vl53l0x_api.c **** }
 1615              		.loc 1 1129 1 is_stmt 0 view .LVU462
 1616 008e 2846     		mov	r0, r5
 1617 0090 03B0     		add	sp, sp, #12
 1618              		.cfi_remember_state
 1619              		.cfi_def_cfa_offset 20
 1620              		@ sp needed
 1621 0092 F0BD     		pop	{r4, r5, r6, r7, pc}
 1622              	.LVL146:
 1623              	.L96:
1057:Core/Src/vl53l0x_api.c **** 
 1624              		.loc 1 1057 6 view .LVU463
 1625 0094 1C46     		mov	r4, r3
 1626 0096 6FF00305 		mvn	r5, #3
 1627 009a F1E7     		b	.L78
 1628              	.L97:
 1629 009c 1C46     		mov	r4, r3
 1630 009e 6FF00305 		mvn	r5, #3
 1631 00a2 EDE7     		b	.L78
 1632              	.LVL147:
 1633              	.L100:
 1634              		.cfi_restore_state
1108:Core/Src/vl53l0x_api.c **** 			VL53L0X_REG_SYSTEM_SEQUENCE_CONFIG, SequenceConfigNew);
 1635              		.loc 1 1108 4 is_stmt 1 view .LVU464
1108:Core/Src/vl53l0x_api.c **** 			VL53L0X_REG_SYSTEM_SEQUENCE_CONFIG, SequenceConfigNew);
 1636              		.loc 1 1108 13 is_stmt 0 view .LVU465
 1637 00a4 2246     		mov	r2, r4
ARM GAS  C:\Users\anmh1\AppData\Local\Temp\ccBPLcM2.s 			page 49


 1638 00a6 0121     		movs	r1, #1
 1639 00a8 3046     		mov	r0, r6
 1640 00aa FFF7FEFF 		bl	VL53L0X_WrByte
 1641              	.LVL148:
 1642 00ae 0546     		mov	r5, r0
 1643              	.LVL149:
1108:Core/Src/vl53l0x_api.c **** 			VL53L0X_REG_SYSTEM_SEQUENCE_CONFIG, SequenceConfigNew);
 1644              		.loc 1 1108 13 view .LVU466
 1645 00b0 E9E7     		b	.L93
 1646              	.L101:
1117:Core/Src/vl53l0x_api.c **** 				MeasurementTimingBudgetMicroSeconds,
 1647              		.loc 1 1117 4 is_stmt 1 view .LVU467
 1648              	.LVL150:
1121:Core/Src/vl53l0x_api.c **** 				MeasurementTimingBudgetMicroSeconds);
 1649              		.loc 1 1121 4 view .LVU468
 1650 00b2 7169     		ldr	r1, [r6, #20]
 1651 00b4 3046     		mov	r0, r6
 1652 00b6 FFF7FEFF 		bl	VL53L0X_SetMeasurementTimingBudgetMicroSeconds
 1653              	.LVL151:
1121:Core/Src/vl53l0x_api.c **** 				MeasurementTimingBudgetMicroSeconds);
 1654              		.loc 1 1121 4 is_stmt 0 view .LVU469
 1655 00ba E8E7     		b	.L92
 1656              		.cfi_endproc
 1657              	.LFE171:
 1659              		.section	.text.sequence_step_enabled,"ax",%progbits
 1660              		.align	1
 1661              		.global	sequence_step_enabled
 1662              		.syntax unified
 1663              		.thumb
 1664              		.thumb_func
 1665              		.fpu fpv4-sp-d16
 1667              	sequence_step_enabled:
 1668              	.LVL152:
 1669              	.LFB172:
1130:Core/Src/vl53l0x_api.c **** 
1131:Core/Src/vl53l0x_api.c **** VL53L0X_Error sequence_step_enabled(VL53L0X_DEV Dev,
1132:Core/Src/vl53l0x_api.c **** 	VL53L0X_SequenceStepId SequenceStepId, uint8_t SequenceConfig,
1133:Core/Src/vl53l0x_api.c **** 	uint8_t *pSequenceStepEnabled)
1134:Core/Src/vl53l0x_api.c **** {
 1670              		.loc 1 1134 1 is_stmt 1 view -0
 1671              		.cfi_startproc
 1672              		@ args = 0, pretend = 0, frame = 0
 1673              		@ frame_needed = 0, uses_anonymous_args = 0
 1674              		@ link register save eliminated.
1135:Core/Src/vl53l0x_api.c **** 	VL53L0X_Error Status = VL53L0X_ERROR_NONE;
 1675              		.loc 1 1135 2 view .LVU471
1136:Core/Src/vl53l0x_api.c **** 	*pSequenceStepEnabled = 0;
 1676              		.loc 1 1136 2 view .LVU472
 1677              		.loc 1 1136 24 is_stmt 0 view .LVU473
 1678 0000 0020     		movs	r0, #0
 1679              	.LVL153:
 1680              		.loc 1 1136 24 view .LVU474
 1681 0002 1870     		strb	r0, [r3]
1137:Core/Src/vl53l0x_api.c **** 	LOG_FUNCTION_START("");
 1682              		.loc 1 1137 2 is_stmt 1 view .LVU475
1138:Core/Src/vl53l0x_api.c **** 
1139:Core/Src/vl53l0x_api.c **** 	switch (SequenceStepId) {
ARM GAS  C:\Users\anmh1\AppData\Local\Temp\ccBPLcM2.s 			page 50


 1683              		.loc 1 1139 2 view .LVU476
 1684 0004 0429     		cmp	r1, #4
 1685 0006 1CD8     		bhi	.L110
 1686 0008 DFE801F0 		tbb	[pc, r1]
 1687              	.L105:
 1688 000c 03       		.byte	(.L109-.L105)/2
 1689 000d 08       		.byte	(.L108-.L105)/2
 1690 000e 0D       		.byte	(.L107-.L105)/2
 1691 000f 12       		.byte	(.L106-.L105)/2
 1692 0010 17       		.byte	(.L104-.L105)/2
 1693 0011 00       		.p2align 1
 1694              	.L109:
1140:Core/Src/vl53l0x_api.c **** 	case VL53L0X_SEQUENCESTEP_TCC:
1141:Core/Src/vl53l0x_api.c **** 		*pSequenceStepEnabled = (SequenceConfig & 0x10) >> 4;
 1695              		.loc 1 1141 3 view .LVU477
 1696              		.loc 1 1141 51 is_stmt 0 view .LVU478
 1697 0012 C2F30012 		ubfx	r2, r2, #4, #1
 1698              	.LVL154:
 1699              		.loc 1 1141 25 view .LVU479
 1700 0016 1A70     		strb	r2, [r3]
1142:Core/Src/vl53l0x_api.c **** 		break;
 1701              		.loc 1 1142 3 is_stmt 1 view .LVU480
1135:Core/Src/vl53l0x_api.c **** 	*pSequenceStepEnabled = 0;
 1702              		.loc 1 1135 16 is_stmt 0 view .LVU481
 1703 0018 0020     		movs	r0, #0
 1704              		.loc 1 1142 3 view .LVU482
 1705 001a 7047     		bx	lr
 1706              	.LVL155:
 1707              	.L108:
1143:Core/Src/vl53l0x_api.c **** 	case VL53L0X_SEQUENCESTEP_DSS:
1144:Core/Src/vl53l0x_api.c **** 		*pSequenceStepEnabled = (SequenceConfig & 0x08) >> 3;
 1708              		.loc 1 1144 3 is_stmt 1 view .LVU483
 1709              		.loc 1 1144 51 is_stmt 0 view .LVU484
 1710 001c C2F3C002 		ubfx	r2, r2, #3, #1
 1711              	.LVL156:
 1712              		.loc 1 1144 25 view .LVU485
 1713 0020 1A70     		strb	r2, [r3]
1145:Core/Src/vl53l0x_api.c **** 		break;
 1714              		.loc 1 1145 3 is_stmt 1 view .LVU486
1135:Core/Src/vl53l0x_api.c **** 	*pSequenceStepEnabled = 0;
 1715              		.loc 1 1135 16 is_stmt 0 view .LVU487
 1716 0022 0020     		movs	r0, #0
 1717              		.loc 1 1145 3 view .LVU488
 1718 0024 7047     		bx	lr
 1719              	.LVL157:
 1720              	.L107:
1146:Core/Src/vl53l0x_api.c **** 	case VL53L0X_SEQUENCESTEP_MSRC:
1147:Core/Src/vl53l0x_api.c **** 		*pSequenceStepEnabled = (SequenceConfig & 0x04) >> 2;
 1721              		.loc 1 1147 3 is_stmt 1 view .LVU489
 1722              		.loc 1 1147 51 is_stmt 0 view .LVU490
 1723 0026 C2F38002 		ubfx	r2, r2, #2, #1
 1724              	.LVL158:
 1725              		.loc 1 1147 25 view .LVU491
 1726 002a 1A70     		strb	r2, [r3]
1148:Core/Src/vl53l0x_api.c **** 		break;
 1727              		.loc 1 1148 3 is_stmt 1 view .LVU492
1135:Core/Src/vl53l0x_api.c **** 	*pSequenceStepEnabled = 0;
ARM GAS  C:\Users\anmh1\AppData\Local\Temp\ccBPLcM2.s 			page 51


 1728              		.loc 1 1135 16 is_stmt 0 view .LVU493
 1729 002c 0020     		movs	r0, #0
 1730              		.loc 1 1148 3 view .LVU494
 1731 002e 7047     		bx	lr
 1732              	.LVL159:
 1733              	.L106:
1149:Core/Src/vl53l0x_api.c **** 	case VL53L0X_SEQUENCESTEP_PRE_RANGE:
1150:Core/Src/vl53l0x_api.c **** 		*pSequenceStepEnabled = (SequenceConfig & 0x40) >> 6;
 1734              		.loc 1 1150 3 is_stmt 1 view .LVU495
 1735              		.loc 1 1150 51 is_stmt 0 view .LVU496
 1736 0030 C2F38012 		ubfx	r2, r2, #6, #1
 1737              	.LVL160:
 1738              		.loc 1 1150 25 view .LVU497
 1739 0034 1A70     		strb	r2, [r3]
1151:Core/Src/vl53l0x_api.c **** 		break;
 1740              		.loc 1 1151 3 is_stmt 1 view .LVU498
1135:Core/Src/vl53l0x_api.c **** 	*pSequenceStepEnabled = 0;
 1741              		.loc 1 1135 16 is_stmt 0 view .LVU499
 1742 0036 0020     		movs	r0, #0
 1743              		.loc 1 1151 3 view .LVU500
 1744 0038 7047     		bx	lr
 1745              	.LVL161:
 1746              	.L104:
1152:Core/Src/vl53l0x_api.c **** 	case VL53L0X_SEQUENCESTEP_FINAL_RANGE:
1153:Core/Src/vl53l0x_api.c **** 		*pSequenceStepEnabled = (SequenceConfig & 0x80) >> 7;
 1747              		.loc 1 1153 3 is_stmt 1 view .LVU501
 1748              		.loc 1 1153 51 is_stmt 0 view .LVU502
 1749 003a D209     		lsrs	r2, r2, #7
 1750              	.LVL162:
 1751              		.loc 1 1153 25 view .LVU503
 1752 003c 1A70     		strb	r2, [r3]
1154:Core/Src/vl53l0x_api.c **** 		break;
 1753              		.loc 1 1154 3 is_stmt 1 view .LVU504
1135:Core/Src/vl53l0x_api.c **** 	*pSequenceStepEnabled = 0;
 1754              		.loc 1 1135 16 is_stmt 0 view .LVU505
 1755 003e 0020     		movs	r0, #0
 1756              		.loc 1 1154 3 view .LVU506
 1757 0040 7047     		bx	lr
 1758              	.LVL163:
 1759              	.L110:
1136:Core/Src/vl53l0x_api.c **** 	LOG_FUNCTION_START("");
 1760              		.loc 1 1136 24 view .LVU507
 1761 0042 6FF00300 		mvn	r0, #3
 1762              	.LVL164:
1155:Core/Src/vl53l0x_api.c **** 	default:
1156:Core/Src/vl53l0x_api.c **** 		Status = VL53L0X_ERROR_INVALID_PARAMS;
1157:Core/Src/vl53l0x_api.c **** 	}
1158:Core/Src/vl53l0x_api.c **** 
1159:Core/Src/vl53l0x_api.c **** 	LOG_FUNCTION_END(Status);
 1763              		.loc 1 1159 2 is_stmt 1 view .LVU508
1160:Core/Src/vl53l0x_api.c **** 	return Status;
 1764              		.loc 1 1160 2 view .LVU509
1161:Core/Src/vl53l0x_api.c **** }
 1765              		.loc 1 1161 1 is_stmt 0 view .LVU510
 1766 0046 7047     		bx	lr
 1767              		.cfi_endproc
 1768              	.LFE172:
ARM GAS  C:\Users\anmh1\AppData\Local\Temp\ccBPLcM2.s 			page 52


 1770              		.section	.text.VL53L0X_GetSequenceStepEnable,"ax",%progbits
 1771              		.align	1
 1772              		.global	VL53L0X_GetSequenceStepEnable
 1773              		.syntax unified
 1774              		.thumb
 1775              		.thumb_func
 1776              		.fpu fpv4-sp-d16
 1778              	VL53L0X_GetSequenceStepEnable:
 1779              	.LVL165:
 1780              	.LFB173:
1162:Core/Src/vl53l0x_api.c **** 
1163:Core/Src/vl53l0x_api.c **** VL53L0X_Error VL53L0X_GetSequenceStepEnable(VL53L0X_DEV Dev,
1164:Core/Src/vl53l0x_api.c **** 	VL53L0X_SequenceStepId SequenceStepId, uint8_t *pSequenceStepEnabled)
1165:Core/Src/vl53l0x_api.c **** {
 1781              		.loc 1 1165 1 is_stmt 1 view -0
 1782              		.cfi_startproc
 1783              		@ args = 0, pretend = 0, frame = 8
 1784              		@ frame_needed = 0, uses_anonymous_args = 0
 1785              		.loc 1 1165 1 is_stmt 0 view .LVU512
 1786 0000 70B5     		push	{r4, r5, r6, lr}
 1787              		.cfi_def_cfa_offset 16
 1788              		.cfi_offset 4, -16
 1789              		.cfi_offset 5, -12
 1790              		.cfi_offset 6, -8
 1791              		.cfi_offset 14, -4
 1792 0002 82B0     		sub	sp, sp, #8
 1793              		.cfi_def_cfa_offset 24
 1794 0004 0446     		mov	r4, r0
 1795 0006 0D46     		mov	r5, r1
 1796 0008 1646     		mov	r6, r2
1166:Core/Src/vl53l0x_api.c **** 	VL53L0X_Error Status = VL53L0X_ERROR_NONE;
 1797              		.loc 1 1166 2 is_stmt 1 view .LVU513
 1798              	.LVL166:
1167:Core/Src/vl53l0x_api.c **** 	uint8_t SequenceConfig = 0;
 1799              		.loc 1 1167 2 view .LVU514
 1800              		.loc 1 1167 10 is_stmt 0 view .LVU515
 1801 000a 0023     		movs	r3, #0
 1802 000c 8DF80730 		strb	r3, [sp, #7]
1168:Core/Src/vl53l0x_api.c **** 	LOG_FUNCTION_START("");
 1803              		.loc 1 1168 2 is_stmt 1 view .LVU516
1169:Core/Src/vl53l0x_api.c **** 
1170:Core/Src/vl53l0x_api.c **** 	Status = VL53L0X_RdByte(Dev, VL53L0X_REG_SYSTEM_SEQUENCE_CONFIG,
 1804              		.loc 1 1170 2 view .LVU517
 1805              		.loc 1 1170 11 is_stmt 0 view .LVU518
 1806 0010 0DF10702 		add	r2, sp, #7
 1807              	.LVL167:
 1808              		.loc 1 1170 11 view .LVU519
 1809 0014 0121     		movs	r1, #1
 1810              	.LVL168:
 1811              		.loc 1 1170 11 view .LVU520
 1812 0016 FFF7FEFF 		bl	VL53L0X_RdByte
 1813              	.LVL169:
1171:Core/Src/vl53l0x_api.c **** 		&SequenceConfig);
1172:Core/Src/vl53l0x_api.c **** 
1173:Core/Src/vl53l0x_api.c **** 	if (Status == VL53L0X_ERROR_NONE) {
 1814              		.loc 1 1173 2 is_stmt 1 view .LVU521
 1815              		.loc 1 1173 5 is_stmt 0 view .LVU522
ARM GAS  C:\Users\anmh1\AppData\Local\Temp\ccBPLcM2.s 			page 53


 1816 001a 08B1     		cbz	r0, .L114
 1817              	.LVL170:
 1818              	.L112:
1174:Core/Src/vl53l0x_api.c **** 		Status = sequence_step_enabled(Dev, SequenceStepId,
1175:Core/Src/vl53l0x_api.c **** 			SequenceConfig, pSequenceStepEnabled);
1176:Core/Src/vl53l0x_api.c **** 	}
1177:Core/Src/vl53l0x_api.c **** 
1178:Core/Src/vl53l0x_api.c **** 	LOG_FUNCTION_END(Status);
 1819              		.loc 1 1178 2 is_stmt 1 view .LVU523
1179:Core/Src/vl53l0x_api.c **** 	return Status;
 1820              		.loc 1 1179 2 view .LVU524
1180:Core/Src/vl53l0x_api.c **** }
 1821              		.loc 1 1180 1 is_stmt 0 view .LVU525
 1822 001c 02B0     		add	sp, sp, #8
 1823              		.cfi_remember_state
 1824              		.cfi_def_cfa_offset 16
 1825              		@ sp needed
 1826 001e 70BD     		pop	{r4, r5, r6, pc}
 1827              	.LVL171:
 1828              	.L114:
 1829              		.cfi_restore_state
1174:Core/Src/vl53l0x_api.c **** 		Status = sequence_step_enabled(Dev, SequenceStepId,
 1830              		.loc 1 1174 3 is_stmt 1 view .LVU526
1174:Core/Src/vl53l0x_api.c **** 		Status = sequence_step_enabled(Dev, SequenceStepId,
 1831              		.loc 1 1174 12 is_stmt 0 view .LVU527
 1832 0020 3346     		mov	r3, r6
 1833 0022 9DF80720 		ldrb	r2, [sp, #7]	@ zero_extendqisi2
 1834 0026 2946     		mov	r1, r5
 1835 0028 2046     		mov	r0, r4
 1836 002a FFF7FEFF 		bl	sequence_step_enabled
 1837              	.LVL172:
1174:Core/Src/vl53l0x_api.c **** 		Status = sequence_step_enabled(Dev, SequenceStepId,
 1838              		.loc 1 1174 12 view .LVU528
 1839 002e F5E7     		b	.L112
 1840              		.cfi_endproc
 1841              	.LFE173:
 1843              		.section	.text.VL53L0X_GetSequenceStepEnables,"ax",%progbits
 1844              		.align	1
 1845              		.global	VL53L0X_GetSequenceStepEnables
 1846              		.syntax unified
 1847              		.thumb
 1848              		.thumb_func
 1849              		.fpu fpv4-sp-d16
 1851              	VL53L0X_GetSequenceStepEnables:
 1852              	.LVL173:
 1853              	.LFB174:
1181:Core/Src/vl53l0x_api.c **** 
1182:Core/Src/vl53l0x_api.c **** VL53L0X_Error VL53L0X_GetSequenceStepEnables(VL53L0X_DEV Dev,
1183:Core/Src/vl53l0x_api.c **** 	VL53L0X_SchedulerSequenceSteps_t *pSchedulerSequenceSteps)
1184:Core/Src/vl53l0x_api.c **** {
 1854              		.loc 1 1184 1 is_stmt 1 view -0
 1855              		.cfi_startproc
 1856              		@ args = 0, pretend = 0, frame = 8
 1857              		@ frame_needed = 0, uses_anonymous_args = 0
 1858              		.loc 1 1184 1 is_stmt 0 view .LVU530
 1859 0000 30B5     		push	{r4, r5, lr}
 1860              		.cfi_def_cfa_offset 12
ARM GAS  C:\Users\anmh1\AppData\Local\Temp\ccBPLcM2.s 			page 54


 1861              		.cfi_offset 4, -12
 1862              		.cfi_offset 5, -8
 1863              		.cfi_offset 14, -4
 1864 0002 83B0     		sub	sp, sp, #12
 1865              		.cfi_def_cfa_offset 24
 1866 0004 0446     		mov	r4, r0
 1867 0006 0D46     		mov	r5, r1
1185:Core/Src/vl53l0x_api.c **** 	VL53L0X_Error Status = VL53L0X_ERROR_NONE;
 1868              		.loc 1 1185 2 is_stmt 1 view .LVU531
 1869              	.LVL174:
1186:Core/Src/vl53l0x_api.c **** 	uint8_t SequenceConfig = 0;
 1870              		.loc 1 1186 2 view .LVU532
 1871              		.loc 1 1186 10 is_stmt 0 view .LVU533
 1872 0008 0023     		movs	r3, #0
 1873 000a 8DF80730 		strb	r3, [sp, #7]
1187:Core/Src/vl53l0x_api.c **** 	LOG_FUNCTION_START("");
 1874              		.loc 1 1187 2 is_stmt 1 view .LVU534
1188:Core/Src/vl53l0x_api.c **** 
1189:Core/Src/vl53l0x_api.c **** 	Status = VL53L0X_RdByte(Dev, VL53L0X_REG_SYSTEM_SEQUENCE_CONFIG,
 1875              		.loc 1 1189 2 view .LVU535
 1876              		.loc 1 1189 11 is_stmt 0 view .LVU536
 1877 000e 0DF10702 		add	r2, sp, #7
 1878 0012 0121     		movs	r1, #1
 1879              	.LVL175:
 1880              		.loc 1 1189 11 view .LVU537
 1881 0014 FFF7FEFF 		bl	VL53L0X_RdByte
 1882              	.LVL176:
1190:Core/Src/vl53l0x_api.c **** 		&SequenceConfig);
1191:Core/Src/vl53l0x_api.c **** 
1192:Core/Src/vl53l0x_api.c **** 	if (Status == VL53L0X_ERROR_NONE) {
 1883              		.loc 1 1192 2 is_stmt 1 view .LVU538
 1884              		.loc 1 1192 5 is_stmt 0 view .LVU539
 1885 0018 28B1     		cbz	r0, .L122
 1886              	.LVL177:
 1887              	.L116:
1193:Core/Src/vl53l0x_api.c **** 		Status = sequence_step_enabled(Dev,
1194:Core/Src/vl53l0x_api.c **** 		VL53L0X_SEQUENCESTEP_TCC, SequenceConfig,
1195:Core/Src/vl53l0x_api.c **** 			&pSchedulerSequenceSteps->TccOn);
1196:Core/Src/vl53l0x_api.c **** 	}
1197:Core/Src/vl53l0x_api.c **** 	if (Status == VL53L0X_ERROR_NONE) {
 1888              		.loc 1 1197 2 is_stmt 1 view .LVU540
 1889              		.loc 1 1197 5 is_stmt 0 view .LVU541
 1890 001a 60B1     		cbz	r0, .L123
 1891              	.L117:
1198:Core/Src/vl53l0x_api.c **** 		Status = sequence_step_enabled(Dev,
1199:Core/Src/vl53l0x_api.c **** 		VL53L0X_SEQUENCESTEP_DSS, SequenceConfig,
1200:Core/Src/vl53l0x_api.c **** 			&pSchedulerSequenceSteps->DssOn);
1201:Core/Src/vl53l0x_api.c **** 	}
1202:Core/Src/vl53l0x_api.c **** 	if (Status == VL53L0X_ERROR_NONE) {
 1892              		.loc 1 1202 2 is_stmt 1 view .LVU542
 1893              		.loc 1 1202 5 is_stmt 0 view .LVU543
 1894 001c 98B1     		cbz	r0, .L124
 1895              	.L118:
1203:Core/Src/vl53l0x_api.c **** 		Status = sequence_step_enabled(Dev,
1204:Core/Src/vl53l0x_api.c **** 		VL53L0X_SEQUENCESTEP_MSRC, SequenceConfig,
1205:Core/Src/vl53l0x_api.c **** 			&pSchedulerSequenceSteps->MsrcOn);
1206:Core/Src/vl53l0x_api.c **** 	}
ARM GAS  C:\Users\anmh1\AppData\Local\Temp\ccBPLcM2.s 			page 55


1207:Core/Src/vl53l0x_api.c **** 	if (Status == VL53L0X_ERROR_NONE) {
 1896              		.loc 1 1207 2 is_stmt 1 view .LVU544
 1897              		.loc 1 1207 5 is_stmt 0 view .LVU545
 1898 001e D0B1     		cbz	r0, .L125
 1899              	.L119:
1208:Core/Src/vl53l0x_api.c **** 		Status = sequence_step_enabled(Dev,
1209:Core/Src/vl53l0x_api.c **** 		VL53L0X_SEQUENCESTEP_PRE_RANGE, SequenceConfig,
1210:Core/Src/vl53l0x_api.c **** 			&pSchedulerSequenceSteps->PreRangeOn);
1211:Core/Src/vl53l0x_api.c **** 	}
1212:Core/Src/vl53l0x_api.c **** 	if (Status == VL53L0X_ERROR_NONE) {
 1900              		.loc 1 1212 2 is_stmt 1 view .LVU546
 1901              		.loc 1 1212 5 is_stmt 0 view .LVU547
 1902 0020 08B3     		cbz	r0, .L126
 1903              	.L120:
1213:Core/Src/vl53l0x_api.c **** 		Status = sequence_step_enabled(Dev,
1214:Core/Src/vl53l0x_api.c **** 		VL53L0X_SEQUENCESTEP_FINAL_RANGE, SequenceConfig,
1215:Core/Src/vl53l0x_api.c **** 			&pSchedulerSequenceSteps->FinalRangeOn);
1216:Core/Src/vl53l0x_api.c **** 	}
1217:Core/Src/vl53l0x_api.c **** 
1218:Core/Src/vl53l0x_api.c **** 	LOG_FUNCTION_END(Status);
 1904              		.loc 1 1218 2 is_stmt 1 view .LVU548
1219:Core/Src/vl53l0x_api.c **** 	return Status;
 1905              		.loc 1 1219 2 view .LVU549
1220:Core/Src/vl53l0x_api.c **** }
 1906              		.loc 1 1220 1 is_stmt 0 view .LVU550
 1907 0022 03B0     		add	sp, sp, #12
 1908              		.cfi_remember_state
 1909              		.cfi_def_cfa_offset 12
 1910              		@ sp needed
 1911 0024 30BD     		pop	{r4, r5, pc}
 1912              	.LVL178:
 1913              	.L122:
 1914              		.cfi_restore_state
1193:Core/Src/vl53l0x_api.c **** 		VL53L0X_SEQUENCESTEP_TCC, SequenceConfig,
 1915              		.loc 1 1193 3 is_stmt 1 view .LVU551
1193:Core/Src/vl53l0x_api.c **** 		VL53L0X_SEQUENCESTEP_TCC, SequenceConfig,
 1916              		.loc 1 1193 12 is_stmt 0 view .LVU552
 1917 0026 2B46     		mov	r3, r5
 1918 0028 9DF80720 		ldrb	r2, [sp, #7]	@ zero_extendqisi2
 1919 002c 0021     		movs	r1, #0
 1920              	.LVL179:
1193:Core/Src/vl53l0x_api.c **** 		VL53L0X_SEQUENCESTEP_TCC, SequenceConfig,
 1921              		.loc 1 1193 12 view .LVU553
 1922 002e 2046     		mov	r0, r4
 1923 0030 FFF7FEFF 		bl	sequence_step_enabled
 1924              	.LVL180:
1193:Core/Src/vl53l0x_api.c **** 		VL53L0X_SEQUENCESTEP_TCC, SequenceConfig,
 1925              		.loc 1 1193 12 view .LVU554
 1926 0034 F1E7     		b	.L116
 1927              	.L123:
1198:Core/Src/vl53l0x_api.c **** 		VL53L0X_SEQUENCESTEP_DSS, SequenceConfig,
 1928              		.loc 1 1198 3 is_stmt 1 view .LVU555
1198:Core/Src/vl53l0x_api.c **** 		VL53L0X_SEQUENCESTEP_DSS, SequenceConfig,
 1929              		.loc 1 1198 12 is_stmt 0 view .LVU556
 1930 0036 AB1C     		adds	r3, r5, #2
 1931 0038 9DF80720 		ldrb	r2, [sp, #7]	@ zero_extendqisi2
 1932 003c 0121     		movs	r1, #1
ARM GAS  C:\Users\anmh1\AppData\Local\Temp\ccBPLcM2.s 			page 56


 1933 003e 2046     		mov	r0, r4
 1934              	.LVL181:
1198:Core/Src/vl53l0x_api.c **** 		VL53L0X_SEQUENCESTEP_DSS, SequenceConfig,
 1935              		.loc 1 1198 12 view .LVU557
 1936 0040 FFF7FEFF 		bl	sequence_step_enabled
 1937              	.LVL182:
1198:Core/Src/vl53l0x_api.c **** 		VL53L0X_SEQUENCESTEP_DSS, SequenceConfig,
 1938              		.loc 1 1198 12 view .LVU558
 1939 0044 EAE7     		b	.L117
 1940              	.L124:
1203:Core/Src/vl53l0x_api.c **** 		VL53L0X_SEQUENCESTEP_MSRC, SequenceConfig,
 1941              		.loc 1 1203 3 is_stmt 1 view .LVU559
1203:Core/Src/vl53l0x_api.c **** 		VL53L0X_SEQUENCESTEP_MSRC, SequenceConfig,
 1942              		.loc 1 1203 12 is_stmt 0 view .LVU560
 1943 0046 6B1C     		adds	r3, r5, #1
 1944 0048 9DF80720 		ldrb	r2, [sp, #7]	@ zero_extendqisi2
 1945 004c 0221     		movs	r1, #2
 1946 004e 2046     		mov	r0, r4
 1947              	.LVL183:
1203:Core/Src/vl53l0x_api.c **** 		VL53L0X_SEQUENCESTEP_MSRC, SequenceConfig,
 1948              		.loc 1 1203 12 view .LVU561
 1949 0050 FFF7FEFF 		bl	sequence_step_enabled
 1950              	.LVL184:
1203:Core/Src/vl53l0x_api.c **** 		VL53L0X_SEQUENCESTEP_MSRC, SequenceConfig,
 1951              		.loc 1 1203 12 view .LVU562
 1952 0054 E3E7     		b	.L118
 1953              	.L125:
1208:Core/Src/vl53l0x_api.c **** 		VL53L0X_SEQUENCESTEP_PRE_RANGE, SequenceConfig,
 1954              		.loc 1 1208 3 is_stmt 1 view .LVU563
1208:Core/Src/vl53l0x_api.c **** 		VL53L0X_SEQUENCESTEP_PRE_RANGE, SequenceConfig,
 1955              		.loc 1 1208 12 is_stmt 0 view .LVU564
 1956 0056 EB1C     		adds	r3, r5, #3
 1957 0058 9DF80720 		ldrb	r2, [sp, #7]	@ zero_extendqisi2
 1958 005c 0321     		movs	r1, #3
 1959 005e 2046     		mov	r0, r4
 1960              	.LVL185:
1208:Core/Src/vl53l0x_api.c **** 		VL53L0X_SEQUENCESTEP_PRE_RANGE, SequenceConfig,
 1961              		.loc 1 1208 12 view .LVU565
 1962 0060 FFF7FEFF 		bl	sequence_step_enabled
 1963              	.LVL186:
1208:Core/Src/vl53l0x_api.c **** 		VL53L0X_SEQUENCESTEP_PRE_RANGE, SequenceConfig,
 1964              		.loc 1 1208 12 view .LVU566
 1965 0064 DCE7     		b	.L119
 1966              	.L126:
1213:Core/Src/vl53l0x_api.c **** 		VL53L0X_SEQUENCESTEP_FINAL_RANGE, SequenceConfig,
 1967              		.loc 1 1213 3 is_stmt 1 view .LVU567
1213:Core/Src/vl53l0x_api.c **** 		VL53L0X_SEQUENCESTEP_FINAL_RANGE, SequenceConfig,
 1968              		.loc 1 1213 12 is_stmt 0 view .LVU568
 1969 0066 2B1D     		adds	r3, r5, #4
 1970 0068 9DF80720 		ldrb	r2, [sp, #7]	@ zero_extendqisi2
 1971 006c 0421     		movs	r1, #4
 1972 006e 2046     		mov	r0, r4
 1973              	.LVL187:
1213:Core/Src/vl53l0x_api.c **** 		VL53L0X_SEQUENCESTEP_FINAL_RANGE, SequenceConfig,
 1974              		.loc 1 1213 12 view .LVU569
 1975 0070 FFF7FEFF 		bl	sequence_step_enabled
 1976              	.LVL188:
ARM GAS  C:\Users\anmh1\AppData\Local\Temp\ccBPLcM2.s 			page 57


1213:Core/Src/vl53l0x_api.c **** 		VL53L0X_SEQUENCESTEP_FINAL_RANGE, SequenceConfig,
 1977              		.loc 1 1213 12 view .LVU570
 1978 0074 D5E7     		b	.L120
 1979              		.cfi_endproc
 1980              	.LFE174:
 1982              		.section	.text.VL53L0X_GetNumberOfSequenceSteps,"ax",%progbits
 1983              		.align	1
 1984              		.global	VL53L0X_GetNumberOfSequenceSteps
 1985              		.syntax unified
 1986              		.thumb
 1987              		.thumb_func
 1988              		.fpu fpv4-sp-d16
 1990              	VL53L0X_GetNumberOfSequenceSteps:
 1991              	.LVL189:
 1992              	.LFB175:
1221:Core/Src/vl53l0x_api.c **** 
1222:Core/Src/vl53l0x_api.c **** VL53L0X_Error VL53L0X_GetNumberOfSequenceSteps(VL53L0X_DEV Dev,
1223:Core/Src/vl53l0x_api.c **** 	uint8_t *pNumberOfSequenceSteps)
1224:Core/Src/vl53l0x_api.c **** {
 1993              		.loc 1 1224 1 is_stmt 1 view -0
 1994              		.cfi_startproc
 1995              		@ args = 0, pretend = 0, frame = 0
 1996              		@ frame_needed = 0, uses_anonymous_args = 0
 1997              		@ link register save eliminated.
1225:Core/Src/vl53l0x_api.c **** 	VL53L0X_Error Status = VL53L0X_ERROR_NONE;
 1998              		.loc 1 1225 2 view .LVU572
1226:Core/Src/vl53l0x_api.c **** 	LOG_FUNCTION_START("");
 1999              		.loc 1 1226 2 view .LVU573
1227:Core/Src/vl53l0x_api.c **** 
1228:Core/Src/vl53l0x_api.c **** 	*pNumberOfSequenceSteps = VL53L0X_SEQUENCESTEP_NUMBER_OF_CHECKS;
 2000              		.loc 1 1228 2 view .LVU574
 2001              		.loc 1 1228 26 is_stmt 0 view .LVU575
 2002 0000 0523     		movs	r3, #5
 2003 0002 0B70     		strb	r3, [r1]
1229:Core/Src/vl53l0x_api.c **** 
1230:Core/Src/vl53l0x_api.c **** 	LOG_FUNCTION_END(Status);
 2004              		.loc 1 1230 2 is_stmt 1 view .LVU576
1231:Core/Src/vl53l0x_api.c **** 	return Status;
 2005              		.loc 1 1231 2 view .LVU577
1232:Core/Src/vl53l0x_api.c **** }
 2006              		.loc 1 1232 1 is_stmt 0 view .LVU578
 2007 0004 0020     		movs	r0, #0
 2008              	.LVL190:
 2009              		.loc 1 1232 1 view .LVU579
 2010 0006 7047     		bx	lr
 2011              		.cfi_endproc
 2012              	.LFE175:
 2014              		.section	.text.VL53L0X_GetSequenceStepsInfo,"ax",%progbits
 2015              		.align	1
 2016              		.global	VL53L0X_GetSequenceStepsInfo
 2017              		.syntax unified
 2018              		.thumb
 2019              		.thumb_func
 2020              		.fpu fpv4-sp-d16
 2022              	VL53L0X_GetSequenceStepsInfo:
 2023              	.LVL191:
 2024              	.LFB176:
ARM GAS  C:\Users\anmh1\AppData\Local\Temp\ccBPLcM2.s 			page 58


1233:Core/Src/vl53l0x_api.c **** 
1234:Core/Src/vl53l0x_api.c **** VL53L0X_Error VL53L0X_GetSequenceStepsInfo(VL53L0X_SequenceStepId SequenceStepId,
1235:Core/Src/vl53l0x_api.c **** 	char *pSequenceStepsString)
1236:Core/Src/vl53l0x_api.c **** {
 2025              		.loc 1 1236 1 is_stmt 1 view -0
 2026              		.cfi_startproc
 2027              		@ args = 0, pretend = 0, frame = 0
 2028              		@ frame_needed = 0, uses_anonymous_args = 0
 2029              		.loc 1 1236 1 is_stmt 0 view .LVU581
 2030 0000 08B5     		push	{r3, lr}
 2031              		.cfi_def_cfa_offset 8
 2032              		.cfi_offset 3, -8
 2033              		.cfi_offset 14, -4
1237:Core/Src/vl53l0x_api.c **** 	VL53L0X_Error Status = VL53L0X_ERROR_NONE;
 2034              		.loc 1 1237 2 is_stmt 1 view .LVU582
 2035              	.LVL192:
1238:Core/Src/vl53l0x_api.c **** 	LOG_FUNCTION_START("");
 2036              		.loc 1 1238 2 view .LVU583
1239:Core/Src/vl53l0x_api.c **** 
1240:Core/Src/vl53l0x_api.c **** 	Status = VL53L0X_get_sequence_steps_info(
 2037              		.loc 1 1240 2 view .LVU584
 2038              		.loc 1 1240 11 is_stmt 0 view .LVU585
 2039 0002 FFF7FEFF 		bl	VL53L0X_get_sequence_steps_info
 2040              	.LVL193:
1241:Core/Src/vl53l0x_api.c **** 			SequenceStepId,
1242:Core/Src/vl53l0x_api.c **** 			pSequenceStepsString);
1243:Core/Src/vl53l0x_api.c **** 
1244:Core/Src/vl53l0x_api.c **** 	LOG_FUNCTION_END(Status);
 2041              		.loc 1 1244 2 is_stmt 1 view .LVU586
1245:Core/Src/vl53l0x_api.c **** 
1246:Core/Src/vl53l0x_api.c **** 	return Status;
 2042              		.loc 1 1246 2 view .LVU587
1247:Core/Src/vl53l0x_api.c **** }
 2043              		.loc 1 1247 1 is_stmt 0 view .LVU588
 2044 0006 08BD     		pop	{r3, pc}
 2045              		.cfi_endproc
 2046              	.LFE176:
 2048              		.section	.text.VL53L0X_SetSequenceStepTimeout,"ax",%progbits
 2049              		.align	1
 2050              		.global	VL53L0X_SetSequenceStepTimeout
 2051              		.syntax unified
 2052              		.thumb
 2053              		.thumb_func
 2054              		.fpu fpv4-sp-d16
 2056              	VL53L0X_SetSequenceStepTimeout:
 2057              	.LVL194:
 2058              	.LFB177:
1248:Core/Src/vl53l0x_api.c **** 
1249:Core/Src/vl53l0x_api.c **** VL53L0X_Error VL53L0X_SetSequenceStepTimeout(VL53L0X_DEV Dev,
1250:Core/Src/vl53l0x_api.c **** 	VL53L0X_SequenceStepId SequenceStepId, FixPoint1616_t TimeOutMilliSecs)
1251:Core/Src/vl53l0x_api.c **** {
 2059              		.loc 1 1251 1 is_stmt 1 view -0
 2060              		.cfi_startproc
 2061              		@ args = 0, pretend = 0, frame = 8
 2062              		@ frame_needed = 0, uses_anonymous_args = 0
 2063              		.loc 1 1251 1 is_stmt 0 view .LVU590
 2064 0000 70B5     		push	{r4, r5, r6, lr}
ARM GAS  C:\Users\anmh1\AppData\Local\Temp\ccBPLcM2.s 			page 59


 2065              		.cfi_def_cfa_offset 16
 2066              		.cfi_offset 4, -16
 2067              		.cfi_offset 5, -12
 2068              		.cfi_offset 6, -8
 2069              		.cfi_offset 14, -4
 2070 0002 82B0     		sub	sp, sp, #8
 2071              		.cfi_def_cfa_offset 24
 2072 0004 0546     		mov	r5, r0
 2073 0006 0E46     		mov	r6, r1
1252:Core/Src/vl53l0x_api.c **** 	VL53L0X_Error Status = VL53L0X_ERROR_NONE;
 2074              		.loc 1 1252 2 is_stmt 1 view .LVU591
 2075              	.LVL195:
1253:Core/Src/vl53l0x_api.c **** 	VL53L0X_Error Status1 = VL53L0X_ERROR_NONE;
 2076              		.loc 1 1253 2 view .LVU592
1254:Core/Src/vl53l0x_api.c **** 	uint32_t TimeoutMicroSeconds = ((TimeOutMilliSecs * 1000) + 0x8000)
 2077              		.loc 1 1254 2 view .LVU593
 2078              		.loc 1 1254 52 is_stmt 0 view .LVU594
 2079 0008 4FF47A73 		mov	r3, #1000
 2080 000c 03FB02F3 		mul	r3, r3, r2
 2081              		.loc 1 1254 60 view .LVU595
 2082 0010 03F50043 		add	r3, r3, #32768
 2083              		.loc 1 1254 11 view .LVU596
 2084 0014 1C0C     		lsrs	r4, r3, #16
 2085              	.LVL196:
1255:Core/Src/vl53l0x_api.c **** 		>> 16;
1256:Core/Src/vl53l0x_api.c **** 	uint32_t MeasurementTimingBudgetMicroSeconds;
 2086              		.loc 1 1256 2 is_stmt 1 view .LVU597
1257:Core/Src/vl53l0x_api.c **** 	FixPoint1616_t OldTimeOutMicroSeconds;
 2087              		.loc 1 1257 2 view .LVU598
1258:Core/Src/vl53l0x_api.c **** 
1259:Core/Src/vl53l0x_api.c **** 	LOG_FUNCTION_START("");
 2088              		.loc 1 1259 2 view .LVU599
1260:Core/Src/vl53l0x_api.c **** 
1261:Core/Src/vl53l0x_api.c **** 	/* Read back the current value in case we need to revert back to this.
1262:Core/Src/vl53l0x_api.c **** 	 */
1263:Core/Src/vl53l0x_api.c **** 	Status = get_sequence_step_timeout(Dev, SequenceStepId,
 2089              		.loc 1 1263 2 view .LVU600
 2090              		.loc 1 1263 11 is_stmt 0 view .LVU601
 2091 0016 01AA     		add	r2, sp, #4
 2092              	.LVL197:
 2093              		.loc 1 1263 11 view .LVU602
 2094 0018 FFF7FEFF 		bl	get_sequence_step_timeout
 2095              	.LVL198:
1264:Core/Src/vl53l0x_api.c **** 		&OldTimeOutMicroSeconds);
1265:Core/Src/vl53l0x_api.c **** 
1266:Core/Src/vl53l0x_api.c **** 	if (Status == VL53L0X_ERROR_NONE) {
 2096              		.loc 1 1266 2 is_stmt 1 view .LVU603
 2097              		.loc 1 1266 5 is_stmt 0 view .LVU604
 2098 001c 0346     		mov	r3, r0
 2099 001e 18B1     		cbz	r0, .L134
 2100              	.LVL199:
 2101              	.L131:
1267:Core/Src/vl53l0x_api.c **** 		Status = set_sequence_step_timeout(Dev, SequenceStepId,
1268:Core/Src/vl53l0x_api.c **** 			TimeoutMicroSeconds);
1269:Core/Src/vl53l0x_api.c **** 	}
1270:Core/Src/vl53l0x_api.c **** 
1271:Core/Src/vl53l0x_api.c **** 	if (Status == VL53L0X_ERROR_NONE) {
ARM GAS  C:\Users\anmh1\AppData\Local\Temp\ccBPLcM2.s 			page 60


 2102              		.loc 1 1271 2 is_stmt 1 view .LVU605
 2103              		.loc 1 1271 5 is_stmt 0 view .LVU606
 2104 0020 4BB1     		cbz	r3, .L135
 2105              	.LVL200:
 2106              	.L132:
1272:Core/Src/vl53l0x_api.c **** 		VL53L0X_GETPARAMETERFIELD(Dev,
1273:Core/Src/vl53l0x_api.c **** 			MeasurementTimingBudgetMicroSeconds,
1274:Core/Src/vl53l0x_api.c **** 			MeasurementTimingBudgetMicroSeconds);
1275:Core/Src/vl53l0x_api.c **** 
1276:Core/Src/vl53l0x_api.c **** 		/* At this point we don't know if the requested value is valid,
1277:Core/Src/vl53l0x_api.c **** 		 therefore proceed to update the entire timing budget and
1278:Core/Src/vl53l0x_api.c **** 		 if this fails, revert back to the previous value.
1279:Core/Src/vl53l0x_api.c **** 		 */
1280:Core/Src/vl53l0x_api.c **** 		Status = VL53L0X_SetMeasurementTimingBudgetMicroSeconds(Dev,
1281:Core/Src/vl53l0x_api.c **** 			MeasurementTimingBudgetMicroSeconds);
1282:Core/Src/vl53l0x_api.c **** 
1283:Core/Src/vl53l0x_api.c **** 		if (Status != VL53L0X_ERROR_NONE) {
1284:Core/Src/vl53l0x_api.c **** 			Status1 = set_sequence_step_timeout(Dev, SequenceStepId,
1285:Core/Src/vl53l0x_api.c **** 				OldTimeOutMicroSeconds);
1286:Core/Src/vl53l0x_api.c **** 
1287:Core/Src/vl53l0x_api.c **** 			if (Status1 == VL53L0X_ERROR_NONE) {
1288:Core/Src/vl53l0x_api.c **** 				Status1 =
1289:Core/Src/vl53l0x_api.c **** 				VL53L0X_SetMeasurementTimingBudgetMicroSeconds(
1290:Core/Src/vl53l0x_api.c **** 					Dev,
1291:Core/Src/vl53l0x_api.c **** 					MeasurementTimingBudgetMicroSeconds);
1292:Core/Src/vl53l0x_api.c **** 			}
1293:Core/Src/vl53l0x_api.c **** 
1294:Core/Src/vl53l0x_api.c **** 			Status = Status1;
1295:Core/Src/vl53l0x_api.c **** 		}
1296:Core/Src/vl53l0x_api.c **** 	}
1297:Core/Src/vl53l0x_api.c **** 
1298:Core/Src/vl53l0x_api.c **** 	LOG_FUNCTION_END(Status);
 2107              		.loc 1 1298 2 is_stmt 1 view .LVU607
1299:Core/Src/vl53l0x_api.c **** 
1300:Core/Src/vl53l0x_api.c **** 	return Status;
 2108              		.loc 1 1300 2 view .LVU608
1301:Core/Src/vl53l0x_api.c **** }
 2109              		.loc 1 1301 1 is_stmt 0 view .LVU609
 2110 0022 1846     		mov	r0, r3
 2111 0024 02B0     		add	sp, sp, #8
 2112              		.cfi_remember_state
 2113              		.cfi_def_cfa_offset 16
 2114              		@ sp needed
 2115 0026 70BD     		pop	{r4, r5, r6, pc}
 2116              	.LVL201:
 2117              	.L134:
 2118              		.cfi_restore_state
1267:Core/Src/vl53l0x_api.c **** 			TimeoutMicroSeconds);
 2119              		.loc 1 1267 3 is_stmt 1 view .LVU610
1267:Core/Src/vl53l0x_api.c **** 			TimeoutMicroSeconds);
 2120              		.loc 1 1267 12 is_stmt 0 view .LVU611
 2121 0028 2246     		mov	r2, r4
 2122 002a 3146     		mov	r1, r6
 2123 002c 2846     		mov	r0, r5
 2124              	.LVL202:
1267:Core/Src/vl53l0x_api.c **** 			TimeoutMicroSeconds);
 2125              		.loc 1 1267 12 view .LVU612
ARM GAS  C:\Users\anmh1\AppData\Local\Temp\ccBPLcM2.s 			page 61


 2126 002e FFF7FEFF 		bl	set_sequence_step_timeout
 2127              	.LVL203:
 2128 0032 0346     		mov	r3, r0
 2129              	.LVL204:
1267:Core/Src/vl53l0x_api.c **** 			TimeoutMicroSeconds);
 2130              		.loc 1 1267 12 view .LVU613
 2131 0034 F4E7     		b	.L131
 2132              	.L135:
1272:Core/Src/vl53l0x_api.c **** 			MeasurementTimingBudgetMicroSeconds,
 2133              		.loc 1 1272 3 is_stmt 1 view .LVU614
 2134 0036 6C69     		ldr	r4, [r5, #20]
 2135              	.LVL205:
1280:Core/Src/vl53l0x_api.c **** 			MeasurementTimingBudgetMicroSeconds);
 2136              		.loc 1 1280 3 view .LVU615
1280:Core/Src/vl53l0x_api.c **** 			MeasurementTimingBudgetMicroSeconds);
 2137              		.loc 1 1280 12 is_stmt 0 view .LVU616
 2138 0038 2146     		mov	r1, r4
 2139 003a 2846     		mov	r0, r5
 2140 003c FFF7FEFF 		bl	VL53L0X_SetMeasurementTimingBudgetMicroSeconds
 2141              	.LVL206:
1283:Core/Src/vl53l0x_api.c **** 			Status1 = set_sequence_step_timeout(Dev, SequenceStepId,
 2142              		.loc 1 1283 3 is_stmt 1 view .LVU617
1283:Core/Src/vl53l0x_api.c **** 			Status1 = set_sequence_step_timeout(Dev, SequenceStepId,
 2143              		.loc 1 1283 6 is_stmt 0 view .LVU618
 2144 0040 0346     		mov	r3, r0
 2145 0042 0028     		cmp	r0, #0
 2146 0044 EDD0     		beq	.L132
1284:Core/Src/vl53l0x_api.c **** 				OldTimeOutMicroSeconds);
 2147              		.loc 1 1284 4 is_stmt 1 view .LVU619
1284:Core/Src/vl53l0x_api.c **** 				OldTimeOutMicroSeconds);
 2148              		.loc 1 1284 14 is_stmt 0 view .LVU620
 2149 0046 019A     		ldr	r2, [sp, #4]
 2150 0048 3146     		mov	r1, r6
 2151 004a 2846     		mov	r0, r5
 2152              	.LVL207:
1284:Core/Src/vl53l0x_api.c **** 				OldTimeOutMicroSeconds);
 2153              		.loc 1 1284 14 view .LVU621
 2154 004c FFF7FEFF 		bl	set_sequence_step_timeout
 2155              	.LVL208:
1287:Core/Src/vl53l0x_api.c **** 				Status1 =
 2156              		.loc 1 1287 4 is_stmt 1 view .LVU622
1287:Core/Src/vl53l0x_api.c **** 				Status1 =
 2157              		.loc 1 1287 7 is_stmt 0 view .LVU623
 2158 0050 0346     		mov	r3, r0
 2159 0052 0028     		cmp	r0, #0
 2160 0054 E5D1     		bne	.L132
1288:Core/Src/vl53l0x_api.c **** 				VL53L0X_SetMeasurementTimingBudgetMicroSeconds(
 2161              		.loc 1 1288 5 is_stmt 1 view .LVU624
1289:Core/Src/vl53l0x_api.c **** 					Dev,
 2162              		.loc 1 1289 5 is_stmt 0 view .LVU625
 2163 0056 2146     		mov	r1, r4
 2164 0058 2846     		mov	r0, r5
 2165              	.LVL209:
1289:Core/Src/vl53l0x_api.c **** 					Dev,
 2166              		.loc 1 1289 5 view .LVU626
 2167 005a FFF7FEFF 		bl	VL53L0X_SetMeasurementTimingBudgetMicroSeconds
 2168              	.LVL210:
ARM GAS  C:\Users\anmh1\AppData\Local\Temp\ccBPLcM2.s 			page 62


 2169 005e 0346     		mov	r3, r0
 2170              	.LVL211:
1289:Core/Src/vl53l0x_api.c **** 					Dev,
 2171              		.loc 1 1289 5 view .LVU627
 2172 0060 DFE7     		b	.L132
 2173              		.cfi_endproc
 2174              	.LFE177:
 2176              		.section	.text.VL53L0X_GetSequenceStepTimeout,"ax",%progbits
 2177              		.align	1
 2178              		.global	VL53L0X_GetSequenceStepTimeout
 2179              		.syntax unified
 2180              		.thumb
 2181              		.thumb_func
 2182              		.fpu fpv4-sp-d16
 2184              	VL53L0X_GetSequenceStepTimeout:
 2185              	.LVL212:
 2186              	.LFB178:
1302:Core/Src/vl53l0x_api.c **** 
1303:Core/Src/vl53l0x_api.c **** VL53L0X_Error VL53L0X_GetSequenceStepTimeout(VL53L0X_DEV Dev,
1304:Core/Src/vl53l0x_api.c **** 	VL53L0X_SequenceStepId SequenceStepId, FixPoint1616_t *pTimeOutMilliSecs)
1305:Core/Src/vl53l0x_api.c **** {
 2187              		.loc 1 1305 1 is_stmt 1 view -0
 2188              		.cfi_startproc
 2189              		@ args = 0, pretend = 0, frame = 8
 2190              		@ frame_needed = 0, uses_anonymous_args = 0
 2191              		.loc 1 1305 1 is_stmt 0 view .LVU629
 2192 0000 10B5     		push	{r4, lr}
 2193              		.cfi_def_cfa_offset 8
 2194              		.cfi_offset 4, -8
 2195              		.cfi_offset 14, -4
 2196 0002 82B0     		sub	sp, sp, #8
 2197              		.cfi_def_cfa_offset 16
 2198 0004 1446     		mov	r4, r2
1306:Core/Src/vl53l0x_api.c **** 	VL53L0X_Error Status = VL53L0X_ERROR_NONE;
 2199              		.loc 1 1306 2 is_stmt 1 view .LVU630
 2200              	.LVL213:
1307:Core/Src/vl53l0x_api.c **** 	uint32_t TimeoutMicroSeconds;
 2201              		.loc 1 1307 2 view .LVU631
1308:Core/Src/vl53l0x_api.c **** 	LOG_FUNCTION_START("");
 2202              		.loc 1 1308 2 view .LVU632
1309:Core/Src/vl53l0x_api.c **** 
1310:Core/Src/vl53l0x_api.c **** 	Status = get_sequence_step_timeout(Dev, SequenceStepId,
 2203              		.loc 1 1310 2 view .LVU633
 2204              		.loc 1 1310 11 is_stmt 0 view .LVU634
 2205 0006 01AA     		add	r2, sp, #4
 2206              	.LVL214:
 2207              		.loc 1 1310 11 view .LVU635
 2208 0008 FFF7FEFF 		bl	get_sequence_step_timeout
 2209              	.LVL215:
1311:Core/Src/vl53l0x_api.c **** 		&TimeoutMicroSeconds);
1312:Core/Src/vl53l0x_api.c **** 	if (Status == VL53L0X_ERROR_NONE) {
 2210              		.loc 1 1312 2 is_stmt 1 view .LVU636
 2211              		.loc 1 1312 5 is_stmt 0 view .LVU637
 2212 000c 48B9     		cbnz	r0, .L137
1313:Core/Src/vl53l0x_api.c **** 		TimeoutMicroSeconds <<= 8;
 2213              		.loc 1 1313 3 is_stmt 1 view .LVU638
 2214              		.loc 1 1313 23 is_stmt 0 view .LVU639
ARM GAS  C:\Users\anmh1\AppData\Local\Temp\ccBPLcM2.s 			page 63


 2215 000e 019B     		ldr	r3, [sp, #4]
 2216 0010 1B02     		lsls	r3, r3, #8
1314:Core/Src/vl53l0x_api.c **** 		*pTimeOutMilliSecs = (TimeoutMicroSeconds + 500)/1000;
 2217              		.loc 1 1314 3 is_stmt 1 view .LVU640
 2218              		.loc 1 1314 45 is_stmt 0 view .LVU641
 2219 0012 03F5FA73 		add	r3, r3, #500
 2220              		.loc 1 1314 51 view .LVU642
 2221 0016 044A     		ldr	r2, .L139
 2222 0018 A2FB0323 		umull	r2, r3, r2, r3
 2223 001c 9B09     		lsrs	r3, r3, #6
1315:Core/Src/vl53l0x_api.c **** 		*pTimeOutMilliSecs <<= 8;
 2224              		.loc 1 1315 3 is_stmt 1 view .LVU643
 2225              		.loc 1 1315 22 is_stmt 0 view .LVU644
 2226 001e 1B02     		lsls	r3, r3, #8
 2227 0020 2360     		str	r3, [r4]
 2228              	.L137:
1316:Core/Src/vl53l0x_api.c **** 	}
1317:Core/Src/vl53l0x_api.c **** 
1318:Core/Src/vl53l0x_api.c **** 	LOG_FUNCTION_END(Status);
 2229              		.loc 1 1318 2 is_stmt 1 view .LVU645
1319:Core/Src/vl53l0x_api.c **** 	return Status;
 2230              		.loc 1 1319 2 view .LVU646
1320:Core/Src/vl53l0x_api.c **** }
 2231              		.loc 1 1320 1 is_stmt 0 view .LVU647
 2232 0022 02B0     		add	sp, sp, #8
 2233              		.cfi_def_cfa_offset 8
 2234              		@ sp needed
 2235 0024 10BD     		pop	{r4, pc}
 2236              	.LVL216:
 2237              	.L140:
 2238              		.loc 1 1320 1 view .LVU648
 2239 0026 00BF     		.align	2
 2240              	.L139:
 2241 0028 D34D6210 		.word	274877907
 2242              		.cfi_endproc
 2243              	.LFE178:
 2245              		.section	.text.VL53L0X_SetInterMeasurementPeriodMilliSeconds,"ax",%progbits
 2246              		.align	1
 2247              		.global	VL53L0X_SetInterMeasurementPeriodMilliSeconds
 2248              		.syntax unified
 2249              		.thumb
 2250              		.thumb_func
 2251              		.fpu fpv4-sp-d16
 2253              	VL53L0X_SetInterMeasurementPeriodMilliSeconds:
 2254              	.LVL217:
 2255              	.LFB179:
1321:Core/Src/vl53l0x_api.c **** 
1322:Core/Src/vl53l0x_api.c **** VL53L0X_Error VL53L0X_SetInterMeasurementPeriodMilliSeconds(VL53L0X_DEV Dev,
1323:Core/Src/vl53l0x_api.c **** 	uint32_t InterMeasurementPeriodMilliSeconds)
1324:Core/Src/vl53l0x_api.c **** {
 2256              		.loc 1 1324 1 is_stmt 1 view -0
 2257              		.cfi_startproc
 2258              		@ args = 0, pretend = 0, frame = 8
 2259              		@ frame_needed = 0, uses_anonymous_args = 0
 2260              		.loc 1 1324 1 is_stmt 0 view .LVU650
 2261 0000 30B5     		push	{r4, r5, lr}
 2262              		.cfi_def_cfa_offset 12
ARM GAS  C:\Users\anmh1\AppData\Local\Temp\ccBPLcM2.s 			page 64


 2263              		.cfi_offset 4, -12
 2264              		.cfi_offset 5, -8
 2265              		.cfi_offset 14, -4
 2266 0002 83B0     		sub	sp, sp, #12
 2267              		.cfi_def_cfa_offset 24
 2268 0004 0446     		mov	r4, r0
 2269 0006 0D46     		mov	r5, r1
1325:Core/Src/vl53l0x_api.c **** 	VL53L0X_Error Status = VL53L0X_ERROR_NONE;
 2270              		.loc 1 1325 2 is_stmt 1 view .LVU651
 2271              	.LVL218:
1326:Core/Src/vl53l0x_api.c **** 	uint16_t osc_calibrate_val;
 2272              		.loc 1 1326 2 view .LVU652
1327:Core/Src/vl53l0x_api.c **** 	uint32_t IMPeriodMilliSeconds;
 2273              		.loc 1 1327 2 view .LVU653
1328:Core/Src/vl53l0x_api.c **** 
1329:Core/Src/vl53l0x_api.c **** 	LOG_FUNCTION_START("");
 2274              		.loc 1 1329 2 view .LVU654
1330:Core/Src/vl53l0x_api.c **** 
1331:Core/Src/vl53l0x_api.c **** 	Status = VL53L0X_RdWord(Dev, VL53L0X_REG_OSC_CALIBRATE_VAL,
 2275              		.loc 1 1331 2 view .LVU655
 2276              		.loc 1 1331 11 is_stmt 0 view .LVU656
 2277 0008 0DF10602 		add	r2, sp, #6
 2278 000c F821     		movs	r1, #248
 2279              	.LVL219:
 2280              		.loc 1 1331 11 view .LVU657
 2281 000e FFF7FEFF 		bl	VL53L0X_RdWord
 2282              	.LVL220:
1332:Core/Src/vl53l0x_api.c **** 		&osc_calibrate_val);
1333:Core/Src/vl53l0x_api.c **** 
1334:Core/Src/vl53l0x_api.c **** 	if (Status == VL53L0X_ERROR_NONE) {
 2283              		.loc 1 1334 2 is_stmt 1 view .LVU658
 2284              		.loc 1 1334 5 is_stmt 0 view .LVU659
 2285 0012 50B9     		cbnz	r0, .L142
1335:Core/Src/vl53l0x_api.c **** 		if (osc_calibrate_val != 0) {
 2286              		.loc 1 1335 3 is_stmt 1 view .LVU660
 2287              		.loc 1 1335 25 is_stmt 0 view .LVU661
 2288 0014 BDF80620 		ldrh	r2, [sp, #6]
 2289              		.loc 1 1335 6 view .LVU662
 2290 0018 12B1     		cbz	r2, .L145
1336:Core/Src/vl53l0x_api.c **** 			IMPeriodMilliSeconds =
 2291              		.loc 1 1336 4 is_stmt 1 view .LVU663
 2292              		.loc 1 1336 25 is_stmt 0 view .LVU664
 2293 001a 05FB02F2 		mul	r2, r5, r2
 2294              	.LVL221:
 2295              		.loc 1 1336 25 view .LVU665
 2296 001e 00E0     		b	.L143
 2297              	.LVL222:
 2298              	.L145:
1337:Core/Src/vl53l0x_api.c **** 				InterMeasurementPeriodMilliSeconds
1338:Core/Src/vl53l0x_api.c **** 					* osc_calibrate_val;
1339:Core/Src/vl53l0x_api.c **** 		} else {
1340:Core/Src/vl53l0x_api.c **** 			IMPeriodMilliSeconds =
 2299              		.loc 1 1340 25 view .LVU666
 2300 0020 2A46     		mov	r2, r5
 2301              	.L143:
 2302              	.LVL223:
1341:Core/Src/vl53l0x_api.c **** 				InterMeasurementPeriodMilliSeconds;
ARM GAS  C:\Users\anmh1\AppData\Local\Temp\ccBPLcM2.s 			page 65


1342:Core/Src/vl53l0x_api.c **** 		}
1343:Core/Src/vl53l0x_api.c **** 		Status = VL53L0X_WrDWord(Dev,
 2303              		.loc 1 1343 3 is_stmt 1 view .LVU667
 2304              		.loc 1 1343 12 is_stmt 0 view .LVU668
 2305 0022 0421     		movs	r1, #4
 2306 0024 2046     		mov	r0, r4
 2307 0026 FFF7FEFF 		bl	VL53L0X_WrDWord
 2308              	.LVL224:
 2309              	.L142:
1344:Core/Src/vl53l0x_api.c **** 		VL53L0X_REG_SYSTEM_INTERMEASUREMENT_PERIOD,
1345:Core/Src/vl53l0x_api.c **** 			IMPeriodMilliSeconds);
1346:Core/Src/vl53l0x_api.c **** 	}
1347:Core/Src/vl53l0x_api.c **** 
1348:Core/Src/vl53l0x_api.c **** 	if (Status == VL53L0X_ERROR_NONE) {
 2310              		.loc 1 1348 2 is_stmt 1 view .LVU669
 2311              		.loc 1 1348 5 is_stmt 0 view .LVU670
 2312 002a 00B9     		cbnz	r0, .L144
1349:Core/Src/vl53l0x_api.c **** 		VL53L0X_SETPARAMETERFIELD(Dev,
 2313              		.loc 1 1349 3 is_stmt 1 view .LVU671
 2314 002c A561     		str	r5, [r4, #24]
 2315              	.L144:
1350:Core/Src/vl53l0x_api.c **** 			InterMeasurementPeriodMilliSeconds,
1351:Core/Src/vl53l0x_api.c **** 			InterMeasurementPeriodMilliSeconds);
1352:Core/Src/vl53l0x_api.c **** 	}
1353:Core/Src/vl53l0x_api.c **** 
1354:Core/Src/vl53l0x_api.c **** 	LOG_FUNCTION_END(Status);
 2316              		.loc 1 1354 2 view .LVU672
1355:Core/Src/vl53l0x_api.c **** 	return Status;
 2317              		.loc 1 1355 2 view .LVU673
1356:Core/Src/vl53l0x_api.c **** }
 2318              		.loc 1 1356 1 is_stmt 0 view .LVU674
 2319 002e 03B0     		add	sp, sp, #12
 2320              		.cfi_def_cfa_offset 12
 2321              		@ sp needed
 2322 0030 30BD     		pop	{r4, r5, pc}
 2323              		.loc 1 1356 1 view .LVU675
 2324              		.cfi_endproc
 2325              	.LFE179:
 2327              		.section	.text.VL53L0X_GetInterMeasurementPeriodMilliSeconds,"ax",%progbits
 2328              		.align	1
 2329              		.global	VL53L0X_GetInterMeasurementPeriodMilliSeconds
 2330              		.syntax unified
 2331              		.thumb
 2332              		.thumb_func
 2333              		.fpu fpv4-sp-d16
 2335              	VL53L0X_GetInterMeasurementPeriodMilliSeconds:
 2336              	.LVL225:
 2337              	.LFB180:
1357:Core/Src/vl53l0x_api.c **** 
1358:Core/Src/vl53l0x_api.c **** VL53L0X_Error VL53L0X_GetInterMeasurementPeriodMilliSeconds(VL53L0X_DEV Dev,
1359:Core/Src/vl53l0x_api.c **** 	uint32_t *pInterMeasurementPeriodMilliSeconds)
1360:Core/Src/vl53l0x_api.c **** {
 2338              		.loc 1 1360 1 is_stmt 1 view -0
 2339              		.cfi_startproc
 2340              		@ args = 0, pretend = 0, frame = 8
 2341              		@ frame_needed = 0, uses_anonymous_args = 0
 2342              		.loc 1 1360 1 is_stmt 0 view .LVU677
ARM GAS  C:\Users\anmh1\AppData\Local\Temp\ccBPLcM2.s 			page 66


 2343 0000 30B5     		push	{r4, r5, lr}
 2344              		.cfi_def_cfa_offset 12
 2345              		.cfi_offset 4, -12
 2346              		.cfi_offset 5, -8
 2347              		.cfi_offset 14, -4
 2348 0002 83B0     		sub	sp, sp, #12
 2349              		.cfi_def_cfa_offset 24
 2350 0004 0546     		mov	r5, r0
 2351 0006 0C46     		mov	r4, r1
1361:Core/Src/vl53l0x_api.c **** 	VL53L0X_Error Status = VL53L0X_ERROR_NONE;
 2352              		.loc 1 1361 2 is_stmt 1 view .LVU678
 2353              	.LVL226:
1362:Core/Src/vl53l0x_api.c **** 	uint16_t osc_calibrate_val;
 2354              		.loc 1 1362 2 view .LVU679
1363:Core/Src/vl53l0x_api.c **** 	uint32_t IMPeriodMilliSeconds;
 2355              		.loc 1 1363 2 view .LVU680
1364:Core/Src/vl53l0x_api.c **** 
1365:Core/Src/vl53l0x_api.c **** 	LOG_FUNCTION_START("");
 2356              		.loc 1 1365 2 view .LVU681
1366:Core/Src/vl53l0x_api.c **** 
1367:Core/Src/vl53l0x_api.c **** 	Status = VL53L0X_RdWord(Dev, VL53L0X_REG_OSC_CALIBRATE_VAL,
 2357              		.loc 1 1367 2 view .LVU682
 2358              		.loc 1 1367 11 is_stmt 0 view .LVU683
 2359 0008 0DF10602 		add	r2, sp, #6
 2360 000c F821     		movs	r1, #248
 2361              	.LVL227:
 2362              		.loc 1 1367 11 view .LVU684
 2363 000e FFF7FEFF 		bl	VL53L0X_RdWord
 2364              	.LVL228:
1368:Core/Src/vl53l0x_api.c **** 		&osc_calibrate_val);
1369:Core/Src/vl53l0x_api.c **** 
1370:Core/Src/vl53l0x_api.c **** 	if (Status == VL53L0X_ERROR_NONE) {
 2365              		.loc 1 1370 2 is_stmt 1 view .LVU685
 2366              		.loc 1 1370 5 is_stmt 0 view .LVU686
 2367 0012 58B1     		cbz	r0, .L152
 2368              	.L148:
 2369              	.LVL229:
1371:Core/Src/vl53l0x_api.c **** 		Status = VL53L0X_RdDWord(Dev,
1372:Core/Src/vl53l0x_api.c **** 		VL53L0X_REG_SYSTEM_INTERMEASUREMENT_PERIOD,
1373:Core/Src/vl53l0x_api.c **** 			&IMPeriodMilliSeconds);
1374:Core/Src/vl53l0x_api.c **** 	}
1375:Core/Src/vl53l0x_api.c **** 
1376:Core/Src/vl53l0x_api.c **** 	if (Status == VL53L0X_ERROR_NONE) {
 2370              		.loc 1 1376 2 is_stmt 1 view .LVU687
 2371              		.loc 1 1376 5 is_stmt 0 view .LVU688
 2372 0014 40B9     		cbnz	r0, .L149
1377:Core/Src/vl53l0x_api.c **** 		if (osc_calibrate_val != 0) {
 2373              		.loc 1 1377 3 is_stmt 1 view .LVU689
 2374              		.loc 1 1377 25 is_stmt 0 view .LVU690
 2375 0016 BDF80630 		ldrh	r3, [sp, #6]
 2376              		.loc 1 1377 6 view .LVU691
 2377 001a 1BB1     		cbz	r3, .L150
1378:Core/Src/vl53l0x_api.c **** 			*pInterMeasurementPeriodMilliSeconds =
 2378              		.loc 1 1378 4 is_stmt 1 view .LVU692
1379:Core/Src/vl53l0x_api.c **** 				IMPeriodMilliSeconds / osc_calibrate_val;
 2379              		.loc 1 1379 26 is_stmt 0 view .LVU693
 2380 001c 009A     		ldr	r2, [sp]
ARM GAS  C:\Users\anmh1\AppData\Local\Temp\ccBPLcM2.s 			page 67


 2381 001e B2FBF3F3 		udiv	r3, r2, r3
1378:Core/Src/vl53l0x_api.c **** 			*pInterMeasurementPeriodMilliSeconds =
 2382              		.loc 1 1378 41 view .LVU694
 2383 0022 2360     		str	r3, [r4]
 2384              	.L150:
1380:Core/Src/vl53l0x_api.c **** 		}
1381:Core/Src/vl53l0x_api.c **** 		VL53L0X_SETPARAMETERFIELD(Dev,
 2385              		.loc 1 1381 3 is_stmt 1 view .LVU695
 2386 0024 2368     		ldr	r3, [r4]
 2387 0026 AB61     		str	r3, [r5, #24]
 2388              	.L149:
1382:Core/Src/vl53l0x_api.c **** 			InterMeasurementPeriodMilliSeconds,
1383:Core/Src/vl53l0x_api.c **** 			*pInterMeasurementPeriodMilliSeconds);
1384:Core/Src/vl53l0x_api.c **** 	}
1385:Core/Src/vl53l0x_api.c **** 
1386:Core/Src/vl53l0x_api.c **** 	LOG_FUNCTION_END(Status);
 2389              		.loc 1 1386 2 view .LVU696
1387:Core/Src/vl53l0x_api.c **** 	return Status;
 2390              		.loc 1 1387 2 view .LVU697
1388:Core/Src/vl53l0x_api.c **** }
 2391              		.loc 1 1388 1 is_stmt 0 view .LVU698
 2392 0028 03B0     		add	sp, sp, #12
 2393              		.cfi_remember_state
 2394              		.cfi_def_cfa_offset 12
 2395              		@ sp needed
 2396 002a 30BD     		pop	{r4, r5, pc}
 2397              	.LVL230:
 2398              	.L152:
 2399              		.cfi_restore_state
1371:Core/Src/vl53l0x_api.c **** 		VL53L0X_REG_SYSTEM_INTERMEASUREMENT_PERIOD,
 2400              		.loc 1 1371 3 is_stmt 1 view .LVU699
1371:Core/Src/vl53l0x_api.c **** 		VL53L0X_REG_SYSTEM_INTERMEASUREMENT_PERIOD,
 2401              		.loc 1 1371 12 is_stmt 0 view .LVU700
 2402 002c 6A46     		mov	r2, sp
 2403 002e 0421     		movs	r1, #4
 2404 0030 2846     		mov	r0, r5
 2405 0032 FFF7FEFF 		bl	VL53L0X_RdDWord
 2406              	.LVL231:
1371:Core/Src/vl53l0x_api.c **** 		VL53L0X_REG_SYSTEM_INTERMEASUREMENT_PERIOD,
 2407              		.loc 1 1371 12 view .LVU701
 2408 0036 EDE7     		b	.L148
 2409              		.cfi_endproc
 2410              	.LFE180:
 2412              		.section	.text.VL53L0X_SetXTalkCompensationEnable,"ax",%progbits
 2413              		.align	1
 2414              		.global	VL53L0X_SetXTalkCompensationEnable
 2415              		.syntax unified
 2416              		.thumb
 2417              		.thumb_func
 2418              		.fpu fpv4-sp-d16
 2420              	VL53L0X_SetXTalkCompensationEnable:
 2421              	.LVL232:
 2422              	.LFB181:
1389:Core/Src/vl53l0x_api.c **** 
1390:Core/Src/vl53l0x_api.c **** VL53L0X_Error VL53L0X_SetXTalkCompensationEnable(VL53L0X_DEV Dev,
1391:Core/Src/vl53l0x_api.c **** 	uint8_t XTalkCompensationEnable)
1392:Core/Src/vl53l0x_api.c **** {
ARM GAS  C:\Users\anmh1\AppData\Local\Temp\ccBPLcM2.s 			page 68


 2423              		.loc 1 1392 1 is_stmt 1 view -0
 2424              		.cfi_startproc
 2425              		@ args = 0, pretend = 0, frame = 0
 2426              		@ frame_needed = 0, uses_anonymous_args = 0
 2427              		.loc 1 1392 1 is_stmt 0 view .LVU703
 2428 0000 38B5     		push	{r3, r4, r5, lr}
 2429              		.cfi_def_cfa_offset 16
 2430              		.cfi_offset 3, -16
 2431              		.cfi_offset 4, -12
 2432              		.cfi_offset 5, -8
 2433              		.cfi_offset 14, -4
 2434 0002 0446     		mov	r4, r0
1393:Core/Src/vl53l0x_api.c **** 	VL53L0X_Error Status = VL53L0X_ERROR_NONE;
 2435              		.loc 1 1393 2 is_stmt 1 view .LVU704
 2436              	.LVL233:
1394:Core/Src/vl53l0x_api.c **** 	FixPoint1616_t TempFix1616;
 2437              		.loc 1 1394 2 view .LVU705
1395:Core/Src/vl53l0x_api.c **** 	uint16_t LinearityCorrectiveGain;
 2438              		.loc 1 1395 2 view .LVU706
1396:Core/Src/vl53l0x_api.c **** 
1397:Core/Src/vl53l0x_api.c **** 	LOG_FUNCTION_START("");
 2439              		.loc 1 1397 2 view .LVU707
1398:Core/Src/vl53l0x_api.c **** 
1399:Core/Src/vl53l0x_api.c **** 	LinearityCorrectiveGain = PALDevDataGet(Dev, LinearityCorrectiveGain);
 2440              		.loc 1 1399 2 view .LVU708
 2441              		.loc 1 1399 26 is_stmt 0 view .LVU709
 2442 0004 B0F85231 		ldrh	r3, [r0, #338]
 2443              	.LVL234:
1400:Core/Src/vl53l0x_api.c **** 
1401:Core/Src/vl53l0x_api.c **** 	if ((XTalkCompensationEnable == 0)
 2444              		.loc 1 1401 2 is_stmt 1 view .LVU710
 2445              		.loc 1 1401 5 is_stmt 0 view .LVU711
 2446 0008 0D46     		mov	r5, r1
 2447 000a 31B1     		cbz	r1, .L157
1402:Core/Src/vl53l0x_api.c **** 		|| (LinearityCorrectiveGain != 1000)) {
 2448              		.loc 1 1402 3 view .LVU712
 2449 000c B3F57A7F 		cmp	r3, #1000
 2450 0010 01D0     		beq	.L160
1403:Core/Src/vl53l0x_api.c **** 		TempFix1616 = 0;
 2451              		.loc 1 1403 15 view .LVU713
 2452 0012 0022     		movs	r2, #0
 2453 0014 02E0     		b	.L154
 2454              	.L160:
1404:Core/Src/vl53l0x_api.c **** 	} else {
1405:Core/Src/vl53l0x_api.c **** 		VL53L0X_GETPARAMETERFIELD(Dev, XTalkCompensationRateMegaCps,
 2455              		.loc 1 1405 3 is_stmt 1 view .LVU714
 2456 0016 026A     		ldr	r2, [r0, #32]
 2457              	.LVL235:
 2458              		.loc 1 1405 3 is_stmt 0 view .LVU715
 2459 0018 00E0     		b	.L154
 2460              	.LVL236:
 2461              	.L157:
1403:Core/Src/vl53l0x_api.c **** 		TempFix1616 = 0;
 2462              		.loc 1 1403 15 view .LVU716
 2463 001a 0022     		movs	r2, #0
 2464              	.L154:
 2465              	.LVL237:
ARM GAS  C:\Users\anmh1\AppData\Local\Temp\ccBPLcM2.s 			page 69


1406:Core/Src/vl53l0x_api.c **** 			TempFix1616);
1407:Core/Src/vl53l0x_api.c **** 	}
1408:Core/Src/vl53l0x_api.c **** 
1409:Core/Src/vl53l0x_api.c **** 	/* the following register has a format 3.13 */
1410:Core/Src/vl53l0x_api.c **** 	Status = VL53L0X_WrWord(Dev,
 2466              		.loc 1 1410 2 is_stmt 1 view .LVU717
 2467              		.loc 1 1410 11 is_stmt 0 view .LVU718
 2468 001c C2F3CF02 		ubfx	r2, r2, #3, #16
 2469              	.LVL238:
 2470              		.loc 1 1410 11 view .LVU719
 2471 0020 2021     		movs	r1, #32
 2472              	.LVL239:
 2473              		.loc 1 1410 11 view .LVU720
 2474 0022 2046     		mov	r0, r4
 2475              	.LVL240:
 2476              		.loc 1 1410 11 view .LVU721
 2477 0024 FFF7FEFF 		bl	VL53L0X_WrWord
 2478              	.LVL241:
1411:Core/Src/vl53l0x_api.c **** 	VL53L0X_REG_CROSSTALK_COMPENSATION_PEAK_RATE_MCPS,
1412:Core/Src/vl53l0x_api.c **** 		VL53L0X_FIXPOINT1616TOFIXPOINT313(TempFix1616));
1413:Core/Src/vl53l0x_api.c **** 
1414:Core/Src/vl53l0x_api.c **** 	if (Status == VL53L0X_ERROR_NONE) {
 2479              		.loc 1 1414 2 is_stmt 1 view .LVU722
 2480              		.loc 1 1414 5 is_stmt 0 view .LVU723
 2481 0028 08B9     		cbnz	r0, .L155
1415:Core/Src/vl53l0x_api.c **** 		if (XTalkCompensationEnable == 0) {
 2482              		.loc 1 1415 3 is_stmt 1 view .LVU724
 2483              		.loc 1 1415 6 is_stmt 0 view .LVU725
 2484 002a 0DB9     		cbnz	r5, .L156
1416:Core/Src/vl53l0x_api.c **** 			VL53L0X_SETPARAMETERFIELD(Dev, XTalkCompensationEnable,
 2485              		.loc 1 1416 4 is_stmt 1 view .LVU726
 2486 002c 2077     		strb	r0, [r4, #28]
 2487              	.L155:
1417:Core/Src/vl53l0x_api.c **** 				0);
1418:Core/Src/vl53l0x_api.c **** 		} else {
1419:Core/Src/vl53l0x_api.c **** 			VL53L0X_SETPARAMETERFIELD(Dev, XTalkCompensationEnable,
1420:Core/Src/vl53l0x_api.c **** 				1);
1421:Core/Src/vl53l0x_api.c **** 		}
1422:Core/Src/vl53l0x_api.c **** 	}
1423:Core/Src/vl53l0x_api.c **** 
1424:Core/Src/vl53l0x_api.c **** 	LOG_FUNCTION_END(Status);
 2488              		.loc 1 1424 2 view .LVU727
1425:Core/Src/vl53l0x_api.c **** 	return Status;
 2489              		.loc 1 1425 2 view .LVU728
1426:Core/Src/vl53l0x_api.c **** }
 2490              		.loc 1 1426 1 is_stmt 0 view .LVU729
 2491 002e 38BD     		pop	{r3, r4, r5, pc}
 2492              	.LVL242:
 2493              	.L156:
1419:Core/Src/vl53l0x_api.c **** 				1);
 2494              		.loc 1 1419 4 is_stmt 1 view .LVU730
 2495 0030 0123     		movs	r3, #1
 2496 0032 2377     		strb	r3, [r4, #28]
 2497 0034 FBE7     		b	.L155
 2498              		.cfi_endproc
 2499              	.LFE181:
 2501              		.section	.text.VL53L0X_GetXTalkCompensationEnable,"ax",%progbits
ARM GAS  C:\Users\anmh1\AppData\Local\Temp\ccBPLcM2.s 			page 70


 2502              		.align	1
 2503              		.global	VL53L0X_GetXTalkCompensationEnable
 2504              		.syntax unified
 2505              		.thumb
 2506              		.thumb_func
 2507              		.fpu fpv4-sp-d16
 2509              	VL53L0X_GetXTalkCompensationEnable:
 2510              	.LVL243:
 2511              	.LFB182:
1427:Core/Src/vl53l0x_api.c **** 
1428:Core/Src/vl53l0x_api.c **** VL53L0X_Error VL53L0X_GetXTalkCompensationEnable(VL53L0X_DEV Dev,
1429:Core/Src/vl53l0x_api.c **** 	uint8_t *pXTalkCompensationEnable)
1430:Core/Src/vl53l0x_api.c **** {
 2512              		.loc 1 1430 1 view -0
 2513              		.cfi_startproc
 2514              		@ args = 0, pretend = 0, frame = 0
 2515              		@ frame_needed = 0, uses_anonymous_args = 0
 2516              		@ link register save eliminated.
1431:Core/Src/vl53l0x_api.c **** 	VL53L0X_Error Status = VL53L0X_ERROR_NONE;
 2517              		.loc 1 1431 2 view .LVU732
1432:Core/Src/vl53l0x_api.c **** 	uint8_t Temp8;
 2518              		.loc 1 1432 2 view .LVU733
1433:Core/Src/vl53l0x_api.c **** 	LOG_FUNCTION_START("");
 2519              		.loc 1 1433 2 view .LVU734
1434:Core/Src/vl53l0x_api.c **** 
1435:Core/Src/vl53l0x_api.c **** 	VL53L0X_GETPARAMETERFIELD(Dev, XTalkCompensationEnable, Temp8);
 2520              		.loc 1 1435 2 view .LVU735
 2521 0000 037F     		ldrb	r3, [r0, #28]	@ zero_extendqisi2
 2522              	.LVL244:
1436:Core/Src/vl53l0x_api.c **** 	*pXTalkCompensationEnable = Temp8;
 2523              		.loc 1 1436 2 view .LVU736
 2524              		.loc 1 1436 28 is_stmt 0 view .LVU737
 2525 0002 0B70     		strb	r3, [r1]
1437:Core/Src/vl53l0x_api.c **** 
1438:Core/Src/vl53l0x_api.c **** 	LOG_FUNCTION_END(Status);
 2526              		.loc 1 1438 2 is_stmt 1 view .LVU738
1439:Core/Src/vl53l0x_api.c **** 	return Status;
 2527              		.loc 1 1439 2 view .LVU739
1440:Core/Src/vl53l0x_api.c **** }
 2528              		.loc 1 1440 1 is_stmt 0 view .LVU740
 2529 0004 0020     		movs	r0, #0
 2530              	.LVL245:
 2531              		.loc 1 1440 1 view .LVU741
 2532 0006 7047     		bx	lr
 2533              		.cfi_endproc
 2534              	.LFE182:
 2536              		.section	.text.VL53L0X_SetXTalkCompensationRateMegaCps,"ax",%progbits
 2537              		.align	1
 2538              		.global	VL53L0X_SetXTalkCompensationRateMegaCps
 2539              		.syntax unified
 2540              		.thumb
 2541              		.thumb_func
 2542              		.fpu fpv4-sp-d16
 2544              	VL53L0X_SetXTalkCompensationRateMegaCps:
 2545              	.LVL246:
 2546              	.LFB183:
1441:Core/Src/vl53l0x_api.c **** 
ARM GAS  C:\Users\anmh1\AppData\Local\Temp\ccBPLcM2.s 			page 71


1442:Core/Src/vl53l0x_api.c **** VL53L0X_Error VL53L0X_SetXTalkCompensationRateMegaCps(VL53L0X_DEV Dev,
1443:Core/Src/vl53l0x_api.c **** 	FixPoint1616_t XTalkCompensationRateMegaCps)
1444:Core/Src/vl53l0x_api.c **** {
 2547              		.loc 1 1444 1 is_stmt 1 view -0
 2548              		.cfi_startproc
 2549              		@ args = 0, pretend = 0, frame = 0
 2550              		@ frame_needed = 0, uses_anonymous_args = 0
 2551              		.loc 1 1444 1 is_stmt 0 view .LVU743
 2552 0000 38B5     		push	{r3, r4, r5, lr}
 2553              		.cfi_def_cfa_offset 16
 2554              		.cfi_offset 3, -16
 2555              		.cfi_offset 4, -12
 2556              		.cfi_offset 5, -8
 2557              		.cfi_offset 14, -4
 2558 0002 0446     		mov	r4, r0
 2559 0004 0D46     		mov	r5, r1
1445:Core/Src/vl53l0x_api.c **** 	VL53L0X_Error Status = VL53L0X_ERROR_NONE;
 2560              		.loc 1 1445 2 is_stmt 1 view .LVU744
 2561              	.LVL247:
1446:Core/Src/vl53l0x_api.c **** 	uint8_t Temp8;
 2562              		.loc 1 1446 2 view .LVU745
1447:Core/Src/vl53l0x_api.c **** 	uint16_t LinearityCorrectiveGain;
 2563              		.loc 1 1447 2 view .LVU746
1448:Core/Src/vl53l0x_api.c **** 	uint16_t data;
 2564              		.loc 1 1448 2 view .LVU747
1449:Core/Src/vl53l0x_api.c **** 	LOG_FUNCTION_START("");
 2565              		.loc 1 1449 2 view .LVU748
1450:Core/Src/vl53l0x_api.c **** 
1451:Core/Src/vl53l0x_api.c **** 	VL53L0X_GETPARAMETERFIELD(Dev, XTalkCompensationEnable, Temp8);
 2566              		.loc 1 1451 2 view .LVU749
 2567 0006 037F     		ldrb	r3, [r0, #28]	@ zero_extendqisi2
 2568              	.LVL248:
1452:Core/Src/vl53l0x_api.c **** 	LinearityCorrectiveGain = PALDevDataGet(Dev, LinearityCorrectiveGain);
 2569              		.loc 1 1452 2 view .LVU750
 2570              		.loc 1 1452 26 is_stmt 0 view .LVU751
 2571 0008 B0F85221 		ldrh	r2, [r0, #338]
 2572              	.LVL249:
1453:Core/Src/vl53l0x_api.c **** 
1454:Core/Src/vl53l0x_api.c **** 	if (Temp8 == 0) { /* disabled write only internal value */
 2573              		.loc 1 1454 2 is_stmt 1 view .LVU752
 2574              		.loc 1 1454 5 is_stmt 0 view .LVU753
 2575 000c 13B9     		cbnz	r3, .L163
1455:Core/Src/vl53l0x_api.c **** 		VL53L0X_SETPARAMETERFIELD(Dev, XTalkCompensationRateMegaCps,
 2576              		.loc 1 1455 3 is_stmt 1 view .LVU754
 2577 000e 2162     		str	r1, [r4, #32]
1445:Core/Src/vl53l0x_api.c **** 	uint8_t Temp8;
 2578              		.loc 1 1445 16 is_stmt 0 view .LVU755
 2579 0010 0020     		movs	r0, #0
 2580              	.LVL250:
 2581              	.L164:
1456:Core/Src/vl53l0x_api.c **** 			XTalkCompensationRateMegaCps);
1457:Core/Src/vl53l0x_api.c **** 	} else {
1458:Core/Src/vl53l0x_api.c **** 		/* the following register has a format 3.13 */
1459:Core/Src/vl53l0x_api.c **** 		if (LinearityCorrectiveGain == 1000) {
1460:Core/Src/vl53l0x_api.c **** 			data = VL53L0X_FIXPOINT1616TOFIXPOINT313(
1461:Core/Src/vl53l0x_api.c **** 				XTalkCompensationRateMegaCps);
1462:Core/Src/vl53l0x_api.c **** 		} else {
ARM GAS  C:\Users\anmh1\AppData\Local\Temp\ccBPLcM2.s 			page 72


1463:Core/Src/vl53l0x_api.c **** 			data = 0;
1464:Core/Src/vl53l0x_api.c **** 		}
1465:Core/Src/vl53l0x_api.c **** 
1466:Core/Src/vl53l0x_api.c **** 		Status = VL53L0X_WrWord(Dev,
1467:Core/Src/vl53l0x_api.c **** 		VL53L0X_REG_CROSSTALK_COMPENSATION_PEAK_RATE_MCPS, data);
1468:Core/Src/vl53l0x_api.c **** 
1469:Core/Src/vl53l0x_api.c **** 		if (Status == VL53L0X_ERROR_NONE) {
1470:Core/Src/vl53l0x_api.c **** 			VL53L0X_SETPARAMETERFIELD(Dev,
1471:Core/Src/vl53l0x_api.c **** 				XTalkCompensationRateMegaCps,
1472:Core/Src/vl53l0x_api.c **** 				XTalkCompensationRateMegaCps);
1473:Core/Src/vl53l0x_api.c **** 		}
1474:Core/Src/vl53l0x_api.c **** 	}
1475:Core/Src/vl53l0x_api.c **** 
1476:Core/Src/vl53l0x_api.c **** 	LOG_FUNCTION_END(Status);
 2582              		.loc 1 1476 2 is_stmt 1 view .LVU756
1477:Core/Src/vl53l0x_api.c **** 	return Status;
 2583              		.loc 1 1477 2 view .LVU757
1478:Core/Src/vl53l0x_api.c **** }
 2584              		.loc 1 1478 1 is_stmt 0 view .LVU758
 2585 0012 38BD     		pop	{r3, r4, r5, pc}
 2586              	.LVL251:
 2587              	.L163:
1459:Core/Src/vl53l0x_api.c **** 			data = VL53L0X_FIXPOINT1616TOFIXPOINT313(
 2588              		.loc 1 1459 3 is_stmt 1 view .LVU759
1459:Core/Src/vl53l0x_api.c **** 			data = VL53L0X_FIXPOINT1616TOFIXPOINT313(
 2589              		.loc 1 1459 6 is_stmt 0 view .LVU760
 2590 0014 B2F57A7F 		cmp	r2, #1000
 2591 0018 08D0     		beq	.L168
1463:Core/Src/vl53l0x_api.c **** 		}
 2592              		.loc 1 1463 9 view .LVU761
 2593 001a 0022     		movs	r2, #0
 2594              	.LVL252:
 2595              	.L165:
1466:Core/Src/vl53l0x_api.c **** 		VL53L0X_REG_CROSSTALK_COMPENSATION_PEAK_RATE_MCPS, data);
 2596              		.loc 1 1466 3 is_stmt 1 view .LVU762
1466:Core/Src/vl53l0x_api.c **** 		VL53L0X_REG_CROSSTALK_COMPENSATION_PEAK_RATE_MCPS, data);
 2597              		.loc 1 1466 12 is_stmt 0 view .LVU763
 2598 001c 2021     		movs	r1, #32
 2599              	.LVL253:
1466:Core/Src/vl53l0x_api.c **** 		VL53L0X_REG_CROSSTALK_COMPENSATION_PEAK_RATE_MCPS, data);
 2600              		.loc 1 1466 12 view .LVU764
 2601 001e 2046     		mov	r0, r4
 2602              	.LVL254:
1466:Core/Src/vl53l0x_api.c **** 		VL53L0X_REG_CROSSTALK_COMPENSATION_PEAK_RATE_MCPS, data);
 2603              		.loc 1 1466 12 view .LVU765
 2604 0020 FFF7FEFF 		bl	VL53L0X_WrWord
 2605              	.LVL255:
1469:Core/Src/vl53l0x_api.c **** 			VL53L0X_SETPARAMETERFIELD(Dev,
 2606              		.loc 1 1469 3 is_stmt 1 view .LVU766
1469:Core/Src/vl53l0x_api.c **** 			VL53L0X_SETPARAMETERFIELD(Dev,
 2607              		.loc 1 1469 6 is_stmt 0 view .LVU767
 2608 0024 0028     		cmp	r0, #0
 2609 0026 F4D1     		bne	.L164
1470:Core/Src/vl53l0x_api.c **** 				XTalkCompensationRateMegaCps,
 2610              		.loc 1 1470 4 is_stmt 1 view .LVU768
 2611 0028 2562     		str	r5, [r4, #32]
 2612 002a F2E7     		b	.L164
ARM GAS  C:\Users\anmh1\AppData\Local\Temp\ccBPLcM2.s 			page 73


 2613              	.LVL256:
 2614              	.L168:
1460:Core/Src/vl53l0x_api.c **** 				XTalkCompensationRateMegaCps);
 2615              		.loc 1 1460 4 view .LVU769
1460:Core/Src/vl53l0x_api.c **** 				XTalkCompensationRateMegaCps);
 2616              		.loc 1 1460 9 is_stmt 0 view .LVU770
 2617 002c C1F3CF02 		ubfx	r2, r1, #3, #16
 2618              	.LVL257:
1460:Core/Src/vl53l0x_api.c **** 				XTalkCompensationRateMegaCps);
 2619              		.loc 1 1460 9 view .LVU771
 2620 0030 F4E7     		b	.L165
 2621              		.cfi_endproc
 2622              	.LFE183:
 2624              		.section	.text.VL53L0X_GetXTalkCompensationRateMegaCps,"ax",%progbits
 2625              		.align	1
 2626              		.global	VL53L0X_GetXTalkCompensationRateMegaCps
 2627              		.syntax unified
 2628              		.thumb
 2629              		.thumb_func
 2630              		.fpu fpv4-sp-d16
 2632              	VL53L0X_GetXTalkCompensationRateMegaCps:
 2633              	.LVL258:
 2634              	.LFB184:
1479:Core/Src/vl53l0x_api.c **** 
1480:Core/Src/vl53l0x_api.c **** VL53L0X_Error VL53L0X_GetXTalkCompensationRateMegaCps(VL53L0X_DEV Dev,
1481:Core/Src/vl53l0x_api.c **** 	FixPoint1616_t *pXTalkCompensationRateMegaCps)
1482:Core/Src/vl53l0x_api.c **** {
 2635              		.loc 1 1482 1 is_stmt 1 view -0
 2636              		.cfi_startproc
 2637              		@ args = 0, pretend = 0, frame = 8
 2638              		@ frame_needed = 0, uses_anonymous_args = 0
 2639              		.loc 1 1482 1 is_stmt 0 view .LVU773
 2640 0000 30B5     		push	{r4, r5, lr}
 2641              		.cfi_def_cfa_offset 12
 2642              		.cfi_offset 4, -12
 2643              		.cfi_offset 5, -8
 2644              		.cfi_offset 14, -4
 2645 0002 83B0     		sub	sp, sp, #12
 2646              		.cfi_def_cfa_offset 24
 2647 0004 0446     		mov	r4, r0
 2648 0006 0D46     		mov	r5, r1
1483:Core/Src/vl53l0x_api.c **** 	VL53L0X_Error Status = VL53L0X_ERROR_NONE;
 2649              		.loc 1 1483 2 is_stmt 1 view .LVU774
 2650              	.LVL259:
1484:Core/Src/vl53l0x_api.c **** 	uint16_t Value;
 2651              		.loc 1 1484 2 view .LVU775
1485:Core/Src/vl53l0x_api.c **** 	FixPoint1616_t TempFix1616;
 2652              		.loc 1 1485 2 view .LVU776
1486:Core/Src/vl53l0x_api.c **** 
1487:Core/Src/vl53l0x_api.c **** 	LOG_FUNCTION_START("");
 2653              		.loc 1 1487 2 view .LVU777
1488:Core/Src/vl53l0x_api.c **** 
1489:Core/Src/vl53l0x_api.c **** 	Status = VL53L0X_RdWord(Dev,
 2654              		.loc 1 1489 2 view .LVU778
 2655              		.loc 1 1489 11 is_stmt 0 view .LVU779
 2656 0008 0DF10602 		add	r2, sp, #6
 2657 000c 2021     		movs	r1, #32
ARM GAS  C:\Users\anmh1\AppData\Local\Temp\ccBPLcM2.s 			page 74


 2658              	.LVL260:
 2659              		.loc 1 1489 11 view .LVU780
 2660 000e FFF7FEFF 		bl	VL53L0X_RdWord
 2661              	.LVL261:
1490:Core/Src/vl53l0x_api.c **** 	VL53L0X_REG_CROSSTALK_COMPENSATION_PEAK_RATE_MCPS, (uint16_t *)&Value);
1491:Core/Src/vl53l0x_api.c **** 	if (Status == VL53L0X_ERROR_NONE) {
 2662              		.loc 1 1491 2 is_stmt 1 view .LVU781
 2663              		.loc 1 1491 5 is_stmt 0 view .LVU782
 2664 0012 30B9     		cbnz	r0, .L170
1492:Core/Src/vl53l0x_api.c **** 		if (Value == 0) {
 2665              		.loc 1 1492 3 is_stmt 1 view .LVU783
 2666              		.loc 1 1492 13 is_stmt 0 view .LVU784
 2667 0014 BDF80630 		ldrh	r3, [sp, #6]
 2668              		.loc 1 1492 6 view .LVU785
 2669 0018 2BB9     		cbnz	r3, .L171
1493:Core/Src/vl53l0x_api.c **** 			/* the Xtalk is disabled return value from memory */
1494:Core/Src/vl53l0x_api.c **** 			VL53L0X_GETPARAMETERFIELD(Dev,
 2670              		.loc 1 1494 4 is_stmt 1 view .LVU786
 2671 001a 236A     		ldr	r3, [r4, #32]
 2672              	.LVL262:
1495:Core/Src/vl53l0x_api.c **** 				XTalkCompensationRateMegaCps, TempFix1616);
1496:Core/Src/vl53l0x_api.c **** 			*pXTalkCompensationRateMegaCps = TempFix1616;
 2673              		.loc 1 1496 4 view .LVU787
 2674              		.loc 1 1496 35 is_stmt 0 view .LVU788
 2675 001c 2B60     		str	r3, [r5]
1497:Core/Src/vl53l0x_api.c **** 			VL53L0X_SETPARAMETERFIELD(Dev, XTalkCompensationEnable,
 2676              		.loc 1 1497 4 is_stmt 1 view .LVU789
 2677 001e 0023     		movs	r3, #0
 2678              	.LVL263:
 2679              		.loc 1 1497 4 is_stmt 0 view .LVU790
 2680 0020 2377     		strb	r3, [r4, #28]
 2681              	.LVL264:
 2682              	.L170:
1498:Core/Src/vl53l0x_api.c **** 				0);
1499:Core/Src/vl53l0x_api.c **** 		} else {
1500:Core/Src/vl53l0x_api.c **** 			TempFix1616 = VL53L0X_FIXPOINT313TOFIXPOINT1616(Value);
1501:Core/Src/vl53l0x_api.c **** 			*pXTalkCompensationRateMegaCps = TempFix1616;
1502:Core/Src/vl53l0x_api.c **** 			VL53L0X_SETPARAMETERFIELD(Dev,
1503:Core/Src/vl53l0x_api.c **** 				XTalkCompensationRateMegaCps, TempFix1616);
1504:Core/Src/vl53l0x_api.c **** 			VL53L0X_SETPARAMETERFIELD(Dev, XTalkCompensationEnable,
1505:Core/Src/vl53l0x_api.c **** 				1);
1506:Core/Src/vl53l0x_api.c **** 		}
1507:Core/Src/vl53l0x_api.c **** 	}
1508:Core/Src/vl53l0x_api.c **** 
1509:Core/Src/vl53l0x_api.c **** 	LOG_FUNCTION_END(Status);
 2683              		.loc 1 1509 2 is_stmt 1 view .LVU791
1510:Core/Src/vl53l0x_api.c **** 	return Status;
 2684              		.loc 1 1510 2 view .LVU792
1511:Core/Src/vl53l0x_api.c **** }
 2685              		.loc 1 1511 1 is_stmt 0 view .LVU793
 2686 0022 03B0     		add	sp, sp, #12
 2687              		.cfi_remember_state
 2688              		.cfi_def_cfa_offset 12
 2689              		@ sp needed
 2690 0024 30BD     		pop	{r4, r5, pc}
 2691              	.LVL265:
 2692              	.L171:
ARM GAS  C:\Users\anmh1\AppData\Local\Temp\ccBPLcM2.s 			page 75


 2693              		.cfi_restore_state
1500:Core/Src/vl53l0x_api.c **** 			*pXTalkCompensationRateMegaCps = TempFix1616;
 2694              		.loc 1 1500 4 is_stmt 1 view .LVU794
1500:Core/Src/vl53l0x_api.c **** 			*pXTalkCompensationRateMegaCps = TempFix1616;
 2695              		.loc 1 1500 18 is_stmt 0 view .LVU795
 2696 0026 DB00     		lsls	r3, r3, #3
 2697              	.LVL266:
1501:Core/Src/vl53l0x_api.c **** 			VL53L0X_SETPARAMETERFIELD(Dev,
 2698              		.loc 1 1501 4 is_stmt 1 view .LVU796
1501:Core/Src/vl53l0x_api.c **** 			VL53L0X_SETPARAMETERFIELD(Dev,
 2699              		.loc 1 1501 35 is_stmt 0 view .LVU797
 2700 0028 2B60     		str	r3, [r5]
1502:Core/Src/vl53l0x_api.c **** 				XTalkCompensationRateMegaCps, TempFix1616);
 2701              		.loc 1 1502 4 is_stmt 1 view .LVU798
 2702 002a 2362     		str	r3, [r4, #32]
1504:Core/Src/vl53l0x_api.c **** 				1);
 2703              		.loc 1 1504 4 view .LVU799
 2704 002c 0123     		movs	r3, #1
 2705              	.LVL267:
1504:Core/Src/vl53l0x_api.c **** 				1);
 2706              		.loc 1 1504 4 is_stmt 0 view .LVU800
 2707 002e 2377     		strb	r3, [r4, #28]
 2708 0030 F7E7     		b	.L170
 2709              		.cfi_endproc
 2710              	.LFE184:
 2712              		.section	.text.VL53L0X_SetRefCalibration,"ax",%progbits
 2713              		.align	1
 2714              		.global	VL53L0X_SetRefCalibration
 2715              		.syntax unified
 2716              		.thumb
 2717              		.thumb_func
 2718              		.fpu fpv4-sp-d16
 2720              	VL53L0X_SetRefCalibration:
 2721              	.LVL268:
 2722              	.LFB185:
1512:Core/Src/vl53l0x_api.c **** 
1513:Core/Src/vl53l0x_api.c **** VL53L0X_Error VL53L0X_SetRefCalibration(VL53L0X_DEV Dev, uint8_t VhvSettings,
1514:Core/Src/vl53l0x_api.c **** 	uint8_t PhaseCal)
1515:Core/Src/vl53l0x_api.c **** {
 2723              		.loc 1 1515 1 is_stmt 1 view -0
 2724              		.cfi_startproc
 2725              		@ args = 0, pretend = 0, frame = 0
 2726              		@ frame_needed = 0, uses_anonymous_args = 0
 2727              		.loc 1 1515 1 is_stmt 0 view .LVU802
 2728 0000 08B5     		push	{r3, lr}
 2729              		.cfi_def_cfa_offset 8
 2730              		.cfi_offset 3, -8
 2731              		.cfi_offset 14, -4
1516:Core/Src/vl53l0x_api.c **** 	VL53L0X_Error Status = VL53L0X_ERROR_NONE;
 2732              		.loc 1 1516 2 is_stmt 1 view .LVU803
 2733              	.LVL269:
1517:Core/Src/vl53l0x_api.c **** 	LOG_FUNCTION_START("");
 2734              		.loc 1 1517 2 view .LVU804
1518:Core/Src/vl53l0x_api.c **** 
1519:Core/Src/vl53l0x_api.c **** 	Status = VL53L0X_set_ref_calibration(Dev, VhvSettings, PhaseCal);
 2735              		.loc 1 1519 2 view .LVU805
 2736              		.loc 1 1519 11 is_stmt 0 view .LVU806
ARM GAS  C:\Users\anmh1\AppData\Local\Temp\ccBPLcM2.s 			page 76


 2737 0002 FFF7FEFF 		bl	VL53L0X_set_ref_calibration
 2738              	.LVL270:
1520:Core/Src/vl53l0x_api.c **** 
1521:Core/Src/vl53l0x_api.c **** 	LOG_FUNCTION_END(Status);
 2739              		.loc 1 1521 2 is_stmt 1 view .LVU807
1522:Core/Src/vl53l0x_api.c **** 	return Status;
 2740              		.loc 1 1522 2 view .LVU808
1523:Core/Src/vl53l0x_api.c **** }
 2741              		.loc 1 1523 1 is_stmt 0 view .LVU809
 2742 0006 08BD     		pop	{r3, pc}
 2743              		.cfi_endproc
 2744              	.LFE185:
 2746              		.section	.text.VL53L0X_GetRefCalibration,"ax",%progbits
 2747              		.align	1
 2748              		.global	VL53L0X_GetRefCalibration
 2749              		.syntax unified
 2750              		.thumb
 2751              		.thumb_func
 2752              		.fpu fpv4-sp-d16
 2754              	VL53L0X_GetRefCalibration:
 2755              	.LVL271:
 2756              	.LFB186:
1524:Core/Src/vl53l0x_api.c **** 
1525:Core/Src/vl53l0x_api.c **** VL53L0X_Error VL53L0X_GetRefCalibration(VL53L0X_DEV Dev, uint8_t *pVhvSettings,
1526:Core/Src/vl53l0x_api.c **** 	uint8_t *pPhaseCal)
1527:Core/Src/vl53l0x_api.c **** {
 2757              		.loc 1 1527 1 is_stmt 1 view -0
 2758              		.cfi_startproc
 2759              		@ args = 0, pretend = 0, frame = 0
 2760              		@ frame_needed = 0, uses_anonymous_args = 0
 2761              		.loc 1 1527 1 is_stmt 0 view .LVU811
 2762 0000 08B5     		push	{r3, lr}
 2763              		.cfi_def_cfa_offset 8
 2764              		.cfi_offset 3, -8
 2765              		.cfi_offset 14, -4
1528:Core/Src/vl53l0x_api.c **** 	VL53L0X_Error Status = VL53L0X_ERROR_NONE;
 2766              		.loc 1 1528 2 is_stmt 1 view .LVU812
 2767              	.LVL272:
1529:Core/Src/vl53l0x_api.c **** 	LOG_FUNCTION_START("");
 2768              		.loc 1 1529 2 view .LVU813
1530:Core/Src/vl53l0x_api.c **** 
1531:Core/Src/vl53l0x_api.c **** 	Status = VL53L0X_get_ref_calibration(Dev, pVhvSettings, pPhaseCal);
 2769              		.loc 1 1531 2 view .LVU814
 2770              		.loc 1 1531 11 is_stmt 0 view .LVU815
 2771 0002 FFF7FEFF 		bl	VL53L0X_get_ref_calibration
 2772              	.LVL273:
1532:Core/Src/vl53l0x_api.c **** 
1533:Core/Src/vl53l0x_api.c **** 	LOG_FUNCTION_END(Status);
 2773              		.loc 1 1533 2 is_stmt 1 view .LVU816
1534:Core/Src/vl53l0x_api.c **** 	return Status;
 2774              		.loc 1 1534 2 view .LVU817
1535:Core/Src/vl53l0x_api.c **** }
 2775              		.loc 1 1535 1 is_stmt 0 view .LVU818
 2776 0006 08BD     		pop	{r3, pc}
 2777              		.cfi_endproc
 2778              	.LFE186:
 2780              		.section	.text.VL53L0X_GetNumberOfLimitCheck,"ax",%progbits
ARM GAS  C:\Users\anmh1\AppData\Local\Temp\ccBPLcM2.s 			page 77


 2781              		.align	1
 2782              		.global	VL53L0X_GetNumberOfLimitCheck
 2783              		.syntax unified
 2784              		.thumb
 2785              		.thumb_func
 2786              		.fpu fpv4-sp-d16
 2788              	VL53L0X_GetNumberOfLimitCheck:
 2789              	.LVL274:
 2790              	.LFB187:
1536:Core/Src/vl53l0x_api.c **** 
1537:Core/Src/vl53l0x_api.c **** /*
1538:Core/Src/vl53l0x_api.c ****  * CHECK LIMIT FUNCTIONS
1539:Core/Src/vl53l0x_api.c ****  */
1540:Core/Src/vl53l0x_api.c **** 
1541:Core/Src/vl53l0x_api.c **** VL53L0X_Error VL53L0X_GetNumberOfLimitCheck(uint16_t *pNumberOfLimitCheck)
1542:Core/Src/vl53l0x_api.c **** {
 2791              		.loc 1 1542 1 is_stmt 1 view -0
 2792              		.cfi_startproc
 2793              		@ args = 0, pretend = 0, frame = 0
 2794              		@ frame_needed = 0, uses_anonymous_args = 0
 2795              		@ link register save eliminated.
1543:Core/Src/vl53l0x_api.c **** 	VL53L0X_Error Status = VL53L0X_ERROR_NONE;
 2796              		.loc 1 1543 2 view .LVU820
1544:Core/Src/vl53l0x_api.c **** 	LOG_FUNCTION_START("");
 2797              		.loc 1 1544 2 view .LVU821
1545:Core/Src/vl53l0x_api.c **** 
1546:Core/Src/vl53l0x_api.c **** 	*pNumberOfLimitCheck = VL53L0X_CHECKENABLE_NUMBER_OF_CHECKS;
 2798              		.loc 1 1546 2 view .LVU822
 2799              		.loc 1 1546 23 is_stmt 0 view .LVU823
 2800 0000 0623     		movs	r3, #6
 2801 0002 0380     		strh	r3, [r0]	@ movhi
1547:Core/Src/vl53l0x_api.c **** 
1548:Core/Src/vl53l0x_api.c **** 	LOG_FUNCTION_END(Status);
 2802              		.loc 1 1548 2 is_stmt 1 view .LVU824
1549:Core/Src/vl53l0x_api.c **** 	return Status;
 2803              		.loc 1 1549 2 view .LVU825
1550:Core/Src/vl53l0x_api.c **** }
 2804              		.loc 1 1550 1 is_stmt 0 view .LVU826
 2805 0004 0020     		movs	r0, #0
 2806              	.LVL275:
 2807              		.loc 1 1550 1 view .LVU827
 2808 0006 7047     		bx	lr
 2809              		.cfi_endproc
 2810              	.LFE187:
 2812              		.section	.text.VL53L0X_GetLimitCheckInfo,"ax",%progbits
 2813              		.align	1
 2814              		.global	VL53L0X_GetLimitCheckInfo
 2815              		.syntax unified
 2816              		.thumb
 2817              		.thumb_func
 2818              		.fpu fpv4-sp-d16
 2820              	VL53L0X_GetLimitCheckInfo:
 2821              	.LVL276:
 2822              	.LFB188:
1551:Core/Src/vl53l0x_api.c **** 
1552:Core/Src/vl53l0x_api.c **** VL53L0X_Error VL53L0X_GetLimitCheckInfo(VL53L0X_DEV Dev, uint16_t LimitCheckId,
1553:Core/Src/vl53l0x_api.c **** 	char *pLimitCheckString)
ARM GAS  C:\Users\anmh1\AppData\Local\Temp\ccBPLcM2.s 			page 78


1554:Core/Src/vl53l0x_api.c **** {
 2823              		.loc 1 1554 1 is_stmt 1 view -0
 2824              		.cfi_startproc
 2825              		@ args = 0, pretend = 0, frame = 0
 2826              		@ frame_needed = 0, uses_anonymous_args = 0
 2827              		.loc 1 1554 1 is_stmt 0 view .LVU829
 2828 0000 08B5     		push	{r3, lr}
 2829              		.cfi_def_cfa_offset 8
 2830              		.cfi_offset 3, -8
 2831              		.cfi_offset 14, -4
1555:Core/Src/vl53l0x_api.c **** 	VL53L0X_Error Status = VL53L0X_ERROR_NONE;
 2832              		.loc 1 1555 2 is_stmt 1 view .LVU830
 2833              	.LVL277:
1556:Core/Src/vl53l0x_api.c **** 
1557:Core/Src/vl53l0x_api.c **** 	LOG_FUNCTION_START("");
 2834              		.loc 1 1557 2 view .LVU831
1558:Core/Src/vl53l0x_api.c **** 
1559:Core/Src/vl53l0x_api.c **** 	Status = VL53L0X_get_limit_check_info(Dev, LimitCheckId,
 2835              		.loc 1 1559 2 view .LVU832
 2836              		.loc 1 1559 11 is_stmt 0 view .LVU833
 2837 0002 FFF7FEFF 		bl	VL53L0X_get_limit_check_info
 2838              	.LVL278:
1560:Core/Src/vl53l0x_api.c **** 		pLimitCheckString);
1561:Core/Src/vl53l0x_api.c **** 
1562:Core/Src/vl53l0x_api.c **** 	LOG_FUNCTION_END(Status);
 2839              		.loc 1 1562 2 is_stmt 1 view .LVU834
1563:Core/Src/vl53l0x_api.c **** 	return Status;
 2840              		.loc 1 1563 2 view .LVU835
1564:Core/Src/vl53l0x_api.c **** }
 2841              		.loc 1 1564 1 is_stmt 0 view .LVU836
 2842 0006 08BD     		pop	{r3, pc}
 2843              		.cfi_endproc
 2844              	.LFE188:
 2846              		.section	.text.VL53L0X_GetLimitCheckStatus,"ax",%progbits
 2847              		.align	1
 2848              		.global	VL53L0X_GetLimitCheckStatus
 2849              		.syntax unified
 2850              		.thumb
 2851              		.thumb_func
 2852              		.fpu fpv4-sp-d16
 2854              	VL53L0X_GetLimitCheckStatus:
 2855              	.LVL279:
 2856              	.LFB189:
1565:Core/Src/vl53l0x_api.c **** 
1566:Core/Src/vl53l0x_api.c **** VL53L0X_Error VL53L0X_GetLimitCheckStatus(VL53L0X_DEV Dev, uint16_t LimitCheckId,
1567:Core/Src/vl53l0x_api.c **** 	uint8_t *pLimitCheckStatus)
1568:Core/Src/vl53l0x_api.c **** {
 2857              		.loc 1 1568 1 is_stmt 1 view -0
 2858              		.cfi_startproc
 2859              		@ args = 0, pretend = 0, frame = 0
 2860              		@ frame_needed = 0, uses_anonymous_args = 0
 2861              		@ link register save eliminated.
1569:Core/Src/vl53l0x_api.c **** 	VL53L0X_Error Status = VL53L0X_ERROR_NONE;
 2862              		.loc 1 1569 2 view .LVU838
1570:Core/Src/vl53l0x_api.c **** 	uint8_t Temp8;
 2863              		.loc 1 1570 2 view .LVU839
1571:Core/Src/vl53l0x_api.c **** 
ARM GAS  C:\Users\anmh1\AppData\Local\Temp\ccBPLcM2.s 			page 79


1572:Core/Src/vl53l0x_api.c **** 	LOG_FUNCTION_START("");
 2864              		.loc 1 1572 2 view .LVU840
1573:Core/Src/vl53l0x_api.c **** 
1574:Core/Src/vl53l0x_api.c **** 	if (LimitCheckId >= VL53L0X_CHECKENABLE_NUMBER_OF_CHECKS) {
 2865              		.loc 1 1574 2 view .LVU841
 2866              		.loc 1 1574 5 is_stmt 0 view .LVU842
 2867 0000 0529     		cmp	r1, #5
 2868 0002 05D8     		bhi	.L182
1575:Core/Src/vl53l0x_api.c **** 		Status = VL53L0X_ERROR_INVALID_PARAMS;
1576:Core/Src/vl53l0x_api.c **** 	} else {
1577:Core/Src/vl53l0x_api.c **** 
1578:Core/Src/vl53l0x_api.c **** 		VL53L0X_GETARRAYPARAMETERFIELD(Dev, LimitChecksStatus,
 2869              		.loc 1 1578 3 is_stmt 1 view .LVU843
 2870 0004 0844     		add	r0, r0, r1
 2871              	.LVL280:
 2872              		.loc 1 1578 3 is_stmt 0 view .LVU844
 2873 0006 90F82E30 		ldrb	r3, [r0, #46]	@ zero_extendqisi2
 2874              	.LVL281:
1579:Core/Src/vl53l0x_api.c **** 			LimitCheckId, Temp8);
1580:Core/Src/vl53l0x_api.c **** 
1581:Core/Src/vl53l0x_api.c **** 		*pLimitCheckStatus = Temp8;
 2875              		.loc 1 1581 3 is_stmt 1 view .LVU845
 2876              		.loc 1 1581 22 is_stmt 0 view .LVU846
 2877 000a 1370     		strb	r3, [r2]
1569:Core/Src/vl53l0x_api.c **** 	uint8_t Temp8;
 2878              		.loc 1 1569 16 view .LVU847
 2879 000c 0020     		movs	r0, #0
 2880 000e 7047     		bx	lr
 2881              	.LVL282:
 2882              	.L182:
1575:Core/Src/vl53l0x_api.c **** 		Status = VL53L0X_ERROR_INVALID_PARAMS;
 2883              		.loc 1 1575 10 view .LVU848
 2884 0010 6FF00300 		mvn	r0, #3
 2885              	.LVL283:
1582:Core/Src/vl53l0x_api.c **** 
1583:Core/Src/vl53l0x_api.c **** 	}
1584:Core/Src/vl53l0x_api.c **** 
1585:Core/Src/vl53l0x_api.c **** 	LOG_FUNCTION_END(Status);
 2886              		.loc 1 1585 2 is_stmt 1 view .LVU849
1586:Core/Src/vl53l0x_api.c **** 	return Status;
 2887              		.loc 1 1586 2 view .LVU850
1587:Core/Src/vl53l0x_api.c **** }
 2888              		.loc 1 1587 1 is_stmt 0 view .LVU851
 2889 0014 7047     		bx	lr
 2890              		.cfi_endproc
 2891              	.LFE189:
 2893              		.section	.text.VL53L0X_SetLimitCheckEnable,"ax",%progbits
 2894              		.align	1
 2895              		.global	VL53L0X_SetLimitCheckEnable
 2896              		.syntax unified
 2897              		.thumb
 2898              		.thumb_func
 2899              		.fpu fpv4-sp-d16
 2901              	VL53L0X_SetLimitCheckEnable:
 2902              	.LVL284:
 2903              	.LFB190:
1588:Core/Src/vl53l0x_api.c **** 
ARM GAS  C:\Users\anmh1\AppData\Local\Temp\ccBPLcM2.s 			page 80


1589:Core/Src/vl53l0x_api.c **** VL53L0X_Error VL53L0X_SetLimitCheckEnable(VL53L0X_DEV Dev, uint16_t LimitCheckId,
1590:Core/Src/vl53l0x_api.c **** 	uint8_t LimitCheckEnable)
1591:Core/Src/vl53l0x_api.c **** {
 2904              		.loc 1 1591 1 is_stmt 1 view -0
 2905              		.cfi_startproc
 2906              		@ args = 0, pretend = 0, frame = 0
 2907              		@ frame_needed = 0, uses_anonymous_args = 0
1592:Core/Src/vl53l0x_api.c **** 	VL53L0X_Error Status = VL53L0X_ERROR_NONE;
 2908              		.loc 1 1592 2 view .LVU853
1593:Core/Src/vl53l0x_api.c **** 	FixPoint1616_t TempFix1616 = 0;
 2909              		.loc 1 1593 2 view .LVU854
1594:Core/Src/vl53l0x_api.c **** 	uint8_t LimitCheckEnableInt = 0;
 2910              		.loc 1 1594 2 view .LVU855
1595:Core/Src/vl53l0x_api.c **** 	uint8_t LimitCheckDisable = 0;
 2911              		.loc 1 1595 2 view .LVU856
1596:Core/Src/vl53l0x_api.c **** 	uint8_t Temp8;
 2912              		.loc 1 1596 2 view .LVU857
1597:Core/Src/vl53l0x_api.c **** 
1598:Core/Src/vl53l0x_api.c **** 	LOG_FUNCTION_START("");
 2913              		.loc 1 1598 2 view .LVU858
1599:Core/Src/vl53l0x_api.c **** 
1600:Core/Src/vl53l0x_api.c **** 	if (LimitCheckId >= VL53L0X_CHECKENABLE_NUMBER_OF_CHECKS) {
 2914              		.loc 1 1600 2 view .LVU859
 2915              		.loc 1 1600 5 is_stmt 0 view .LVU860
 2916 0000 0529     		cmp	r1, #5
 2917 0002 42D8     		bhi	.L196
1591:Core/Src/vl53l0x_api.c **** 	VL53L0X_Error Status = VL53L0X_ERROR_NONE;
 2918              		.loc 1 1591 1 view .LVU861
 2919 0004 70B5     		push	{r4, r5, r6, lr}
 2920              		.cfi_def_cfa_offset 16
 2921              		.cfi_offset 4, -16
 2922              		.cfi_offset 5, -12
 2923              		.cfi_offset 6, -8
 2924              		.cfi_offset 14, -4
 2925 0006 0546     		mov	r5, r0
 2926 0008 0C46     		mov	r4, r1
 2927 000a 1646     		mov	r6, r2
1601:Core/Src/vl53l0x_api.c **** 		Status = VL53L0X_ERROR_INVALID_PARAMS;
1602:Core/Src/vl53l0x_api.c **** 	} else {
1603:Core/Src/vl53l0x_api.c **** 		if (LimitCheckEnable == 0) {
 2928              		.loc 1 1603 3 is_stmt 1 view .LVU862
 2929              		.loc 1 1603 6 is_stmt 0 view .LVU863
 2930 000c 3AB1     		cbz	r2, .L197
1604:Core/Src/vl53l0x_api.c **** 			TempFix1616 = 0;
1605:Core/Src/vl53l0x_api.c **** 			LimitCheckEnableInt = 0;
1606:Core/Src/vl53l0x_api.c **** 			LimitCheckDisable = 1;
1607:Core/Src/vl53l0x_api.c **** 
1608:Core/Src/vl53l0x_api.c **** 		} else {
1609:Core/Src/vl53l0x_api.c **** 			VL53L0X_GETARRAYPARAMETERFIELD(Dev, LimitChecksValue,
 2931              		.loc 1 1609 4 is_stmt 1 view .LVU864
 2932 000e 01F10C03 		add	r3, r1, #12
 2933 0012 00EB8303 		add	r3, r0, r3, lsl #2
 2934 0016 5A68     		ldr	r2, [r3, #4]
 2935              	.LVL285:
1610:Core/Src/vl53l0x_api.c **** 				LimitCheckId, TempFix1616);
1611:Core/Src/vl53l0x_api.c **** 			LimitCheckDisable = 0;
 2936              		.loc 1 1611 4 view .LVU865
ARM GAS  C:\Users\anmh1\AppData\Local\Temp\ccBPLcM2.s 			page 81


1612:Core/Src/vl53l0x_api.c **** 			/* this to be sure to have either 0 or 1 */
1613:Core/Src/vl53l0x_api.c **** 			LimitCheckEnableInt = 1;
 2937              		.loc 1 1613 4 view .LVU866
1611:Core/Src/vl53l0x_api.c **** 			/* this to be sure to have either 0 or 1 */
 2938              		.loc 1 1611 22 is_stmt 0 view .LVU867
 2939 0018 0023     		movs	r3, #0
 2940              		.loc 1 1613 24 view .LVU868
 2941 001a 0121     		movs	r1, #1
 2942              	.LVL286:
 2943              		.loc 1 1613 24 view .LVU869
 2944 001c 02E0     		b	.L185
 2945              	.LVL287:
 2946              	.L197:
1605:Core/Src/vl53l0x_api.c **** 			LimitCheckDisable = 1;
 2947              		.loc 1 1605 24 view .LVU870
 2948 001e 1146     		mov	r1, r2
 2949              	.LVL288:
1606:Core/Src/vl53l0x_api.c **** 
 2950              		.loc 1 1606 22 view .LVU871
 2951 0020 0123     		movs	r3, #1
1604:Core/Src/vl53l0x_api.c **** 			LimitCheckEnableInt = 0;
 2952              		.loc 1 1604 16 view .LVU872
 2953 0022 0022     		movs	r2, #0
 2954              	.LVL289:
 2955              	.L185:
1614:Core/Src/vl53l0x_api.c **** 		}
1615:Core/Src/vl53l0x_api.c **** 
1616:Core/Src/vl53l0x_api.c **** 		switch (LimitCheckId) {
 2956              		.loc 1 1616 3 is_stmt 1 view .LVU873
 2957 0024 052C     		cmp	r4, #5
 2958 0026 33D8     		bhi	.L198
 2959 0028 DFE804F0 		tbb	[pc, r4]
 2960              	.LVL290:
 2961              	.L187:
 2962 002c 03       		.byte	(.L192-.L187)/2
 2963 002d 07       		.byte	(.L191-.L187)/2
 2964 002e 14       		.byte	(.L190-.L187)/2
 2965 002f 18       		.byte	(.L189-.L187)/2
 2966 0030 1C       		.byte	(.L188-.L187)/2
 2967 0031 23       		.byte	(.L186-.L187)/2
 2968              		.p2align 1
 2969              	.L192:
1617:Core/Src/vl53l0x_api.c **** 
1618:Core/Src/vl53l0x_api.c **** 		case VL53L0X_CHECKENABLE_SIGMA_FINAL_RANGE:
1619:Core/Src/vl53l0x_api.c **** 			/* internal computation: */
1620:Core/Src/vl53l0x_api.c **** 			VL53L0X_SETARRAYPARAMETERFIELD(Dev, LimitChecksEnable,
 2970              		.loc 1 1620 4 view .LVU874
 2971 0032 85F82810 		strb	r1, [r5, #40]
1621:Core/Src/vl53l0x_api.c **** 				VL53L0X_CHECKENABLE_SIGMA_FINAL_RANGE,
1622:Core/Src/vl53l0x_api.c **** 				LimitCheckEnableInt);
1623:Core/Src/vl53l0x_api.c **** 
1624:Core/Src/vl53l0x_api.c **** 			break;
 2972              		.loc 1 1624 4 view .LVU875
1625:Core/Src/vl53l0x_api.c **** 
1626:Core/Src/vl53l0x_api.c **** 		case VL53L0X_CHECKENABLE_SIGNAL_RATE_FINAL_RANGE:
1627:Core/Src/vl53l0x_api.c **** 
1628:Core/Src/vl53l0x_api.c **** 			Status = VL53L0X_WrWord(Dev,
ARM GAS  C:\Users\anmh1\AppData\Local\Temp\ccBPLcM2.s 			page 82


1629:Core/Src/vl53l0x_api.c **** 			VL53L0X_REG_FINAL_RANGE_CONFIG_MIN_COUNT_RATE_RTN_LIMIT,
1630:Core/Src/vl53l0x_api.c **** 				VL53L0X_FIXPOINT1616TOFIXPOINT97(TempFix1616));
1631:Core/Src/vl53l0x_api.c **** 
1632:Core/Src/vl53l0x_api.c **** 			break;
1633:Core/Src/vl53l0x_api.c **** 
1634:Core/Src/vl53l0x_api.c **** 		case VL53L0X_CHECKENABLE_SIGNAL_REF_CLIP:
1635:Core/Src/vl53l0x_api.c **** 
1636:Core/Src/vl53l0x_api.c **** 			/* internal computation: */
1637:Core/Src/vl53l0x_api.c **** 			VL53L0X_SETARRAYPARAMETERFIELD(Dev, LimitChecksEnable,
1638:Core/Src/vl53l0x_api.c **** 				VL53L0X_CHECKENABLE_SIGNAL_REF_CLIP,
1639:Core/Src/vl53l0x_api.c **** 				LimitCheckEnableInt);
1640:Core/Src/vl53l0x_api.c **** 
1641:Core/Src/vl53l0x_api.c **** 			break;
1642:Core/Src/vl53l0x_api.c **** 
1643:Core/Src/vl53l0x_api.c **** 		case VL53L0X_CHECKENABLE_RANGE_IGNORE_THRESHOLD:
1644:Core/Src/vl53l0x_api.c **** 
1645:Core/Src/vl53l0x_api.c **** 			/* internal computation: */
1646:Core/Src/vl53l0x_api.c **** 			VL53L0X_SETARRAYPARAMETERFIELD(Dev, LimitChecksEnable,
1647:Core/Src/vl53l0x_api.c **** 				VL53L0X_CHECKENABLE_RANGE_IGNORE_THRESHOLD,
1648:Core/Src/vl53l0x_api.c **** 				LimitCheckEnableInt);
1649:Core/Src/vl53l0x_api.c **** 
1650:Core/Src/vl53l0x_api.c **** 			break;
1651:Core/Src/vl53l0x_api.c **** 
1652:Core/Src/vl53l0x_api.c **** 		case VL53L0X_CHECKENABLE_SIGNAL_RATE_MSRC:
1653:Core/Src/vl53l0x_api.c **** 
1654:Core/Src/vl53l0x_api.c **** 			Temp8 = (uint8_t)(LimitCheckDisable << 1);
1655:Core/Src/vl53l0x_api.c **** 			Status = VL53L0X_UpdateByte(Dev,
1656:Core/Src/vl53l0x_api.c **** 				VL53L0X_REG_MSRC_CONFIG_CONTROL,
1657:Core/Src/vl53l0x_api.c **** 				0xFE, Temp8);
1658:Core/Src/vl53l0x_api.c **** 
1659:Core/Src/vl53l0x_api.c **** 			break;
1660:Core/Src/vl53l0x_api.c **** 
1661:Core/Src/vl53l0x_api.c **** 		case VL53L0X_CHECKENABLE_SIGNAL_RATE_PRE_RANGE:
1662:Core/Src/vl53l0x_api.c **** 
1663:Core/Src/vl53l0x_api.c **** 			Temp8 = (uint8_t)(LimitCheckDisable << 4);
1664:Core/Src/vl53l0x_api.c **** 			Status = VL53L0X_UpdateByte(Dev,
1665:Core/Src/vl53l0x_api.c **** 				VL53L0X_REG_MSRC_CONFIG_CONTROL,
1666:Core/Src/vl53l0x_api.c **** 				0xEF, Temp8);
1667:Core/Src/vl53l0x_api.c **** 
1668:Core/Src/vl53l0x_api.c **** 			break;
1669:Core/Src/vl53l0x_api.c **** 
1670:Core/Src/vl53l0x_api.c **** 
1671:Core/Src/vl53l0x_api.c **** 		default:
1672:Core/Src/vl53l0x_api.c **** 			Status = VL53L0X_ERROR_INVALID_PARAMS;
1673:Core/Src/vl53l0x_api.c **** 
1674:Core/Src/vl53l0x_api.c **** 		}
1675:Core/Src/vl53l0x_api.c **** 
1676:Core/Src/vl53l0x_api.c **** 	}
1677:Core/Src/vl53l0x_api.c **** 
1678:Core/Src/vl53l0x_api.c **** 	if (Status == VL53L0X_ERROR_NONE) {
 2973              		.loc 1 1678 2 view .LVU876
1592:Core/Src/vl53l0x_api.c **** 	FixPoint1616_t TempFix1616 = 0;
 2974              		.loc 1 1592 16 is_stmt 0 view .LVU877
 2975 0036 0020     		movs	r0, #0
 2976 0038 06E0     		b	.L193
 2977              	.L191:
1628:Core/Src/vl53l0x_api.c **** 			VL53L0X_REG_FINAL_RANGE_CONFIG_MIN_COUNT_RATE_RTN_LIMIT,
ARM GAS  C:\Users\anmh1\AppData\Local\Temp\ccBPLcM2.s 			page 83


 2978              		.loc 1 1628 4 is_stmt 1 view .LVU878
1628:Core/Src/vl53l0x_api.c **** 			VL53L0X_REG_FINAL_RANGE_CONFIG_MIN_COUNT_RATE_RTN_LIMIT,
 2979              		.loc 1 1628 13 is_stmt 0 view .LVU879
 2980 003a C2F34F22 		ubfx	r2, r2, #9, #16
 2981              	.LVL291:
1628:Core/Src/vl53l0x_api.c **** 			VL53L0X_REG_FINAL_RANGE_CONFIG_MIN_COUNT_RATE_RTN_LIMIT,
 2982              		.loc 1 1628 13 view .LVU880
 2983 003e 4421     		movs	r1, #68
 2984              	.LVL292:
1628:Core/Src/vl53l0x_api.c **** 			VL53L0X_REG_FINAL_RANGE_CONFIG_MIN_COUNT_RATE_RTN_LIMIT,
 2985              		.loc 1 1628 13 view .LVU881
 2986 0040 2846     		mov	r0, r5
 2987 0042 FFF7FEFF 		bl	VL53L0X_WrWord
 2988              	.LVL293:
1632:Core/Src/vl53l0x_api.c **** 
 2989              		.loc 1 1632 4 is_stmt 1 view .LVU882
 2990              	.L194:
 2991              		.loc 1 1678 2 view .LVU883
 2992              		.loc 1 1678 5 is_stmt 0 view .LVU884
 2993 0046 20B9     		cbnz	r0, .L184
 2994              	.LVL294:
 2995              	.L193:
1679:Core/Src/vl53l0x_api.c **** 		if (LimitCheckEnable == 0) {
 2996              		.loc 1 1679 3 is_stmt 1 view .LVU885
 2997              		.loc 1 1679 6 is_stmt 0 view .LVU886
 2998 0048 D6B9     		cbnz	r6, .L195
1680:Core/Src/vl53l0x_api.c **** 			VL53L0X_SETARRAYPARAMETERFIELD(Dev, LimitChecksEnable,
 2999              		.loc 1 1680 4 is_stmt 1 view .LVU887
 3000 004a 2C44     		add	r4, r4, r5
 3001 004c 0023     		movs	r3, #0
 3002 004e 84F82830 		strb	r3, [r4, #40]
 3003              	.L184:
1681:Core/Src/vl53l0x_api.c **** 				LimitCheckId, 0);
1682:Core/Src/vl53l0x_api.c **** 		} else {
1683:Core/Src/vl53l0x_api.c **** 			VL53L0X_SETARRAYPARAMETERFIELD(Dev, LimitChecksEnable,
1684:Core/Src/vl53l0x_api.c **** 				LimitCheckId, 1);
1685:Core/Src/vl53l0x_api.c **** 		}
1686:Core/Src/vl53l0x_api.c **** 	}
1687:Core/Src/vl53l0x_api.c **** 
1688:Core/Src/vl53l0x_api.c **** 	LOG_FUNCTION_END(Status);
 3004              		.loc 1 1688 2 view .LVU888
1689:Core/Src/vl53l0x_api.c **** 	return Status;
 3005              		.loc 1 1689 2 view .LVU889
1690:Core/Src/vl53l0x_api.c **** }
 3006              		.loc 1 1690 1 is_stmt 0 view .LVU890
 3007 0052 70BD     		pop	{r4, r5, r6, pc}
 3008              	.LVL295:
 3009              	.L190:
1637:Core/Src/vl53l0x_api.c **** 				VL53L0X_CHECKENABLE_SIGNAL_REF_CLIP,
 3010              		.loc 1 1637 4 is_stmt 1 view .LVU891
 3011 0054 85F82A10 		strb	r1, [r5, #42]
1641:Core/Src/vl53l0x_api.c **** 
 3012              		.loc 1 1641 4 view .LVU892
1678:Core/Src/vl53l0x_api.c **** 		if (LimitCheckEnable == 0) {
 3013              		.loc 1 1678 2 view .LVU893
1592:Core/Src/vl53l0x_api.c **** 	FixPoint1616_t TempFix1616 = 0;
 3014              		.loc 1 1592 16 is_stmt 0 view .LVU894
ARM GAS  C:\Users\anmh1\AppData\Local\Temp\ccBPLcM2.s 			page 84


 3015 0058 0020     		movs	r0, #0
 3016 005a F5E7     		b	.L193
 3017              	.L189:
1646:Core/Src/vl53l0x_api.c **** 				VL53L0X_CHECKENABLE_RANGE_IGNORE_THRESHOLD,
 3018              		.loc 1 1646 4 is_stmt 1 view .LVU895
 3019 005c 85F82B10 		strb	r1, [r5, #43]
1650:Core/Src/vl53l0x_api.c **** 
 3020              		.loc 1 1650 4 view .LVU896
1678:Core/Src/vl53l0x_api.c **** 		if (LimitCheckEnable == 0) {
 3021              		.loc 1 1678 2 view .LVU897
1592:Core/Src/vl53l0x_api.c **** 	FixPoint1616_t TempFix1616 = 0;
 3022              		.loc 1 1592 16 is_stmt 0 view .LVU898
 3023 0060 0020     		movs	r0, #0
 3024 0062 F1E7     		b	.L193
 3025              	.L188:
1654:Core/Src/vl53l0x_api.c **** 			Status = VL53L0X_UpdateByte(Dev,
 3026              		.loc 1 1654 4 is_stmt 1 view .LVU899
 3027              	.LVL296:
1655:Core/Src/vl53l0x_api.c **** 				VL53L0X_REG_MSRC_CONFIG_CONTROL,
 3028              		.loc 1 1655 4 view .LVU900
1655:Core/Src/vl53l0x_api.c **** 				VL53L0X_REG_MSRC_CONFIG_CONTROL,
 3029              		.loc 1 1655 13 is_stmt 0 view .LVU901
 3030 0064 5B00     		lsls	r3, r3, #1
 3031              	.LVL297:
1655:Core/Src/vl53l0x_api.c **** 				VL53L0X_REG_MSRC_CONFIG_CONTROL,
 3032              		.loc 1 1655 13 view .LVU902
 3033 0066 FE22     		movs	r2, #254
 3034              	.LVL298:
1655:Core/Src/vl53l0x_api.c **** 				VL53L0X_REG_MSRC_CONFIG_CONTROL,
 3035              		.loc 1 1655 13 view .LVU903
 3036 0068 6021     		movs	r1, #96
 3037              	.LVL299:
1655:Core/Src/vl53l0x_api.c **** 				VL53L0X_REG_MSRC_CONFIG_CONTROL,
 3038              		.loc 1 1655 13 view .LVU904
 3039 006a 2846     		mov	r0, r5
 3040 006c FFF7FEFF 		bl	VL53L0X_UpdateByte
 3041              	.LVL300:
1659:Core/Src/vl53l0x_api.c **** 
 3042              		.loc 1 1659 4 is_stmt 1 view .LVU905
 3043 0070 E9E7     		b	.L194
 3044              	.LVL301:
 3045              	.L186:
1663:Core/Src/vl53l0x_api.c **** 			Status = VL53L0X_UpdateByte(Dev,
 3046              		.loc 1 1663 4 view .LVU906
1664:Core/Src/vl53l0x_api.c **** 				VL53L0X_REG_MSRC_CONFIG_CONTROL,
 3047              		.loc 1 1664 4 view .LVU907
1664:Core/Src/vl53l0x_api.c **** 				VL53L0X_REG_MSRC_CONFIG_CONTROL,
 3048              		.loc 1 1664 13 is_stmt 0 view .LVU908
 3049 0072 1B01     		lsls	r3, r3, #4
 3050              	.LVL302:
1664:Core/Src/vl53l0x_api.c **** 				VL53L0X_REG_MSRC_CONFIG_CONTROL,
 3051              		.loc 1 1664 13 view .LVU909
 3052 0074 EF22     		movs	r2, #239
 3053              	.LVL303:
1664:Core/Src/vl53l0x_api.c **** 				VL53L0X_REG_MSRC_CONFIG_CONTROL,
 3054              		.loc 1 1664 13 view .LVU910
 3055 0076 6021     		movs	r1, #96
ARM GAS  C:\Users\anmh1\AppData\Local\Temp\ccBPLcM2.s 			page 85


 3056              	.LVL304:
1664:Core/Src/vl53l0x_api.c **** 				VL53L0X_REG_MSRC_CONFIG_CONTROL,
 3057              		.loc 1 1664 13 view .LVU911
 3058 0078 2846     		mov	r0, r5
 3059 007a FFF7FEFF 		bl	VL53L0X_UpdateByte
 3060              	.LVL305:
1668:Core/Src/vl53l0x_api.c **** 
 3061              		.loc 1 1668 4 is_stmt 1 view .LVU912
 3062 007e E2E7     		b	.L194
 3063              	.LVL306:
 3064              	.L195:
1683:Core/Src/vl53l0x_api.c **** 				LimitCheckId, 1);
 3065              		.loc 1 1683 4 view .LVU913
 3066 0080 2C44     		add	r4, r4, r5
 3067 0082 0123     		movs	r3, #1
 3068 0084 84F82830 		strb	r3, [r4, #40]
 3069 0088 E3E7     		b	.L184
 3070              	.LVL307:
 3071              	.L196:
 3072              		.cfi_def_cfa_offset 0
 3073              		.cfi_restore 4
 3074              		.cfi_restore 5
 3075              		.cfi_restore 6
 3076              		.cfi_restore 14
1601:Core/Src/vl53l0x_api.c **** 	} else {
 3077              		.loc 1 1601 10 is_stmt 0 view .LVU914
 3078 008a 6FF00300 		mvn	r0, #3
 3079              	.LVL308:
1688:Core/Src/vl53l0x_api.c **** 	return Status;
 3080              		.loc 1 1688 2 is_stmt 1 view .LVU915
1689:Core/Src/vl53l0x_api.c **** }
 3081              		.loc 1 1689 2 view .LVU916
 3082              		.loc 1 1690 1 is_stmt 0 view .LVU917
 3083 008e 7047     		bx	lr
 3084              	.LVL309:
 3085              	.L198:
1616:Core/Src/vl53l0x_api.c **** 
 3086              		.loc 1 1616 3 view .LVU918
 3087 0090 6FF00300 		mvn	r0, #3
 3088 0094 DDE7     		b	.L184
 3089              		.cfi_endproc
 3090              	.LFE190:
 3092              		.section	.text.VL53L0X_GetLimitCheckEnable,"ax",%progbits
 3093              		.align	1
 3094              		.global	VL53L0X_GetLimitCheckEnable
 3095              		.syntax unified
 3096              		.thumb
 3097              		.thumb_func
 3098              		.fpu fpv4-sp-d16
 3100              	VL53L0X_GetLimitCheckEnable:
 3101              	.LVL310:
 3102              	.LFB191:
1691:Core/Src/vl53l0x_api.c **** 
1692:Core/Src/vl53l0x_api.c **** VL53L0X_Error VL53L0X_GetLimitCheckEnable(VL53L0X_DEV Dev, uint16_t LimitCheckId,
1693:Core/Src/vl53l0x_api.c **** 	uint8_t *pLimitCheckEnable)
1694:Core/Src/vl53l0x_api.c **** {
 3103              		.loc 1 1694 1 is_stmt 1 view -0
ARM GAS  C:\Users\anmh1\AppData\Local\Temp\ccBPLcM2.s 			page 86


 3104              		.cfi_startproc
 3105              		@ args = 0, pretend = 0, frame = 0
 3106              		@ frame_needed = 0, uses_anonymous_args = 0
 3107              		@ link register save eliminated.
1695:Core/Src/vl53l0x_api.c **** 	VL53L0X_Error Status = VL53L0X_ERROR_NONE;
 3108              		.loc 1 1695 2 view .LVU920
1696:Core/Src/vl53l0x_api.c **** 	uint8_t Temp8;
 3109              		.loc 1 1696 2 view .LVU921
1697:Core/Src/vl53l0x_api.c **** 
1698:Core/Src/vl53l0x_api.c **** 	LOG_FUNCTION_START("");
 3110              		.loc 1 1698 2 view .LVU922
1699:Core/Src/vl53l0x_api.c **** 
1700:Core/Src/vl53l0x_api.c **** 	if (LimitCheckId >= VL53L0X_CHECKENABLE_NUMBER_OF_CHECKS) {
 3111              		.loc 1 1700 2 view .LVU923
 3112              		.loc 1 1700 5 is_stmt 0 view .LVU924
 3113 0000 0529     		cmp	r1, #5
 3114 0002 05D8     		bhi	.L206
1701:Core/Src/vl53l0x_api.c **** 		Status = VL53L0X_ERROR_INVALID_PARAMS;
1702:Core/Src/vl53l0x_api.c **** 		*pLimitCheckEnable = 0;
1703:Core/Src/vl53l0x_api.c **** 	} else {
1704:Core/Src/vl53l0x_api.c **** 		VL53L0X_GETARRAYPARAMETERFIELD(Dev, LimitChecksEnable,
 3115              		.loc 1 1704 3 is_stmt 1 view .LVU925
 3116 0004 0844     		add	r0, r0, r1
 3117              	.LVL311:
 3118              		.loc 1 1704 3 is_stmt 0 view .LVU926
 3119 0006 90F82830 		ldrb	r3, [r0, #40]	@ zero_extendqisi2
 3120              	.LVL312:
1705:Core/Src/vl53l0x_api.c **** 			LimitCheckId, Temp8);
1706:Core/Src/vl53l0x_api.c **** 		*pLimitCheckEnable = Temp8;
 3121              		.loc 1 1706 3 is_stmt 1 view .LVU927
 3122              		.loc 1 1706 22 is_stmt 0 view .LVU928
 3123 000a 1370     		strb	r3, [r2]
1695:Core/Src/vl53l0x_api.c **** 	uint8_t Temp8;
 3124              		.loc 1 1695 16 view .LVU929
 3125 000c 0020     		movs	r0, #0
 3126              	.LVL313:
1707:Core/Src/vl53l0x_api.c **** 	}
1708:Core/Src/vl53l0x_api.c **** 
1709:Core/Src/vl53l0x_api.c **** 	LOG_FUNCTION_END(Status);
 3127              		.loc 1 1709 2 is_stmt 1 view .LVU930
1710:Core/Src/vl53l0x_api.c **** 	return Status;
 3128              		.loc 1 1710 2 view .LVU931
1711:Core/Src/vl53l0x_api.c **** }
 3129              		.loc 1 1711 1 is_stmt 0 view .LVU932
 3130 000e 7047     		bx	lr
 3131              	.LVL314:
 3132              	.L206:
1701:Core/Src/vl53l0x_api.c **** 		*pLimitCheckEnable = 0;
 3133              		.loc 1 1701 3 is_stmt 1 view .LVU933
1702:Core/Src/vl53l0x_api.c **** 	} else {
 3134              		.loc 1 1702 3 view .LVU934
1702:Core/Src/vl53l0x_api.c **** 	} else {
 3135              		.loc 1 1702 22 is_stmt 0 view .LVU935
 3136 0010 0023     		movs	r3, #0
 3137 0012 1370     		strb	r3, [r2]
1701:Core/Src/vl53l0x_api.c **** 		*pLimitCheckEnable = 0;
 3138              		.loc 1 1701 10 view .LVU936
ARM GAS  C:\Users\anmh1\AppData\Local\Temp\ccBPLcM2.s 			page 87


 3139 0014 6FF00300 		mvn	r0, #3
 3140              	.LVL315:
1701:Core/Src/vl53l0x_api.c **** 		*pLimitCheckEnable = 0;
 3141              		.loc 1 1701 10 view .LVU937
 3142 0018 7047     		bx	lr
 3143              		.cfi_endproc
 3144              	.LFE191:
 3146              		.section	.text.VL53L0X_SetLimitCheckValue,"ax",%progbits
 3147              		.align	1
 3148              		.global	VL53L0X_SetLimitCheckValue
 3149              		.syntax unified
 3150              		.thumb
 3151              		.thumb_func
 3152              		.fpu fpv4-sp-d16
 3154              	VL53L0X_SetLimitCheckValue:
 3155              	.LVL316:
 3156              	.LFB192:
1712:Core/Src/vl53l0x_api.c **** 
1713:Core/Src/vl53l0x_api.c **** VL53L0X_Error VL53L0X_SetLimitCheckValue(VL53L0X_DEV Dev, uint16_t LimitCheckId,
1714:Core/Src/vl53l0x_api.c **** 	FixPoint1616_t LimitCheckValue)
1715:Core/Src/vl53l0x_api.c **** {
 3157              		.loc 1 1715 1 is_stmt 1 view -0
 3158              		.cfi_startproc
 3159              		@ args = 0, pretend = 0, frame = 0
 3160              		@ frame_needed = 0, uses_anonymous_args = 0
 3161              		.loc 1 1715 1 is_stmt 0 view .LVU939
 3162 0000 70B5     		push	{r4, r5, r6, lr}
 3163              		.cfi_def_cfa_offset 16
 3164              		.cfi_offset 4, -16
 3165              		.cfi_offset 5, -12
 3166              		.cfi_offset 6, -8
 3167              		.cfi_offset 14, -4
 3168 0002 0646     		mov	r6, r0
 3169 0004 0C46     		mov	r4, r1
 3170 0006 1546     		mov	r5, r2
1716:Core/Src/vl53l0x_api.c **** 	VL53L0X_Error Status = VL53L0X_ERROR_NONE;
 3171              		.loc 1 1716 2 is_stmt 1 view .LVU940
 3172              	.LVL317:
1717:Core/Src/vl53l0x_api.c **** 	uint8_t Temp8;
 3173              		.loc 1 1717 2 view .LVU941
1718:Core/Src/vl53l0x_api.c **** 
1719:Core/Src/vl53l0x_api.c **** 	LOG_FUNCTION_START("");
 3174              		.loc 1 1719 2 view .LVU942
1720:Core/Src/vl53l0x_api.c **** 
1721:Core/Src/vl53l0x_api.c **** 	VL53L0X_GETARRAYPARAMETERFIELD(Dev, LimitChecksEnable, LimitCheckId,
 3175              		.loc 1 1721 2 view .LVU943
 3176 0008 4318     		adds	r3, r0, r1
 3177 000a 93F82830 		ldrb	r3, [r3, #40]	@ zero_extendqisi2
 3178              	.LVL318:
1722:Core/Src/vl53l0x_api.c **** 		Temp8);
1723:Core/Src/vl53l0x_api.c **** 
1724:Core/Src/vl53l0x_api.c **** 	if (Temp8 == 0) { /* disabled write only internal value */
 3179              		.loc 1 1724 2 view .LVU944
 3180              		.loc 1 1724 5 is_stmt 0 view .LVU945
 3181 000e 2BB9     		cbnz	r3, .L208
1725:Core/Src/vl53l0x_api.c **** 		VL53L0X_SETARRAYPARAMETERFIELD(Dev, LimitChecksValue,
 3182              		.loc 1 1725 3 is_stmt 1 view .LVU946
ARM GAS  C:\Users\anmh1\AppData\Local\Temp\ccBPLcM2.s 			page 88


 3183 0010 0C31     		adds	r1, r1, #12
 3184              	.LVL319:
 3185              		.loc 1 1725 3 is_stmt 0 view .LVU947
 3186 0012 00EB8104 		add	r4, r0, r1, lsl #2
 3187 0016 6260     		str	r2, [r4, #4]
1716:Core/Src/vl53l0x_api.c **** 	uint8_t Temp8;
 3188              		.loc 1 1716 16 view .LVU948
 3189 0018 0020     		movs	r0, #0
 3190              	.LVL320:
 3191              	.L209:
1726:Core/Src/vl53l0x_api.c **** 			LimitCheckId, LimitCheckValue);
1727:Core/Src/vl53l0x_api.c **** 	} else {
1728:Core/Src/vl53l0x_api.c **** 
1729:Core/Src/vl53l0x_api.c **** 		switch (LimitCheckId) {
1730:Core/Src/vl53l0x_api.c **** 
1731:Core/Src/vl53l0x_api.c **** 		case VL53L0X_CHECKENABLE_SIGMA_FINAL_RANGE:
