ARM GAS  C:\Users\anmh1\AppData\Local\Temp\ccrmGbOb.s 			page 1


   1              		.cpu cortex-m4
   2              		.eabi_attribute 27, 1
   3              		.eabi_attribute 28, 1
   4              		.eabi_attribute 20, 1
   5              		.eabi_attribute 21, 1
   6              		.eabi_attribute 23, 3
   7              		.eabi_attribute 24, 1
   8              		.eabi_attribute 25, 1
   9              		.eabi_attribute 26, 1
  10              		.eabi_attribute 30, 1
  11              		.eabi_attribute 34, 1
  12              		.eabi_attribute 18, 4
  13              		.file	"vl53l0x_api_core.c"
  14              		.text
  15              	.Ltext0:
  16              		.cfi_sections	.debug_frame
  17              		.section	.text.VL53L0X_reverse_bytes,"ax",%progbits
  18              		.align	1
  19              		.global	VL53L0X_reverse_bytes
  20              		.arch armv7e-m
  21              		.syntax unified
  22              		.thumb
  23              		.thumb_func
  24              		.fpu fpv4-sp-d16
  26              	VL53L0X_reverse_bytes:
  27              	.LVL0:
  28              	.LFB133:
  29              		.file 1 "Core/Src/vl53l0x_api_core.c"
   1:Core/Src/vl53l0x_api_core.c **** /*******************************************************************************
   2:Core/Src/vl53l0x_api_core.c ****  Copyright © 2016, STMicroelectronics International N.V.
   3:Core/Src/vl53l0x_api_core.c ****  All rights reserved.
   4:Core/Src/vl53l0x_api_core.c **** 
   5:Core/Src/vl53l0x_api_core.c ****  Redistribution and use in source and binary forms, with or without
   6:Core/Src/vl53l0x_api_core.c ****  modification, are permitted provided that the following conditions are met:
   7:Core/Src/vl53l0x_api_core.c ****  * Redistributions of source code must retain the above copyright
   8:Core/Src/vl53l0x_api_core.c ****  notice, this list of conditions and the following disclaimer.
   9:Core/Src/vl53l0x_api_core.c ****  * Redistributions in binary form must reproduce the above copyright
  10:Core/Src/vl53l0x_api_core.c ****  notice, this list of conditions and the following disclaimer in the
  11:Core/Src/vl53l0x_api_core.c ****  documentation and/or other materials provided with the distribution.
  12:Core/Src/vl53l0x_api_core.c ****  * Neither the name of STMicroelectronics nor the
  13:Core/Src/vl53l0x_api_core.c ****  names of its contributors may be used to endorse or promote products
  14:Core/Src/vl53l0x_api_core.c ****  derived from this software without specific prior written permission.
  15:Core/Src/vl53l0x_api_core.c **** 
  16:Core/Src/vl53l0x_api_core.c ****  THIS SOFTWARE IS PROVIDED BY THE COPYRIGHT HOLDERS AND CONTRIBUTORS "AS IS" AND
  17:Core/Src/vl53l0x_api_core.c ****  ANY EXPRESS OR IMPLIED WARRANTIES, INCLUDING, BUT NOT LIMITED TO, THE IMPLIED
  18:Core/Src/vl53l0x_api_core.c ****  WARRANTIES OF MERCHANTABILITY, FITNESS FOR A PARTICULAR PURPOSE, AND
  19:Core/Src/vl53l0x_api_core.c ****  NON-INFRINGEMENT OF INTELLECTUAL PROPERTY RIGHTS ARE DISCLAIMED.
  20:Core/Src/vl53l0x_api_core.c ****  IN NO EVENT SHALL STMICROELECTRONICS INTERNATIONAL N.V. BE LIABLE FOR ANY
  21:Core/Src/vl53l0x_api_core.c ****  DIRECT, INDIRECT, INCIDENTAL, SPECIAL, EXEMPLARY, OR CONSEQUENTIAL DAMAGES
  22:Core/Src/vl53l0x_api_core.c ****  (INCLUDING, BUT NOT LIMITED TO, PROCUREMENT OF SUBSTITUTE GOODS OR SERVICES;
  23:Core/Src/vl53l0x_api_core.c ****  LOSS OF USE, DATA, OR PROFITS; OR BUSINESS INTERRUPTION) HOWEVER CAUSED AND
  24:Core/Src/vl53l0x_api_core.c ****  ON ANY THEORY OF LIABILITY, WHETHER IN CONTRACT, STRICT LIABILITY, OR TORT
  25:Core/Src/vl53l0x_api_core.c ****  (INCLUDING NEGLIGENCE OR OTHERWISE) ARISING IN ANY WAY OUT OF THE USE OF THIS
  26:Core/Src/vl53l0x_api_core.c ****  SOFTWARE, EVEN IF ADVISED OF THE POSSIBILITY OF SUCH DAMAGE.
  27:Core/Src/vl53l0x_api_core.c ****  ******************************************************************************/
  28:Core/Src/vl53l0x_api_core.c **** 
  29:Core/Src/vl53l0x_api_core.c **** #include "vl53l0x_api.h"
ARM GAS  C:\Users\anmh1\AppData\Local\Temp\ccrmGbOb.s 			page 2


  30:Core/Src/vl53l0x_api_core.c **** #include "vl53l0x_api_core.h"
  31:Core/Src/vl53l0x_api_core.c **** #include "vl53l0x_api_calibration.h"
  32:Core/Src/vl53l0x_api_core.c **** 
  33:Core/Src/vl53l0x_api_core.c **** 
  34:Core/Src/vl53l0x_api_core.c **** #ifndef __KERNEL__
  35:Core/Src/vl53l0x_api_core.c **** #include <stdlib.h>
  36:Core/Src/vl53l0x_api_core.c **** #endif
  37:Core/Src/vl53l0x_api_core.c **** #define LOG_FUNCTION_START(fmt, ...) \
  38:Core/Src/vl53l0x_api_core.c **** 	_LOG_FUNCTION_START(TRACE_MODULE_API, fmt, ##__VA_ARGS__)
  39:Core/Src/vl53l0x_api_core.c **** #define LOG_FUNCTION_END(status, ...) \
  40:Core/Src/vl53l0x_api_core.c **** 	_LOG_FUNCTION_END(TRACE_MODULE_API, status, ##__VA_ARGS__)
  41:Core/Src/vl53l0x_api_core.c **** #define LOG_FUNCTION_END_FMT(status, fmt, ...) \
  42:Core/Src/vl53l0x_api_core.c **** 	_LOG_FUNCTION_END_FMT(TRACE_MODULE_API, status, fmt, ##__VA_ARGS__)
  43:Core/Src/vl53l0x_api_core.c **** 
  44:Core/Src/vl53l0x_api_core.c **** VL53L0X_Error VL53L0X_reverse_bytes(uint8_t *data, uint32_t size)
  45:Core/Src/vl53l0x_api_core.c **** {
  30              		.loc 1 45 1 view -0
  31              		.cfi_startproc
  32              		@ args = 0, pretend = 0, frame = 0
  33              		@ frame_needed = 0, uses_anonymous_args = 0
  34              		@ link register save eliminated.
  35              		.loc 1 45 1 is_stmt 0 view .LVU1
  36 0000 70B4     		push	{r4, r5, r6}
  37              		.cfi_def_cfa_offset 12
  38              		.cfi_offset 4, -12
  39              		.cfi_offset 5, -8
  40              		.cfi_offset 6, -4
  46:Core/Src/vl53l0x_api_core.c **** 	VL53L0X_Error Status = VL53L0X_ERROR_NONE;
  41              		.loc 1 46 2 is_stmt 1 view .LVU2
  42              	.LVL1:
  47:Core/Src/vl53l0x_api_core.c **** 	uint8_t tempData;
  43              		.loc 1 47 2 view .LVU3
  48:Core/Src/vl53l0x_api_core.c **** 	uint32_t mirrorIndex;
  44              		.loc 1 48 2 view .LVU4
  49:Core/Src/vl53l0x_api_core.c **** 	uint32_t middle = size/2;
  45              		.loc 1 49 2 view .LVU5
  46              		.loc 1 49 11 is_stmt 0 view .LVU6
  47 0002 4E08     		lsrs	r6, r1, #1
  48              	.LVL2:
  50:Core/Src/vl53l0x_api_core.c **** 	uint32_t index;
  49              		.loc 1 50 2 is_stmt 1 view .LVU7
  51:Core/Src/vl53l0x_api_core.c **** 
  52:Core/Src/vl53l0x_api_core.c **** 	for (index = 0; index < middle; index++) {
  50              		.loc 1 52 2 view .LVU8
  51              		.loc 1 52 13 is_stmt 0 view .LVU9
  52 0004 0023     		movs	r3, #0
  53              	.LVL3:
  54              	.L2:
  55              		.loc 1 52 18 is_stmt 1 discriminator 1 view .LVU10
  56              		.loc 1 52 2 is_stmt 0 discriminator 1 view .LVU11
  57 0006 B342     		cmp	r3, r6
  58 0008 07D2     		bcs	.L5
  53:Core/Src/vl53l0x_api_core.c **** 		mirrorIndex		 = size - index - 1;
  59              		.loc 1 53 3 is_stmt 1 discriminator 3 view .LVU12
  60              		.loc 1 53 24 is_stmt 0 discriminator 3 view .LVU13
  61 000a CA1A     		subs	r2, r1, r3
  62              		.loc 1 53 17 discriminator 3 view .LVU14
ARM GAS  C:\Users\anmh1\AppData\Local\Temp\ccrmGbOb.s 			page 3


  63 000c 013A     		subs	r2, r2, #1
  64              	.LVL4:
  54:Core/Src/vl53l0x_api_core.c **** 		tempData		 = data[index];
  65              		.loc 1 54 3 is_stmt 1 discriminator 3 view .LVU15
  66              		.loc 1 54 14 is_stmt 0 discriminator 3 view .LVU16
  67 000e C45C     		ldrb	r4, [r0, r3]	@ zero_extendqisi2
  68              	.LVL5:
  55:Core/Src/vl53l0x_api_core.c **** 		data[index]		 = data[mirrorIndex];
  69              		.loc 1 55 3 is_stmt 1 discriminator 3 view .LVU17
  70              		.loc 1 55 23 is_stmt 0 discriminator 3 view .LVU18
  71 0010 855C     		ldrb	r5, [r0, r2]	@ zero_extendqisi2
  72              		.loc 1 55 17 discriminator 3 view .LVU19
  73 0012 C554     		strb	r5, [r0, r3]
  56:Core/Src/vl53l0x_api_core.c **** 		data[mirrorIndex] = tempData;
  74              		.loc 1 56 3 is_stmt 1 discriminator 3 view .LVU20
  75              		.loc 1 56 21 is_stmt 0 discriminator 3 view .LVU21
  76 0014 8454     		strb	r4, [r0, r2]
  52:Core/Src/vl53l0x_api_core.c **** 		mirrorIndex		 = size - index - 1;
  77              		.loc 1 52 34 is_stmt 1 discriminator 3 view .LVU22
  52:Core/Src/vl53l0x_api_core.c **** 		mirrorIndex		 = size - index - 1;
  78              		.loc 1 52 39 is_stmt 0 discriminator 3 view .LVU23
  79 0016 0133     		adds	r3, r3, #1
  80              	.LVL6:
  52:Core/Src/vl53l0x_api_core.c **** 		mirrorIndex		 = size - index - 1;
  81              		.loc 1 52 39 discriminator 3 view .LVU24
  82 0018 F5E7     		b	.L2
  83              	.LVL7:
  84              	.L5:
  57:Core/Src/vl53l0x_api_core.c **** 	}
  58:Core/Src/vl53l0x_api_core.c **** 	return Status;
  85              		.loc 1 58 2 is_stmt 1 view .LVU25
  59:Core/Src/vl53l0x_api_core.c **** }
  86              		.loc 1 59 1 is_stmt 0 view .LVU26
  87 001a 0020     		movs	r0, #0
  88              	.LVL8:
  89              		.loc 1 59 1 view .LVU27
  90 001c 70BC     		pop	{r4, r5, r6}
  91              		.cfi_restore 6
  92              		.cfi_restore 5
  93              		.cfi_restore 4
  94              		.cfi_def_cfa_offset 0
  95              	.LVL9:
  96              		.loc 1 59 1 view .LVU28
  97 001e 7047     		bx	lr
  98              		.cfi_endproc
  99              	.LFE133:
 101              		.section	.text.VL53L0X_measurement_poll_for_completion,"ax",%progbits
 102              		.align	1
 103              		.global	VL53L0X_measurement_poll_for_completion
 104              		.syntax unified
 105              		.thumb
 106              		.thumb_func
 107              		.fpu fpv4-sp-d16
 109              	VL53L0X_measurement_poll_for_completion:
 110              	.LVL10:
 111              	.LFB134:
  60:Core/Src/vl53l0x_api_core.c **** 
ARM GAS  C:\Users\anmh1\AppData\Local\Temp\ccrmGbOb.s 			page 4


  61:Core/Src/vl53l0x_api_core.c **** VL53L0X_Error VL53L0X_measurement_poll_for_completion(VL53L0X_DEV Dev)
  62:Core/Src/vl53l0x_api_core.c **** {
 112              		.loc 1 62 1 is_stmt 1 view -0
 113              		.cfi_startproc
 114              		@ args = 0, pretend = 0, frame = 8
 115              		@ frame_needed = 0, uses_anonymous_args = 0
 116              		.loc 1 62 1 is_stmt 0 view .LVU30
 117 0000 30B5     		push	{r4, r5, lr}
 118              		.cfi_def_cfa_offset 12
 119              		.cfi_offset 4, -12
 120              		.cfi_offset 5, -8
 121              		.cfi_offset 14, -4
 122 0002 83B0     		sub	sp, sp, #12
 123              		.cfi_def_cfa_offset 24
 124 0004 0546     		mov	r5, r0
  63:Core/Src/vl53l0x_api_core.c **** 	VL53L0X_Error Status = VL53L0X_ERROR_NONE;
 125              		.loc 1 63 2 is_stmt 1 view .LVU31
 126              	.LVL11:
  64:Core/Src/vl53l0x_api_core.c **** 	uint8_t NewDataReady = 0;
 127              		.loc 1 64 2 view .LVU32
 128              		.loc 1 64 10 is_stmt 0 view .LVU33
 129 0006 0024     		movs	r4, #0
 130 0008 8DF80740 		strb	r4, [sp, #7]
  65:Core/Src/vl53l0x_api_core.c **** 	uint32_t LoopNb;
 131              		.loc 1 65 2 is_stmt 1 view .LVU34
  66:Core/Src/vl53l0x_api_core.c **** 
  67:Core/Src/vl53l0x_api_core.c **** 	LOG_FUNCTION_START("");
 132              		.loc 1 67 2 view .LVU35
  68:Core/Src/vl53l0x_api_core.c **** 
  69:Core/Src/vl53l0x_api_core.c **** 	LoopNb = 0;
 133              		.loc 1 69 2 view .LVU36
 134              	.LVL12:
 135              	.L8:
  70:Core/Src/vl53l0x_api_core.c **** 
  71:Core/Src/vl53l0x_api_core.c **** 	do {
 136              		.loc 1 71 2 view .LVU37
  72:Core/Src/vl53l0x_api_core.c **** 		Status = VL53L0X_GetMeasurementDataReady(Dev, &NewDataReady);
 137              		.loc 1 72 3 view .LVU38
 138              		.loc 1 72 12 is_stmt 0 view .LVU39
 139 000c 0DF10701 		add	r1, sp, #7
 140 0010 2846     		mov	r0, r5
 141 0012 FFF7FEFF 		bl	VL53L0X_GetMeasurementDataReady
 142              	.LVL13:
  73:Core/Src/vl53l0x_api_core.c **** 		if (Status != 0)
 143              		.loc 1 73 3 is_stmt 1 view .LVU40
 144              		.loc 1 73 6 is_stmt 0 view .LVU41
 145 0016 0246     		mov	r2, r0
 146 0018 68B9     		cbnz	r0, .L7
  74:Core/Src/vl53l0x_api_core.c **** 			break; /* the error is set */
  75:Core/Src/vl53l0x_api_core.c **** 
  76:Core/Src/vl53l0x_api_core.c **** 		if (NewDataReady == 1)
 147              		.loc 1 76 3 is_stmt 1 view .LVU42
 148              		.loc 1 76 20 is_stmt 0 view .LVU43
 149 001a 9DF80730 		ldrb	r3, [sp, #7]	@ zero_extendqisi2
 150              		.loc 1 76 6 view .LVU44
 151 001e 012B     		cmp	r3, #1
 152 0020 09D0     		beq	.L7
ARM GAS  C:\Users\anmh1\AppData\Local\Temp\ccrmGbOb.s 			page 5


  77:Core/Src/vl53l0x_api_core.c **** 			break; /* done note that status == 0 */
  78:Core/Src/vl53l0x_api_core.c **** 
  79:Core/Src/vl53l0x_api_core.c **** 		LoopNb++;
 153              		.loc 1 79 3 is_stmt 1 view .LVU45
 154              		.loc 1 79 9 is_stmt 0 view .LVU46
 155 0022 0134     		adds	r4, r4, #1
 156              	.LVL14:
  80:Core/Src/vl53l0x_api_core.c **** 		if (LoopNb >= VL53L0X_DEFAULT_MAX_LOOP) {
 157              		.loc 1 80 3 is_stmt 1 view .LVU47
 158              		.loc 1 80 6 is_stmt 0 view .LVU48
 159 0024 B4F5FA6F 		cmp	r4, #2000
 160 0028 03D2     		bcs	.L9
  81:Core/Src/vl53l0x_api_core.c **** 			Status = VL53L0X_ERROR_TIME_OUT;
  82:Core/Src/vl53l0x_api_core.c **** 			break;
  83:Core/Src/vl53l0x_api_core.c **** 		}
  84:Core/Src/vl53l0x_api_core.c **** 
  85:Core/Src/vl53l0x_api_core.c **** 		VL53L0X_PollingDelay(Dev);
 161              		.loc 1 85 3 is_stmt 1 view .LVU49
 162 002a 2846     		mov	r0, r5
 163              	.LVL15:
 164              		.loc 1 85 3 is_stmt 0 view .LVU50
 165 002c FFF7FEFF 		bl	VL53L0X_PollingDelay
 166              	.LVL16:
  86:Core/Src/vl53l0x_api_core.c **** 	} while (1);
 167              		.loc 1 86 10 is_stmt 1 view .LVU51
  72:Core/Src/vl53l0x_api_core.c **** 		if (Status != 0)
 168              		.loc 1 72 10 is_stmt 0 view .LVU52
 169 0030 ECE7     		b	.L8
 170              	.LVL17:
 171              	.L9:
  81:Core/Src/vl53l0x_api_core.c **** 			Status = VL53L0X_ERROR_TIME_OUT;
 172              		.loc 1 81 11 view .LVU53
 173 0032 6FF00602 		mvn	r2, #6
 174              	.L7:
 175              	.LVL18:
  87:Core/Src/vl53l0x_api_core.c **** 
  88:Core/Src/vl53l0x_api_core.c **** 	LOG_FUNCTION_END(Status);
 176              		.loc 1 88 2 is_stmt 1 view .LVU54
  89:Core/Src/vl53l0x_api_core.c **** 
  90:Core/Src/vl53l0x_api_core.c **** 	return Status;
 177              		.loc 1 90 2 view .LVU55
  91:Core/Src/vl53l0x_api_core.c **** }
 178              		.loc 1 91 1 is_stmt 0 view .LVU56
 179 0036 1046     		mov	r0, r2
 180 0038 03B0     		add	sp, sp, #12
 181              		.cfi_def_cfa_offset 12
 182              		@ sp needed
 183 003a 30BD     		pop	{r4, r5, pc}
 184              		.loc 1 91 1 view .LVU57
 185              		.cfi_endproc
 186              	.LFE134:
 188              		.section	.text.VL53L0X_decode_vcsel_period,"ax",%progbits
 189              		.align	1
 190              		.global	VL53L0X_decode_vcsel_period
 191              		.syntax unified
 192              		.thumb
 193              		.thumb_func
ARM GAS  C:\Users\anmh1\AppData\Local\Temp\ccrmGbOb.s 			page 6


 194              		.fpu fpv4-sp-d16
 196              	VL53L0X_decode_vcsel_period:
 197              	.LVL19:
 198              	.LFB135:
  92:Core/Src/vl53l0x_api_core.c **** 
  93:Core/Src/vl53l0x_api_core.c **** 
  94:Core/Src/vl53l0x_api_core.c **** uint8_t VL53L0X_decode_vcsel_period(uint8_t vcsel_period_reg)
  95:Core/Src/vl53l0x_api_core.c **** {
 199              		.loc 1 95 1 is_stmt 1 view -0
 200              		.cfi_startproc
 201              		@ args = 0, pretend = 0, frame = 0
 202              		@ frame_needed = 0, uses_anonymous_args = 0
 203              		@ link register save eliminated.
  96:Core/Src/vl53l0x_api_core.c **** 	/*!
  97:Core/Src/vl53l0x_api_core.c **** 	 * Converts the encoded VCSEL period register value into the real
  98:Core/Src/vl53l0x_api_core.c **** 	 * period in PLL clocks
  99:Core/Src/vl53l0x_api_core.c **** 	 */
 100:Core/Src/vl53l0x_api_core.c **** 
 101:Core/Src/vl53l0x_api_core.c **** 	uint8_t vcsel_period_pclks = 0;
 204              		.loc 1 101 2 view .LVU59
 102:Core/Src/vl53l0x_api_core.c **** 
 103:Core/Src/vl53l0x_api_core.c **** 	vcsel_period_pclks = (vcsel_period_reg + 1) << 1;
 205              		.loc 1 103 2 view .LVU60
 206              		.loc 1 103 41 is_stmt 0 view .LVU61
 207 0000 0130     		adds	r0, r0, #1
 208              	.LVL20:
 209              		.loc 1 103 41 view .LVU62
 210 0002 C0B2     		uxtb	r0, r0
 211              		.loc 1 103 21 view .LVU63
 212 0004 4000     		lsls	r0, r0, #1
 213              	.LVL21:
 104:Core/Src/vl53l0x_api_core.c **** 
 105:Core/Src/vl53l0x_api_core.c **** 	return vcsel_period_pclks;
 214              		.loc 1 105 2 is_stmt 1 view .LVU64
 106:Core/Src/vl53l0x_api_core.c **** }
 215              		.loc 1 106 1 is_stmt 0 view .LVU65
 216 0006 00F0FE00 		and	r0, r0, #254
 217              	.LVL22:
 218              		.loc 1 106 1 view .LVU66
 219 000a 7047     		bx	lr
 220              		.cfi_endproc
 221              	.LFE135:
 223              		.section	.text.VL53L0X_encode_vcsel_period,"ax",%progbits
 224              		.align	1
 225              		.global	VL53L0X_encode_vcsel_period
 226              		.syntax unified
 227              		.thumb
 228              		.thumb_func
 229              		.fpu fpv4-sp-d16
 231              	VL53L0X_encode_vcsel_period:
 232              	.LVL23:
 233              	.LFB136:
 107:Core/Src/vl53l0x_api_core.c **** 
 108:Core/Src/vl53l0x_api_core.c **** uint8_t VL53L0X_encode_vcsel_period(uint8_t vcsel_period_pclks)
 109:Core/Src/vl53l0x_api_core.c **** {
 234              		.loc 1 109 1 is_stmt 1 view -0
 235              		.cfi_startproc
ARM GAS  C:\Users\anmh1\AppData\Local\Temp\ccrmGbOb.s 			page 7


 236              		@ args = 0, pretend = 0, frame = 0
 237              		@ frame_needed = 0, uses_anonymous_args = 0
 238              		@ link register save eliminated.
 110:Core/Src/vl53l0x_api_core.c **** 	/*!
 111:Core/Src/vl53l0x_api_core.c **** 	 * Converts the encoded VCSEL period register value into the real period
 112:Core/Src/vl53l0x_api_core.c **** 	 * in PLL clocks
 113:Core/Src/vl53l0x_api_core.c **** 	 */
 114:Core/Src/vl53l0x_api_core.c **** 
 115:Core/Src/vl53l0x_api_core.c **** 	uint8_t vcsel_period_reg = 0;
 239              		.loc 1 115 2 view .LVU68
 116:Core/Src/vl53l0x_api_core.c **** 
 117:Core/Src/vl53l0x_api_core.c **** 	vcsel_period_reg = (vcsel_period_pclks >> 1) - 1;
 240              		.loc 1 117 2 view .LVU69
 241              		.loc 1 117 47 is_stmt 0 view .LVU70
 242 0000 4008     		lsrs	r0, r0, #1
 243              	.LVL24:
 244              		.loc 1 117 19 view .LVU71
 245 0002 0138     		subs	r0, r0, #1
 246              	.LVL25:
 118:Core/Src/vl53l0x_api_core.c **** 
 119:Core/Src/vl53l0x_api_core.c **** 	return vcsel_period_reg;
 247              		.loc 1 119 2 is_stmt 1 view .LVU72
 120:Core/Src/vl53l0x_api_core.c **** }
 248              		.loc 1 120 1 is_stmt 0 view .LVU73
 249 0004 C0B2     		uxtb	r0, r0
 250              		.loc 1 120 1 view .LVU74
 251 0006 7047     		bx	lr
 252              		.cfi_endproc
 253              	.LFE136:
 255              		.section	.text.VL53L0X_isqrt,"ax",%progbits
 256              		.align	1
 257              		.global	VL53L0X_isqrt
 258              		.syntax unified
 259              		.thumb
 260              		.thumb_func
 261              		.fpu fpv4-sp-d16
 263              	VL53L0X_isqrt:
 264              	.LVL26:
 265              	.LFB137:
 121:Core/Src/vl53l0x_api_core.c **** 
 122:Core/Src/vl53l0x_api_core.c **** 
 123:Core/Src/vl53l0x_api_core.c **** uint32_t VL53L0X_isqrt(uint32_t num)
 124:Core/Src/vl53l0x_api_core.c **** {
 266              		.loc 1 124 1 is_stmt 1 view -0
 267              		.cfi_startproc
 268              		@ args = 0, pretend = 0, frame = 0
 269              		@ frame_needed = 0, uses_anonymous_args = 0
 270              		@ link register save eliminated.
 271              		.loc 1 124 1 is_stmt 0 view .LVU76
 272 0000 0246     		mov	r2, r0
 125:Core/Src/vl53l0x_api_core.c **** 	/*
 126:Core/Src/vl53l0x_api_core.c **** 	 * Implements an integer square root
 127:Core/Src/vl53l0x_api_core.c **** 	 *
 128:Core/Src/vl53l0x_api_core.c **** 	 * From: http://en.wikipedia.org/wiki/Methods_of_computing_square_roots
 129:Core/Src/vl53l0x_api_core.c **** 	 */
 130:Core/Src/vl53l0x_api_core.c **** 
 131:Core/Src/vl53l0x_api_core.c **** 	uint32_t  res = 0;
ARM GAS  C:\Users\anmh1\AppData\Local\Temp\ccrmGbOb.s 			page 8


 273              		.loc 1 131 2 is_stmt 1 view .LVU77
 274              	.LVL27:
 132:Core/Src/vl53l0x_api_core.c **** 	uint32_t  bit = 1 << 30;
 275              		.loc 1 132 2 view .LVU78
 133:Core/Src/vl53l0x_api_core.c **** 	/* The second-to-top bit is set:
 134:Core/Src/vl53l0x_api_core.c **** 	 *	1 << 14 for 16-bits, 1 << 30 for 32 bits */
 135:Core/Src/vl53l0x_api_core.c **** 
 136:Core/Src/vl53l0x_api_core.c **** 	 /* "bit" starts at the highest power of four <= the argument. */
 137:Core/Src/vl53l0x_api_core.c **** 	while (bit > num)
 276              		.loc 1 137 2 view .LVU79
 132:Core/Src/vl53l0x_api_core.c **** 	uint32_t  bit = 1 << 30;
 277              		.loc 1 132 12 is_stmt 0 view .LVU80
 278 0002 4FF08043 		mov	r3, #1073741824
 279              	.LVL28:
 280              	.L14:
 281              		.loc 1 137 8 is_stmt 1 view .LVU81
 282 0006 9342     		cmp	r3, r2
 283 0008 01D9     		bls	.L20
 138:Core/Src/vl53l0x_api_core.c **** 		bit >>= 2;
 284              		.loc 1 138 3 view .LVU82
 285              		.loc 1 138 7 is_stmt 0 view .LVU83
 286 000a 9B08     		lsrs	r3, r3, #2
 287              	.LVL29:
 288              		.loc 1 138 7 view .LVU84
 289 000c FBE7     		b	.L14
 290              	.L20:
 131:Core/Src/vl53l0x_api_core.c **** 	uint32_t  bit = 1 << 30;
 291              		.loc 1 131 12 view .LVU85
 292 000e 0020     		movs	r0, #0
 293              	.LVL30:
 131:Core/Src/vl53l0x_api_core.c **** 	uint32_t  bit = 1 << 30;
 294              		.loc 1 131 12 view .LVU86
 295 0010 01E0     		b	.L16
 296              	.LVL31:
 297              	.L17:
 139:Core/Src/vl53l0x_api_core.c **** 
 140:Core/Src/vl53l0x_api_core.c **** 
 141:Core/Src/vl53l0x_api_core.c **** 	while (bit != 0) {
 142:Core/Src/vl53l0x_api_core.c **** 		if (num >= res + bit) {
 143:Core/Src/vl53l0x_api_core.c **** 			num -= res + bit;
 144:Core/Src/vl53l0x_api_core.c **** 			res = (res >> 1) + bit;
 145:Core/Src/vl53l0x_api_core.c **** 		} else
 146:Core/Src/vl53l0x_api_core.c **** 			res >>= 1;
 298              		.loc 1 146 4 is_stmt 1 view .LVU87
 299              		.loc 1 146 8 is_stmt 0 view .LVU88
 300 0012 4008     		lsrs	r0, r0, #1
 301              	.LVL32:
 302              	.L18:
 147:Core/Src/vl53l0x_api_core.c **** 
 148:Core/Src/vl53l0x_api_core.c **** 		bit >>= 2;
 303              		.loc 1 148 3 is_stmt 1 view .LVU89
 304              		.loc 1 148 7 is_stmt 0 view .LVU90
 305 0014 9B08     		lsrs	r3, r3, #2
 306              	.LVL33:
 307              	.L16:
 141:Core/Src/vl53l0x_api_core.c **** 		if (num >= res + bit) {
 308              		.loc 1 141 8 is_stmt 1 view .LVU91
ARM GAS  C:\Users\anmh1\AppData\Local\Temp\ccrmGbOb.s 			page 9


 309 0016 33B1     		cbz	r3, .L21
 142:Core/Src/vl53l0x_api_core.c **** 			num -= res + bit;
 310              		.loc 1 142 3 view .LVU92
 142:Core/Src/vl53l0x_api_core.c **** 			num -= res + bit;
 311              		.loc 1 142 18 is_stmt 0 view .LVU93
 312 0018 C118     		adds	r1, r0, r3
 142:Core/Src/vl53l0x_api_core.c **** 			num -= res + bit;
 313              		.loc 1 142 6 view .LVU94
 314 001a 9142     		cmp	r1, r2
 315 001c F9D8     		bhi	.L17
 143:Core/Src/vl53l0x_api_core.c **** 			res = (res >> 1) + bit;
 316              		.loc 1 143 4 is_stmt 1 view .LVU95
 143:Core/Src/vl53l0x_api_core.c **** 			res = (res >> 1) + bit;
 317              		.loc 1 143 8 is_stmt 0 view .LVU96
 318 001e 521A     		subs	r2, r2, r1
 319              	.LVL34:
 144:Core/Src/vl53l0x_api_core.c **** 		} else
 320              		.loc 1 144 4 is_stmt 1 view .LVU97
 144:Core/Src/vl53l0x_api_core.c **** 		} else
 321              		.loc 1 144 8 is_stmt 0 view .LVU98
 322 0020 03EB5000 		add	r0, r3, r0, lsr #1
 323              	.LVL35:
 144:Core/Src/vl53l0x_api_core.c **** 		} else
 324              		.loc 1 144 8 view .LVU99
 325 0024 F6E7     		b	.L18
 326              	.L21:
 149:Core/Src/vl53l0x_api_core.c **** 	}
 150:Core/Src/vl53l0x_api_core.c **** 
 151:Core/Src/vl53l0x_api_core.c **** 	return res;
 152:Core/Src/vl53l0x_api_core.c **** }
 327              		.loc 1 152 1 view .LVU100
 328 0026 7047     		bx	lr
 329              		.cfi_endproc
 330              	.LFE137:
 332              		.section	.text.VL53L0X_quadrature_sum,"ax",%progbits
 333              		.align	1
 334              		.global	VL53L0X_quadrature_sum
 335              		.syntax unified
 336              		.thumb
 337              		.thumb_func
 338              		.fpu fpv4-sp-d16
 340              	VL53L0X_quadrature_sum:
 341              	.LVL36:
 342              	.LFB138:
 153:Core/Src/vl53l0x_api_core.c **** 
 154:Core/Src/vl53l0x_api_core.c **** 
 155:Core/Src/vl53l0x_api_core.c **** uint32_t VL53L0X_quadrature_sum(uint32_t a, uint32_t b)
 156:Core/Src/vl53l0x_api_core.c **** {
 343              		.loc 1 156 1 is_stmt 1 view -0
 344              		.cfi_startproc
 345              		@ args = 0, pretend = 0, frame = 0
 346              		@ frame_needed = 0, uses_anonymous_args = 0
 157:Core/Src/vl53l0x_api_core.c **** 	/*
 158:Core/Src/vl53l0x_api_core.c **** 	 * Implements a quadrature sum
 159:Core/Src/vl53l0x_api_core.c **** 	 *
 160:Core/Src/vl53l0x_api_core.c **** 	 * rea = sqrt(a^2 + b^2)
 161:Core/Src/vl53l0x_api_core.c **** 	 *
ARM GAS  C:\Users\anmh1\AppData\Local\Temp\ccrmGbOb.s 			page 10


 162:Core/Src/vl53l0x_api_core.c **** 	 * Trap overflow case max input value is 65535 (16-bit value)
 163:Core/Src/vl53l0x_api_core.c **** 	 * as internal calc are 32-bit wide
 164:Core/Src/vl53l0x_api_core.c **** 	 *
 165:Core/Src/vl53l0x_api_core.c **** 	 * If overflow then seta output to maximum
 166:Core/Src/vl53l0x_api_core.c **** 	 */
 167:Core/Src/vl53l0x_api_core.c **** 	uint32_t  res = 0;
 347              		.loc 1 167 2 view .LVU102
 168:Core/Src/vl53l0x_api_core.c **** 
 169:Core/Src/vl53l0x_api_core.c **** 	if (a > 65535 || b > 65535)
 348              		.loc 1 169 2 view .LVU103
 349              		.loc 1 169 5 is_stmt 0 view .LVU104
 350 0000 B0F5803F 		cmp	r0, #65536
 351 0004 0DD2     		bcs	.L24
 352              		.loc 1 169 16 discriminator 1 view .LVU105
 353 0006 B1F5803F 		cmp	r1, #65536
 354 000a 02D3     		bcc	.L30
 170:Core/Src/vl53l0x_api_core.c **** 		res = 65535;
 355              		.loc 1 170 7 view .LVU106
 356 000c 4FF6FF70 		movw	r0, #65535
 357              	.LVL37:
 171:Core/Src/vl53l0x_api_core.c **** 	else
 172:Core/Src/vl53l0x_api_core.c **** 		res = VL53L0X_isqrt(a * a + b * b);
 173:Core/Src/vl53l0x_api_core.c **** 
 174:Core/Src/vl53l0x_api_core.c **** 	return res;
 358              		.loc 1 174 2 is_stmt 1 view .LVU107
 175:Core/Src/vl53l0x_api_core.c **** }
 359              		.loc 1 175 1 is_stmt 0 view .LVU108
 360 0010 7047     		bx	lr
 361              	.LVL38:
 362              	.L30:
 156:Core/Src/vl53l0x_api_core.c **** 	/*
 363              		.loc 1 156 1 view .LVU109
 364 0012 08B5     		push	{r3, lr}
 365              		.cfi_def_cfa_offset 8
 366              		.cfi_offset 3, -8
 367              		.cfi_offset 14, -4
 172:Core/Src/vl53l0x_api_core.c **** 
 368              		.loc 1 172 3 is_stmt 1 view .LVU110
 172:Core/Src/vl53l0x_api_core.c **** 
 369              		.loc 1 172 33 is_stmt 0 view .LVU111
 370 0014 01FB01F1 		mul	r1, r1, r1
 371              	.LVL39:
 172:Core/Src/vl53l0x_api_core.c **** 
 372              		.loc 1 172 9 view .LVU112
 373 0018 00FB0010 		mla	r0, r0, r0, r1
 374              	.LVL40:
 172:Core/Src/vl53l0x_api_core.c **** 
 375              		.loc 1 172 9 view .LVU113
 376 001c FFF7FEFF 		bl	VL53L0X_isqrt
 377              	.LVL41:
 378              		.loc 1 175 1 view .LVU114
 379 0020 08BD     		pop	{r3, pc}
 380              	.LVL42:
 381              	.L24:
 382              		.cfi_def_cfa_offset 0
 383              		.cfi_restore 3
 384              		.cfi_restore 14
ARM GAS  C:\Users\anmh1\AppData\Local\Temp\ccrmGbOb.s 			page 11


 170:Core/Src/vl53l0x_api_core.c **** 	else
 385              		.loc 1 170 7 view .LVU115
 386 0022 4FF6FF70 		movw	r0, #65535
 387              	.LVL43:
 170:Core/Src/vl53l0x_api_core.c **** 	else
 388              		.loc 1 170 7 view .LVU116
 389 0026 7047     		bx	lr
 390              		.cfi_endproc
 391              	.LFE138:
 393              		.section	.text.VL53L0X_device_read_strobe,"ax",%progbits
 394              		.align	1
 395              		.global	VL53L0X_device_read_strobe
 396              		.syntax unified
 397              		.thumb
 398              		.thumb_func
 399              		.fpu fpv4-sp-d16
 401              	VL53L0X_device_read_strobe:
 402              	.LVL44:
 403              	.LFB139:
 176:Core/Src/vl53l0x_api_core.c **** 
 177:Core/Src/vl53l0x_api_core.c **** 
 178:Core/Src/vl53l0x_api_core.c **** VL53L0X_Error VL53L0X_device_read_strobe(VL53L0X_DEV Dev)
 179:Core/Src/vl53l0x_api_core.c **** {
 404              		.loc 1 179 1 is_stmt 1 view -0
 405              		.cfi_startproc
 406              		@ args = 0, pretend = 0, frame = 8
 407              		@ frame_needed = 0, uses_anonymous_args = 0
 408              		.loc 1 179 1 is_stmt 0 view .LVU118
 409 0000 70B5     		push	{r4, r5, r6, lr}
 410              		.cfi_def_cfa_offset 16
 411              		.cfi_offset 4, -16
 412              		.cfi_offset 5, -12
 413              		.cfi_offset 6, -8
 414              		.cfi_offset 14, -4
 415 0002 82B0     		sub	sp, sp, #8
 416              		.cfi_def_cfa_offset 24
 417 0004 0646     		mov	r6, r0
 180:Core/Src/vl53l0x_api_core.c **** 	VL53L0X_Error Status = VL53L0X_ERROR_NONE;
 418              		.loc 1 180 2 is_stmt 1 view .LVU119
 419              	.LVL45:
 181:Core/Src/vl53l0x_api_core.c **** 	uint8_t strobe;
 420              		.loc 1 181 2 view .LVU120
 182:Core/Src/vl53l0x_api_core.c **** 	uint32_t LoopNb;
 421              		.loc 1 182 2 view .LVU121
 183:Core/Src/vl53l0x_api_core.c **** 	LOG_FUNCTION_START("");
 422              		.loc 1 183 2 view .LVU122
 184:Core/Src/vl53l0x_api_core.c **** 
 185:Core/Src/vl53l0x_api_core.c **** 	Status |= VL53L0X_WrByte(Dev, 0x83, 0x00);
 423              		.loc 1 185 2 view .LVU123
 424              		.loc 1 185 12 is_stmt 0 view .LVU124
 425 0006 0022     		movs	r2, #0
 426 0008 8321     		movs	r1, #131
 427 000a FFF7FEFF 		bl	VL53L0X_WrByte
 428              	.LVL46:
 186:Core/Src/vl53l0x_api_core.c **** 
 187:Core/Src/vl53l0x_api_core.c **** 	/* polling
 188:Core/Src/vl53l0x_api_core.c **** 	 * use timeout to avoid deadlock*/
ARM GAS  C:\Users\anmh1\AppData\Local\Temp\ccrmGbOb.s 			page 12


 189:Core/Src/vl53l0x_api_core.c **** 	if (Status == VL53L0X_ERROR_NONE) {
 429              		.loc 1 189 2 is_stmt 1 view .LVU125
 430              		.loc 1 189 5 is_stmt 0 view .LVU126
 431 000e 0446     		mov	r4, r0
 432 0010 A0B9     		cbnz	r0, .L32
 190:Core/Src/vl53l0x_api_core.c **** 		LoopNb = 0;
 433              		.loc 1 190 10 view .LVU127
 434 0012 0025     		movs	r5, #0
 435              	.L34:
 436              	.LVL47:
 191:Core/Src/vl53l0x_api_core.c **** 		do {
 437              		.loc 1 191 3 is_stmt 1 view .LVU128
 192:Core/Src/vl53l0x_api_core.c **** 			Status = VL53L0X_RdByte(Dev, 0x83, &strobe);
 438              		.loc 1 192 4 view .LVU129
 439              		.loc 1 192 13 is_stmt 0 view .LVU130
 440 0014 0DF10702 		add	r2, sp, #7
 441 0018 8321     		movs	r1, #131
 442 001a 3046     		mov	r0, r6
 443              	.LVL48:
 444              		.loc 1 192 13 view .LVU131
 445 001c FFF7FEFF 		bl	VL53L0X_RdByte
 446              	.LVL49:
 447 0020 0446     		mov	r4, r0
 448              	.LVL50:
 193:Core/Src/vl53l0x_api_core.c **** 			if ((strobe != 0x00) || Status != VL53L0X_ERROR_NONE)
 449              		.loc 1 193 4 is_stmt 1 view .LVU132
 450              		.loc 1 193 16 is_stmt 0 view .LVU133
 451 0022 9DF80730 		ldrb	r3, [sp, #7]	@ zero_extendqisi2
 452              		.loc 1 193 7 view .LVU134
 453 0026 23B9     		cbnz	r3, .L33
 454              		.loc 1 193 25 discriminator 1 view .LVU135
 455 0028 18B9     		cbnz	r0, .L33
 194:Core/Src/vl53l0x_api_core.c **** 					break;
 195:Core/Src/vl53l0x_api_core.c **** 
 196:Core/Src/vl53l0x_api_core.c **** 			LoopNb = LoopNb + 1;
 456              		.loc 1 196 4 is_stmt 1 view .LVU136
 457              		.loc 1 196 11 is_stmt 0 view .LVU137
 458 002a 0135     		adds	r5, r5, #1
 459              	.LVL51:
 197:Core/Src/vl53l0x_api_core.c **** 		} while (LoopNb < VL53L0X_DEFAULT_MAX_LOOP);
 460              		.loc 1 197 11 is_stmt 1 view .LVU138
 461              		.loc 1 197 3 is_stmt 0 view .LVU139
 462 002c B5F5FA6F 		cmp	r5, #2000
 463 0030 F0D3     		bcc	.L34
 464              	.L33:
 198:Core/Src/vl53l0x_api_core.c **** 
 199:Core/Src/vl53l0x_api_core.c **** 		if (LoopNb >= VL53L0X_DEFAULT_MAX_LOOP)
 465              		.loc 1 199 3 is_stmt 1 view .LVU140
 466              		.loc 1 199 6 is_stmt 0 view .LVU141
 467 0032 B5F5FA6F 		cmp	r5, #2000
 468 0036 01D3     		bcc	.L32
 200:Core/Src/vl53l0x_api_core.c **** 			Status = VL53L0X_ERROR_TIME_OUT;
 469              		.loc 1 200 11 view .LVU142
 470 0038 6FF00604 		mvn	r4, #6
 471              	.LVL52:
 472              	.L32:
 201:Core/Src/vl53l0x_api_core.c **** 
ARM GAS  C:\Users\anmh1\AppData\Local\Temp\ccrmGbOb.s 			page 13


 202:Core/Src/vl53l0x_api_core.c **** 	}
 203:Core/Src/vl53l0x_api_core.c **** 
 204:Core/Src/vl53l0x_api_core.c **** 	Status |= VL53L0X_WrByte(Dev, 0x83, 0x01);
 473              		.loc 1 204 2 is_stmt 1 view .LVU143
 474              		.loc 1 204 12 is_stmt 0 view .LVU144
 475 003c 0122     		movs	r2, #1
 476 003e 8321     		movs	r1, #131
 477 0040 3046     		mov	r0, r6
 478 0042 FFF7FEFF 		bl	VL53L0X_WrByte
 479              	.LVL53:
 480              		.loc 1 204 9 view .LVU145
 481 0046 2043     		orrs	r0, r0, r4
 482              	.LVL54:
 205:Core/Src/vl53l0x_api_core.c **** 
 206:Core/Src/vl53l0x_api_core.c **** 	LOG_FUNCTION_END(Status);
 483              		.loc 1 206 2 is_stmt 1 view .LVU146
 207:Core/Src/vl53l0x_api_core.c **** 	return Status;
 484              		.loc 1 207 2 view .LVU147
 208:Core/Src/vl53l0x_api_core.c **** 
 209:Core/Src/vl53l0x_api_core.c **** }
 485              		.loc 1 209 1 is_stmt 0 view .LVU148
 486 0048 40B2     		sxtb	r0, r0
 487              		.loc 1 209 1 view .LVU149
 488 004a 02B0     		add	sp, sp, #8
 489              		.cfi_def_cfa_offset 16
 490              		@ sp needed
 491 004c 70BD     		pop	{r4, r5, r6, pc}
 492              		.loc 1 209 1 view .LVU150
 493              		.cfi_endproc
 494              	.LFE139:
 496              		.section	.text.VL53L0X_get_info_from_device,"ax",%progbits
 497              		.align	1
 498              		.global	VL53L0X_get_info_from_device
 499              		.syntax unified
 500              		.thumb
 501              		.thumb_func
 502              		.fpu fpv4-sp-d16
 504              	VL53L0X_get_info_from_device:
 505              	.LVL55:
 506              	.LFB140:
 210:Core/Src/vl53l0x_api_core.c **** 
 211:Core/Src/vl53l0x_api_core.c **** VL53L0X_Error VL53L0X_get_info_from_device(VL53L0X_DEV Dev, uint8_t option)
 212:Core/Src/vl53l0x_api_core.c **** {
 507              		.loc 1 212 1 is_stmt 1 view -0
 508              		.cfi_startproc
 509              		@ args = 0, pretend = 0, frame = 48
 510              		@ frame_needed = 0, uses_anonymous_args = 0
 511              		.loc 1 212 1 is_stmt 0 view .LVU152
 512 0000 2DE9F04F 		push	{r4, r5, r6, r7, r8, r9, r10, fp, lr}
 513              		.cfi_def_cfa_offset 36
 514              		.cfi_offset 4, -36
 515              		.cfi_offset 5, -32
 516              		.cfi_offset 6, -28
 517              		.cfi_offset 7, -24
 518              		.cfi_offset 8, -20
 519              		.cfi_offset 9, -16
 520              		.cfi_offset 10, -12
ARM GAS  C:\Users\anmh1\AppData\Local\Temp\ccrmGbOb.s 			page 14


 521              		.cfi_offset 11, -8
 522              		.cfi_offset 14, -4
 523 0004 8DB0     		sub	sp, sp, #52
 524              		.cfi_def_cfa_offset 88
 525 0006 0546     		mov	r5, r0
 526 0008 0E46     		mov	r6, r1
 213:Core/Src/vl53l0x_api_core.c **** 
 214:Core/Src/vl53l0x_api_core.c **** 	VL53L0X_Error Status = VL53L0X_ERROR_NONE;
 527              		.loc 1 214 2 is_stmt 1 view .LVU153
 528              	.LVL56:
 215:Core/Src/vl53l0x_api_core.c **** 	uint8_t byte;
 529              		.loc 1 215 2 view .LVU154
 216:Core/Src/vl53l0x_api_core.c **** 	uint32_t TmpDWord;
 530              		.loc 1 216 2 view .LVU155
 217:Core/Src/vl53l0x_api_core.c **** 	uint8_t ModuleId;
 531              		.loc 1 217 2 view .LVU156
 218:Core/Src/vl53l0x_api_core.c **** 	uint8_t Revision;
 532              		.loc 1 218 2 view .LVU157
 219:Core/Src/vl53l0x_api_core.c **** 	uint8_t ReferenceSpadCount = 0;
 533              		.loc 1 219 2 view .LVU158
 220:Core/Src/vl53l0x_api_core.c **** 	uint8_t ReferenceSpadType = 0;
 534              		.loc 1 220 2 view .LVU159
 221:Core/Src/vl53l0x_api_core.c **** 	uint32_t PartUIDUpper = 0;
 535              		.loc 1 221 2 view .LVU160
 536              		.loc 1 221 11 is_stmt 0 view .LVU161
 537 000a 0023     		movs	r3, #0
 538 000c 0893     		str	r3, [sp, #32]
 222:Core/Src/vl53l0x_api_core.c **** 	uint32_t PartUIDLower = 0;
 539              		.loc 1 222 2 is_stmt 1 view .LVU162
 540              		.loc 1 222 11 is_stmt 0 view .LVU163
 541 000e 0793     		str	r3, [sp, #28]
 223:Core/Src/vl53l0x_api_core.c **** 	uint32_t OffsetFixed1104_mm = 0;
 542              		.loc 1 223 2 is_stmt 1 view .LVU164
 543              	.LVL57:
 224:Core/Src/vl53l0x_api_core.c **** 	int16_t OffsetMicroMeters = 0;
 544              		.loc 1 224 2 view .LVU165
 225:Core/Src/vl53l0x_api_core.c **** 	uint32_t DistMeasTgtFixed1104_mm = 400 << 4;
 545              		.loc 1 225 2 view .LVU166
 226:Core/Src/vl53l0x_api_core.c **** 	uint32_t DistMeasFixed1104_400_mm = 0;
 546              		.loc 1 226 2 view .LVU167
 227:Core/Src/vl53l0x_api_core.c **** 	uint32_t SignalRateMeasFixed1104_400_mm = 0;
 547              		.loc 1 227 2 view .LVU168
 228:Core/Src/vl53l0x_api_core.c **** 	char ProductId[19];
 548              		.loc 1 228 2 view .LVU169
 229:Core/Src/vl53l0x_api_core.c **** 	char *ProductId_tmp;
 549              		.loc 1 229 2 view .LVU170
 230:Core/Src/vl53l0x_api_core.c **** 	uint8_t ReadDataFromDeviceDone;
 550              		.loc 1 230 2 view .LVU171
 231:Core/Src/vl53l0x_api_core.c **** 	FixPoint1616_t SignalRateMeasFixed400mmFix = 0;
 551              		.loc 1 231 2 view .LVU172
 232:Core/Src/vl53l0x_api_core.c **** 	uint8_t NvmRefGoodSpadMap[VL53L0X_REF_SPAD_BUFFER_SIZE];
 552              		.loc 1 232 2 view .LVU173
 233:Core/Src/vl53l0x_api_core.c **** 	int i;
 553              		.loc 1 233 2 view .LVU174
 234:Core/Src/vl53l0x_api_core.c **** 
 235:Core/Src/vl53l0x_api_core.c **** 
 236:Core/Src/vl53l0x_api_core.c **** 	LOG_FUNCTION_START("");
ARM GAS  C:\Users\anmh1\AppData\Local\Temp\ccrmGbOb.s 			page 15


 554              		.loc 1 236 2 view .LVU175
 237:Core/Src/vl53l0x_api_core.c **** 
 238:Core/Src/vl53l0x_api_core.c **** 	ReadDataFromDeviceDone = VL53L0X_GETDEVICESPECIFICPARAMETER(Dev,
 555              		.loc 1 238 2 view .LVU176
 556              		.loc 1 238 25 is_stmt 0 view .LVU177
 557 0010 90F8F070 		ldrb	r7, [r0, #240]	@ zero_extendqisi2
 558              	.LVL58:
 239:Core/Src/vl53l0x_api_core.c **** 			ReadDataFromDeviceDone);
 240:Core/Src/vl53l0x_api_core.c **** 
 241:Core/Src/vl53l0x_api_core.c **** 	/* This access is done only once after that a GetDeviceInfo or
 242:Core/Src/vl53l0x_api_core.c **** 	 * datainit is done*/
 243:Core/Src/vl53l0x_api_core.c **** 	if (ReadDataFromDeviceDone != 7) {
 559              		.loc 1 243 2 is_stmt 1 view .LVU178
 560              		.loc 1 243 5 is_stmt 0 view .LVU179
 561 0014 072F     		cmp	r7, #7
 562 0016 24D1     		bne	.L56
 227:Core/Src/vl53l0x_api_core.c **** 	char ProductId[19];
 563              		.loc 1 227 11 view .LVU180
 564 0018 4FF00008 		mov	r8, #0
 226:Core/Src/vl53l0x_api_core.c **** 	uint32_t SignalRateMeasFixed1104_400_mm = 0;
 565              		.loc 1 226 11 view .LVU181
 566 001c C346     		mov	fp, r8
 220:Core/Src/vl53l0x_api_core.c **** 	uint32_t PartUIDUpper = 0;
 567              		.loc 1 220 10 view .LVU182
 568 001e C246     		mov	r10, r8
 219:Core/Src/vl53l0x_api_core.c **** 	uint8_t ReferenceSpadType = 0;
 569              		.loc 1 219 10 view .LVU183
 570 0020 C146     		mov	r9, r8
 214:Core/Src/vl53l0x_api_core.c **** 	uint8_t byte;
 571              		.loc 1 214 16 view .LVU184
 572 0022 4446     		mov	r4, r8
 573              	.LVL59:
 574              	.L38:
 244:Core/Src/vl53l0x_api_core.c **** 
 245:Core/Src/vl53l0x_api_core.c **** 		Status |= VL53L0X_WrByte(Dev, 0x80, 0x01);
 246:Core/Src/vl53l0x_api_core.c **** 		Status |= VL53L0X_WrByte(Dev, 0xFF, 0x01);
 247:Core/Src/vl53l0x_api_core.c **** 		Status |= VL53L0X_WrByte(Dev, 0x00, 0x00);
 248:Core/Src/vl53l0x_api_core.c **** 
 249:Core/Src/vl53l0x_api_core.c **** 		Status |= VL53L0X_WrByte(Dev, 0xFF, 0x06);
 250:Core/Src/vl53l0x_api_core.c **** 		Status |= VL53L0X_RdByte(Dev, 0x83, &byte);
 251:Core/Src/vl53l0x_api_core.c **** 		Status |= VL53L0X_WrByte(Dev, 0x83, byte|4);
 252:Core/Src/vl53l0x_api_core.c **** 		Status |= VL53L0X_WrByte(Dev, 0xFF, 0x07);
 253:Core/Src/vl53l0x_api_core.c **** 		Status |= VL53L0X_WrByte(Dev, 0x81, 0x01);
 254:Core/Src/vl53l0x_api_core.c **** 
 255:Core/Src/vl53l0x_api_core.c **** 		Status |= VL53L0X_PollingDelay(Dev);
 256:Core/Src/vl53l0x_api_core.c **** 
 257:Core/Src/vl53l0x_api_core.c **** 		Status |= VL53L0X_WrByte(Dev, 0x80, 0x01);
 258:Core/Src/vl53l0x_api_core.c **** 
 259:Core/Src/vl53l0x_api_core.c **** 		if (((option & 1) == 1) &&
 260:Core/Src/vl53l0x_api_core.c **** 			((ReadDataFromDeviceDone & 1) == 0)) {
 261:Core/Src/vl53l0x_api_core.c **** 			Status |= VL53L0X_WrByte(Dev, 0x94, 0x6b);
 262:Core/Src/vl53l0x_api_core.c **** 			Status |= VL53L0X_device_read_strobe(Dev);
 263:Core/Src/vl53l0x_api_core.c **** 			Status |= VL53L0X_RdDWord(Dev, 0x90, &TmpDWord);
 264:Core/Src/vl53l0x_api_core.c **** 
 265:Core/Src/vl53l0x_api_core.c **** 			ReferenceSpadCount = (uint8_t)((TmpDWord >> 8) & 0x07f);
 266:Core/Src/vl53l0x_api_core.c **** 			ReferenceSpadType  = (uint8_t)((TmpDWord >> 15) & 0x01);
 267:Core/Src/vl53l0x_api_core.c **** 
ARM GAS  C:\Users\anmh1\AppData\Local\Temp\ccrmGbOb.s 			page 16


 268:Core/Src/vl53l0x_api_core.c **** 			Status |= VL53L0X_WrByte(Dev, 0x94, 0x24);
 269:Core/Src/vl53l0x_api_core.c **** 			Status |= VL53L0X_device_read_strobe(Dev);
 270:Core/Src/vl53l0x_api_core.c **** 			Status |= VL53L0X_RdDWord(Dev, 0x90, &TmpDWord);
 271:Core/Src/vl53l0x_api_core.c **** 
 272:Core/Src/vl53l0x_api_core.c **** 
 273:Core/Src/vl53l0x_api_core.c **** 			NvmRefGoodSpadMap[0] = (uint8_t)((TmpDWord >> 24)
 274:Core/Src/vl53l0x_api_core.c **** 				& 0xff);
 275:Core/Src/vl53l0x_api_core.c **** 			NvmRefGoodSpadMap[1] = (uint8_t)((TmpDWord >> 16)
 276:Core/Src/vl53l0x_api_core.c **** 				& 0xff);
 277:Core/Src/vl53l0x_api_core.c **** 			NvmRefGoodSpadMap[2] = (uint8_t)((TmpDWord >> 8)
 278:Core/Src/vl53l0x_api_core.c **** 				& 0xff);
 279:Core/Src/vl53l0x_api_core.c **** 			NvmRefGoodSpadMap[3] = (uint8_t)(TmpDWord & 0xff);
 280:Core/Src/vl53l0x_api_core.c **** 
 281:Core/Src/vl53l0x_api_core.c **** 			Status |= VL53L0X_WrByte(Dev, 0x94, 0x25);
 282:Core/Src/vl53l0x_api_core.c **** 			Status |= VL53L0X_device_read_strobe(Dev);
 283:Core/Src/vl53l0x_api_core.c **** 			Status |= VL53L0X_RdDWord(Dev, 0x90, &TmpDWord);
 284:Core/Src/vl53l0x_api_core.c **** 
 285:Core/Src/vl53l0x_api_core.c **** 			NvmRefGoodSpadMap[4] = (uint8_t)((TmpDWord >> 24)
 286:Core/Src/vl53l0x_api_core.c **** 				& 0xff);
 287:Core/Src/vl53l0x_api_core.c **** 			NvmRefGoodSpadMap[5] = (uint8_t)((TmpDWord >> 16)
 288:Core/Src/vl53l0x_api_core.c **** 				& 0xff);
 289:Core/Src/vl53l0x_api_core.c **** 		}
 290:Core/Src/vl53l0x_api_core.c **** 
 291:Core/Src/vl53l0x_api_core.c **** 		if (((option & 2) == 2) &&
 292:Core/Src/vl53l0x_api_core.c **** 			((ReadDataFromDeviceDone & 2) == 0)) {
 293:Core/Src/vl53l0x_api_core.c **** 
 294:Core/Src/vl53l0x_api_core.c **** 			Status |= VL53L0X_WrByte(Dev, 0x94, 0x02);
 295:Core/Src/vl53l0x_api_core.c **** 			Status |= VL53L0X_device_read_strobe(Dev);
 296:Core/Src/vl53l0x_api_core.c **** 			Status |= VL53L0X_RdByte(Dev, 0x90, &ModuleId);
 297:Core/Src/vl53l0x_api_core.c **** 
 298:Core/Src/vl53l0x_api_core.c **** 			Status |= VL53L0X_WrByte(Dev, 0x94, 0x7B);
 299:Core/Src/vl53l0x_api_core.c **** 			Status |= VL53L0X_device_read_strobe(Dev);
 300:Core/Src/vl53l0x_api_core.c **** 			Status |= VL53L0X_RdByte(Dev, 0x90, &Revision);
 301:Core/Src/vl53l0x_api_core.c **** 
 302:Core/Src/vl53l0x_api_core.c **** 			Status |= VL53L0X_WrByte(Dev, 0x94, 0x77);
 303:Core/Src/vl53l0x_api_core.c **** 			Status |= VL53L0X_device_read_strobe(Dev);
 304:Core/Src/vl53l0x_api_core.c **** 			Status |= VL53L0X_RdDWord(Dev, 0x90, &TmpDWord);
 305:Core/Src/vl53l0x_api_core.c **** 
 306:Core/Src/vl53l0x_api_core.c **** 			ProductId[0] = (char)((TmpDWord >> 25) & 0x07f);
 307:Core/Src/vl53l0x_api_core.c **** 			ProductId[1] = (char)((TmpDWord >> 18) & 0x07f);
 308:Core/Src/vl53l0x_api_core.c **** 			ProductId[2] = (char)((TmpDWord >> 11) & 0x07f);
 309:Core/Src/vl53l0x_api_core.c **** 			ProductId[3] = (char)((TmpDWord >> 4) & 0x07f);
 310:Core/Src/vl53l0x_api_core.c **** 
 311:Core/Src/vl53l0x_api_core.c **** 			byte = (uint8_t)((TmpDWord & 0x00f) << 3);
 312:Core/Src/vl53l0x_api_core.c **** 
 313:Core/Src/vl53l0x_api_core.c **** 			Status |= VL53L0X_WrByte(Dev, 0x94, 0x78);
 314:Core/Src/vl53l0x_api_core.c **** 			Status |= VL53L0X_device_read_strobe(Dev);
 315:Core/Src/vl53l0x_api_core.c **** 			Status |= VL53L0X_RdDWord(Dev, 0x90, &TmpDWord);
 316:Core/Src/vl53l0x_api_core.c **** 
 317:Core/Src/vl53l0x_api_core.c **** 			ProductId[4] = (char)(byte +
 318:Core/Src/vl53l0x_api_core.c **** 					((TmpDWord >> 29) & 0x07f));
 319:Core/Src/vl53l0x_api_core.c **** 			ProductId[5] = (char)((TmpDWord >> 22) & 0x07f);
 320:Core/Src/vl53l0x_api_core.c **** 			ProductId[6] = (char)((TmpDWord >> 15) & 0x07f);
 321:Core/Src/vl53l0x_api_core.c **** 			ProductId[7] = (char)((TmpDWord >> 8) & 0x07f);
 322:Core/Src/vl53l0x_api_core.c **** 			ProductId[8] = (char)((TmpDWord >> 1) & 0x07f);
 323:Core/Src/vl53l0x_api_core.c **** 
 324:Core/Src/vl53l0x_api_core.c **** 			byte = (uint8_t)((TmpDWord & 0x001) << 6);
ARM GAS  C:\Users\anmh1\AppData\Local\Temp\ccrmGbOb.s 			page 17


 325:Core/Src/vl53l0x_api_core.c **** 
 326:Core/Src/vl53l0x_api_core.c **** 			Status |= VL53L0X_WrByte(Dev, 0x94, 0x79);
 327:Core/Src/vl53l0x_api_core.c **** 
 328:Core/Src/vl53l0x_api_core.c **** 			Status |= VL53L0X_device_read_strobe(Dev);
 329:Core/Src/vl53l0x_api_core.c **** 
 330:Core/Src/vl53l0x_api_core.c **** 			Status |= VL53L0X_RdDWord(Dev, 0x90, &TmpDWord);
 331:Core/Src/vl53l0x_api_core.c **** 
 332:Core/Src/vl53l0x_api_core.c **** 			ProductId[9] = (char)(byte +
 333:Core/Src/vl53l0x_api_core.c **** 					((TmpDWord >> 26) & 0x07f));
 334:Core/Src/vl53l0x_api_core.c **** 			ProductId[10] = (char)((TmpDWord >> 19) & 0x07f);
 335:Core/Src/vl53l0x_api_core.c **** 			ProductId[11] = (char)((TmpDWord >> 12) & 0x07f);
 336:Core/Src/vl53l0x_api_core.c **** 			ProductId[12] = (char)((TmpDWord >> 5) & 0x07f);
 337:Core/Src/vl53l0x_api_core.c **** 
 338:Core/Src/vl53l0x_api_core.c **** 			byte = (uint8_t)((TmpDWord & 0x01f) << 2);
 339:Core/Src/vl53l0x_api_core.c **** 
 340:Core/Src/vl53l0x_api_core.c **** 			Status |= VL53L0X_WrByte(Dev, 0x94, 0x7A);
 341:Core/Src/vl53l0x_api_core.c **** 
 342:Core/Src/vl53l0x_api_core.c **** 			Status |= VL53L0X_device_read_strobe(Dev);
 343:Core/Src/vl53l0x_api_core.c **** 
 344:Core/Src/vl53l0x_api_core.c **** 			Status |= VL53L0X_RdDWord(Dev, 0x90, &TmpDWord);
 345:Core/Src/vl53l0x_api_core.c **** 
 346:Core/Src/vl53l0x_api_core.c **** 			ProductId[13] = (char)(byte +
 347:Core/Src/vl53l0x_api_core.c **** 					((TmpDWord >> 30) & 0x07f));
 348:Core/Src/vl53l0x_api_core.c **** 			ProductId[14] = (char)((TmpDWord >> 23) & 0x07f);
 349:Core/Src/vl53l0x_api_core.c **** 			ProductId[15] = (char)((TmpDWord >> 16) & 0x07f);
 350:Core/Src/vl53l0x_api_core.c **** 			ProductId[16] = (char)((TmpDWord >> 9) & 0x07f);
 351:Core/Src/vl53l0x_api_core.c **** 			ProductId[17] = (char)((TmpDWord >> 2) & 0x07f);
 352:Core/Src/vl53l0x_api_core.c **** 			ProductId[18] = '\0';
 353:Core/Src/vl53l0x_api_core.c **** 
 354:Core/Src/vl53l0x_api_core.c **** 		}
 355:Core/Src/vl53l0x_api_core.c **** 
 356:Core/Src/vl53l0x_api_core.c **** 		if (((option & 4) == 4) &&
 357:Core/Src/vl53l0x_api_core.c **** 			((ReadDataFromDeviceDone & 4) == 0)) {
 358:Core/Src/vl53l0x_api_core.c **** 
 359:Core/Src/vl53l0x_api_core.c **** 			Status |= VL53L0X_WrByte(Dev, 0x94, 0x7B);
 360:Core/Src/vl53l0x_api_core.c **** 			Status |= VL53L0X_device_read_strobe(Dev);
 361:Core/Src/vl53l0x_api_core.c **** 			Status |= VL53L0X_RdDWord(Dev, 0x90, &PartUIDUpper);
 362:Core/Src/vl53l0x_api_core.c **** 
 363:Core/Src/vl53l0x_api_core.c **** 			Status |= VL53L0X_WrByte(Dev, 0x94, 0x7C);
 364:Core/Src/vl53l0x_api_core.c **** 			Status |= VL53L0X_device_read_strobe(Dev);
 365:Core/Src/vl53l0x_api_core.c **** 			Status |= VL53L0X_RdDWord(Dev, 0x90, &PartUIDLower);
 366:Core/Src/vl53l0x_api_core.c **** 
 367:Core/Src/vl53l0x_api_core.c **** 			Status |= VL53L0X_WrByte(Dev, 0x94, 0x73);
 368:Core/Src/vl53l0x_api_core.c **** 			Status |= VL53L0X_device_read_strobe(Dev);
 369:Core/Src/vl53l0x_api_core.c **** 			Status |= VL53L0X_RdDWord(Dev, 0x90, &TmpDWord);
 370:Core/Src/vl53l0x_api_core.c **** 
 371:Core/Src/vl53l0x_api_core.c **** 			SignalRateMeasFixed1104_400_mm = (TmpDWord &
 372:Core/Src/vl53l0x_api_core.c **** 				0x0000000ff) << 8;
 373:Core/Src/vl53l0x_api_core.c **** 
 374:Core/Src/vl53l0x_api_core.c **** 			Status |= VL53L0X_WrByte(Dev, 0x94, 0x74);
 375:Core/Src/vl53l0x_api_core.c **** 			Status |= VL53L0X_device_read_strobe(Dev);
 376:Core/Src/vl53l0x_api_core.c **** 			Status |= VL53L0X_RdDWord(Dev, 0x90, &TmpDWord);
 377:Core/Src/vl53l0x_api_core.c **** 
 378:Core/Src/vl53l0x_api_core.c **** 			SignalRateMeasFixed1104_400_mm |= ((TmpDWord &
 379:Core/Src/vl53l0x_api_core.c **** 				0xff000000) >> 24);
 380:Core/Src/vl53l0x_api_core.c **** 
 381:Core/Src/vl53l0x_api_core.c **** 			Status |= VL53L0X_WrByte(Dev, 0x94, 0x75);
ARM GAS  C:\Users\anmh1\AppData\Local\Temp\ccrmGbOb.s 			page 18


 382:Core/Src/vl53l0x_api_core.c **** 			Status |= VL53L0X_device_read_strobe(Dev);
 383:Core/Src/vl53l0x_api_core.c **** 			Status |= VL53L0X_RdDWord(Dev, 0x90, &TmpDWord);
 384:Core/Src/vl53l0x_api_core.c **** 
 385:Core/Src/vl53l0x_api_core.c **** 			DistMeasFixed1104_400_mm = (TmpDWord & 0x0000000ff)
 386:Core/Src/vl53l0x_api_core.c **** 							<< 8;
 387:Core/Src/vl53l0x_api_core.c **** 
 388:Core/Src/vl53l0x_api_core.c **** 			Status |= VL53L0X_WrByte(Dev, 0x94, 0x76);
 389:Core/Src/vl53l0x_api_core.c **** 			Status |= VL53L0X_device_read_strobe(Dev);
 390:Core/Src/vl53l0x_api_core.c **** 			Status |= VL53L0X_RdDWord(Dev, 0x90, &TmpDWord);
 391:Core/Src/vl53l0x_api_core.c **** 
 392:Core/Src/vl53l0x_api_core.c **** 			DistMeasFixed1104_400_mm |= ((TmpDWord & 0xff000000)
 393:Core/Src/vl53l0x_api_core.c **** 							>> 24);
 394:Core/Src/vl53l0x_api_core.c **** 		}
 395:Core/Src/vl53l0x_api_core.c **** 
 396:Core/Src/vl53l0x_api_core.c **** 		Status |= VL53L0X_WrByte(Dev, 0x81, 0x00);
 397:Core/Src/vl53l0x_api_core.c **** 		Status |= VL53L0X_WrByte(Dev, 0xFF, 0x06);
 398:Core/Src/vl53l0x_api_core.c **** 		Status |= VL53L0X_RdByte(Dev, 0x83, &byte);
 399:Core/Src/vl53l0x_api_core.c **** 		Status |= VL53L0X_WrByte(Dev, 0x83, byte&0xfb);
 400:Core/Src/vl53l0x_api_core.c **** 		Status |= VL53L0X_WrByte(Dev, 0xFF, 0x01);
 401:Core/Src/vl53l0x_api_core.c **** 		Status |= VL53L0X_WrByte(Dev, 0x00, 0x01);
 402:Core/Src/vl53l0x_api_core.c **** 
 403:Core/Src/vl53l0x_api_core.c **** 		Status |= VL53L0X_WrByte(Dev, 0xFF, 0x00);
 404:Core/Src/vl53l0x_api_core.c **** 		Status |= VL53L0X_WrByte(Dev, 0x80, 0x00);
 405:Core/Src/vl53l0x_api_core.c **** 	}
 406:Core/Src/vl53l0x_api_core.c **** 
 407:Core/Src/vl53l0x_api_core.c **** 	if ((Status == VL53L0X_ERROR_NONE) &&
 575              		.loc 1 407 2 is_stmt 1 view .LVU185
 576              		.loc 1 407 5 is_stmt 0 view .LVU186
 577 0024 002C     		cmp	r4, #0
 578 0026 40F0A782 		bne	.L42
 579              		.loc 1 407 37 discriminator 1 view .LVU187
 580 002a 072F     		cmp	r7, #7
 581 002c 00F0A482 		beq	.L42
 408:Core/Src/vl53l0x_api_core.c **** 		(ReadDataFromDeviceDone != 7)) {
 409:Core/Src/vl53l0x_api_core.c **** 		/* Assign to variable if status is ok */
 410:Core/Src/vl53l0x_api_core.c **** 		if (((option & 1) == 1) &&
 582              		.loc 1 410 3 is_stmt 1 view .LVU188
 583              		.loc 1 410 6 is_stmt 0 view .LVU189
 584 0030 16F0010F 		tst	r6, #1
 585 0034 00F06A82 		beq	.L43
 586              		.loc 1 410 27 discriminator 1 view .LVU190
 587 0038 17F0010F 		tst	r7, #1
 588 003c 40F06682 		bne	.L43
 411:Core/Src/vl53l0x_api_core.c **** 			((ReadDataFromDeviceDone & 1) == 0)) {
 412:Core/Src/vl53l0x_api_core.c **** 			VL53L0X_SETDEVICESPECIFICPARAMETER(Dev,
 589              		.loc 1 412 4 is_stmt 1 view .LVU191
 590 0040 85F81391 		strb	r9, [r5, #275]
 413:Core/Src/vl53l0x_api_core.c **** 				ReferenceSpadCount, ReferenceSpadCount);
 414:Core/Src/vl53l0x_api_core.c **** 
 415:Core/Src/vl53l0x_api_core.c **** 			VL53L0X_SETDEVICESPECIFICPARAMETER(Dev,
 591              		.loc 1 415 4 view .LVU192
 592 0044 85F814A1 		strb	r10, [r5, #276]
 416:Core/Src/vl53l0x_api_core.c **** 				ReferenceSpadType, ReferenceSpadType);
 417:Core/Src/vl53l0x_api_core.c **** 
 418:Core/Src/vl53l0x_api_core.c **** 			for (i = 0; i < VL53L0X_REF_SPAD_BUFFER_SIZE; i++) {
 593              		.loc 1 418 4 view .LVU193
 594              	.LVL60:
ARM GAS  C:\Users\anmh1\AppData\Local\Temp\ccrmGbOb.s 			page 19


 595              		.loc 1 418 11 is_stmt 0 view .LVU194
 596 0048 0023     		movs	r3, #0
 597              	.LVL61:
 598              	.L44:
 599              		.loc 1 418 16 is_stmt 1 discriminator 1 view .LVU195
 600              		.loc 1 418 4 is_stmt 0 discriminator 1 view .LVU196
 601 004a 052B     		cmp	r3, #5
 602 004c 00F35E82 		bgt	.L43
 419:Core/Src/vl53l0x_api_core.c **** 				Dev->Data.SpadData.RefGoodSpadMap[i] =
 603              		.loc 1 419 5 is_stmt 1 discriminator 3 view .LVU197
 420:Core/Src/vl53l0x_api_core.c **** 					NvmRefGoodSpadMap[i];
 604              		.loc 1 420 23 is_stmt 0 discriminator 3 view .LVU198
 605 0050 0CAA     		add	r2, sp, #48
 606 0052 1A44     		add	r2, r2, r3
 607 0054 12F8301C 		ldrb	r1, [r2, #-48]	@ zero_extendqisi2
 419:Core/Src/vl53l0x_api_core.c **** 				Dev->Data.SpadData.RefGoodSpadMap[i] =
 608              		.loc 1 419 42 discriminator 3 view .LVU199
 609 0058 EA18     		adds	r2, r5, r3
 610 005a 82F82A11 		strb	r1, [r2, #298]
 418:Core/Src/vl53l0x_api_core.c **** 				Dev->Data.SpadData.RefGoodSpadMap[i] =
 611              		.loc 1 418 50 is_stmt 1 discriminator 3 view .LVU200
 418:Core/Src/vl53l0x_api_core.c **** 				Dev->Data.SpadData.RefGoodSpadMap[i] =
 612              		.loc 1 418 51 is_stmt 0 discriminator 3 view .LVU201
 613 005e 0133     		adds	r3, r3, #1
 614              	.LVL62:
 418:Core/Src/vl53l0x_api_core.c **** 				Dev->Data.SpadData.RefGoodSpadMap[i] =
 615              		.loc 1 418 51 discriminator 3 view .LVU202
 616 0060 F3E7     		b	.L44
 617              	.LVL63:
 618              	.L56:
 245:Core/Src/vl53l0x_api_core.c **** 		Status |= VL53L0X_WrByte(Dev, 0xFF, 0x01);
 619              		.loc 1 245 3 is_stmt 1 view .LVU203
 245:Core/Src/vl53l0x_api_core.c **** 		Status |= VL53L0X_WrByte(Dev, 0xFF, 0x01);
 620              		.loc 1 245 13 is_stmt 0 view .LVU204
 621 0062 0122     		movs	r2, #1
 622 0064 8021     		movs	r1, #128
 623              	.LVL64:
 245:Core/Src/vl53l0x_api_core.c **** 		Status |= VL53L0X_WrByte(Dev, 0xFF, 0x01);
 624              		.loc 1 245 13 view .LVU205
 625 0066 FFF7FEFF 		bl	VL53L0X_WrByte
 626              	.LVL65:
 245:Core/Src/vl53l0x_api_core.c **** 		Status |= VL53L0X_WrByte(Dev, 0xFF, 0x01);
 627              		.loc 1 245 13 view .LVU206
 628 006a 0446     		mov	r4, r0
 629              	.LVL66:
 246:Core/Src/vl53l0x_api_core.c **** 		Status |= VL53L0X_WrByte(Dev, 0x00, 0x00);
 630              		.loc 1 246 3 is_stmt 1 view .LVU207
 246:Core/Src/vl53l0x_api_core.c **** 		Status |= VL53L0X_WrByte(Dev, 0x00, 0x00);
 631              		.loc 1 246 13 is_stmt 0 view .LVU208
 632 006c 0122     		movs	r2, #1
 633 006e FF21     		movs	r1, #255
 634 0070 2846     		mov	r0, r5
 635 0072 FFF7FEFF 		bl	VL53L0X_WrByte
 636              	.LVL67:
 246:Core/Src/vl53l0x_api_core.c **** 		Status |= VL53L0X_WrByte(Dev, 0x00, 0x00);
 637              		.loc 1 246 10 view .LVU209
 638 0076 0443     		orrs	r4, r4, r0
ARM GAS  C:\Users\anmh1\AppData\Local\Temp\ccrmGbOb.s 			page 20


 639              	.LVL68:
 246:Core/Src/vl53l0x_api_core.c **** 		Status |= VL53L0X_WrByte(Dev, 0x00, 0x00);
 640              		.loc 1 246 10 view .LVU210
 641 0078 64B2     		sxtb	r4, r4
 642              	.LVL69:
 247:Core/Src/vl53l0x_api_core.c **** 
 643              		.loc 1 247 3 is_stmt 1 view .LVU211
 247:Core/Src/vl53l0x_api_core.c **** 
 644              		.loc 1 247 13 is_stmt 0 view .LVU212
 645 007a 0022     		movs	r2, #0
 646 007c 1146     		mov	r1, r2
 647 007e 2846     		mov	r0, r5
 648 0080 FFF7FEFF 		bl	VL53L0X_WrByte
 649              	.LVL70:
 247:Core/Src/vl53l0x_api_core.c **** 
 650              		.loc 1 247 10 view .LVU213
 651 0084 0443     		orrs	r4, r4, r0
 652              	.LVL71:
 247:Core/Src/vl53l0x_api_core.c **** 
 653              		.loc 1 247 10 view .LVU214
 654 0086 64B2     		sxtb	r4, r4
 655              	.LVL72:
 249:Core/Src/vl53l0x_api_core.c **** 		Status |= VL53L0X_RdByte(Dev, 0x83, &byte);
 656              		.loc 1 249 3 is_stmt 1 view .LVU215
 249:Core/Src/vl53l0x_api_core.c **** 		Status |= VL53L0X_RdByte(Dev, 0x83, &byte);
 657              		.loc 1 249 13 is_stmt 0 view .LVU216
 658 0088 0622     		movs	r2, #6
 659 008a FF21     		movs	r1, #255
 660 008c 2846     		mov	r0, r5
 661 008e FFF7FEFF 		bl	VL53L0X_WrByte
 662              	.LVL73:
 249:Core/Src/vl53l0x_api_core.c **** 		Status |= VL53L0X_RdByte(Dev, 0x83, &byte);
 663              		.loc 1 249 10 view .LVU217
 664 0092 0443     		orrs	r4, r4, r0
 665              	.LVL74:
 249:Core/Src/vl53l0x_api_core.c **** 		Status |= VL53L0X_RdByte(Dev, 0x83, &byte);
 666              		.loc 1 249 10 view .LVU218
 667 0094 64B2     		sxtb	r4, r4
 668              	.LVL75:
 250:Core/Src/vl53l0x_api_core.c **** 		Status |= VL53L0X_WrByte(Dev, 0x83, byte|4);
 669              		.loc 1 250 3 is_stmt 1 view .LVU219
 250:Core/Src/vl53l0x_api_core.c **** 		Status |= VL53L0X_WrByte(Dev, 0x83, byte|4);
 670              		.loc 1 250 13 is_stmt 0 view .LVU220
 671 0096 0DF12F02 		add	r2, sp, #47
 672 009a 8321     		movs	r1, #131
 673 009c 2846     		mov	r0, r5
 674 009e FFF7FEFF 		bl	VL53L0X_RdByte
 675              	.LVL76:
 250:Core/Src/vl53l0x_api_core.c **** 		Status |= VL53L0X_WrByte(Dev, 0x83, byte|4);
 676              		.loc 1 250 10 view .LVU221
 677 00a2 0443     		orrs	r4, r4, r0
 678              	.LVL77:
 250:Core/Src/vl53l0x_api_core.c **** 		Status |= VL53L0X_WrByte(Dev, 0x83, byte|4);
 679              		.loc 1 250 10 view .LVU222
 680 00a4 64B2     		sxtb	r4, r4
 681              	.LVL78:
 251:Core/Src/vl53l0x_api_core.c **** 		Status |= VL53L0X_WrByte(Dev, 0xFF, 0x07);
ARM GAS  C:\Users\anmh1\AppData\Local\Temp\ccrmGbOb.s 			page 21


 682              		.loc 1 251 3 is_stmt 1 view .LVU223
 251:Core/Src/vl53l0x_api_core.c **** 		Status |= VL53L0X_WrByte(Dev, 0xFF, 0x07);
 683              		.loc 1 251 13 is_stmt 0 view .LVU224
 684 00a6 9DF82F20 		ldrb	r2, [sp, #47]	@ zero_extendqisi2
 685 00aa 42F00402 		orr	r2, r2, #4
 686 00ae 8321     		movs	r1, #131
 687 00b0 2846     		mov	r0, r5
 688 00b2 FFF7FEFF 		bl	VL53L0X_WrByte
 689              	.LVL79:
 251:Core/Src/vl53l0x_api_core.c **** 		Status |= VL53L0X_WrByte(Dev, 0xFF, 0x07);
 690              		.loc 1 251 10 view .LVU225
 691 00b6 0443     		orrs	r4, r4, r0
 692              	.LVL80:
 251:Core/Src/vl53l0x_api_core.c **** 		Status |= VL53L0X_WrByte(Dev, 0xFF, 0x07);
 693              		.loc 1 251 10 view .LVU226
 694 00b8 64B2     		sxtb	r4, r4
 695              	.LVL81:
 252:Core/Src/vl53l0x_api_core.c **** 		Status |= VL53L0X_WrByte(Dev, 0x81, 0x01);
 696              		.loc 1 252 3 is_stmt 1 view .LVU227
 252:Core/Src/vl53l0x_api_core.c **** 		Status |= VL53L0X_WrByte(Dev, 0x81, 0x01);
 697              		.loc 1 252 13 is_stmt 0 view .LVU228
 698 00ba 0722     		movs	r2, #7
 699 00bc FF21     		movs	r1, #255
 700 00be 2846     		mov	r0, r5
 701 00c0 FFF7FEFF 		bl	VL53L0X_WrByte
 702              	.LVL82:
 252:Core/Src/vl53l0x_api_core.c **** 		Status |= VL53L0X_WrByte(Dev, 0x81, 0x01);
 703              		.loc 1 252 10 view .LVU229
 704 00c4 0443     		orrs	r4, r4, r0
 705              	.LVL83:
 252:Core/Src/vl53l0x_api_core.c **** 		Status |= VL53L0X_WrByte(Dev, 0x81, 0x01);
 706              		.loc 1 252 10 view .LVU230
 707 00c6 64B2     		sxtb	r4, r4
 708              	.LVL84:
 253:Core/Src/vl53l0x_api_core.c **** 
 709              		.loc 1 253 3 is_stmt 1 view .LVU231
 253:Core/Src/vl53l0x_api_core.c **** 
 710              		.loc 1 253 13 is_stmt 0 view .LVU232
 711 00c8 0122     		movs	r2, #1
 712 00ca 8121     		movs	r1, #129
 713 00cc 2846     		mov	r0, r5
 714 00ce FFF7FEFF 		bl	VL53L0X_WrByte
 715              	.LVL85:
 253:Core/Src/vl53l0x_api_core.c **** 
 716              		.loc 1 253 10 view .LVU233
 717 00d2 0443     		orrs	r4, r4, r0
 718              	.LVL86:
 253:Core/Src/vl53l0x_api_core.c **** 
 719              		.loc 1 253 10 view .LVU234
 720 00d4 64B2     		sxtb	r4, r4
 721              	.LVL87:
 255:Core/Src/vl53l0x_api_core.c **** 
 722              		.loc 1 255 3 is_stmt 1 view .LVU235
 255:Core/Src/vl53l0x_api_core.c **** 
 723              		.loc 1 255 13 is_stmt 0 view .LVU236
 724 00d6 2846     		mov	r0, r5
 725 00d8 FFF7FEFF 		bl	VL53L0X_PollingDelay
ARM GAS  C:\Users\anmh1\AppData\Local\Temp\ccrmGbOb.s 			page 22


 726              	.LVL88:
 255:Core/Src/vl53l0x_api_core.c **** 
 727              		.loc 1 255 10 view .LVU237
 728 00dc 0443     		orrs	r4, r4, r0
 729              	.LVL89:
 255:Core/Src/vl53l0x_api_core.c **** 
 730              		.loc 1 255 10 view .LVU238
 731 00de 64B2     		sxtb	r4, r4
 732              	.LVL90:
 257:Core/Src/vl53l0x_api_core.c **** 
 733              		.loc 1 257 3 is_stmt 1 view .LVU239
 257:Core/Src/vl53l0x_api_core.c **** 
 734              		.loc 1 257 13 is_stmt 0 view .LVU240
 735 00e0 0122     		movs	r2, #1
 736 00e2 8021     		movs	r1, #128
 737 00e4 2846     		mov	r0, r5
 738 00e6 FFF7FEFF 		bl	VL53L0X_WrByte
 739              	.LVL91:
 257:Core/Src/vl53l0x_api_core.c **** 
 740              		.loc 1 257 10 view .LVU241
 741 00ea 0443     		orrs	r4, r4, r0
 742              	.LVL92:
 257:Core/Src/vl53l0x_api_core.c **** 
 743              		.loc 1 257 10 view .LVU242
 744 00ec 64B2     		sxtb	r4, r4
 745              	.LVL93:
 259:Core/Src/vl53l0x_api_core.c **** 			((ReadDataFromDeviceDone & 1) == 0)) {
 746              		.loc 1 259 3 is_stmt 1 view .LVU243
 259:Core/Src/vl53l0x_api_core.c **** 			((ReadDataFromDeviceDone & 1) == 0)) {
 747              		.loc 1 259 6 is_stmt 0 view .LVU244
 748 00ee 16F00109 		ands	r9, r6, #1
 749 00f2 5BD0     		beq	.L50
 259:Core/Src/vl53l0x_api_core.c **** 			((ReadDataFromDeviceDone & 1) == 0)) {
 750              		.loc 1 259 27 discriminator 1 view .LVU245
 751 00f4 17F0010F 		tst	r7, #1
 752 00f8 03D0     		beq	.L57
 220:Core/Src/vl53l0x_api_core.c **** 	uint32_t PartUIDUpper = 0;
 753              		.loc 1 220 10 view .LVU246
 754 00fa 4FF0000A 		mov	r10, #0
 219:Core/Src/vl53l0x_api_core.c **** 	uint8_t ReferenceSpadType = 0;
 755              		.loc 1 219 10 view .LVU247
 756 00fe D146     		mov	r9, r10
 757 0100 55E0     		b	.L39
 758              	.L57:
 261:Core/Src/vl53l0x_api_core.c **** 			Status |= VL53L0X_device_read_strobe(Dev);
 759              		.loc 1 261 4 is_stmt 1 view .LVU248
 261:Core/Src/vl53l0x_api_core.c **** 			Status |= VL53L0X_device_read_strobe(Dev);
 760              		.loc 1 261 14 is_stmt 0 view .LVU249
 761 0102 6B22     		movs	r2, #107
 762 0104 9421     		movs	r1, #148
 763 0106 2846     		mov	r0, r5
 764 0108 FFF7FEFF 		bl	VL53L0X_WrByte
 765              	.LVL94:
 261:Core/Src/vl53l0x_api_core.c **** 			Status |= VL53L0X_device_read_strobe(Dev);
 766              		.loc 1 261 11 view .LVU250
 767 010c 0443     		orrs	r4, r4, r0
 768              	.LVL95:
ARM GAS  C:\Users\anmh1\AppData\Local\Temp\ccrmGbOb.s 			page 23


 261:Core/Src/vl53l0x_api_core.c **** 			Status |= VL53L0X_device_read_strobe(Dev);
 769              		.loc 1 261 11 view .LVU251
 770 010e 64B2     		sxtb	r4, r4
 771              	.LVL96:
 262:Core/Src/vl53l0x_api_core.c **** 			Status |= VL53L0X_RdDWord(Dev, 0x90, &TmpDWord);
 772              		.loc 1 262 4 is_stmt 1 view .LVU252
 262:Core/Src/vl53l0x_api_core.c **** 			Status |= VL53L0X_RdDWord(Dev, 0x90, &TmpDWord);
 773              		.loc 1 262 14 is_stmt 0 view .LVU253
 774 0110 2846     		mov	r0, r5
 775 0112 FFF7FEFF 		bl	VL53L0X_device_read_strobe
 776              	.LVL97:
 262:Core/Src/vl53l0x_api_core.c **** 			Status |= VL53L0X_RdDWord(Dev, 0x90, &TmpDWord);
 777              		.loc 1 262 11 view .LVU254
 778 0116 0443     		orrs	r4, r4, r0
 779              	.LVL98:
 262:Core/Src/vl53l0x_api_core.c **** 			Status |= VL53L0X_RdDWord(Dev, 0x90, &TmpDWord);
 780              		.loc 1 262 11 view .LVU255
 781 0118 64B2     		sxtb	r4, r4
 782              	.LVL99:
 263:Core/Src/vl53l0x_api_core.c **** 
 783              		.loc 1 263 4 is_stmt 1 view .LVU256
 263:Core/Src/vl53l0x_api_core.c **** 
 784              		.loc 1 263 14 is_stmt 0 view .LVU257
 785 011a 0AAA     		add	r2, sp, #40
 786 011c 9021     		movs	r1, #144
 787 011e 2846     		mov	r0, r5
 788 0120 FFF7FEFF 		bl	VL53L0X_RdDWord
 789              	.LVL100:
 263:Core/Src/vl53l0x_api_core.c **** 
 790              		.loc 1 263 11 view .LVU258
 791 0124 0443     		orrs	r4, r4, r0
 792              	.LVL101:
 263:Core/Src/vl53l0x_api_core.c **** 
 793              		.loc 1 263 11 view .LVU259
 794 0126 64B2     		sxtb	r4, r4
 795              	.LVL102:
 265:Core/Src/vl53l0x_api_core.c **** 			ReferenceSpadType  = (uint8_t)((TmpDWord >> 15) & 0x01);
 796              		.loc 1 265 4 is_stmt 1 view .LVU260
 265:Core/Src/vl53l0x_api_core.c **** 			ReferenceSpadType  = (uint8_t)((TmpDWord >> 15) & 0x01);
 797              		.loc 1 265 45 is_stmt 0 view .LVU261
 798 0128 0A9B     		ldr	r3, [sp, #40]
 265:Core/Src/vl53l0x_api_core.c **** 			ReferenceSpadType  = (uint8_t)((TmpDWord >> 15) & 0x01);
 799              		.loc 1 265 23 view .LVU262
 800 012a C3F30629 		ubfx	r9, r3, #8, #7
 801              	.LVL103:
 266:Core/Src/vl53l0x_api_core.c **** 
 802              		.loc 1 266 4 is_stmt 1 view .LVU263
 266:Core/Src/vl53l0x_api_core.c **** 
 803              		.loc 1 266 23 is_stmt 0 view .LVU264
 804 012e C3F3C03A 		ubfx	r10, r3, #15, #1
 805              	.LVL104:
 268:Core/Src/vl53l0x_api_core.c **** 			Status |= VL53L0X_device_read_strobe(Dev);
 806              		.loc 1 268 4 is_stmt 1 view .LVU265
 268:Core/Src/vl53l0x_api_core.c **** 			Status |= VL53L0X_device_read_strobe(Dev);
 807              		.loc 1 268 14 is_stmt 0 view .LVU266
 808 0132 2422     		movs	r2, #36
 809 0134 9421     		movs	r1, #148
ARM GAS  C:\Users\anmh1\AppData\Local\Temp\ccrmGbOb.s 			page 24


 810 0136 2846     		mov	r0, r5
 811 0138 FFF7FEFF 		bl	VL53L0X_WrByte
 812              	.LVL105:
 268:Core/Src/vl53l0x_api_core.c **** 			Status |= VL53L0X_device_read_strobe(Dev);
 813              		.loc 1 268 11 view .LVU267
 814 013c 0443     		orrs	r4, r4, r0
 815              	.LVL106:
 268:Core/Src/vl53l0x_api_core.c **** 			Status |= VL53L0X_device_read_strobe(Dev);
 816              		.loc 1 268 11 view .LVU268
 817 013e 64B2     		sxtb	r4, r4
 818              	.LVL107:
 269:Core/Src/vl53l0x_api_core.c **** 			Status |= VL53L0X_RdDWord(Dev, 0x90, &TmpDWord);
 819              		.loc 1 269 4 is_stmt 1 view .LVU269
 269:Core/Src/vl53l0x_api_core.c **** 			Status |= VL53L0X_RdDWord(Dev, 0x90, &TmpDWord);
 820              		.loc 1 269 14 is_stmt 0 view .LVU270
 821 0140 2846     		mov	r0, r5
 822 0142 FFF7FEFF 		bl	VL53L0X_device_read_strobe
 823              	.LVL108:
 269:Core/Src/vl53l0x_api_core.c **** 			Status |= VL53L0X_RdDWord(Dev, 0x90, &TmpDWord);
 824              		.loc 1 269 11 view .LVU271
 825 0146 0443     		orrs	r4, r4, r0
 826              	.LVL109:
 269:Core/Src/vl53l0x_api_core.c **** 			Status |= VL53L0X_RdDWord(Dev, 0x90, &TmpDWord);
 827              		.loc 1 269 11 view .LVU272
 828 0148 64B2     		sxtb	r4, r4
 829              	.LVL110:
 270:Core/Src/vl53l0x_api_core.c **** 
 830              		.loc 1 270 4 is_stmt 1 view .LVU273
 270:Core/Src/vl53l0x_api_core.c **** 
 831              		.loc 1 270 14 is_stmt 0 view .LVU274
 832 014a 0AAA     		add	r2, sp, #40
 833 014c 9021     		movs	r1, #144
 834 014e 2846     		mov	r0, r5
 835 0150 FFF7FEFF 		bl	VL53L0X_RdDWord
 836              	.LVL111:
 270:Core/Src/vl53l0x_api_core.c **** 
 837              		.loc 1 270 11 view .LVU275
 838 0154 0443     		orrs	r4, r4, r0
 839              	.LVL112:
 270:Core/Src/vl53l0x_api_core.c **** 
 840              		.loc 1 270 11 view .LVU276
 841 0156 64B2     		sxtb	r4, r4
 842              	.LVL113:
 273:Core/Src/vl53l0x_api_core.c **** 				& 0xff);
 843              		.loc 1 273 4 is_stmt 1 view .LVU277
 273:Core/Src/vl53l0x_api_core.c **** 				& 0xff);
 844              		.loc 1 273 47 is_stmt 0 view .LVU278
 845 0158 0A9B     		ldr	r3, [sp, #40]
 273:Core/Src/vl53l0x_api_core.c **** 				& 0xff);
 846              		.loc 1 273 27 view .LVU279
 847 015a 1A0E     		lsrs	r2, r3, #24
 273:Core/Src/vl53l0x_api_core.c **** 				& 0xff);
 848              		.loc 1 273 25 view .LVU280
 849 015c 8DF80020 		strb	r2, [sp]
 275:Core/Src/vl53l0x_api_core.c **** 				& 0xff);
 850              		.loc 1 275 4 is_stmt 1 view .LVU281
 275:Core/Src/vl53l0x_api_core.c **** 				& 0xff);
ARM GAS  C:\Users\anmh1\AppData\Local\Temp\ccrmGbOb.s 			page 25


 851              		.loc 1 275 27 is_stmt 0 view .LVU282
 852 0160 C3F30742 		ubfx	r2, r3, #16, #8
 275:Core/Src/vl53l0x_api_core.c **** 				& 0xff);
 853              		.loc 1 275 25 view .LVU283
 854 0164 8DF80120 		strb	r2, [sp, #1]
 277:Core/Src/vl53l0x_api_core.c **** 				& 0xff);
 855              		.loc 1 277 4 is_stmt 1 view .LVU284
 277:Core/Src/vl53l0x_api_core.c **** 				& 0xff);
 856              		.loc 1 277 27 is_stmt 0 view .LVU285
 857 0168 C3F30722 		ubfx	r2, r3, #8, #8
 277:Core/Src/vl53l0x_api_core.c **** 				& 0xff);
 858              		.loc 1 277 25 view .LVU286
 859 016c 8DF80220 		strb	r2, [sp, #2]
 279:Core/Src/vl53l0x_api_core.c **** 
 860              		.loc 1 279 4 is_stmt 1 view .LVU287
 279:Core/Src/vl53l0x_api_core.c **** 
 861              		.loc 1 279 25 is_stmt 0 view .LVU288
 862 0170 8DF80330 		strb	r3, [sp, #3]
 281:Core/Src/vl53l0x_api_core.c **** 			Status |= VL53L0X_device_read_strobe(Dev);
 863              		.loc 1 281 4 is_stmt 1 view .LVU289
 281:Core/Src/vl53l0x_api_core.c **** 			Status |= VL53L0X_device_read_strobe(Dev);
 864              		.loc 1 281 14 is_stmt 0 view .LVU290
 865 0174 2522     		movs	r2, #37
 866 0176 9421     		movs	r1, #148
 867 0178 2846     		mov	r0, r5
 868 017a FFF7FEFF 		bl	VL53L0X_WrByte
 869              	.LVL114:
 281:Core/Src/vl53l0x_api_core.c **** 			Status |= VL53L0X_device_read_strobe(Dev);
 870              		.loc 1 281 11 view .LVU291
 871 017e 0443     		orrs	r4, r4, r0
 872              	.LVL115:
 281:Core/Src/vl53l0x_api_core.c **** 			Status |= VL53L0X_device_read_strobe(Dev);
 873              		.loc 1 281 11 view .LVU292
 874 0180 64B2     		sxtb	r4, r4
 875              	.LVL116:
 282:Core/Src/vl53l0x_api_core.c **** 			Status |= VL53L0X_RdDWord(Dev, 0x90, &TmpDWord);
 876              		.loc 1 282 4 is_stmt 1 view .LVU293
 282:Core/Src/vl53l0x_api_core.c **** 			Status |= VL53L0X_RdDWord(Dev, 0x90, &TmpDWord);
 877              		.loc 1 282 14 is_stmt 0 view .LVU294
 878 0182 2846     		mov	r0, r5
 879 0184 FFF7FEFF 		bl	VL53L0X_device_read_strobe
 880              	.LVL117:
 282:Core/Src/vl53l0x_api_core.c **** 			Status |= VL53L0X_RdDWord(Dev, 0x90, &TmpDWord);
 881              		.loc 1 282 11 view .LVU295
 882 0188 0443     		orrs	r4, r4, r0
 883              	.LVL118:
 282:Core/Src/vl53l0x_api_core.c **** 			Status |= VL53L0X_RdDWord(Dev, 0x90, &TmpDWord);
 884              		.loc 1 282 11 view .LVU296
 885 018a 64B2     		sxtb	r4, r4
 886              	.LVL119:
 283:Core/Src/vl53l0x_api_core.c **** 
 887              		.loc 1 283 4 is_stmt 1 view .LVU297
 283:Core/Src/vl53l0x_api_core.c **** 
 888              		.loc 1 283 14 is_stmt 0 view .LVU298
 889 018c 0AAA     		add	r2, sp, #40
 890 018e 9021     		movs	r1, #144
 891 0190 2846     		mov	r0, r5
ARM GAS  C:\Users\anmh1\AppData\Local\Temp\ccrmGbOb.s 			page 26


 892 0192 FFF7FEFF 		bl	VL53L0X_RdDWord
 893              	.LVL120:
 283:Core/Src/vl53l0x_api_core.c **** 
 894              		.loc 1 283 11 view .LVU299
 895 0196 0443     		orrs	r4, r4, r0
 896              	.LVL121:
 283:Core/Src/vl53l0x_api_core.c **** 
 897              		.loc 1 283 11 view .LVU300
 898 0198 64B2     		sxtb	r4, r4
 899              	.LVL122:
 285:Core/Src/vl53l0x_api_core.c **** 				& 0xff);
 900              		.loc 1 285 4 is_stmt 1 view .LVU301
 285:Core/Src/vl53l0x_api_core.c **** 				& 0xff);
 901              		.loc 1 285 47 is_stmt 0 view .LVU302
 902 019a 0A9B     		ldr	r3, [sp, #40]
 285:Core/Src/vl53l0x_api_core.c **** 				& 0xff);
 903              		.loc 1 285 27 view .LVU303
 904 019c 1A0E     		lsrs	r2, r3, #24
 285:Core/Src/vl53l0x_api_core.c **** 				& 0xff);
 905              		.loc 1 285 25 view .LVU304
 906 019e 8DF80420 		strb	r2, [sp, #4]
 287:Core/Src/vl53l0x_api_core.c **** 				& 0xff);
 907              		.loc 1 287 4 is_stmt 1 view .LVU305
 287:Core/Src/vl53l0x_api_core.c **** 				& 0xff);
 908              		.loc 1 287 27 is_stmt 0 view .LVU306
 909 01a2 C3F30743 		ubfx	r3, r3, #16, #8
 287:Core/Src/vl53l0x_api_core.c **** 				& 0xff);
 910              		.loc 1 287 25 view .LVU307
 911 01a6 8DF80530 		strb	r3, [sp, #5]
 912 01aa 00E0     		b	.L39
 913              	.LVL123:
 914              	.L50:
 220:Core/Src/vl53l0x_api_core.c **** 	uint32_t PartUIDUpper = 0;
 915              		.loc 1 220 10 view .LVU308
 916 01ac CA46     		mov	r10, r9
 917              	.LVL124:
 918              	.L39:
 291:Core/Src/vl53l0x_api_core.c **** 			((ReadDataFromDeviceDone & 2) == 0)) {
 919              		.loc 1 291 3 is_stmt 1 view .LVU309
 291:Core/Src/vl53l0x_api_core.c **** 			((ReadDataFromDeviceDone & 2) == 0)) {
 920              		.loc 1 291 6 is_stmt 0 view .LVU310
 921 01ae 16F0020F 		tst	r6, #2
 922 01b2 02D0     		beq	.L40
 291:Core/Src/vl53l0x_api_core.c **** 			((ReadDataFromDeviceDone & 2) == 0)) {
 923              		.loc 1 291 27 discriminator 1 view .LVU311
 924 01b4 17F0020F 		tst	r7, #2
 925 01b8 0BD0     		beq	.L58
 926              	.L40:
 356:Core/Src/vl53l0x_api_core.c **** 			((ReadDataFromDeviceDone & 4) == 0)) {
 927              		.loc 1 356 3 is_stmt 1 view .LVU312
 356:Core/Src/vl53l0x_api_core.c **** 			((ReadDataFromDeviceDone & 4) == 0)) {
 928              		.loc 1 356 6 is_stmt 0 view .LVU313
 929 01ba 16F0040F 		tst	r6, #4
 930 01be 00F06581 		beq	.L52
 356:Core/Src/vl53l0x_api_core.c **** 			((ReadDataFromDeviceDone & 4) == 0)) {
 931              		.loc 1 356 27 discriminator 1 view .LVU314
 932 01c2 17F0040F 		tst	r7, #4
ARM GAS  C:\Users\anmh1\AppData\Local\Temp\ccrmGbOb.s 			page 27


 933 01c6 00F0DC80 		beq	.L59
 227:Core/Src/vl53l0x_api_core.c **** 	char ProductId[19];
 934              		.loc 1 227 11 view .LVU315
 935 01ca 4FF00008 		mov	r8, #0
 226:Core/Src/vl53l0x_api_core.c **** 	uint32_t SignalRateMeasFixed1104_400_mm = 0;
 936              		.loc 1 226 11 view .LVU316
 937 01ce C346     		mov	fp, r8
 938 01d0 5FE1     		b	.L41
 939              	.L58:
 294:Core/Src/vl53l0x_api_core.c **** 			Status |= VL53L0X_device_read_strobe(Dev);
 940              		.loc 1 294 4 is_stmt 1 view .LVU317
 294:Core/Src/vl53l0x_api_core.c **** 			Status |= VL53L0X_device_read_strobe(Dev);
 941              		.loc 1 294 14 is_stmt 0 view .LVU318
 942 01d2 0222     		movs	r2, #2
 943 01d4 9421     		movs	r1, #148
 944 01d6 2846     		mov	r0, r5
 945 01d8 FFF7FEFF 		bl	VL53L0X_WrByte
 946              	.LVL125:
 294:Core/Src/vl53l0x_api_core.c **** 			Status |= VL53L0X_device_read_strobe(Dev);
 947              		.loc 1 294 11 view .LVU319
 948 01dc 0443     		orrs	r4, r4, r0
 949              	.LVL126:
 294:Core/Src/vl53l0x_api_core.c **** 			Status |= VL53L0X_device_read_strobe(Dev);
 950              		.loc 1 294 11 view .LVU320
 951 01de 64B2     		sxtb	r4, r4
 952              	.LVL127:
 295:Core/Src/vl53l0x_api_core.c **** 			Status |= VL53L0X_RdByte(Dev, 0x90, &ModuleId);
 953              		.loc 1 295 4 is_stmt 1 view .LVU321
 295:Core/Src/vl53l0x_api_core.c **** 			Status |= VL53L0X_RdByte(Dev, 0x90, &ModuleId);
 954              		.loc 1 295 14 is_stmt 0 view .LVU322
 955 01e0 2846     		mov	r0, r5
 956 01e2 FFF7FEFF 		bl	VL53L0X_device_read_strobe
 957              	.LVL128:
 295:Core/Src/vl53l0x_api_core.c **** 			Status |= VL53L0X_RdByte(Dev, 0x90, &ModuleId);
 958              		.loc 1 295 11 view .LVU323
 959 01e6 0443     		orrs	r4, r4, r0
 960              	.LVL129:
 295:Core/Src/vl53l0x_api_core.c **** 			Status |= VL53L0X_RdByte(Dev, 0x90, &ModuleId);
 961              		.loc 1 295 11 view .LVU324
 962 01e8 64B2     		sxtb	r4, r4
 963              	.LVL130:
 296:Core/Src/vl53l0x_api_core.c **** 
 964              		.loc 1 296 4 is_stmt 1 view .LVU325
 296:Core/Src/vl53l0x_api_core.c **** 
 965              		.loc 1 296 14 is_stmt 0 view .LVU326
 966 01ea 0DF12702 		add	r2, sp, #39
 967 01ee 9021     		movs	r1, #144
 968 01f0 2846     		mov	r0, r5
 969 01f2 FFF7FEFF 		bl	VL53L0X_RdByte
 970              	.LVL131:
 296:Core/Src/vl53l0x_api_core.c **** 
 971              		.loc 1 296 11 view .LVU327
 972 01f6 0443     		orrs	r4, r4, r0
 973              	.LVL132:
 296:Core/Src/vl53l0x_api_core.c **** 
 974              		.loc 1 296 11 view .LVU328
 975 01f8 64B2     		sxtb	r4, r4
ARM GAS  C:\Users\anmh1\AppData\Local\Temp\ccrmGbOb.s 			page 28


 976              	.LVL133:
 298:Core/Src/vl53l0x_api_core.c **** 			Status |= VL53L0X_device_read_strobe(Dev);
 977              		.loc 1 298 4 is_stmt 1 view .LVU329
 298:Core/Src/vl53l0x_api_core.c **** 			Status |= VL53L0X_device_read_strobe(Dev);
 978              		.loc 1 298 14 is_stmt 0 view .LVU330
 979 01fa 7B22     		movs	r2, #123
 980 01fc 9421     		movs	r1, #148
 981 01fe 2846     		mov	r0, r5
 982 0200 FFF7FEFF 		bl	VL53L0X_WrByte
 983              	.LVL134:
 298:Core/Src/vl53l0x_api_core.c **** 			Status |= VL53L0X_device_read_strobe(Dev);
 984              		.loc 1 298 11 view .LVU331
 985 0204 0443     		orrs	r4, r4, r0
 986              	.LVL135:
 298:Core/Src/vl53l0x_api_core.c **** 			Status |= VL53L0X_device_read_strobe(Dev);
 987              		.loc 1 298 11 view .LVU332
 988 0206 64B2     		sxtb	r4, r4
 989              	.LVL136:
 299:Core/Src/vl53l0x_api_core.c **** 			Status |= VL53L0X_RdByte(Dev, 0x90, &Revision);
 990              		.loc 1 299 4 is_stmt 1 view .LVU333
 299:Core/Src/vl53l0x_api_core.c **** 			Status |= VL53L0X_RdByte(Dev, 0x90, &Revision);
 991              		.loc 1 299 14 is_stmt 0 view .LVU334
 992 0208 2846     		mov	r0, r5
 993 020a FFF7FEFF 		bl	VL53L0X_device_read_strobe
 994              	.LVL137:
 299:Core/Src/vl53l0x_api_core.c **** 			Status |= VL53L0X_RdByte(Dev, 0x90, &Revision);
 995              		.loc 1 299 11 view .LVU335
 996 020e 0443     		orrs	r4, r4, r0
 997              	.LVL138:
 299:Core/Src/vl53l0x_api_core.c **** 			Status |= VL53L0X_RdByte(Dev, 0x90, &Revision);
 998              		.loc 1 299 11 view .LVU336
 999 0210 64B2     		sxtb	r4, r4
 1000              	.LVL139:
 300:Core/Src/vl53l0x_api_core.c **** 
 1001              		.loc 1 300 4 is_stmt 1 view .LVU337
 300:Core/Src/vl53l0x_api_core.c **** 
 1002              		.loc 1 300 14 is_stmt 0 view .LVU338
 1003 0212 0DF12602 		add	r2, sp, #38
 1004 0216 9021     		movs	r1, #144
 1005 0218 2846     		mov	r0, r5
 1006 021a FFF7FEFF 		bl	VL53L0X_RdByte
 1007              	.LVL140:
 300:Core/Src/vl53l0x_api_core.c **** 
 1008              		.loc 1 300 11 view .LVU339
 1009 021e 0443     		orrs	r4, r4, r0
 1010              	.LVL141:
 300:Core/Src/vl53l0x_api_core.c **** 
 1011              		.loc 1 300 11 view .LVU340
 1012 0220 64B2     		sxtb	r4, r4
 1013              	.LVL142:
 302:Core/Src/vl53l0x_api_core.c **** 			Status |= VL53L0X_device_read_strobe(Dev);
 1014              		.loc 1 302 4 is_stmt 1 view .LVU341
 302:Core/Src/vl53l0x_api_core.c **** 			Status |= VL53L0X_device_read_strobe(Dev);
 1015              		.loc 1 302 14 is_stmt 0 view .LVU342
 1016 0222 7722     		movs	r2, #119
 1017 0224 9421     		movs	r1, #148
 1018 0226 2846     		mov	r0, r5
ARM GAS  C:\Users\anmh1\AppData\Local\Temp\ccrmGbOb.s 			page 29


 1019 0228 FFF7FEFF 		bl	VL53L0X_WrByte
 1020              	.LVL143:
 302:Core/Src/vl53l0x_api_core.c **** 			Status |= VL53L0X_device_read_strobe(Dev);
 1021              		.loc 1 302 11 view .LVU343
 1022 022c 0443     		orrs	r4, r4, r0
 1023              	.LVL144:
 302:Core/Src/vl53l0x_api_core.c **** 			Status |= VL53L0X_device_read_strobe(Dev);
 1024              		.loc 1 302 11 view .LVU344
 1025 022e 64B2     		sxtb	r4, r4
 1026              	.LVL145:
 303:Core/Src/vl53l0x_api_core.c **** 			Status |= VL53L0X_RdDWord(Dev, 0x90, &TmpDWord);
 1027              		.loc 1 303 4 is_stmt 1 view .LVU345
 303:Core/Src/vl53l0x_api_core.c **** 			Status |= VL53L0X_RdDWord(Dev, 0x90, &TmpDWord);
 1028              		.loc 1 303 14 is_stmt 0 view .LVU346
 1029 0230 2846     		mov	r0, r5
 1030 0232 FFF7FEFF 		bl	VL53L0X_device_read_strobe
 1031              	.LVL146:
 303:Core/Src/vl53l0x_api_core.c **** 			Status |= VL53L0X_RdDWord(Dev, 0x90, &TmpDWord);
 1032              		.loc 1 303 11 view .LVU347
 1033 0236 0443     		orrs	r4, r4, r0
 1034              	.LVL147:
 303:Core/Src/vl53l0x_api_core.c **** 			Status |= VL53L0X_RdDWord(Dev, 0x90, &TmpDWord);
 1035              		.loc 1 303 11 view .LVU348
 1036 0238 64B2     		sxtb	r4, r4
 1037              	.LVL148:
 304:Core/Src/vl53l0x_api_core.c **** 
 1038              		.loc 1 304 4 is_stmt 1 view .LVU349
 304:Core/Src/vl53l0x_api_core.c **** 
 1039              		.loc 1 304 14 is_stmt 0 view .LVU350
 1040 023a 0AAA     		add	r2, sp, #40
 1041 023c 9021     		movs	r1, #144
 1042 023e 2846     		mov	r0, r5
 1043 0240 FFF7FEFF 		bl	VL53L0X_RdDWord
 1044              	.LVL149:
 304:Core/Src/vl53l0x_api_core.c **** 
 1045              		.loc 1 304 11 view .LVU351
 1046 0244 0443     		orrs	r4, r4, r0
 1047              	.LVL150:
 304:Core/Src/vl53l0x_api_core.c **** 
 1048              		.loc 1 304 11 view .LVU352
 1049 0246 64B2     		sxtb	r4, r4
 1050              	.LVL151:
 306:Core/Src/vl53l0x_api_core.c **** 			ProductId[1] = (char)((TmpDWord >> 18) & 0x07f);
 1051              		.loc 1 306 4 is_stmt 1 view .LVU353
 306:Core/Src/vl53l0x_api_core.c **** 			ProductId[1] = (char)((TmpDWord >> 18) & 0x07f);
 1052              		.loc 1 306 36 is_stmt 0 view .LVU354
 1053 0248 0A9B     		ldr	r3, [sp, #40]
 306:Core/Src/vl53l0x_api_core.c **** 			ProductId[1] = (char)((TmpDWord >> 18) & 0x07f);
 1054              		.loc 1 306 19 view .LVU355
 1055 024a 5A0E     		lsrs	r2, r3, #25
 306:Core/Src/vl53l0x_api_core.c **** 			ProductId[1] = (char)((TmpDWord >> 18) & 0x07f);
 1056              		.loc 1 306 17 view .LVU356
 1057 024c 8DF80820 		strb	r2, [sp, #8]
 307:Core/Src/vl53l0x_api_core.c **** 			ProductId[2] = (char)((TmpDWord >> 11) & 0x07f);
 1058              		.loc 1 307 4 is_stmt 1 view .LVU357
 307:Core/Src/vl53l0x_api_core.c **** 			ProductId[2] = (char)((TmpDWord >> 11) & 0x07f);
 1059              		.loc 1 307 19 is_stmt 0 view .LVU358
ARM GAS  C:\Users\anmh1\AppData\Local\Temp\ccrmGbOb.s 			page 30


 1060 0250 C3F38642 		ubfx	r2, r3, #18, #7
 307:Core/Src/vl53l0x_api_core.c **** 			ProductId[2] = (char)((TmpDWord >> 11) & 0x07f);
 1061              		.loc 1 307 17 view .LVU359
 1062 0254 8DF80920 		strb	r2, [sp, #9]
 308:Core/Src/vl53l0x_api_core.c **** 			ProductId[3] = (char)((TmpDWord >> 4) & 0x07f);
 1063              		.loc 1 308 4 is_stmt 1 view .LVU360
 308:Core/Src/vl53l0x_api_core.c **** 			ProductId[3] = (char)((TmpDWord >> 4) & 0x07f);
 1064              		.loc 1 308 19 is_stmt 0 view .LVU361
 1065 0258 C3F3C622 		ubfx	r2, r3, #11, #7
 308:Core/Src/vl53l0x_api_core.c **** 			ProductId[3] = (char)((TmpDWord >> 4) & 0x07f);
 1066              		.loc 1 308 17 view .LVU362
 1067 025c 8DF80A20 		strb	r2, [sp, #10]
 309:Core/Src/vl53l0x_api_core.c **** 
 1068              		.loc 1 309 4 is_stmt 1 view .LVU363
 309:Core/Src/vl53l0x_api_core.c **** 
 1069              		.loc 1 309 19 is_stmt 0 view .LVU364
 1070 0260 C3F30612 		ubfx	r2, r3, #4, #7
 309:Core/Src/vl53l0x_api_core.c **** 
 1071              		.loc 1 309 17 view .LVU365
 1072 0264 8DF80B20 		strb	r2, [sp, #11]
 311:Core/Src/vl53l0x_api_core.c **** 
 1073              		.loc 1 311 4 is_stmt 1 view .LVU366
 311:Core/Src/vl53l0x_api_core.c **** 
 1074              		.loc 1 311 40 is_stmt 0 view .LVU367
 1075 0268 DB00     		lsls	r3, r3, #3
 311:Core/Src/vl53l0x_api_core.c **** 
 1076              		.loc 1 311 11 view .LVU368
 1077 026a 03F07803 		and	r3, r3, #120
 311:Core/Src/vl53l0x_api_core.c **** 
 1078              		.loc 1 311 9 view .LVU369
 1079 026e 8DF82F30 		strb	r3, [sp, #47]
 313:Core/Src/vl53l0x_api_core.c **** 			Status |= VL53L0X_device_read_strobe(Dev);
 1080              		.loc 1 313 4 is_stmt 1 view .LVU370
 313:Core/Src/vl53l0x_api_core.c **** 			Status |= VL53L0X_device_read_strobe(Dev);
 1081              		.loc 1 313 14 is_stmt 0 view .LVU371
 1082 0272 7822     		movs	r2, #120
 1083 0274 9421     		movs	r1, #148
 1084 0276 2846     		mov	r0, r5
 1085 0278 FFF7FEFF 		bl	VL53L0X_WrByte
 1086              	.LVL152:
 313:Core/Src/vl53l0x_api_core.c **** 			Status |= VL53L0X_device_read_strobe(Dev);
 1087              		.loc 1 313 11 view .LVU372
 1088 027c 0443     		orrs	r4, r4, r0
 1089              	.LVL153:
 313:Core/Src/vl53l0x_api_core.c **** 			Status |= VL53L0X_device_read_strobe(Dev);
 1090              		.loc 1 313 11 view .LVU373
 1091 027e 64B2     		sxtb	r4, r4
 1092              	.LVL154:
 314:Core/Src/vl53l0x_api_core.c **** 			Status |= VL53L0X_RdDWord(Dev, 0x90, &TmpDWord);
 1093              		.loc 1 314 4 is_stmt 1 view .LVU374
 314:Core/Src/vl53l0x_api_core.c **** 			Status |= VL53L0X_RdDWord(Dev, 0x90, &TmpDWord);
 1094              		.loc 1 314 14 is_stmt 0 view .LVU375
 1095 0280 2846     		mov	r0, r5
 1096 0282 FFF7FEFF 		bl	VL53L0X_device_read_strobe
 1097              	.LVL155:
 314:Core/Src/vl53l0x_api_core.c **** 			Status |= VL53L0X_RdDWord(Dev, 0x90, &TmpDWord);
 1098              		.loc 1 314 11 view .LVU376
ARM GAS  C:\Users\anmh1\AppData\Local\Temp\ccrmGbOb.s 			page 31


 1099 0286 0443     		orrs	r4, r4, r0
 1100              	.LVL156:
 314:Core/Src/vl53l0x_api_core.c **** 			Status |= VL53L0X_RdDWord(Dev, 0x90, &TmpDWord);
 1101              		.loc 1 314 11 view .LVU377
 1102 0288 64B2     		sxtb	r4, r4
 1103              	.LVL157:
 315:Core/Src/vl53l0x_api_core.c **** 
 1104              		.loc 1 315 4 is_stmt 1 view .LVU378
 315:Core/Src/vl53l0x_api_core.c **** 
 1105              		.loc 1 315 14 is_stmt 0 view .LVU379
 1106 028a 0AAA     		add	r2, sp, #40
 1107 028c 9021     		movs	r1, #144
 1108 028e 2846     		mov	r0, r5
 1109 0290 FFF7FEFF 		bl	VL53L0X_RdDWord
 1110              	.LVL158:
 315:Core/Src/vl53l0x_api_core.c **** 
 1111              		.loc 1 315 11 view .LVU380
 1112 0294 0443     		orrs	r4, r4, r0
 1113              	.LVL159:
 315:Core/Src/vl53l0x_api_core.c **** 
 1114              		.loc 1 315 11 view .LVU381
 1115 0296 64B2     		sxtb	r4, r4
 1116              	.LVL160:
 317:Core/Src/vl53l0x_api_core.c **** 					((TmpDWord >> 29) & 0x07f));
 1117              		.loc 1 317 4 is_stmt 1 view .LVU382
 318:Core/Src/vl53l0x_api_core.c **** 			ProductId[5] = (char)((TmpDWord >> 22) & 0x07f);
 1118              		.loc 1 318 17 is_stmt 0 view .LVU383
 1119 0298 0A9B     		ldr	r3, [sp, #40]
 317:Core/Src/vl53l0x_api_core.c **** 					((TmpDWord >> 29) & 0x07f));
 1120              		.loc 1 317 19 view .LVU384
 1121 029a 9DF82F20 		ldrb	r2, [sp, #47]	@ zero_extendqisi2
 1122 029e 02EB5372 		add	r2, r2, r3, lsr #29
 317:Core/Src/vl53l0x_api_core.c **** 					((TmpDWord >> 29) & 0x07f));
 1123              		.loc 1 317 17 view .LVU385
 1124 02a2 8DF80C20 		strb	r2, [sp, #12]
 319:Core/Src/vl53l0x_api_core.c **** 			ProductId[6] = (char)((TmpDWord >> 15) & 0x07f);
 1125              		.loc 1 319 4 is_stmt 1 view .LVU386
 319:Core/Src/vl53l0x_api_core.c **** 			ProductId[6] = (char)((TmpDWord >> 15) & 0x07f);
 1126              		.loc 1 319 19 is_stmt 0 view .LVU387
 1127 02a6 C3F38652 		ubfx	r2, r3, #22, #7
 319:Core/Src/vl53l0x_api_core.c **** 			ProductId[6] = (char)((TmpDWord >> 15) & 0x07f);
 1128              		.loc 1 319 17 view .LVU388
 1129 02aa 8DF80D20 		strb	r2, [sp, #13]
 320:Core/Src/vl53l0x_api_core.c **** 			ProductId[7] = (char)((TmpDWord >> 8) & 0x07f);
 1130              		.loc 1 320 4 is_stmt 1 view .LVU389
 320:Core/Src/vl53l0x_api_core.c **** 			ProductId[7] = (char)((TmpDWord >> 8) & 0x07f);
 1131              		.loc 1 320 19 is_stmt 0 view .LVU390
 1132 02ae C3F3C632 		ubfx	r2, r3, #15, #7
 320:Core/Src/vl53l0x_api_core.c **** 			ProductId[7] = (char)((TmpDWord >> 8) & 0x07f);
 1133              		.loc 1 320 17 view .LVU391
 1134 02b2 8DF80E20 		strb	r2, [sp, #14]
 321:Core/Src/vl53l0x_api_core.c **** 			ProductId[8] = (char)((TmpDWord >> 1) & 0x07f);
 1135              		.loc 1 321 4 is_stmt 1 view .LVU392
 321:Core/Src/vl53l0x_api_core.c **** 			ProductId[8] = (char)((TmpDWord >> 1) & 0x07f);
 1136              		.loc 1 321 19 is_stmt 0 view .LVU393
 1137 02b6 C3F30622 		ubfx	r2, r3, #8, #7
 321:Core/Src/vl53l0x_api_core.c **** 			ProductId[8] = (char)((TmpDWord >> 1) & 0x07f);
ARM GAS  C:\Users\anmh1\AppData\Local\Temp\ccrmGbOb.s 			page 32


 1138              		.loc 1 321 17 view .LVU394
 1139 02ba 8DF80F20 		strb	r2, [sp, #15]
 322:Core/Src/vl53l0x_api_core.c **** 
 1140              		.loc 1 322 4 is_stmt 1 view .LVU395
 322:Core/Src/vl53l0x_api_core.c **** 
 1141              		.loc 1 322 19 is_stmt 0 view .LVU396
 1142 02be C3F34602 		ubfx	r2, r3, #1, #7
 322:Core/Src/vl53l0x_api_core.c **** 
 1143              		.loc 1 322 17 view .LVU397
 1144 02c2 8DF81020 		strb	r2, [sp, #16]
 324:Core/Src/vl53l0x_api_core.c **** 
 1145              		.loc 1 324 4 is_stmt 1 view .LVU398
 324:Core/Src/vl53l0x_api_core.c **** 
 1146              		.loc 1 324 40 is_stmt 0 view .LVU399
 1147 02c6 9B01     		lsls	r3, r3, #6
 324:Core/Src/vl53l0x_api_core.c **** 
 1148              		.loc 1 324 11 view .LVU400
 1149 02c8 03F04003 		and	r3, r3, #64
 324:Core/Src/vl53l0x_api_core.c **** 
 1150              		.loc 1 324 9 view .LVU401
 1151 02cc 8DF82F30 		strb	r3, [sp, #47]
 326:Core/Src/vl53l0x_api_core.c **** 
 1152              		.loc 1 326 4 is_stmt 1 view .LVU402
 326:Core/Src/vl53l0x_api_core.c **** 
 1153              		.loc 1 326 14 is_stmt 0 view .LVU403
 1154 02d0 7922     		movs	r2, #121
 1155 02d2 9421     		movs	r1, #148
 1156 02d4 2846     		mov	r0, r5
 1157 02d6 FFF7FEFF 		bl	VL53L0X_WrByte
 1158              	.LVL161:
 326:Core/Src/vl53l0x_api_core.c **** 
 1159              		.loc 1 326 11 view .LVU404
 1160 02da 0443     		orrs	r4, r4, r0
 1161              	.LVL162:
 326:Core/Src/vl53l0x_api_core.c **** 
 1162              		.loc 1 326 11 view .LVU405
 1163 02dc 64B2     		sxtb	r4, r4
 1164              	.LVL163:
 328:Core/Src/vl53l0x_api_core.c **** 
 1165              		.loc 1 328 4 is_stmt 1 view .LVU406
 328:Core/Src/vl53l0x_api_core.c **** 
 1166              		.loc 1 328 14 is_stmt 0 view .LVU407
 1167 02de 2846     		mov	r0, r5
 1168 02e0 FFF7FEFF 		bl	VL53L0X_device_read_strobe
 1169              	.LVL164:
 328:Core/Src/vl53l0x_api_core.c **** 
 1170              		.loc 1 328 11 view .LVU408
 1171 02e4 0443     		orrs	r4, r4, r0
 1172              	.LVL165:
 328:Core/Src/vl53l0x_api_core.c **** 
 1173              		.loc 1 328 11 view .LVU409
 1174 02e6 64B2     		sxtb	r4, r4
 1175              	.LVL166:
 330:Core/Src/vl53l0x_api_core.c **** 
 1176              		.loc 1 330 4 is_stmt 1 view .LVU410
 330:Core/Src/vl53l0x_api_core.c **** 
 1177              		.loc 1 330 14 is_stmt 0 view .LVU411
ARM GAS  C:\Users\anmh1\AppData\Local\Temp\ccrmGbOb.s 			page 33


 1178 02e8 0AAA     		add	r2, sp, #40
 1179 02ea 9021     		movs	r1, #144
 1180 02ec 2846     		mov	r0, r5
 1181 02ee FFF7FEFF 		bl	VL53L0X_RdDWord
 1182              	.LVL167:
 330:Core/Src/vl53l0x_api_core.c **** 
 1183              		.loc 1 330 11 view .LVU412
 1184 02f2 0443     		orrs	r4, r4, r0
 1185              	.LVL168:
 330:Core/Src/vl53l0x_api_core.c **** 
 1186              		.loc 1 330 11 view .LVU413
 1187 02f4 64B2     		sxtb	r4, r4
 1188              	.LVL169:
 332:Core/Src/vl53l0x_api_core.c **** 					((TmpDWord >> 26) & 0x07f));
 1189              		.loc 1 332 4 is_stmt 1 view .LVU414
 333:Core/Src/vl53l0x_api_core.c **** 			ProductId[10] = (char)((TmpDWord >> 19) & 0x07f);
 1190              		.loc 1 333 17 is_stmt 0 view .LVU415
 1191 02f6 0A9B     		ldr	r3, [sp, #40]
 332:Core/Src/vl53l0x_api_core.c **** 					((TmpDWord >> 26) & 0x07f));
 1192              		.loc 1 332 19 view .LVU416
 1193 02f8 9DF82F20 		ldrb	r2, [sp, #47]	@ zero_extendqisi2
 1194 02fc 02EB9362 		add	r2, r2, r3, lsr #26
 332:Core/Src/vl53l0x_api_core.c **** 					((TmpDWord >> 26) & 0x07f));
 1195              		.loc 1 332 17 view .LVU417
 1196 0300 8DF81120 		strb	r2, [sp, #17]
 334:Core/Src/vl53l0x_api_core.c **** 			ProductId[11] = (char)((TmpDWord >> 12) & 0x07f);
 1197              		.loc 1 334 4 is_stmt 1 view .LVU418
 334:Core/Src/vl53l0x_api_core.c **** 			ProductId[11] = (char)((TmpDWord >> 12) & 0x07f);
 1198              		.loc 1 334 20 is_stmt 0 view .LVU419
 1199 0304 C3F3C642 		ubfx	r2, r3, #19, #7
 334:Core/Src/vl53l0x_api_core.c **** 			ProductId[11] = (char)((TmpDWord >> 12) & 0x07f);
 1200              		.loc 1 334 18 view .LVU420
 1201 0308 8DF81220 		strb	r2, [sp, #18]
 335:Core/Src/vl53l0x_api_core.c **** 			ProductId[12] = (char)((TmpDWord >> 5) & 0x07f);
 1202              		.loc 1 335 4 is_stmt 1 view .LVU421
 335:Core/Src/vl53l0x_api_core.c **** 			ProductId[12] = (char)((TmpDWord >> 5) & 0x07f);
 1203              		.loc 1 335 20 is_stmt 0 view .LVU422
 1204 030c C3F30632 		ubfx	r2, r3, #12, #7
 335:Core/Src/vl53l0x_api_core.c **** 			ProductId[12] = (char)((TmpDWord >> 5) & 0x07f);
 1205              		.loc 1 335 18 view .LVU423
 1206 0310 8DF81320 		strb	r2, [sp, #19]
 336:Core/Src/vl53l0x_api_core.c **** 
 1207              		.loc 1 336 4 is_stmt 1 view .LVU424
 336:Core/Src/vl53l0x_api_core.c **** 
 1208              		.loc 1 336 20 is_stmt 0 view .LVU425
 1209 0314 C3F34612 		ubfx	r2, r3, #5, #7
 336:Core/Src/vl53l0x_api_core.c **** 
 1210              		.loc 1 336 18 view .LVU426
 1211 0318 8DF81420 		strb	r2, [sp, #20]
 338:Core/Src/vl53l0x_api_core.c **** 
 1212              		.loc 1 338 4 is_stmt 1 view .LVU427
 338:Core/Src/vl53l0x_api_core.c **** 
 1213              		.loc 1 338 40 is_stmt 0 view .LVU428
 1214 031c 9B00     		lsls	r3, r3, #2
 338:Core/Src/vl53l0x_api_core.c **** 
 1215              		.loc 1 338 11 view .LVU429
 1216 031e 03F07C03 		and	r3, r3, #124
ARM GAS  C:\Users\anmh1\AppData\Local\Temp\ccrmGbOb.s 			page 34


 338:Core/Src/vl53l0x_api_core.c **** 
 1217              		.loc 1 338 9 view .LVU430
 1218 0322 8DF82F30 		strb	r3, [sp, #47]
 340:Core/Src/vl53l0x_api_core.c **** 
 1219              		.loc 1 340 4 is_stmt 1 view .LVU431
 340:Core/Src/vl53l0x_api_core.c **** 
 1220              		.loc 1 340 14 is_stmt 0 view .LVU432
 1221 0326 7A22     		movs	r2, #122
 1222 0328 9421     		movs	r1, #148
 1223 032a 2846     		mov	r0, r5
 1224 032c FFF7FEFF 		bl	VL53L0X_WrByte
 1225              	.LVL170:
 340:Core/Src/vl53l0x_api_core.c **** 
 1226              		.loc 1 340 11 view .LVU433
 1227 0330 0443     		orrs	r4, r4, r0
 1228              	.LVL171:
 340:Core/Src/vl53l0x_api_core.c **** 
 1229              		.loc 1 340 11 view .LVU434
 1230 0332 64B2     		sxtb	r4, r4
 1231              	.LVL172:
 342:Core/Src/vl53l0x_api_core.c **** 
 1232              		.loc 1 342 4 is_stmt 1 view .LVU435
 342:Core/Src/vl53l0x_api_core.c **** 
 1233              		.loc 1 342 14 is_stmt 0 view .LVU436
 1234 0334 2846     		mov	r0, r5
 1235 0336 FFF7FEFF 		bl	VL53L0X_device_read_strobe
 1236              	.LVL173:
 342:Core/Src/vl53l0x_api_core.c **** 
 1237              		.loc 1 342 11 view .LVU437
 1238 033a 0443     		orrs	r4, r4, r0
 1239              	.LVL174:
 342:Core/Src/vl53l0x_api_core.c **** 
 1240              		.loc 1 342 11 view .LVU438
 1241 033c 64B2     		sxtb	r4, r4
 1242              	.LVL175:
 344:Core/Src/vl53l0x_api_core.c **** 
 1243              		.loc 1 344 4 is_stmt 1 view .LVU439
 344:Core/Src/vl53l0x_api_core.c **** 
 1244              		.loc 1 344 14 is_stmt 0 view .LVU440
 1245 033e 0AAA     		add	r2, sp, #40
 1246 0340 9021     		movs	r1, #144
 1247 0342 2846     		mov	r0, r5
 1248 0344 FFF7FEFF 		bl	VL53L0X_RdDWord
 1249              	.LVL176:
 344:Core/Src/vl53l0x_api_core.c **** 
 1250              		.loc 1 344 11 view .LVU441
 1251 0348 0443     		orrs	r4, r4, r0
 1252              	.LVL177:
 344:Core/Src/vl53l0x_api_core.c **** 
 1253              		.loc 1 344 11 view .LVU442
 1254 034a 64B2     		sxtb	r4, r4
 1255              	.LVL178:
 346:Core/Src/vl53l0x_api_core.c **** 					((TmpDWord >> 30) & 0x07f));
 1256              		.loc 1 346 4 is_stmt 1 view .LVU443
 347:Core/Src/vl53l0x_api_core.c **** 			ProductId[14] = (char)((TmpDWord >> 23) & 0x07f);
 1257              		.loc 1 347 17 is_stmt 0 view .LVU444
 1258 034c 0A9B     		ldr	r3, [sp, #40]
ARM GAS  C:\Users\anmh1\AppData\Local\Temp\ccrmGbOb.s 			page 35


 346:Core/Src/vl53l0x_api_core.c **** 					((TmpDWord >> 30) & 0x07f));
 1259              		.loc 1 346 20 view .LVU445
 1260 034e 9DF82F20 		ldrb	r2, [sp, #47]	@ zero_extendqisi2
 1261 0352 02EB9372 		add	r2, r2, r3, lsr #30
 346:Core/Src/vl53l0x_api_core.c **** 					((TmpDWord >> 30) & 0x07f));
 1262              		.loc 1 346 18 view .LVU446
 1263 0356 8DF81520 		strb	r2, [sp, #21]
 348:Core/Src/vl53l0x_api_core.c **** 			ProductId[15] = (char)((TmpDWord >> 16) & 0x07f);
 1264              		.loc 1 348 4 is_stmt 1 view .LVU447
 348:Core/Src/vl53l0x_api_core.c **** 			ProductId[15] = (char)((TmpDWord >> 16) & 0x07f);
 1265              		.loc 1 348 20 is_stmt 0 view .LVU448
 1266 035a C3F3C652 		ubfx	r2, r3, #23, #7
 348:Core/Src/vl53l0x_api_core.c **** 			ProductId[15] = (char)((TmpDWord >> 16) & 0x07f);
 1267              		.loc 1 348 18 view .LVU449
 1268 035e 8DF81620 		strb	r2, [sp, #22]
 349:Core/Src/vl53l0x_api_core.c **** 			ProductId[16] = (char)((TmpDWord >> 9) & 0x07f);
 1269              		.loc 1 349 4 is_stmt 1 view .LVU450
 349:Core/Src/vl53l0x_api_core.c **** 			ProductId[16] = (char)((TmpDWord >> 9) & 0x07f);
 1270              		.loc 1 349 20 is_stmt 0 view .LVU451
 1271 0362 C3F30642 		ubfx	r2, r3, #16, #7
 349:Core/Src/vl53l0x_api_core.c **** 			ProductId[16] = (char)((TmpDWord >> 9) & 0x07f);
 1272              		.loc 1 349 18 view .LVU452
 1273 0366 8DF81720 		strb	r2, [sp, #23]
 350:Core/Src/vl53l0x_api_core.c **** 			ProductId[17] = (char)((TmpDWord >> 2) & 0x07f);
 1274              		.loc 1 350 4 is_stmt 1 view .LVU453
 350:Core/Src/vl53l0x_api_core.c **** 			ProductId[17] = (char)((TmpDWord >> 2) & 0x07f);
 1275              		.loc 1 350 20 is_stmt 0 view .LVU454
 1276 036a C3F34622 		ubfx	r2, r3, #9, #7
 350:Core/Src/vl53l0x_api_core.c **** 			ProductId[17] = (char)((TmpDWord >> 2) & 0x07f);
 1277              		.loc 1 350 18 view .LVU455
 1278 036e 8DF81820 		strb	r2, [sp, #24]
 351:Core/Src/vl53l0x_api_core.c **** 			ProductId[18] = '\0';
 1279              		.loc 1 351 4 is_stmt 1 view .LVU456
 351:Core/Src/vl53l0x_api_core.c **** 			ProductId[18] = '\0';
 1280              		.loc 1 351 20 is_stmt 0 view .LVU457
 1281 0372 C3F38603 		ubfx	r3, r3, #2, #7
 351:Core/Src/vl53l0x_api_core.c **** 			ProductId[18] = '\0';
 1282              		.loc 1 351 18 view .LVU458
 1283 0376 8DF81930 		strb	r3, [sp, #25]
 352:Core/Src/vl53l0x_api_core.c **** 
 1284              		.loc 1 352 4 is_stmt 1 view .LVU459
 352:Core/Src/vl53l0x_api_core.c **** 
 1285              		.loc 1 352 18 is_stmt 0 view .LVU460
 1286 037a 0023     		movs	r3, #0
 1287 037c 8DF81A30 		strb	r3, [sp, #26]
 1288 0380 1BE7     		b	.L40
 1289              	.L59:
 359:Core/Src/vl53l0x_api_core.c **** 			Status |= VL53L0X_device_read_strobe(Dev);
 1290              		.loc 1 359 4 is_stmt 1 view .LVU461
 359:Core/Src/vl53l0x_api_core.c **** 			Status |= VL53L0X_device_read_strobe(Dev);
 1291              		.loc 1 359 14 is_stmt 0 view .LVU462
 1292 0382 7B22     		movs	r2, #123
 1293 0384 9421     		movs	r1, #148
 1294 0386 2846     		mov	r0, r5
 1295 0388 FFF7FEFF 		bl	VL53L0X_WrByte
 1296              	.LVL179:
 359:Core/Src/vl53l0x_api_core.c **** 			Status |= VL53L0X_device_read_strobe(Dev);
ARM GAS  C:\Users\anmh1\AppData\Local\Temp\ccrmGbOb.s 			page 36


 1297              		.loc 1 359 11 view .LVU463
 1298 038c 0443     		orrs	r4, r4, r0
 1299              	.LVL180:
 359:Core/Src/vl53l0x_api_core.c **** 			Status |= VL53L0X_device_read_strobe(Dev);
 1300              		.loc 1 359 11 view .LVU464
 1301 038e 64B2     		sxtb	r4, r4
 1302              	.LVL181:
 360:Core/Src/vl53l0x_api_core.c **** 			Status |= VL53L0X_RdDWord(Dev, 0x90, &PartUIDUpper);
 1303              		.loc 1 360 4 is_stmt 1 view .LVU465
 360:Core/Src/vl53l0x_api_core.c **** 			Status |= VL53L0X_RdDWord(Dev, 0x90, &PartUIDUpper);
 1304              		.loc 1 360 14 is_stmt 0 view .LVU466
 1305 0390 2846     		mov	r0, r5
 1306 0392 FFF7FEFF 		bl	VL53L0X_device_read_strobe
 1307              	.LVL182:
 360:Core/Src/vl53l0x_api_core.c **** 			Status |= VL53L0X_RdDWord(Dev, 0x90, &PartUIDUpper);
 1308              		.loc 1 360 11 view .LVU467
 1309 0396 0443     		orrs	r4, r4, r0
 1310              	.LVL183:
 360:Core/Src/vl53l0x_api_core.c **** 			Status |= VL53L0X_RdDWord(Dev, 0x90, &PartUIDUpper);
 1311              		.loc 1 360 11 view .LVU468
 1312 0398 64B2     		sxtb	r4, r4
 1313              	.LVL184:
 361:Core/Src/vl53l0x_api_core.c **** 
 1314              		.loc 1 361 4 is_stmt 1 view .LVU469
 361:Core/Src/vl53l0x_api_core.c **** 
 1315              		.loc 1 361 14 is_stmt 0 view .LVU470
 1316 039a 08AA     		add	r2, sp, #32
 1317 039c 9021     		movs	r1, #144
 1318 039e 2846     		mov	r0, r5
 1319 03a0 FFF7FEFF 		bl	VL53L0X_RdDWord
 1320              	.LVL185:
 361:Core/Src/vl53l0x_api_core.c **** 
 1321              		.loc 1 361 11 view .LVU471
 1322 03a4 0443     		orrs	r4, r4, r0
 1323              	.LVL186:
 361:Core/Src/vl53l0x_api_core.c **** 
 1324              		.loc 1 361 11 view .LVU472
 1325 03a6 64B2     		sxtb	r4, r4
 1326              	.LVL187:
 363:Core/Src/vl53l0x_api_core.c **** 			Status |= VL53L0X_device_read_strobe(Dev);
 1327              		.loc 1 363 4 is_stmt 1 view .LVU473
 363:Core/Src/vl53l0x_api_core.c **** 			Status |= VL53L0X_device_read_strobe(Dev);
 1328              		.loc 1 363 14 is_stmt 0 view .LVU474
 1329 03a8 7C22     		movs	r2, #124
 1330 03aa 9421     		movs	r1, #148
 1331 03ac 2846     		mov	r0, r5
 1332 03ae FFF7FEFF 		bl	VL53L0X_WrByte
 1333              	.LVL188:
 363:Core/Src/vl53l0x_api_core.c **** 			Status |= VL53L0X_device_read_strobe(Dev);
 1334              		.loc 1 363 11 view .LVU475
 1335 03b2 0443     		orrs	r4, r4, r0
 1336              	.LVL189:
 363:Core/Src/vl53l0x_api_core.c **** 			Status |= VL53L0X_device_read_strobe(Dev);
 1337              		.loc 1 363 11 view .LVU476
 1338 03b4 64B2     		sxtb	r4, r4
 1339              	.LVL190:
 364:Core/Src/vl53l0x_api_core.c **** 			Status |= VL53L0X_RdDWord(Dev, 0x90, &PartUIDLower);
ARM GAS  C:\Users\anmh1\AppData\Local\Temp\ccrmGbOb.s 			page 37


 1340              		.loc 1 364 4 is_stmt 1 view .LVU477
 364:Core/Src/vl53l0x_api_core.c **** 			Status |= VL53L0X_RdDWord(Dev, 0x90, &PartUIDLower);
 1341              		.loc 1 364 14 is_stmt 0 view .LVU478
 1342 03b6 2846     		mov	r0, r5
 1343 03b8 FFF7FEFF 		bl	VL53L0X_device_read_strobe
 1344              	.LVL191:
 364:Core/Src/vl53l0x_api_core.c **** 			Status |= VL53L0X_RdDWord(Dev, 0x90, &PartUIDLower);
 1345              		.loc 1 364 11 view .LVU479
 1346 03bc 0443     		orrs	r4, r4, r0
 1347              	.LVL192:
 364:Core/Src/vl53l0x_api_core.c **** 			Status |= VL53L0X_RdDWord(Dev, 0x90, &PartUIDLower);
 1348              		.loc 1 364 11 view .LVU480
 1349 03be 64B2     		sxtb	r4, r4
 1350              	.LVL193:
 365:Core/Src/vl53l0x_api_core.c **** 
 1351              		.loc 1 365 4 is_stmt 1 view .LVU481
 365:Core/Src/vl53l0x_api_core.c **** 
 1352              		.loc 1 365 14 is_stmt 0 view .LVU482
 1353 03c0 07AA     		add	r2, sp, #28
 1354 03c2 9021     		movs	r1, #144
 1355 03c4 2846     		mov	r0, r5
 1356 03c6 FFF7FEFF 		bl	VL53L0X_RdDWord
 1357              	.LVL194:
 365:Core/Src/vl53l0x_api_core.c **** 
 1358              		.loc 1 365 11 view .LVU483
 1359 03ca 0443     		orrs	r4, r4, r0
 1360              	.LVL195:
 365:Core/Src/vl53l0x_api_core.c **** 
 1361              		.loc 1 365 11 view .LVU484
 1362 03cc 64B2     		sxtb	r4, r4
 1363              	.LVL196:
 367:Core/Src/vl53l0x_api_core.c **** 			Status |= VL53L0X_device_read_strobe(Dev);
 1364              		.loc 1 367 4 is_stmt 1 view .LVU485
 367:Core/Src/vl53l0x_api_core.c **** 			Status |= VL53L0X_device_read_strobe(Dev);
 1365              		.loc 1 367 14 is_stmt 0 view .LVU486
 1366 03ce 7322     		movs	r2, #115
 1367 03d0 9421     		movs	r1, #148
 1368 03d2 2846     		mov	r0, r5
 1369 03d4 FFF7FEFF 		bl	VL53L0X_WrByte
 1370              	.LVL197:
 367:Core/Src/vl53l0x_api_core.c **** 			Status |= VL53L0X_device_read_strobe(Dev);
 1371              		.loc 1 367 11 view .LVU487
 1372 03d8 0443     		orrs	r4, r4, r0
 1373              	.LVL198:
 367:Core/Src/vl53l0x_api_core.c **** 			Status |= VL53L0X_device_read_strobe(Dev);
 1374              		.loc 1 367 11 view .LVU488
 1375 03da 64B2     		sxtb	r4, r4
 1376              	.LVL199:
 368:Core/Src/vl53l0x_api_core.c **** 			Status |= VL53L0X_RdDWord(Dev, 0x90, &TmpDWord);
 1377              		.loc 1 368 4 is_stmt 1 view .LVU489
 368:Core/Src/vl53l0x_api_core.c **** 			Status |= VL53L0X_RdDWord(Dev, 0x90, &TmpDWord);
 1378              		.loc 1 368 14 is_stmt 0 view .LVU490
 1379 03dc 2846     		mov	r0, r5
 1380 03de FFF7FEFF 		bl	VL53L0X_device_read_strobe
 1381              	.LVL200:
 368:Core/Src/vl53l0x_api_core.c **** 			Status |= VL53L0X_RdDWord(Dev, 0x90, &TmpDWord);
 1382              		.loc 1 368 11 view .LVU491
ARM GAS  C:\Users\anmh1\AppData\Local\Temp\ccrmGbOb.s 			page 38


 1383 03e2 0443     		orrs	r4, r4, r0
 1384              	.LVL201:
 368:Core/Src/vl53l0x_api_core.c **** 			Status |= VL53L0X_RdDWord(Dev, 0x90, &TmpDWord);
 1385              		.loc 1 368 11 view .LVU492
 1386 03e4 64B2     		sxtb	r4, r4
 1387              	.LVL202:
 369:Core/Src/vl53l0x_api_core.c **** 
 1388              		.loc 1 369 4 is_stmt 1 view .LVU493
 369:Core/Src/vl53l0x_api_core.c **** 
 1389              		.loc 1 369 14 is_stmt 0 view .LVU494
 1390 03e6 0AAA     		add	r2, sp, #40
 1391 03e8 9021     		movs	r1, #144
 1392 03ea 2846     		mov	r0, r5
 1393 03ec FFF7FEFF 		bl	VL53L0X_RdDWord
 1394              	.LVL203:
 369:Core/Src/vl53l0x_api_core.c **** 
 1395              		.loc 1 369 11 view .LVU495
 1396 03f0 0443     		orrs	r4, r4, r0
 1397              	.LVL204:
 369:Core/Src/vl53l0x_api_core.c **** 
 1398              		.loc 1 369 11 view .LVU496
 1399 03f2 64B2     		sxtb	r4, r4
 1400              	.LVL205:
 371:Core/Src/vl53l0x_api_core.c **** 				0x0000000ff) << 8;
 1401              		.loc 1 371 4 is_stmt 1 view .LVU497
 372:Core/Src/vl53l0x_api_core.c **** 
 1402              		.loc 1 372 18 is_stmt 0 view .LVU498
 1403 03f4 0A9B     		ldr	r3, [sp, #40]
 1404 03f6 4FEA0328 		lsl	r8, r3, #8
 371:Core/Src/vl53l0x_api_core.c **** 				0x0000000ff) << 8;
 1405              		.loc 1 371 35 view .LVU499
 1406 03fa 1FFA88F8 		uxth	r8, r8
 1407              	.LVL206:
 374:Core/Src/vl53l0x_api_core.c **** 			Status |= VL53L0X_device_read_strobe(Dev);
 1408              		.loc 1 374 4 is_stmt 1 view .LVU500
 374:Core/Src/vl53l0x_api_core.c **** 			Status |= VL53L0X_device_read_strobe(Dev);
 1409              		.loc 1 374 14 is_stmt 0 view .LVU501
 1410 03fe 7422     		movs	r2, #116
 1411 0400 9421     		movs	r1, #148
 1412 0402 2846     		mov	r0, r5
 1413 0404 FFF7FEFF 		bl	VL53L0X_WrByte
 1414              	.LVL207:
 374:Core/Src/vl53l0x_api_core.c **** 			Status |= VL53L0X_device_read_strobe(Dev);
 1415              		.loc 1 374 11 view .LVU502
 1416 0408 0443     		orrs	r4, r4, r0
 1417              	.LVL208:
 374:Core/Src/vl53l0x_api_core.c **** 			Status |= VL53L0X_device_read_strobe(Dev);
 1418              		.loc 1 374 11 view .LVU503
 1419 040a 64B2     		sxtb	r4, r4
 1420              	.LVL209:
 375:Core/Src/vl53l0x_api_core.c **** 			Status |= VL53L0X_RdDWord(Dev, 0x90, &TmpDWord);
 1421              		.loc 1 375 4 is_stmt 1 view .LVU504
 375:Core/Src/vl53l0x_api_core.c **** 			Status |= VL53L0X_RdDWord(Dev, 0x90, &TmpDWord);
 1422              		.loc 1 375 14 is_stmt 0 view .LVU505
 1423 040c 2846     		mov	r0, r5
 1424 040e FFF7FEFF 		bl	VL53L0X_device_read_strobe
 1425              	.LVL210:
ARM GAS  C:\Users\anmh1\AppData\Local\Temp\ccrmGbOb.s 			page 39


 375:Core/Src/vl53l0x_api_core.c **** 			Status |= VL53L0X_RdDWord(Dev, 0x90, &TmpDWord);
 1426              		.loc 1 375 11 view .LVU506
 1427 0412 0443     		orrs	r4, r4, r0
 1428              	.LVL211:
 375:Core/Src/vl53l0x_api_core.c **** 			Status |= VL53L0X_RdDWord(Dev, 0x90, &TmpDWord);
 1429              		.loc 1 375 11 view .LVU507
 1430 0414 64B2     		sxtb	r4, r4
 1431              	.LVL212:
 376:Core/Src/vl53l0x_api_core.c **** 
 1432              		.loc 1 376 4 is_stmt 1 view .LVU508
 376:Core/Src/vl53l0x_api_core.c **** 
 1433              		.loc 1 376 14 is_stmt 0 view .LVU509
 1434 0416 0AAA     		add	r2, sp, #40
 1435 0418 9021     		movs	r1, #144
 1436 041a 2846     		mov	r0, r5
 1437 041c FFF7FEFF 		bl	VL53L0X_RdDWord
 1438              	.LVL213:
 376:Core/Src/vl53l0x_api_core.c **** 
 1439              		.loc 1 376 11 view .LVU510
 1440 0420 0443     		orrs	r4, r4, r0
 1441              	.LVL214:
 376:Core/Src/vl53l0x_api_core.c **** 
 1442              		.loc 1 376 11 view .LVU511
 1443 0422 64B2     		sxtb	r4, r4
 1444              	.LVL215:
 378:Core/Src/vl53l0x_api_core.c **** 				0xff000000) >> 24);
 1445              		.loc 1 378 4 is_stmt 1 view .LVU512
 379:Core/Src/vl53l0x_api_core.c **** 
 1446              		.loc 1 379 17 is_stmt 0 view .LVU513
 1447 0424 9DF82B30 		ldrb	r3, [sp, #43]	@ zero_extendqisi2
 378:Core/Src/vl53l0x_api_core.c **** 				0xff000000) >> 24);
 1448              		.loc 1 378 35 view .LVU514
 1449 0428 43EA0808 		orr	r8, r3, r8
 1450              	.LVL216:
 381:Core/Src/vl53l0x_api_core.c **** 			Status |= VL53L0X_device_read_strobe(Dev);
 1451              		.loc 1 381 4 is_stmt 1 view .LVU515
 381:Core/Src/vl53l0x_api_core.c **** 			Status |= VL53L0X_device_read_strobe(Dev);
 1452              		.loc 1 381 14 is_stmt 0 view .LVU516
 1453 042c 7522     		movs	r2, #117
 1454 042e 9421     		movs	r1, #148
 1455 0430 2846     		mov	r0, r5
 1456 0432 FFF7FEFF 		bl	VL53L0X_WrByte
 1457              	.LVL217:
 381:Core/Src/vl53l0x_api_core.c **** 			Status |= VL53L0X_device_read_strobe(Dev);
 1458              		.loc 1 381 11 view .LVU517
 1459 0436 0443     		orrs	r4, r4, r0
 1460              	.LVL218:
 381:Core/Src/vl53l0x_api_core.c **** 			Status |= VL53L0X_device_read_strobe(Dev);
 1461              		.loc 1 381 11 view .LVU518
 1462 0438 64B2     		sxtb	r4, r4
 1463              	.LVL219:
 382:Core/Src/vl53l0x_api_core.c **** 			Status |= VL53L0X_RdDWord(Dev, 0x90, &TmpDWord);
 1464              		.loc 1 382 4 is_stmt 1 view .LVU519
 382:Core/Src/vl53l0x_api_core.c **** 			Status |= VL53L0X_RdDWord(Dev, 0x90, &TmpDWord);
 1465              		.loc 1 382 14 is_stmt 0 view .LVU520
 1466 043a 2846     		mov	r0, r5
 1467 043c FFF7FEFF 		bl	VL53L0X_device_read_strobe
ARM GAS  C:\Users\anmh1\AppData\Local\Temp\ccrmGbOb.s 			page 40


 1468              	.LVL220:
 382:Core/Src/vl53l0x_api_core.c **** 			Status |= VL53L0X_RdDWord(Dev, 0x90, &TmpDWord);
 1469              		.loc 1 382 11 view .LVU521
 1470 0440 0443     		orrs	r4, r4, r0
 1471              	.LVL221:
 382:Core/Src/vl53l0x_api_core.c **** 			Status |= VL53L0X_RdDWord(Dev, 0x90, &TmpDWord);
 1472              		.loc 1 382 11 view .LVU522
 1473 0442 64B2     		sxtb	r4, r4
 1474              	.LVL222:
 383:Core/Src/vl53l0x_api_core.c **** 
 1475              		.loc 1 383 4 is_stmt 1 view .LVU523
 383:Core/Src/vl53l0x_api_core.c **** 
 1476              		.loc 1 383 14 is_stmt 0 view .LVU524
 1477 0444 0AAA     		add	r2, sp, #40
 1478 0446 9021     		movs	r1, #144
 1479 0448 2846     		mov	r0, r5
 1480 044a FFF7FEFF 		bl	VL53L0X_RdDWord
 1481              	.LVL223:
 383:Core/Src/vl53l0x_api_core.c **** 
 1482              		.loc 1 383 11 view .LVU525
 1483 044e 0443     		orrs	r4, r4, r0
 1484              	.LVL224:
 383:Core/Src/vl53l0x_api_core.c **** 
 1485              		.loc 1 383 11 view .LVU526
 1486 0450 64B2     		sxtb	r4, r4
 1487              	.LVL225:
 385:Core/Src/vl53l0x_api_core.c **** 							<< 8;
 1488              		.loc 1 385 4 is_stmt 1 view .LVU527
 386:Core/Src/vl53l0x_api_core.c **** 
 1489              		.loc 1 386 8 is_stmt 0 view .LVU528
 1490 0452 0A9B     		ldr	r3, [sp, #40]
 1491 0454 4FEA032B 		lsl	fp, r3, #8
 385:Core/Src/vl53l0x_api_core.c **** 							<< 8;
 1492              		.loc 1 385 29 view .LVU529
 1493 0458 1FFA8BFB 		uxth	fp, fp
 1494              	.LVL226:
 388:Core/Src/vl53l0x_api_core.c **** 			Status |= VL53L0X_device_read_strobe(Dev);
 1495              		.loc 1 388 4 is_stmt 1 view .LVU530
 388:Core/Src/vl53l0x_api_core.c **** 			Status |= VL53L0X_device_read_strobe(Dev);
 1496              		.loc 1 388 14 is_stmt 0 view .LVU531
 1497 045c 7622     		movs	r2, #118
 1498 045e 9421     		movs	r1, #148
 1499 0460 2846     		mov	r0, r5
 1500 0462 FFF7FEFF 		bl	VL53L0X_WrByte
 1501              	.LVL227:
 388:Core/Src/vl53l0x_api_core.c **** 			Status |= VL53L0X_device_read_strobe(Dev);
 1502              		.loc 1 388 11 view .LVU532
 1503 0466 0443     		orrs	r4, r4, r0
 1504              	.LVL228:
 388:Core/Src/vl53l0x_api_core.c **** 			Status |= VL53L0X_device_read_strobe(Dev);
 1505              		.loc 1 388 11 view .LVU533
 1506 0468 64B2     		sxtb	r4, r4
 1507              	.LVL229:
 389:Core/Src/vl53l0x_api_core.c **** 			Status |= VL53L0X_RdDWord(Dev, 0x90, &TmpDWord);
 1508              		.loc 1 389 4 is_stmt 1 view .LVU534
 389:Core/Src/vl53l0x_api_core.c **** 			Status |= VL53L0X_RdDWord(Dev, 0x90, &TmpDWord);
 1509              		.loc 1 389 14 is_stmt 0 view .LVU535
ARM GAS  C:\Users\anmh1\AppData\Local\Temp\ccrmGbOb.s 			page 41


 1510 046a 2846     		mov	r0, r5
 1511 046c FFF7FEFF 		bl	VL53L0X_device_read_strobe
 1512              	.LVL230:
 389:Core/Src/vl53l0x_api_core.c **** 			Status |= VL53L0X_RdDWord(Dev, 0x90, &TmpDWord);
 1513              		.loc 1 389 11 view .LVU536
 1514 0470 0443     		orrs	r4, r4, r0
 1515              	.LVL231:
 389:Core/Src/vl53l0x_api_core.c **** 			Status |= VL53L0X_RdDWord(Dev, 0x90, &TmpDWord);
 1516              		.loc 1 389 11 view .LVU537
 1517 0472 64B2     		sxtb	r4, r4
 1518              	.LVL232:
 390:Core/Src/vl53l0x_api_core.c **** 
 1519              		.loc 1 390 4 is_stmt 1 view .LVU538
 390:Core/Src/vl53l0x_api_core.c **** 
 1520              		.loc 1 390 14 is_stmt 0 view .LVU539
 1521 0474 0AAA     		add	r2, sp, #40
 1522 0476 9021     		movs	r1, #144
 1523 0478 2846     		mov	r0, r5
 1524 047a FFF7FEFF 		bl	VL53L0X_RdDWord
 1525              	.LVL233:
 390:Core/Src/vl53l0x_api_core.c **** 
 1526              		.loc 1 390 11 view .LVU540
 1527 047e 0443     		orrs	r4, r4, r0
 1528              	.LVL234:
 390:Core/Src/vl53l0x_api_core.c **** 
 1529              		.loc 1 390 11 view .LVU541
 1530 0480 64B2     		sxtb	r4, r4
 1531              	.LVL235:
 392:Core/Src/vl53l0x_api_core.c **** 							>> 24);
 1532              		.loc 1 392 4 is_stmt 1 view .LVU542
 393:Core/Src/vl53l0x_api_core.c **** 		}
 1533              		.loc 1 393 8 is_stmt 0 view .LVU543
 1534 0482 9DF82B30 		ldrb	r3, [sp, #43]	@ zero_extendqisi2
 392:Core/Src/vl53l0x_api_core.c **** 							>> 24);
 1535              		.loc 1 392 29 view .LVU544
 1536 0486 43EA0B0B 		orr	fp, r3, fp
 1537              	.LVL236:
 392:Core/Src/vl53l0x_api_core.c **** 							>> 24);
 1538              		.loc 1 392 29 view .LVU545
 1539 048a 02E0     		b	.L41
 1540              	.LVL237:
 1541              	.L52:
 227:Core/Src/vl53l0x_api_core.c **** 	char ProductId[19];
 1542              		.loc 1 227 11 view .LVU546
 1543 048c 4FF00008 		mov	r8, #0
 226:Core/Src/vl53l0x_api_core.c **** 	uint32_t SignalRateMeasFixed1104_400_mm = 0;
 1544              		.loc 1 226 11 view .LVU547
 1545 0490 C346     		mov	fp, r8
 1546              	.LVL238:
 1547              	.L41:
 396:Core/Src/vl53l0x_api_core.c **** 		Status |= VL53L0X_WrByte(Dev, 0xFF, 0x06);
 1548              		.loc 1 396 3 is_stmt 1 view .LVU548
 396:Core/Src/vl53l0x_api_core.c **** 		Status |= VL53L0X_WrByte(Dev, 0xFF, 0x06);
 1549              		.loc 1 396 13 is_stmt 0 view .LVU549
 1550 0492 0022     		movs	r2, #0
 1551 0494 8121     		movs	r1, #129
 1552 0496 2846     		mov	r0, r5
ARM GAS  C:\Users\anmh1\AppData\Local\Temp\ccrmGbOb.s 			page 42


 1553 0498 FFF7FEFF 		bl	VL53L0X_WrByte
 1554              	.LVL239:
 396:Core/Src/vl53l0x_api_core.c **** 		Status |= VL53L0X_WrByte(Dev, 0xFF, 0x06);
 1555              		.loc 1 396 10 view .LVU550
 1556 049c 0443     		orrs	r4, r4, r0
 1557              	.LVL240:
 396:Core/Src/vl53l0x_api_core.c **** 		Status |= VL53L0X_WrByte(Dev, 0xFF, 0x06);
 1558              		.loc 1 396 10 view .LVU551
 1559 049e 64B2     		sxtb	r4, r4
 1560              	.LVL241:
 397:Core/Src/vl53l0x_api_core.c **** 		Status |= VL53L0X_RdByte(Dev, 0x83, &byte);
 1561              		.loc 1 397 3 is_stmt 1 view .LVU552
 397:Core/Src/vl53l0x_api_core.c **** 		Status |= VL53L0X_RdByte(Dev, 0x83, &byte);
 1562              		.loc 1 397 13 is_stmt 0 view .LVU553
 1563 04a0 0622     		movs	r2, #6
 1564 04a2 FF21     		movs	r1, #255
 1565 04a4 2846     		mov	r0, r5
 1566 04a6 FFF7FEFF 		bl	VL53L0X_WrByte
 1567              	.LVL242:
 397:Core/Src/vl53l0x_api_core.c **** 		Status |= VL53L0X_RdByte(Dev, 0x83, &byte);
 1568              		.loc 1 397 10 view .LVU554
 1569 04aa 0443     		orrs	r4, r4, r0
 1570              	.LVL243:
 397:Core/Src/vl53l0x_api_core.c **** 		Status |= VL53L0X_RdByte(Dev, 0x83, &byte);
 1571              		.loc 1 397 10 view .LVU555
 1572 04ac 64B2     		sxtb	r4, r4
 1573              	.LVL244:
 398:Core/Src/vl53l0x_api_core.c **** 		Status |= VL53L0X_WrByte(Dev, 0x83, byte&0xfb);
 1574              		.loc 1 398 3 is_stmt 1 view .LVU556
 398:Core/Src/vl53l0x_api_core.c **** 		Status |= VL53L0X_WrByte(Dev, 0x83, byte&0xfb);
 1575              		.loc 1 398 13 is_stmt 0 view .LVU557
 1576 04ae 0DF12F02 		add	r2, sp, #47
 1577 04b2 8321     		movs	r1, #131
 1578 04b4 2846     		mov	r0, r5
 1579 04b6 FFF7FEFF 		bl	VL53L0X_RdByte
 1580              	.LVL245:
 398:Core/Src/vl53l0x_api_core.c **** 		Status |= VL53L0X_WrByte(Dev, 0x83, byte&0xfb);
 1581              		.loc 1 398 10 view .LVU558
 1582 04ba 0443     		orrs	r4, r4, r0
 1583              	.LVL246:
 398:Core/Src/vl53l0x_api_core.c **** 		Status |= VL53L0X_WrByte(Dev, 0x83, byte&0xfb);
 1584              		.loc 1 398 10 view .LVU559
 1585 04bc 64B2     		sxtb	r4, r4
 1586              	.LVL247:
 399:Core/Src/vl53l0x_api_core.c **** 		Status |= VL53L0X_WrByte(Dev, 0xFF, 0x01);
 1587              		.loc 1 399 3 is_stmt 1 view .LVU560
 399:Core/Src/vl53l0x_api_core.c **** 		Status |= VL53L0X_WrByte(Dev, 0xFF, 0x01);
 1588              		.loc 1 399 13 is_stmt 0 view .LVU561
 1589 04be 9DF82F20 		ldrb	r2, [sp, #47]	@ zero_extendqisi2
 1590 04c2 02F0FB02 		and	r2, r2, #251
 1591 04c6 8321     		movs	r1, #131
 1592 04c8 2846     		mov	r0, r5
 1593 04ca FFF7FEFF 		bl	VL53L0X_WrByte
 1594              	.LVL248:
 399:Core/Src/vl53l0x_api_core.c **** 		Status |= VL53L0X_WrByte(Dev, 0xFF, 0x01);
 1595              		.loc 1 399 10 view .LVU562
 1596 04ce 0443     		orrs	r4, r4, r0
ARM GAS  C:\Users\anmh1\AppData\Local\Temp\ccrmGbOb.s 			page 43


 1597              	.LVL249:
 399:Core/Src/vl53l0x_api_core.c **** 		Status |= VL53L0X_WrByte(Dev, 0xFF, 0x01);
 1598              		.loc 1 399 10 view .LVU563
 1599 04d0 64B2     		sxtb	r4, r4
 1600              	.LVL250:
 400:Core/Src/vl53l0x_api_core.c **** 		Status |= VL53L0X_WrByte(Dev, 0x00, 0x01);
 1601              		.loc 1 400 3 is_stmt 1 view .LVU564
 400:Core/Src/vl53l0x_api_core.c **** 		Status |= VL53L0X_WrByte(Dev, 0x00, 0x01);
 1602              		.loc 1 400 13 is_stmt 0 view .LVU565
 1603 04d2 0122     		movs	r2, #1
 1604 04d4 FF21     		movs	r1, #255
 1605 04d6 2846     		mov	r0, r5
 1606 04d8 FFF7FEFF 		bl	VL53L0X_WrByte
 1607              	.LVL251:
 400:Core/Src/vl53l0x_api_core.c **** 		Status |= VL53L0X_WrByte(Dev, 0x00, 0x01);
 1608              		.loc 1 400 10 view .LVU566
 1609 04dc 0443     		orrs	r4, r4, r0
 1610              	.LVL252:
 400:Core/Src/vl53l0x_api_core.c **** 		Status |= VL53L0X_WrByte(Dev, 0x00, 0x01);
 1611              		.loc 1 400 10 view .LVU567
 1612 04de 64B2     		sxtb	r4, r4
 1613              	.LVL253:
 401:Core/Src/vl53l0x_api_core.c **** 
 1614              		.loc 1 401 3 is_stmt 1 view .LVU568
 401:Core/Src/vl53l0x_api_core.c **** 
 1615              		.loc 1 401 13 is_stmt 0 view .LVU569
 1616 04e0 0122     		movs	r2, #1
 1617 04e2 0021     		movs	r1, #0
 1618 04e4 2846     		mov	r0, r5
 1619 04e6 FFF7FEFF 		bl	VL53L0X_WrByte
 1620              	.LVL254:
 401:Core/Src/vl53l0x_api_core.c **** 
 1621              		.loc 1 401 10 view .LVU570
 1622 04ea 0443     		orrs	r4, r4, r0
 1623              	.LVL255:
 401:Core/Src/vl53l0x_api_core.c **** 
 1624              		.loc 1 401 10 view .LVU571
 1625 04ec 64B2     		sxtb	r4, r4
 1626              	.LVL256:
 403:Core/Src/vl53l0x_api_core.c **** 		Status |= VL53L0X_WrByte(Dev, 0x80, 0x00);
 1627              		.loc 1 403 3 is_stmt 1 view .LVU572
 403:Core/Src/vl53l0x_api_core.c **** 		Status |= VL53L0X_WrByte(Dev, 0x80, 0x00);
 1628              		.loc 1 403 13 is_stmt 0 view .LVU573
 1629 04ee 0022     		movs	r2, #0
 1630 04f0 FF21     		movs	r1, #255
 1631 04f2 2846     		mov	r0, r5
 1632 04f4 FFF7FEFF 		bl	VL53L0X_WrByte
 1633              	.LVL257:
 403:Core/Src/vl53l0x_api_core.c **** 		Status |= VL53L0X_WrByte(Dev, 0x80, 0x00);
 1634              		.loc 1 403 10 view .LVU574
 1635 04f8 0443     		orrs	r4, r4, r0
 1636              	.LVL258:
 403:Core/Src/vl53l0x_api_core.c **** 		Status |= VL53L0X_WrByte(Dev, 0x80, 0x00);
 1637              		.loc 1 403 10 view .LVU575
 1638 04fa 64B2     		sxtb	r4, r4
 1639              	.LVL259:
 404:Core/Src/vl53l0x_api_core.c **** 	}
ARM GAS  C:\Users\anmh1\AppData\Local\Temp\ccrmGbOb.s 			page 44


 1640              		.loc 1 404 3 is_stmt 1 view .LVU576
 404:Core/Src/vl53l0x_api_core.c **** 	}
 1641              		.loc 1 404 13 is_stmt 0 view .LVU577
 1642 04fc 0022     		movs	r2, #0
 1643 04fe 8021     		movs	r1, #128
 1644 0500 2846     		mov	r0, r5
 1645 0502 FFF7FEFF 		bl	VL53L0X_WrByte
 1646              	.LVL260:
 404:Core/Src/vl53l0x_api_core.c **** 	}
 1647              		.loc 1 404 10 view .LVU578
 1648 0506 0443     		orrs	r4, r4, r0
 1649              	.LVL261:
 404:Core/Src/vl53l0x_api_core.c **** 	}
 1650              		.loc 1 404 10 view .LVU579
 1651 0508 64B2     		sxtb	r4, r4
 1652              	.LVL262:
 404:Core/Src/vl53l0x_api_core.c **** 	}
 1653              		.loc 1 404 10 view .LVU580
 1654 050a 8BE5     		b	.L38
 1655              	.L43:
 421:Core/Src/vl53l0x_api_core.c **** 			}
 422:Core/Src/vl53l0x_api_core.c **** 		}
 423:Core/Src/vl53l0x_api_core.c **** 
 424:Core/Src/vl53l0x_api_core.c **** 		if (((option & 2) == 2) &&
 1656              		.loc 1 424 3 is_stmt 1 view .LVU581
 1657              		.loc 1 424 6 is_stmt 0 view .LVU582
 1658 050c 16F0020F 		tst	r6, #2
 1659 0510 02D0     		beq	.L46
 1660              		.loc 1 424 27 discriminator 1 view .LVU583
 1661 0512 17F0020F 		tst	r7, #2
 1662 0516 1CD0     		beq	.L60
 1663              	.L46:
 425:Core/Src/vl53l0x_api_core.c **** 			((ReadDataFromDeviceDone & 2) == 0)) {
 426:Core/Src/vl53l0x_api_core.c **** 			VL53L0X_SETDEVICESPECIFICPARAMETER(Dev,
 427:Core/Src/vl53l0x_api_core.c **** 					ModuleId, ModuleId);
 428:Core/Src/vl53l0x_api_core.c **** 
 429:Core/Src/vl53l0x_api_core.c **** 			VL53L0X_SETDEVICESPECIFICPARAMETER(Dev,
 430:Core/Src/vl53l0x_api_core.c **** 					Revision, Revision);
 431:Core/Src/vl53l0x_api_core.c **** 
 432:Core/Src/vl53l0x_api_core.c **** 			ProductId_tmp = VL53L0X_GETDEVICESPECIFICPARAMETER(Dev,
 433:Core/Src/vl53l0x_api_core.c **** 					ProductId);
 434:Core/Src/vl53l0x_api_core.c **** 			VL53L0X_COPYSTRING(ProductId_tmp, ProductId);
 435:Core/Src/vl53l0x_api_core.c **** 
 436:Core/Src/vl53l0x_api_core.c **** 		}
 437:Core/Src/vl53l0x_api_core.c **** 
 438:Core/Src/vl53l0x_api_core.c **** 		if (((option & 4) == 4) &&
 1664              		.loc 1 438 3 is_stmt 1 view .LVU584
 1665              		.loc 1 438 6 is_stmt 0 view .LVU585
 1666 0518 16F0040F 		tst	r6, #4
 1667 051c 29D0     		beq	.L47
 1668              		.loc 1 438 27 discriminator 1 view .LVU586
 1669 051e 17F0040F 		tst	r7, #4
 1670 0522 26D1     		bne	.L47
 439:Core/Src/vl53l0x_api_core.c **** 			((ReadDataFromDeviceDone & 4) == 0)) {
 440:Core/Src/vl53l0x_api_core.c **** 			VL53L0X_SETDEVICESPECIFICPARAMETER(Dev,
 1671              		.loc 1 440 4 is_stmt 1 view .LVU587
 1672 0524 089B     		ldr	r3, [sp, #32]
ARM GAS  C:\Users\anmh1\AppData\Local\Temp\ccrmGbOb.s 			page 45


 1673 0526 C5F81831 		str	r3, [r5, #280]
 441:Core/Src/vl53l0x_api_core.c **** 						PartUIDUpper, PartUIDUpper);
 442:Core/Src/vl53l0x_api_core.c **** 
 443:Core/Src/vl53l0x_api_core.c **** 			VL53L0X_SETDEVICESPECIFICPARAMETER(Dev,
 1674              		.loc 1 443 4 view .LVU588
 1675 052a 079B     		ldr	r3, [sp, #28]
 1676 052c C5F81C31 		str	r3, [r5, #284]
 444:Core/Src/vl53l0x_api_core.c **** 						PartUIDLower, PartUIDLower);
 445:Core/Src/vl53l0x_api_core.c **** 
 446:Core/Src/vl53l0x_api_core.c **** 			SignalRateMeasFixed400mmFix =
 1677              		.loc 1 446 4 view .LVU589
 1678              		.loc 1 446 32 is_stmt 0 view .LVU590
 1679 0530 4FEA4823 		lsl	r3, r8, #9
 1680              	.LVL263:
 447:Core/Src/vl53l0x_api_core.c **** 				VL53L0X_FIXPOINT97TOFIXPOINT1616(
 448:Core/Src/vl53l0x_api_core.c **** 					SignalRateMeasFixed1104_400_mm);
 449:Core/Src/vl53l0x_api_core.c **** 
 450:Core/Src/vl53l0x_api_core.c **** 			VL53L0X_SETDEVICESPECIFICPARAMETER(Dev,
 1681              		.loc 1 450 4 is_stmt 1 view .LVU591
 1682 0534 C5F82031 		str	r3, [r5, #288]
 451:Core/Src/vl53l0x_api_core.c **** 				SignalRateMeasFixed400mm,
 452:Core/Src/vl53l0x_api_core.c **** 				SignalRateMeasFixed400mmFix);
 453:Core/Src/vl53l0x_api_core.c **** 
 454:Core/Src/vl53l0x_api_core.c **** 			OffsetMicroMeters = 0;
 1683              		.loc 1 454 4 view .LVU592
 455:Core/Src/vl53l0x_api_core.c **** 			if (DistMeasFixed1104_400_mm != 0) {
 1684              		.loc 1 455 4 view .LVU593
 1685              		.loc 1 455 7 is_stmt 0 view .LVU594
 1686 0538 BBF1000F 		cmp	fp, #0
 1687 053c 17D0     		beq	.L54
 456:Core/Src/vl53l0x_api_core.c **** 					OffsetFixed1104_mm =
 1688              		.loc 1 456 6 is_stmt 1 view .LVU595
 1689              		.loc 1 456 25 is_stmt 0 view .LVU596
 1690 053e ABF5C85B 		sub	fp, fp, #6400
 1691              	.LVL264:
 457:Core/Src/vl53l0x_api_core.c **** 						DistMeasFixed1104_400_mm -
 458:Core/Src/vl53l0x_api_core.c **** 						DistMeasTgtFixed1104_mm;
 459:Core/Src/vl53l0x_api_core.c **** 					OffsetMicroMeters = (OffsetFixed1104_mm
 1692              		.loc 1 459 6 is_stmt 1 view .LVU597
 460:Core/Src/vl53l0x_api_core.c **** 						* 1000) >> 4;
 1693              		.loc 1 460 7 is_stmt 0 view .LVU598
 1694 0542 4FF47A73 		mov	r3, #1000
 1695              	.LVL265:
 1696              		.loc 1 460 7 view .LVU599
 1697 0546 03FB0BF3 		mul	r3, r3, fp
 1698              		.loc 1 460 15 view .LVU600
 1699 054a 1B09     		lsrs	r3, r3, #4
 1700              	.LVL266:
 461:Core/Src/vl53l0x_api_core.c **** 					OffsetMicroMeters *= -1;
 1701              		.loc 1 461 6 is_stmt 1 view .LVU601
 1702              		.loc 1 461 24 is_stmt 0 view .LVU602
 1703 054c 5B42     		rsbs	r3, r3, #0
 1704              	.LVL267:
 1705              		.loc 1 461 24 view .LVU603
 1706 054e 1BB2     		sxth	r3, r3
 1707              	.LVL268:
 1708              		.loc 1 461 24 view .LVU604
ARM GAS  C:\Users\anmh1\AppData\Local\Temp\ccrmGbOb.s 			page 46


 1709 0550 0EE0     		b	.L48
 1710              	.LVL269:
 1711              	.L60:
 426:Core/Src/vl53l0x_api_core.c **** 					ModuleId, ModuleId);
 1712              		.loc 1 426 4 is_stmt 1 view .LVU605
 1713 0552 9DF82730 		ldrb	r3, [sp, #39]	@ zero_extendqisi2
 1714 0556 85F8F130 		strb	r3, [r5, #241]
 429:Core/Src/vl53l0x_api_core.c **** 					Revision, Revision);
 1715              		.loc 1 429 4 view .LVU606
 1716 055a 9DF82630 		ldrb	r3, [sp, #38]	@ zero_extendqisi2
 1717 055e 85F8F230 		strb	r3, [r5, #242]
 432:Core/Src/vl53l0x_api_core.c **** 					ProductId);
 1718              		.loc 1 432 4 view .LVU607
 1719              	.LVL270:
 434:Core/Src/vl53l0x_api_core.c **** 
 1720              		.loc 1 434 4 view .LVU608
 1721 0562 02A9     		add	r1, sp, #8
 1722 0564 05F1F300 		add	r0, r5, #243
 1723              	.LVL271:
 434:Core/Src/vl53l0x_api_core.c **** 
 1724              		.loc 1 434 4 is_stmt 0 view .LVU609
 1725 0568 FFF7FEFF 		bl	strcpy
 1726              	.LVL272:
 434:Core/Src/vl53l0x_api_core.c **** 
 1727              		.loc 1 434 4 view .LVU610
 1728 056c D4E7     		b	.L46
 1729              	.LVL273:
 1730              	.L54:
 454:Core/Src/vl53l0x_api_core.c **** 			if (DistMeasFixed1104_400_mm != 0) {
 1731              		.loc 1 454 22 view .LVU611
 1732 056e 0023     		movs	r3, #0
 1733              	.LVL274:
 1734              	.L48:
 462:Core/Src/vl53l0x_api_core.c **** 			}
 463:Core/Src/vl53l0x_api_core.c **** 
 464:Core/Src/vl53l0x_api_core.c **** 			PALDevDataSet(Dev,
 1735              		.loc 1 464 4 is_stmt 1 view .LVU612
 1736 0570 EB60     		str	r3, [r5, #12]
 1737              	.LVL275:
 1738              	.L47:
 465:Core/Src/vl53l0x_api_core.c **** 				Part2PartOffsetAdjustmentNVMMicroMeter,
 466:Core/Src/vl53l0x_api_core.c **** 				OffsetMicroMeters);
 467:Core/Src/vl53l0x_api_core.c **** 		}
 468:Core/Src/vl53l0x_api_core.c **** 		byte = (uint8_t)(ReadDataFromDeviceDone|option);
 1739              		.loc 1 468 3 view .LVU613
 1740              		.loc 1 468 10 is_stmt 0 view .LVU614
 1741 0572 3E43     		orrs	r6, r6, r7
 469:Core/Src/vl53l0x_api_core.c **** 		VL53L0X_SETDEVICESPECIFICPARAMETER(Dev, ReadDataFromDeviceDone,
 1742              		.loc 1 469 3 is_stmt 1 view .LVU615
 1743 0574 85F8F060 		strb	r6, [r5, #240]
 1744              	.L42:
 470:Core/Src/vl53l0x_api_core.c **** 				byte);
 471:Core/Src/vl53l0x_api_core.c **** 	}
 472:Core/Src/vl53l0x_api_core.c **** 
 473:Core/Src/vl53l0x_api_core.c **** 	LOG_FUNCTION_END(Status);
 1745              		.loc 1 473 2 view .LVU616
 474:Core/Src/vl53l0x_api_core.c **** 	return Status;
ARM GAS  C:\Users\anmh1\AppData\Local\Temp\ccrmGbOb.s 			page 47


 1746              		.loc 1 474 2 view .LVU617
 475:Core/Src/vl53l0x_api_core.c **** }
 1747              		.loc 1 475 1 is_stmt 0 view .LVU618
 1748 0578 2046     		mov	r0, r4
 1749 057a 0DB0     		add	sp, sp, #52
 1750              		.cfi_def_cfa_offset 36
 1751              		@ sp needed
 1752 057c BDE8F08F 		pop	{r4, r5, r6, r7, r8, r9, r10, fp, pc}
 1753              		.loc 1 475 1 view .LVU619
 1754              		.cfi_endproc
 1755              	.LFE140:
 1757              		.section	.text.VL53L0X_calc_macro_period_ps,"ax",%progbits
 1758              		.align	1
 1759              		.global	VL53L0X_calc_macro_period_ps
 1760              		.syntax unified
 1761              		.thumb
 1762              		.thumb_func
 1763              		.fpu fpv4-sp-d16
 1765              	VL53L0X_calc_macro_period_ps:
 1766              	.LVL276:
 1767              	.LFB141:
 476:Core/Src/vl53l0x_api_core.c **** 
 477:Core/Src/vl53l0x_api_core.c **** 
 478:Core/Src/vl53l0x_api_core.c **** uint32_t VL53L0X_calc_macro_period_ps(VL53L0X_DEV Dev, uint8_t vcsel_period_pclks)
 479:Core/Src/vl53l0x_api_core.c **** {
 1768              		.loc 1 479 1 is_stmt 1 view -0
 1769              		.cfi_startproc
 1770              		@ args = 0, pretend = 0, frame = 0
 1771              		@ frame_needed = 0, uses_anonymous_args = 0
 1772              		@ link register save eliminated.
 480:Core/Src/vl53l0x_api_core.c **** 	uint64_t PLL_period_ps;
 1773              		.loc 1 480 2 view .LVU621
 481:Core/Src/vl53l0x_api_core.c **** 	uint32_t macro_period_vclks;
 1774              		.loc 1 481 2 view .LVU622
 482:Core/Src/vl53l0x_api_core.c **** 	uint32_t macro_period_ps;
 1775              		.loc 1 482 2 view .LVU623
 483:Core/Src/vl53l0x_api_core.c **** 
 484:Core/Src/vl53l0x_api_core.c **** 	LOG_FUNCTION_START("");
 1776              		.loc 1 484 2 view .LVU624
 485:Core/Src/vl53l0x_api_core.c **** 
 486:Core/Src/vl53l0x_api_core.c **** 	/* The above calculation will produce rounding errors,
 487:Core/Src/vl53l0x_api_core.c **** 	   therefore set fixed value
 488:Core/Src/vl53l0x_api_core.c **** 	*/
 489:Core/Src/vl53l0x_api_core.c **** 	PLL_period_ps = 1655;
 1777              		.loc 1 489 2 view .LVU625
 490:Core/Src/vl53l0x_api_core.c **** 
 491:Core/Src/vl53l0x_api_core.c **** 	macro_period_vclks = 2304;
 1778              		.loc 1 491 2 view .LVU626
 492:Core/Src/vl53l0x_api_core.c **** 	macro_period_ps = (uint32_t)(macro_period_vclks
 1779              		.loc 1 492 2 view .LVU627
 493:Core/Src/vl53l0x_api_core.c **** 			* vcsel_period_pclks * PLL_period_ps);
 494:Core/Src/vl53l0x_api_core.c **** 
 495:Core/Src/vl53l0x_api_core.c **** 	LOG_FUNCTION_END("");
 1780              		.loc 1 495 2 view .LVU628
 496:Core/Src/vl53l0x_api_core.c **** 	return macro_period_ps;
 1781              		.loc 1 496 2 view .LVU629
 497:Core/Src/vl53l0x_api_core.c **** }
ARM GAS  C:\Users\anmh1\AppData\Local\Temp\ccrmGbOb.s 			page 48


 1782              		.loc 1 497 1 is_stmt 0 view .LVU630
 1783 0000 0148     		ldr	r0, .L62
 1784              	.LVL277:
 1785              		.loc 1 497 1 view .LVU631
 1786 0002 00FB01F0 		mul	r0, r0, r1
 1787              	.LVL278:
 1788              		.loc 1 497 1 view .LVU632
 1789 0006 7047     		bx	lr
 1790              	.L63:
 1791              		.align	2
 1792              	.L62:
 1793 0008 002F3A00 		.word	3813120
 1794              		.cfi_endproc
 1795              	.LFE141:
 1797              		.section	.text.VL53L0X_encode_timeout,"ax",%progbits
 1798              		.align	1
 1799              		.global	VL53L0X_encode_timeout
 1800              		.syntax unified
 1801              		.thumb
 1802              		.thumb_func
 1803              		.fpu fpv4-sp-d16
 1805              	VL53L0X_encode_timeout:
 1806              	.LVL279:
 1807              	.LFB142:
 498:Core/Src/vl53l0x_api_core.c **** 
 499:Core/Src/vl53l0x_api_core.c **** uint16_t VL53L0X_encode_timeout(uint32_t timeout_macro_clks)
 500:Core/Src/vl53l0x_api_core.c **** {
 1808              		.loc 1 500 1 is_stmt 1 view -0
 1809              		.cfi_startproc
 1810              		@ args = 0, pretend = 0, frame = 0
 1811              		@ frame_needed = 0, uses_anonymous_args = 0
 1812              		@ link register save eliminated.
 501:Core/Src/vl53l0x_api_core.c **** 	/*!
 502:Core/Src/vl53l0x_api_core.c **** 	 * Encode timeout in macro periods in (LSByte * 2^MSByte) + 1 format
 503:Core/Src/vl53l0x_api_core.c **** 	 */
 504:Core/Src/vl53l0x_api_core.c **** 
 505:Core/Src/vl53l0x_api_core.c **** 	uint16_t encoded_timeout = 0;
 1813              		.loc 1 505 2 view .LVU634
 506:Core/Src/vl53l0x_api_core.c **** 	uint32_t ls_byte = 0;
 1814              		.loc 1 506 2 view .LVU635
 507:Core/Src/vl53l0x_api_core.c **** 	uint16_t ms_byte = 0;
 1815              		.loc 1 507 2 view .LVU636
 508:Core/Src/vl53l0x_api_core.c **** 
 509:Core/Src/vl53l0x_api_core.c **** 	if (timeout_macro_clks > 0) {
 1816              		.loc 1 509 2 view .LVU637
 1817              		.loc 1 509 5 is_stmt 0 view .LVU638
 1818 0000 70B1     		cbz	r0, .L68
 510:Core/Src/vl53l0x_api_core.c **** 		ls_byte = timeout_macro_clks - 1;
 1819              		.loc 1 510 3 is_stmt 1 view .LVU639
 1820              		.loc 1 510 11 is_stmt 0 view .LVU640
 1821 0002 0138     		subs	r0, r0, #1
 1822              	.LVL280:
 511:Core/Src/vl53l0x_api_core.c **** 
 512:Core/Src/vl53l0x_api_core.c **** 		while ((ls_byte & 0xFFFFFF00) > 0) {
 1823              		.loc 1 512 3 is_stmt 1 view .LVU641
 507:Core/Src/vl53l0x_api_core.c **** 
 1824              		.loc 1 507 11 is_stmt 0 view .LVU642
ARM GAS  C:\Users\anmh1\AppData\Local\Temp\ccrmGbOb.s 			page 49


 1825 0004 0023     		movs	r3, #0
 1826              	.LVL281:
 1827              	.L66:
 1828              		.loc 1 512 9 is_stmt 1 view .LVU643
 1829 0006 30F0FF02 		bics	r2, r0, #255
 1830 000a 03D0     		beq	.L69
 513:Core/Src/vl53l0x_api_core.c **** 			ls_byte = ls_byte >> 1;
 1831              		.loc 1 513 4 view .LVU644
 1832              		.loc 1 513 12 is_stmt 0 view .LVU645
 1833 000c 4008     		lsrs	r0, r0, #1
 1834              	.LVL282:
 514:Core/Src/vl53l0x_api_core.c **** 			ms_byte++;
 1835              		.loc 1 514 4 is_stmt 1 view .LVU646
 1836              		.loc 1 514 11 is_stmt 0 view .LVU647
 1837 000e 0133     		adds	r3, r3, #1
 1838              	.LVL283:
 1839              		.loc 1 514 11 view .LVU648
 1840 0010 9BB2     		uxth	r3, r3
 1841              	.LVL284:
 1842              		.loc 1 514 11 view .LVU649
 1843 0012 F8E7     		b	.L66
 1844              	.L69:
 515:Core/Src/vl53l0x_api_core.c **** 		}
 516:Core/Src/vl53l0x_api_core.c **** 
 517:Core/Src/vl53l0x_api_core.c **** 		encoded_timeout = (ms_byte << 8)
 1845              		.loc 1 517 3 is_stmt 1 view .LVU650
 1846              		.loc 1 517 30 is_stmt 0 view .LVU651
 1847 0014 1B02     		lsls	r3, r3, #8
 1848              	.LVL285:
 1849              		.loc 1 517 30 view .LVU652
 1850 0016 9BB2     		uxth	r3, r3
 1851              		.loc 1 517 19 view .LVU653
 1852 0018 53FA80F0 		uxtab	r0, r3, r0
 1853              	.LVL286:
 1854              		.loc 1 517 19 view .LVU654
 1855 001c 80B2     		uxth	r0, r0
 1856              	.LVL287:
 1857              		.loc 1 517 19 view .LVU655
 1858 001e 7047     		bx	lr
 1859              	.LVL288:
 1860              	.L68:
 505:Core/Src/vl53l0x_api_core.c **** 	uint32_t ls_byte = 0;
 1861              		.loc 1 505 11 view .LVU656
 1862 0020 0020     		movs	r0, #0
 1863              	.LVL289:
 518:Core/Src/vl53l0x_api_core.c **** 				+ (uint16_t) (ls_byte & 0x000000FF);
 519:Core/Src/vl53l0x_api_core.c **** 	}
 520:Core/Src/vl53l0x_api_core.c **** 
 521:Core/Src/vl53l0x_api_core.c **** 	return encoded_timeout;
 1864              		.loc 1 521 2 is_stmt 1 view .LVU657
 522:Core/Src/vl53l0x_api_core.c **** 
 523:Core/Src/vl53l0x_api_core.c **** }
 1865              		.loc 1 523 1 is_stmt 0 view .LVU658
 1866 0022 7047     		bx	lr
 1867              		.cfi_endproc
 1868              	.LFE142:
 1870              		.section	.text.VL53L0X_decode_timeout,"ax",%progbits
ARM GAS  C:\Users\anmh1\AppData\Local\Temp\ccrmGbOb.s 			page 50


 1871              		.align	1
 1872              		.global	VL53L0X_decode_timeout
 1873              		.syntax unified
 1874              		.thumb
 1875              		.thumb_func
 1876              		.fpu fpv4-sp-d16
 1878              	VL53L0X_decode_timeout:
 1879              	.LVL290:
 1880              	.LFB143:
 524:Core/Src/vl53l0x_api_core.c **** 
 525:Core/Src/vl53l0x_api_core.c **** uint32_t VL53L0X_decode_timeout(uint16_t encoded_timeout)
 526:Core/Src/vl53l0x_api_core.c **** {
 1881              		.loc 1 526 1 is_stmt 1 view -0
 1882              		.cfi_startproc
 1883              		@ args = 0, pretend = 0, frame = 0
 1884              		@ frame_needed = 0, uses_anonymous_args = 0
 1885              		@ link register save eliminated.
 527:Core/Src/vl53l0x_api_core.c **** 	/*!
 528:Core/Src/vl53l0x_api_core.c **** 	 * Decode 16-bit timeout register value - format (LSByte * 2^MSByte) + 1
 529:Core/Src/vl53l0x_api_core.c **** 	 */
 530:Core/Src/vl53l0x_api_core.c **** 
 531:Core/Src/vl53l0x_api_core.c **** 	uint32_t timeout_macro_clks = 0;
 1886              		.loc 1 531 2 view .LVU660
 532:Core/Src/vl53l0x_api_core.c **** 
 533:Core/Src/vl53l0x_api_core.c **** 	timeout_macro_clks = ((uint32_t) (encoded_timeout & 0x00FF)
 1887              		.loc 1 533 2 view .LVU661
 1888              		.loc 1 533 24 is_stmt 0 view .LVU662
 1889 0000 C3B2     		uxtb	r3, r0
 534:Core/Src/vl53l0x_api_core.c **** 			<< (uint32_t) ((encoded_timeout & 0xFF00) >> 8)) + 1;
 1890              		.loc 1 534 46 view .LVU663
 1891 0002 000A     		lsrs	r0, r0, #8
 1892              	.LVL291:
 1893              		.loc 1 534 4 view .LVU664
 1894 0004 03FA00F0 		lsl	r0, r3, r0
 1895              	.LVL292:
 535:Core/Src/vl53l0x_api_core.c **** 
 536:Core/Src/vl53l0x_api_core.c **** 	return timeout_macro_clks;
 1896              		.loc 1 536 2 is_stmt 1 view .LVU665
 537:Core/Src/vl53l0x_api_core.c **** }
 1897              		.loc 1 537 1 is_stmt 0 view .LVU666
 1898 0008 0130     		adds	r0, r0, #1
 1899              	.LVL293:
 1900              		.loc 1 537 1 view .LVU667
 1901 000a 7047     		bx	lr
 1902              		.cfi_endproc
 1903              	.LFE143:
 1905              		.section	.text.VL53L0X_calc_timeout_mclks,"ax",%progbits
 1906              		.align	1
 1907              		.global	VL53L0X_calc_timeout_mclks
 1908              		.syntax unified
 1909              		.thumb
 1910              		.thumb_func
 1911              		.fpu fpv4-sp-d16
 1913              	VL53L0X_calc_timeout_mclks:
 1914              	.LVL294:
 1915              	.LFB144:
 538:Core/Src/vl53l0x_api_core.c **** 
ARM GAS  C:\Users\anmh1\AppData\Local\Temp\ccrmGbOb.s 			page 51


 539:Core/Src/vl53l0x_api_core.c **** 
 540:Core/Src/vl53l0x_api_core.c **** /* To convert ms into register value */
 541:Core/Src/vl53l0x_api_core.c **** uint32_t VL53L0X_calc_timeout_mclks(VL53L0X_DEV Dev,
 542:Core/Src/vl53l0x_api_core.c **** 		uint32_t timeout_period_us,
 543:Core/Src/vl53l0x_api_core.c **** 		uint8_t vcsel_period_pclks)
 544:Core/Src/vl53l0x_api_core.c **** {
 1916              		.loc 1 544 1 is_stmt 1 view -0
 1917              		.cfi_startproc
 1918              		@ args = 0, pretend = 0, frame = 0
 1919              		@ frame_needed = 0, uses_anonymous_args = 0
 1920              		.loc 1 544 1 is_stmt 0 view .LVU669
 1921 0000 10B5     		push	{r4, lr}
 1922              		.cfi_def_cfa_offset 8
 1923              		.cfi_offset 4, -8
 1924              		.cfi_offset 14, -4
 1925 0002 0C46     		mov	r4, r1
 545:Core/Src/vl53l0x_api_core.c **** 	uint32_t macro_period_ps;
 1926              		.loc 1 545 2 is_stmt 1 view .LVU670
 546:Core/Src/vl53l0x_api_core.c **** 	uint32_t macro_period_ns;
 1927              		.loc 1 546 2 view .LVU671
 547:Core/Src/vl53l0x_api_core.c **** 	uint32_t timeout_period_mclks = 0;
 1928              		.loc 1 547 2 view .LVU672
 1929              	.LVL295:
 548:Core/Src/vl53l0x_api_core.c **** 
 549:Core/Src/vl53l0x_api_core.c **** 	macro_period_ps = VL53L0X_calc_macro_period_ps(Dev, vcsel_period_pclks);
 1930              		.loc 1 549 2 view .LVU673
 1931              		.loc 1 549 20 is_stmt 0 view .LVU674
 1932 0004 1146     		mov	r1, r2
 1933              	.LVL296:
 1934              		.loc 1 549 20 view .LVU675
 1935 0006 FFF7FEFF 		bl	VL53L0X_calc_macro_period_ps
 1936              	.LVL297:
 550:Core/Src/vl53l0x_api_core.c **** 	macro_period_ns = (macro_period_ps + 500) / 1000;
 1937              		.loc 1 550 2 is_stmt 1 view .LVU676
 1938              		.loc 1 550 37 is_stmt 0 view .LVU677
 1939 000a 00F5FA73 		add	r3, r0, #500
 1940              		.loc 1 550 18 view .LVU678
 1941 000e 0648     		ldr	r0, .L73
 1942              	.LVL298:
 1943              		.loc 1 550 18 view .LVU679
 1944 0010 A0FB0323 		umull	r2, r3, r0, r3
 1945              	.LVL299:
 1946              		.loc 1 550 18 view .LVU680
 1947 0014 9809     		lsrs	r0, r3, #6
 1948              	.LVL300:
 551:Core/Src/vl53l0x_api_core.c **** 
 552:Core/Src/vl53l0x_api_core.c **** 	timeout_period_mclks =
 1949              		.loc 1 552 2 is_stmt 1 view .LVU681
 553:Core/Src/vl53l0x_api_core.c **** 		(uint32_t) (((timeout_period_us * 1000)
 554:Core/Src/vl53l0x_api_core.c **** 		+ (macro_period_ns / 2)) / macro_period_ns);
 1950              		.loc 1 554 22 is_stmt 0 view .LVU682
 1951 0016 DB09     		lsrs	r3, r3, #7
 1952              		.loc 1 554 3 view .LVU683
 1953 0018 4FF47A71 		mov	r1, #1000
 1954 001c 01FB0433 		mla	r3, r1, r4, r3
 1955              	.LVL301:
 555:Core/Src/vl53l0x_api_core.c **** 
ARM GAS  C:\Users\anmh1\AppData\Local\Temp\ccrmGbOb.s 			page 52


 556:Core/Src/vl53l0x_api_core.c ****     return timeout_period_mclks;
 1956              		.loc 1 556 5 is_stmt 1 view .LVU684
 557:Core/Src/vl53l0x_api_core.c **** }
 1957              		.loc 1 557 1 is_stmt 0 view .LVU685
 1958 0020 B3FBF0F0 		udiv	r0, r3, r0
 1959              	.LVL302:
 1960              		.loc 1 557 1 view .LVU686
 1961 0024 10BD     		pop	{r4, pc}
 1962              	.LVL303:
 1963              	.L74:
 1964              		.loc 1 557 1 view .LVU687
 1965 0026 00BF     		.align	2
 1966              	.L73:
 1967 0028 D34D6210 		.word	274877907
 1968              		.cfi_endproc
 1969              	.LFE144:
 1971              		.section	.text.VL53L0X_calc_timeout_us,"ax",%progbits
 1972              		.align	1
 1973              		.global	VL53L0X_calc_timeout_us
 1974              		.syntax unified
 1975              		.thumb
 1976              		.thumb_func
 1977              		.fpu fpv4-sp-d16
 1979              	VL53L0X_calc_timeout_us:
 1980              	.LVL304:
 1981              	.LFB145:
 558:Core/Src/vl53l0x_api_core.c **** 
 559:Core/Src/vl53l0x_api_core.c **** /* To convert register value into us */
 560:Core/Src/vl53l0x_api_core.c **** uint32_t VL53L0X_calc_timeout_us(VL53L0X_DEV Dev,
 561:Core/Src/vl53l0x_api_core.c **** 		uint16_t timeout_period_mclks,
 562:Core/Src/vl53l0x_api_core.c **** 		uint8_t vcsel_period_pclks)
 563:Core/Src/vl53l0x_api_core.c **** {
 1982              		.loc 1 563 1 is_stmt 1 view -0
 1983              		.cfi_startproc
 1984              		@ args = 0, pretend = 0, frame = 0
 1985              		@ frame_needed = 0, uses_anonymous_args = 0
 1986              		.loc 1 563 1 is_stmt 0 view .LVU689
 1987 0000 10B5     		push	{r4, lr}
 1988              		.cfi_def_cfa_offset 8
 1989              		.cfi_offset 4, -8
 1990              		.cfi_offset 14, -4
 1991 0002 0C46     		mov	r4, r1
 564:Core/Src/vl53l0x_api_core.c **** 	uint32_t macro_period_ps;
 1992              		.loc 1 564 2 is_stmt 1 view .LVU690
 565:Core/Src/vl53l0x_api_core.c **** 	uint32_t macro_period_ns;
 1993              		.loc 1 565 2 view .LVU691
 566:Core/Src/vl53l0x_api_core.c **** 	uint32_t actual_timeout_period_us = 0;
 1994              		.loc 1 566 2 view .LVU692
 1995              	.LVL305:
 567:Core/Src/vl53l0x_api_core.c **** 
 568:Core/Src/vl53l0x_api_core.c **** 	macro_period_ps = VL53L0X_calc_macro_period_ps(Dev, vcsel_period_pclks);
 1996              		.loc 1 568 2 view .LVU693
 1997              		.loc 1 568 20 is_stmt 0 view .LVU694
 1998 0004 1146     		mov	r1, r2
 1999              	.LVL306:
 2000              		.loc 1 568 20 view .LVU695
 2001 0006 FFF7FEFF 		bl	VL53L0X_calc_macro_period_ps
ARM GAS  C:\Users\anmh1\AppData\Local\Temp\ccrmGbOb.s 			page 53


 2002              	.LVL307:
 569:Core/Src/vl53l0x_api_core.c **** 	macro_period_ns = (macro_period_ps + 500) / 1000;
 2003              		.loc 1 569 2 is_stmt 1 view .LVU696
 2004              		.loc 1 569 37 is_stmt 0 view .LVU697
 2005 000a 00F5FA70 		add	r0, r0, #500
 2006              	.LVL308:
 2007              		.loc 1 569 18 view .LVU698
 2008 000e 064B     		ldr	r3, .L77
 2009 0010 A3FB0020 		umull	r2, r0, r3, r0
 2010              	.LVL309:
 2011              		.loc 1 569 18 view .LVU699
 2012 0014 8009     		lsrs	r0, r0, #6
 2013              	.LVL310:
 570:Core/Src/vl53l0x_api_core.c **** 
 571:Core/Src/vl53l0x_api_core.c **** 	actual_timeout_period_us =
 2014              		.loc 1 571 2 is_stmt 1 view .LVU700
 572:Core/Src/vl53l0x_api_core.c **** 		((timeout_period_mclks * macro_period_ns) + 500) / 1000;
 2015              		.loc 1 572 26 is_stmt 0 view .LVU701
 2016 0016 00FB04F0 		mul	r0, r0, r4
 2017              	.LVL311:
 2018              		.loc 1 572 45 view .LVU702
 2019 001a 00F5FA70 		add	r0, r0, #500
 571:Core/Src/vl53l0x_api_core.c **** 		((timeout_period_mclks * macro_period_ns) + 500) / 1000;
 2020              		.loc 1 571 27 view .LVU703
 2021 001e A3FB0030 		umull	r3, r0, r3, r0
 2022              	.LVL312:
 573:Core/Src/vl53l0x_api_core.c **** 
 574:Core/Src/vl53l0x_api_core.c **** 	return actual_timeout_period_us;
 2023              		.loc 1 574 2 is_stmt 1 view .LVU704
 575:Core/Src/vl53l0x_api_core.c **** }
 2024              		.loc 1 575 1 is_stmt 0 view .LVU705
 2025 0022 8009     		lsrs	r0, r0, #6
 2026              	.LVL313:
 2027              		.loc 1 575 1 view .LVU706
 2028 0024 10BD     		pop	{r4, pc}
 2029              	.L78:
 2030 0026 00BF     		.align	2
 2031              	.L77:
 2032 0028 D34D6210 		.word	274877907
 2033              		.cfi_endproc
 2034              	.LFE145:
 2036              		.section	.text.get_sequence_step_timeout,"ax",%progbits
 2037              		.align	1
 2038              		.global	get_sequence_step_timeout
 2039              		.syntax unified
 2040              		.thumb
 2041              		.thumb_func
 2042              		.fpu fpv4-sp-d16
 2044              	get_sequence_step_timeout:
 2045              	.LVL314:
 2046              	.LFB146:
 576:Core/Src/vl53l0x_api_core.c **** 
 577:Core/Src/vl53l0x_api_core.c **** 
 578:Core/Src/vl53l0x_api_core.c **** VL53L0X_Error get_sequence_step_timeout(VL53L0X_DEV Dev,
 579:Core/Src/vl53l0x_api_core.c **** 				VL53L0X_SequenceStepId SequenceStepId,
 580:Core/Src/vl53l0x_api_core.c **** 				uint32_t *pTimeOutMicroSecs)
 581:Core/Src/vl53l0x_api_core.c **** {
ARM GAS  C:\Users\anmh1\AppData\Local\Temp\ccrmGbOb.s 			page 54


 2047              		.loc 1 581 1 is_stmt 1 view -0
 2048              		.cfi_startproc
 2049              		@ args = 0, pretend = 0, frame = 16
 2050              		@ frame_needed = 0, uses_anonymous_args = 0
 2051              		.loc 1 581 1 is_stmt 0 view .LVU708
 2052 0000 F0B5     		push	{r4, r5, r6, r7, lr}
 2053              		.cfi_def_cfa_offset 20
 2054              		.cfi_offset 4, -20
 2055              		.cfi_offset 5, -16
 2056              		.cfi_offset 6, -12
 2057              		.cfi_offset 7, -8
 2058              		.cfi_offset 14, -4
 2059 0002 85B0     		sub	sp, sp, #20
 2060              		.cfi_def_cfa_offset 40
 2061 0004 0446     		mov	r4, r0
 2062 0006 1546     		mov	r5, r2
 582:Core/Src/vl53l0x_api_core.c **** 	VL53L0X_Error Status = VL53L0X_ERROR_NONE;
 2063              		.loc 1 582 2 is_stmt 1 view .LVU709
 2064              	.LVL315:
 583:Core/Src/vl53l0x_api_core.c **** 	uint8_t CurrentVCSELPulsePeriodPClk;
 2065              		.loc 1 583 2 view .LVU710
 584:Core/Src/vl53l0x_api_core.c **** 	uint8_t EncodedTimeOutByte = 0;
 2066              		.loc 1 584 2 view .LVU711
 2067              		.loc 1 584 10 is_stmt 0 view .LVU712
 2068 0008 0023     		movs	r3, #0
 2069 000a 8DF80E30 		strb	r3, [sp, #14]
 585:Core/Src/vl53l0x_api_core.c **** 	uint32_t TimeoutMicroSeconds = 0;
 2070              		.loc 1 585 2 is_stmt 1 view .LVU713
 2071              	.LVL316:
 586:Core/Src/vl53l0x_api_core.c **** 	uint16_t PreRangeEncodedTimeOut = 0;
 2072              		.loc 1 586 2 view .LVU714
 2073              		.loc 1 586 11 is_stmt 0 view .LVU715
 2074 000e ADF80C30 		strh	r3, [sp, #12]	@ movhi
 587:Core/Src/vl53l0x_api_core.c **** 	uint16_t MsrcTimeOutMClks;
 2075              		.loc 1 587 2 is_stmt 1 view .LVU716
 588:Core/Src/vl53l0x_api_core.c **** 	uint16_t PreRangeTimeOutMClks;
 2076              		.loc 1 588 2 view .LVU717
 589:Core/Src/vl53l0x_api_core.c **** 	uint16_t FinalRangeTimeOutMClks = 0;
 2077              		.loc 1 589 2 view .LVU718
 2078              	.LVL317:
 590:Core/Src/vl53l0x_api_core.c **** 	uint16_t FinalRangeEncodedTimeOut;
 2079              		.loc 1 590 2 view .LVU719
 591:Core/Src/vl53l0x_api_core.c **** 	VL53L0X_SchedulerSequenceSteps_t SchedulerSequenceSteps;
 2080              		.loc 1 591 2 view .LVU720
 592:Core/Src/vl53l0x_api_core.c **** 
 593:Core/Src/vl53l0x_api_core.c **** 	if ((SequenceStepId == VL53L0X_SEQUENCESTEP_TCC)	 ||
 2081              		.loc 1 593 2 view .LVU721
 2082              		.loc 1 593 5 is_stmt 0 view .LVU722
 2083 0012 0229     		cmp	r1, #2
 2084 0014 09D9     		bls	.L95
 594:Core/Src/vl53l0x_api_core.c **** 		(SequenceStepId == VL53L0X_SEQUENCESTEP_DSS)	 ||
 595:Core/Src/vl53l0x_api_core.c **** 		(SequenceStepId == VL53L0X_SEQUENCESTEP_MSRC)) {
 596:Core/Src/vl53l0x_api_core.c **** 
 597:Core/Src/vl53l0x_api_core.c **** 		Status = VL53L0X_GetVcselPulsePeriod(Dev,
 598:Core/Src/vl53l0x_api_core.c **** 					VL53L0X_VCSEL_PERIOD_PRE_RANGE,
 599:Core/Src/vl53l0x_api_core.c **** 					&CurrentVCSELPulsePeriodPClk);
 600:Core/Src/vl53l0x_api_core.c **** 		if (Status == VL53L0X_ERROR_NONE) {
ARM GAS  C:\Users\anmh1\AppData\Local\Temp\ccrmGbOb.s 			page 55


 601:Core/Src/vl53l0x_api_core.c **** 			Status = VL53L0X_RdByte(Dev,
 602:Core/Src/vl53l0x_api_core.c **** 					VL53L0X_REG_MSRC_CONFIG_TIMEOUT_MACROP,
 603:Core/Src/vl53l0x_api_core.c **** 					&EncodedTimeOutByte);
 604:Core/Src/vl53l0x_api_core.c **** 		}
 605:Core/Src/vl53l0x_api_core.c **** 		MsrcTimeOutMClks = VL53L0X_decode_timeout(EncodedTimeOutByte);
 606:Core/Src/vl53l0x_api_core.c **** 
 607:Core/Src/vl53l0x_api_core.c **** 		TimeoutMicroSeconds = VL53L0X_calc_timeout_us(Dev,
 608:Core/Src/vl53l0x_api_core.c **** 						MsrcTimeOutMClks,
 609:Core/Src/vl53l0x_api_core.c **** 						CurrentVCSELPulsePeriodPClk);
 610:Core/Src/vl53l0x_api_core.c **** 	} else if (SequenceStepId == VL53L0X_SEQUENCESTEP_PRE_RANGE) {
 2085              		.loc 1 610 9 is_stmt 1 view .LVU723
 2086              		.loc 1 610 12 is_stmt 0 view .LVU724
 2087 0016 0329     		cmp	r1, #3
 2088 0018 21D0     		beq	.L96
 611:Core/Src/vl53l0x_api_core.c **** 		/* Retrieve PRE-RANGE VCSEL Period */
 612:Core/Src/vl53l0x_api_core.c **** 		Status = VL53L0X_GetVcselPulsePeriod(Dev,
 613:Core/Src/vl53l0x_api_core.c **** 						VL53L0X_VCSEL_PERIOD_PRE_RANGE,
 614:Core/Src/vl53l0x_api_core.c **** 						&CurrentVCSELPulsePeriodPClk);
 615:Core/Src/vl53l0x_api_core.c **** 
 616:Core/Src/vl53l0x_api_core.c **** 		/* Retrieve PRE-RANGE Timeout in Macro periods (MCLKS) */
 617:Core/Src/vl53l0x_api_core.c **** 		if (Status == VL53L0X_ERROR_NONE) {
 618:Core/Src/vl53l0x_api_core.c **** 
 619:Core/Src/vl53l0x_api_core.c **** 			/* Retrieve PRE-RANGE VCSEL Period */
 620:Core/Src/vl53l0x_api_core.c **** 			Status = VL53L0X_GetVcselPulsePeriod(Dev,
 621:Core/Src/vl53l0x_api_core.c **** 					VL53L0X_VCSEL_PERIOD_PRE_RANGE,
 622:Core/Src/vl53l0x_api_core.c **** 					&CurrentVCSELPulsePeriodPClk);
 623:Core/Src/vl53l0x_api_core.c **** 
 624:Core/Src/vl53l0x_api_core.c **** 			if (Status == VL53L0X_ERROR_NONE) {
 625:Core/Src/vl53l0x_api_core.c **** 				Status = VL53L0X_RdWord(Dev,
 626:Core/Src/vl53l0x_api_core.c **** 				VL53L0X_REG_PRE_RANGE_CONFIG_TIMEOUT_MACROP_HI,
 627:Core/Src/vl53l0x_api_core.c **** 				&PreRangeEncodedTimeOut);
 628:Core/Src/vl53l0x_api_core.c **** 			}
 629:Core/Src/vl53l0x_api_core.c **** 
 630:Core/Src/vl53l0x_api_core.c **** 			PreRangeTimeOutMClks = VL53L0X_decode_timeout(
 631:Core/Src/vl53l0x_api_core.c **** 					PreRangeEncodedTimeOut);
 632:Core/Src/vl53l0x_api_core.c **** 
 633:Core/Src/vl53l0x_api_core.c **** 			TimeoutMicroSeconds = VL53L0X_calc_timeout_us(Dev,
 634:Core/Src/vl53l0x_api_core.c **** 					PreRangeTimeOutMClks,
 635:Core/Src/vl53l0x_api_core.c **** 					CurrentVCSELPulsePeriodPClk);
 636:Core/Src/vl53l0x_api_core.c **** 		}
 637:Core/Src/vl53l0x_api_core.c **** 	} else if (SequenceStepId == VL53L0X_SEQUENCESTEP_FINAL_RANGE) {
 2089              		.loc 1 637 9 is_stmt 1 view .LVU725
 2090              		.loc 1 637 12 is_stmt 0 view .LVU726
 2091 001a 0429     		cmp	r1, #4
 2092 001c 42D0     		beq	.L97
 585:Core/Src/vl53l0x_api_core.c **** 	uint16_t PreRangeEncodedTimeOut = 0;
 2093              		.loc 1 585 11 view .LVU727
 2094 001e 0020     		movs	r0, #0
 2095              	.LVL318:
 582:Core/Src/vl53l0x_api_core.c **** 	uint8_t CurrentVCSELPulsePeriodPClk;
 2096              		.loc 1 582 16 view .LVU728
 2097 0020 0646     		mov	r6, r0
 2098              	.LVL319:
 2099              	.L82:
 638:Core/Src/vl53l0x_api_core.c **** 
 639:Core/Src/vl53l0x_api_core.c **** 		VL53L0X_GetSequenceStepEnables(Dev, &SchedulerSequenceSteps);
 640:Core/Src/vl53l0x_api_core.c **** 		PreRangeTimeOutMClks = 0;
ARM GAS  C:\Users\anmh1\AppData\Local\Temp\ccrmGbOb.s 			page 56


 641:Core/Src/vl53l0x_api_core.c **** 
 642:Core/Src/vl53l0x_api_core.c **** 		if (SchedulerSequenceSteps.PreRangeOn) {
 643:Core/Src/vl53l0x_api_core.c **** 			/* Retrieve PRE-RANGE VCSEL Period */
 644:Core/Src/vl53l0x_api_core.c **** 			Status = VL53L0X_GetVcselPulsePeriod(Dev,
 645:Core/Src/vl53l0x_api_core.c **** 				VL53L0X_VCSEL_PERIOD_PRE_RANGE,
 646:Core/Src/vl53l0x_api_core.c **** 				&CurrentVCSELPulsePeriodPClk);
 647:Core/Src/vl53l0x_api_core.c **** 
 648:Core/Src/vl53l0x_api_core.c **** 			/* Retrieve PRE-RANGE Timeout in Macro periods
 649:Core/Src/vl53l0x_api_core.c **** 			 * (MCLKS) */
 650:Core/Src/vl53l0x_api_core.c **** 			if (Status == VL53L0X_ERROR_NONE) {
 651:Core/Src/vl53l0x_api_core.c **** 				Status = VL53L0X_RdWord(Dev,
 652:Core/Src/vl53l0x_api_core.c **** 				VL53L0X_REG_PRE_RANGE_CONFIG_TIMEOUT_MACROP_HI,
 653:Core/Src/vl53l0x_api_core.c **** 				&PreRangeEncodedTimeOut);
 654:Core/Src/vl53l0x_api_core.c **** 				PreRangeTimeOutMClks = VL53L0X_decode_timeout(
 655:Core/Src/vl53l0x_api_core.c **** 						PreRangeEncodedTimeOut);
 656:Core/Src/vl53l0x_api_core.c **** 			}
 657:Core/Src/vl53l0x_api_core.c **** 		}
 658:Core/Src/vl53l0x_api_core.c **** 
 659:Core/Src/vl53l0x_api_core.c **** 		if (Status == VL53L0X_ERROR_NONE) {
 660:Core/Src/vl53l0x_api_core.c **** 			/* Retrieve FINAL-RANGE VCSEL Period */
 661:Core/Src/vl53l0x_api_core.c **** 			Status = VL53L0X_GetVcselPulsePeriod(Dev,
 662:Core/Src/vl53l0x_api_core.c **** 					VL53L0X_VCSEL_PERIOD_FINAL_RANGE,
 663:Core/Src/vl53l0x_api_core.c **** 					&CurrentVCSELPulsePeriodPClk);
 664:Core/Src/vl53l0x_api_core.c **** 		}
 665:Core/Src/vl53l0x_api_core.c **** 
 666:Core/Src/vl53l0x_api_core.c **** 		/* Retrieve FINAL-RANGE Timeout in Macro periods (MCLKS) */
 667:Core/Src/vl53l0x_api_core.c **** 		if (Status == VL53L0X_ERROR_NONE) {
 668:Core/Src/vl53l0x_api_core.c **** 			Status = VL53L0X_RdWord(Dev,
 669:Core/Src/vl53l0x_api_core.c **** 				VL53L0X_REG_FINAL_RANGE_CONFIG_TIMEOUT_MACROP_HI,
 670:Core/Src/vl53l0x_api_core.c **** 				&FinalRangeEncodedTimeOut);
 671:Core/Src/vl53l0x_api_core.c **** 			FinalRangeTimeOutMClks = VL53L0X_decode_timeout(
 672:Core/Src/vl53l0x_api_core.c **** 					FinalRangeEncodedTimeOut);
 673:Core/Src/vl53l0x_api_core.c **** 		}
 674:Core/Src/vl53l0x_api_core.c **** 
 675:Core/Src/vl53l0x_api_core.c **** 		FinalRangeTimeOutMClks -= PreRangeTimeOutMClks;
 676:Core/Src/vl53l0x_api_core.c **** 		TimeoutMicroSeconds = VL53L0X_calc_timeout_us(Dev,
 677:Core/Src/vl53l0x_api_core.c **** 						FinalRangeTimeOutMClks,
 678:Core/Src/vl53l0x_api_core.c **** 						CurrentVCSELPulsePeriodPClk);
 679:Core/Src/vl53l0x_api_core.c **** 	}
 680:Core/Src/vl53l0x_api_core.c **** 
 681:Core/Src/vl53l0x_api_core.c **** 	*pTimeOutMicroSecs = TimeoutMicroSeconds;
 2100              		.loc 1 681 2 is_stmt 1 view .LVU729
 2101              		.loc 1 681 21 is_stmt 0 view .LVU730
 2102 0022 2860     		str	r0, [r5]
 682:Core/Src/vl53l0x_api_core.c **** 
 683:Core/Src/vl53l0x_api_core.c **** 	return Status;
 2103              		.loc 1 683 2 is_stmt 1 view .LVU731
 684:Core/Src/vl53l0x_api_core.c **** }
 2104              		.loc 1 684 1 is_stmt 0 view .LVU732
 2105 0024 3046     		mov	r0, r6
 2106              	.LVL320:
 2107              		.loc 1 684 1 view .LVU733
 2108 0026 05B0     		add	sp, sp, #20
 2109              		.cfi_remember_state
 2110              		.cfi_def_cfa_offset 20
 2111              		@ sp needed
 2112 0028 F0BD     		pop	{r4, r5, r6, r7, pc}
ARM GAS  C:\Users\anmh1\AppData\Local\Temp\ccrmGbOb.s 			page 57


 2113              	.LVL321:
 2114              	.L95:
 2115              		.cfi_restore_state
 597:Core/Src/vl53l0x_api_core.c **** 					VL53L0X_VCSEL_PERIOD_PRE_RANGE,
 2116              		.loc 1 597 3 is_stmt 1 view .LVU734
 597:Core/Src/vl53l0x_api_core.c **** 					VL53L0X_VCSEL_PERIOD_PRE_RANGE,
 2117              		.loc 1 597 12 is_stmt 0 view .LVU735
 2118 002a 0DF10F02 		add	r2, sp, #15
 2119              	.LVL322:
 597:Core/Src/vl53l0x_api_core.c **** 					VL53L0X_VCSEL_PERIOD_PRE_RANGE,
 2120              		.loc 1 597 12 view .LVU736
 2121 002e 1946     		mov	r1, r3
 2122              	.LVL323:
 597:Core/Src/vl53l0x_api_core.c **** 					VL53L0X_VCSEL_PERIOD_PRE_RANGE,
 2123              		.loc 1 597 12 view .LVU737
 2124 0030 FFF7FEFF 		bl	VL53L0X_GetVcselPulsePeriod
 2125              	.LVL324:
 600:Core/Src/vl53l0x_api_core.c **** 			Status = VL53L0X_RdByte(Dev,
 2126              		.loc 1 600 3 is_stmt 1 view .LVU738
 600:Core/Src/vl53l0x_api_core.c **** 			Status = VL53L0X_RdByte(Dev,
 2127              		.loc 1 600 6 is_stmt 0 view .LVU739
 2128 0034 0646     		mov	r6, r0
 2129 0036 50B1     		cbz	r0, .L98
 2130              	.LVL325:
 2131              	.L81:
 605:Core/Src/vl53l0x_api_core.c **** 
 2132              		.loc 1 605 3 is_stmt 1 view .LVU740
 605:Core/Src/vl53l0x_api_core.c **** 
 2133              		.loc 1 605 22 is_stmt 0 view .LVU741
 2134 0038 9DF80E00 		ldrb	r0, [sp, #14]	@ zero_extendqisi2
 2135 003c FFF7FEFF 		bl	VL53L0X_decode_timeout
 2136              	.LVL326:
 607:Core/Src/vl53l0x_api_core.c **** 						MsrcTimeOutMClks,
 2137              		.loc 1 607 3 is_stmt 1 view .LVU742
 607:Core/Src/vl53l0x_api_core.c **** 						MsrcTimeOutMClks,
 2138              		.loc 1 607 25 is_stmt 0 view .LVU743
 2139 0040 9DF80F20 		ldrb	r2, [sp, #15]	@ zero_extendqisi2
 2140 0044 81B2     		uxth	r1, r0
 2141 0046 2046     		mov	r0, r4
 2142              	.LVL327:
 607:Core/Src/vl53l0x_api_core.c **** 						MsrcTimeOutMClks,
 2143              		.loc 1 607 25 view .LVU744
 2144 0048 FFF7FEFF 		bl	VL53L0X_calc_timeout_us
 2145              	.LVL328:
 607:Core/Src/vl53l0x_api_core.c **** 						MsrcTimeOutMClks,
 2146              		.loc 1 607 25 view .LVU745
 2147 004c E9E7     		b	.L82
 2148              	.LVL329:
 2149              	.L98:
 601:Core/Src/vl53l0x_api_core.c **** 					VL53L0X_REG_MSRC_CONFIG_TIMEOUT_MACROP,
 2150              		.loc 1 601 4 is_stmt 1 view .LVU746
 601:Core/Src/vl53l0x_api_core.c **** 					VL53L0X_REG_MSRC_CONFIG_TIMEOUT_MACROP,
 2151              		.loc 1 601 13 is_stmt 0 view .LVU747
 2152 004e 0DF10E02 		add	r2, sp, #14
 2153 0052 4621     		movs	r1, #70
 2154 0054 2046     		mov	r0, r4
 2155              	.LVL330:
ARM GAS  C:\Users\anmh1\AppData\Local\Temp\ccrmGbOb.s 			page 58


 601:Core/Src/vl53l0x_api_core.c **** 					VL53L0X_REG_MSRC_CONFIG_TIMEOUT_MACROP,
 2156              		.loc 1 601 13 view .LVU748
 2157 0056 FFF7FEFF 		bl	VL53L0X_RdByte
 2158              	.LVL331:
 2159 005a 0646     		mov	r6, r0
 2160              	.LVL332:
 601:Core/Src/vl53l0x_api_core.c **** 					VL53L0X_REG_MSRC_CONFIG_TIMEOUT_MACROP,
 2161              		.loc 1 601 13 view .LVU749
 2162 005c ECE7     		b	.L81
 2163              	.LVL333:
 2164              	.L96:
 612:Core/Src/vl53l0x_api_core.c **** 						VL53L0X_VCSEL_PERIOD_PRE_RANGE,
 2165              		.loc 1 612 3 is_stmt 1 view .LVU750
 612:Core/Src/vl53l0x_api_core.c **** 						VL53L0X_VCSEL_PERIOD_PRE_RANGE,
 2166              		.loc 1 612 12 is_stmt 0 view .LVU751
 2167 005e 0DF10F02 		add	r2, sp, #15
 2168              	.LVL334:
 612:Core/Src/vl53l0x_api_core.c **** 						VL53L0X_VCSEL_PERIOD_PRE_RANGE,
 2169              		.loc 1 612 12 view .LVU752
 2170 0062 0021     		movs	r1, #0
 2171              	.LVL335:
 612:Core/Src/vl53l0x_api_core.c **** 						VL53L0X_VCSEL_PERIOD_PRE_RANGE,
 2172              		.loc 1 612 12 view .LVU753
 2173 0064 FFF7FEFF 		bl	VL53L0X_GetVcselPulsePeriod
 2174              	.LVL336:
 617:Core/Src/vl53l0x_api_core.c **** 
 2175              		.loc 1 617 3 is_stmt 1 view .LVU754
 617:Core/Src/vl53l0x_api_core.c **** 
 2176              		.loc 1 617 6 is_stmt 0 view .LVU755
 2177 0068 0646     		mov	r6, r0
 2178 006a 08B1     		cbz	r0, .L99
 585:Core/Src/vl53l0x_api_core.c **** 	uint16_t PreRangeEncodedTimeOut = 0;
 2179              		.loc 1 585 11 view .LVU756
 2180 006c 0020     		movs	r0, #0
 2181              	.LVL337:
 585:Core/Src/vl53l0x_api_core.c **** 	uint16_t PreRangeEncodedTimeOut = 0;
 2182              		.loc 1 585 11 view .LVU757
 2183 006e D8E7     		b	.L82
 2184              	.LVL338:
 2185              	.L99:
 620:Core/Src/vl53l0x_api_core.c **** 					VL53L0X_VCSEL_PERIOD_PRE_RANGE,
 2186              		.loc 1 620 4 is_stmt 1 view .LVU758
 620:Core/Src/vl53l0x_api_core.c **** 					VL53L0X_VCSEL_PERIOD_PRE_RANGE,
 2187              		.loc 1 620 13 is_stmt 0 view .LVU759
 2188 0070 0DF10F02 		add	r2, sp, #15
 2189 0074 0021     		movs	r1, #0
 2190 0076 2046     		mov	r0, r4
 2191              	.LVL339:
 620:Core/Src/vl53l0x_api_core.c **** 					VL53L0X_VCSEL_PERIOD_PRE_RANGE,
 2192              		.loc 1 620 13 view .LVU760
 2193 0078 FFF7FEFF 		bl	VL53L0X_GetVcselPulsePeriod
 2194              	.LVL340:
 624:Core/Src/vl53l0x_api_core.c **** 				Status = VL53L0X_RdWord(Dev,
 2195              		.loc 1 624 4 is_stmt 1 view .LVU761
 624:Core/Src/vl53l0x_api_core.c **** 				Status = VL53L0X_RdWord(Dev,
 2196              		.loc 1 624 7 is_stmt 0 view .LVU762
 2197 007c 0646     		mov	r6, r0
ARM GAS  C:\Users\anmh1\AppData\Local\Temp\ccrmGbOb.s 			page 59


 2198 007e 50B1     		cbz	r0, .L100
 2199              	.LVL341:
 2200              	.L84:
 630:Core/Src/vl53l0x_api_core.c **** 					PreRangeEncodedTimeOut);
 2201              		.loc 1 630 4 is_stmt 1 view .LVU763
 630:Core/Src/vl53l0x_api_core.c **** 					PreRangeEncodedTimeOut);
 2202              		.loc 1 630 27 is_stmt 0 view .LVU764
 2203 0080 BDF80C00 		ldrh	r0, [sp, #12]
 2204 0084 FFF7FEFF 		bl	VL53L0X_decode_timeout
 2205              	.LVL342:
 633:Core/Src/vl53l0x_api_core.c **** 					PreRangeTimeOutMClks,
 2206              		.loc 1 633 4 is_stmt 1 view .LVU765
 633:Core/Src/vl53l0x_api_core.c **** 					PreRangeTimeOutMClks,
 2207              		.loc 1 633 26 is_stmt 0 view .LVU766
 2208 0088 9DF80F20 		ldrb	r2, [sp, #15]	@ zero_extendqisi2
 2209 008c 81B2     		uxth	r1, r0
 2210 008e 2046     		mov	r0, r4
 2211              	.LVL343:
 633:Core/Src/vl53l0x_api_core.c **** 					PreRangeTimeOutMClks,
 2212              		.loc 1 633 26 view .LVU767
 2213 0090 FFF7FEFF 		bl	VL53L0X_calc_timeout_us
 2214              	.LVL344:
 633:Core/Src/vl53l0x_api_core.c **** 					PreRangeTimeOutMClks,
 2215              		.loc 1 633 26 view .LVU768
 2216 0094 C5E7     		b	.L82
 2217              	.LVL345:
 2218              	.L100:
 625:Core/Src/vl53l0x_api_core.c **** 				VL53L0X_REG_PRE_RANGE_CONFIG_TIMEOUT_MACROP_HI,
 2219              		.loc 1 625 5 is_stmt 1 view .LVU769
 625:Core/Src/vl53l0x_api_core.c **** 				VL53L0X_REG_PRE_RANGE_CONFIG_TIMEOUT_MACROP_HI,
 2220              		.loc 1 625 14 is_stmt 0 view .LVU770
 2221 0096 03AA     		add	r2, sp, #12
 2222 0098 5121     		movs	r1, #81
 2223 009a 2046     		mov	r0, r4
 2224              	.LVL346:
 625:Core/Src/vl53l0x_api_core.c **** 				VL53L0X_REG_PRE_RANGE_CONFIG_TIMEOUT_MACROP_HI,
 2225              		.loc 1 625 14 view .LVU771
 2226 009c FFF7FEFF 		bl	VL53L0X_RdWord
 2227              	.LVL347:
 2228 00a0 0646     		mov	r6, r0
 2229              	.LVL348:
 625:Core/Src/vl53l0x_api_core.c **** 				VL53L0X_REG_PRE_RANGE_CONFIG_TIMEOUT_MACROP_HI,
 2230              		.loc 1 625 14 view .LVU772
 2231 00a2 EDE7     		b	.L84
 2232              	.LVL349:
 2233              	.L97:
 639:Core/Src/vl53l0x_api_core.c **** 		PreRangeTimeOutMClks = 0;
 2234              		.loc 1 639 3 is_stmt 1 view .LVU773
 2235 00a4 01A9     		add	r1, sp, #4
 2236              	.LVL350:
 639:Core/Src/vl53l0x_api_core.c **** 		PreRangeTimeOutMClks = 0;
 2237              		.loc 1 639 3 is_stmt 0 view .LVU774
 2238 00a6 FFF7FEFF 		bl	VL53L0X_GetSequenceStepEnables
 2239              	.LVL351:
 640:Core/Src/vl53l0x_api_core.c **** 
 2240              		.loc 1 640 3 is_stmt 1 view .LVU775
 642:Core/Src/vl53l0x_api_core.c **** 			/* Retrieve PRE-RANGE VCSEL Period */
ARM GAS  C:\Users\anmh1\AppData\Local\Temp\ccrmGbOb.s 			page 60


 2241              		.loc 1 642 3 view .LVU776
 642:Core/Src/vl53l0x_api_core.c **** 			/* Retrieve PRE-RANGE VCSEL Period */
 2242              		.loc 1 642 29 is_stmt 0 view .LVU777
 2243 00aa 9DF80730 		ldrb	r3, [sp, #7]	@ zero_extendqisi2
 642:Core/Src/vl53l0x_api_core.c **** 			/* Retrieve PRE-RANGE VCSEL Period */
 2244              		.loc 1 642 6 view .LVU778
 2245 00ae B3B1     		cbz	r3, .L91
 644:Core/Src/vl53l0x_api_core.c **** 				VL53L0X_VCSEL_PERIOD_PRE_RANGE,
 2246              		.loc 1 644 4 is_stmt 1 view .LVU779
 644:Core/Src/vl53l0x_api_core.c **** 				VL53L0X_VCSEL_PERIOD_PRE_RANGE,
 2247              		.loc 1 644 13 is_stmt 0 view .LVU780
 2248 00b0 0DF10F02 		add	r2, sp, #15
 2249 00b4 0021     		movs	r1, #0
 2250 00b6 2046     		mov	r0, r4
 2251 00b8 FFF7FEFF 		bl	VL53L0X_GetVcselPulsePeriod
 2252              	.LVL352:
 650:Core/Src/vl53l0x_api_core.c **** 				Status = VL53L0X_RdWord(Dev,
 2253              		.loc 1 650 4 is_stmt 1 view .LVU781
 650:Core/Src/vl53l0x_api_core.c **** 				Status = VL53L0X_RdWord(Dev,
 2254              		.loc 1 650 7 is_stmt 0 view .LVU782
 2255 00bc 0646     		mov	r6, r0
 2256 00be 10B1     		cbz	r0, .L101
 640:Core/Src/vl53l0x_api_core.c **** 
 2257              		.loc 1 640 24 view .LVU783
 2258 00c0 0027     		movs	r7, #0
 2259              	.LVL353:
 2260              	.L86:
 659:Core/Src/vl53l0x_api_core.c **** 			/* Retrieve FINAL-RANGE VCSEL Period */
 2261              		.loc 1 659 3 is_stmt 1 view .LVU784
 659:Core/Src/vl53l0x_api_core.c **** 			/* Retrieve FINAL-RANGE VCSEL Period */
 2262              		.loc 1 659 6 is_stmt 0 view .LVU785
 2263 00c2 A6B9     		cbnz	r6, .L87
 2264 00c4 0CE0     		b	.L85
 2265              	.LVL354:
 2266              	.L101:
 651:Core/Src/vl53l0x_api_core.c **** 				VL53L0X_REG_PRE_RANGE_CONFIG_TIMEOUT_MACROP_HI,
 2267              		.loc 1 651 5 is_stmt 1 view .LVU786
 651:Core/Src/vl53l0x_api_core.c **** 				VL53L0X_REG_PRE_RANGE_CONFIG_TIMEOUT_MACROP_HI,
 2268              		.loc 1 651 14 is_stmt 0 view .LVU787
 2269 00c6 03AA     		add	r2, sp, #12
 2270 00c8 5121     		movs	r1, #81
 2271 00ca 2046     		mov	r0, r4
 2272              	.LVL355:
 651:Core/Src/vl53l0x_api_core.c **** 				VL53L0X_REG_PRE_RANGE_CONFIG_TIMEOUT_MACROP_HI,
 2273              		.loc 1 651 14 view .LVU788
 2274 00cc FFF7FEFF 		bl	VL53L0X_RdWord
 2275              	.LVL356:
 2276 00d0 0646     		mov	r6, r0
 2277              	.LVL357:
 654:Core/Src/vl53l0x_api_core.c **** 						PreRangeEncodedTimeOut);
 2278              		.loc 1 654 5 is_stmt 1 view .LVU789
 654:Core/Src/vl53l0x_api_core.c **** 						PreRangeEncodedTimeOut);
 2279              		.loc 1 654 28 is_stmt 0 view .LVU790
 2280 00d2 BDF80C00 		ldrh	r0, [sp, #12]
 2281 00d6 FFF7FEFF 		bl	VL53L0X_decode_timeout
 2282              	.LVL358:
 654:Core/Src/vl53l0x_api_core.c **** 						PreRangeEncodedTimeOut);
ARM GAS  C:\Users\anmh1\AppData\Local\Temp\ccrmGbOb.s 			page 61


 2283              		.loc 1 654 26 view .LVU791
 2284 00da 87B2     		uxth	r7, r0
 2285              	.LVL359:
 654:Core/Src/vl53l0x_api_core.c **** 						PreRangeEncodedTimeOut);
 2286              		.loc 1 654 26 view .LVU792
 2287 00dc F1E7     		b	.L86
 2288              	.LVL360:
 2289              	.L91:
 640:Core/Src/vl53l0x_api_core.c **** 
 2290              		.loc 1 640 24 view .LVU793
 2291 00de 0027     		movs	r7, #0
 2292              	.LVL361:
 2293              	.L85:
 661:Core/Src/vl53l0x_api_core.c **** 					VL53L0X_VCSEL_PERIOD_FINAL_RANGE,
 2294              		.loc 1 661 4 is_stmt 1 view .LVU794
 661:Core/Src/vl53l0x_api_core.c **** 					VL53L0X_VCSEL_PERIOD_FINAL_RANGE,
 2295              		.loc 1 661 13 is_stmt 0 view .LVU795
 2296 00e0 0DF10F02 		add	r2, sp, #15
 2297 00e4 0121     		movs	r1, #1
 2298 00e6 2046     		mov	r0, r4
 2299 00e8 FFF7FEFF 		bl	VL53L0X_GetVcselPulsePeriod
 2300              	.LVL362:
 2301 00ec 0646     		mov	r6, r0
 2302              	.LVL363:
 2303              	.L87:
 667:Core/Src/vl53l0x_api_core.c **** 			Status = VL53L0X_RdWord(Dev,
 2304              		.loc 1 667 3 is_stmt 1 view .LVU796
 667:Core/Src/vl53l0x_api_core.c **** 			Status = VL53L0X_RdWord(Dev,
 2305              		.loc 1 667 6 is_stmt 0 view .LVU797
 2306 00ee 46B1     		cbz	r6, .L102
 589:Core/Src/vl53l0x_api_core.c **** 	uint16_t FinalRangeEncodedTimeOut;
 2307              		.loc 1 589 11 view .LVU798
 2308 00f0 0021     		movs	r1, #0
 2309              	.LVL364:
 2310              	.L88:
 675:Core/Src/vl53l0x_api_core.c **** 		TimeoutMicroSeconds = VL53L0X_calc_timeout_us(Dev,
 2311              		.loc 1 675 3 is_stmt 1 view .LVU799
 675:Core/Src/vl53l0x_api_core.c **** 		TimeoutMicroSeconds = VL53L0X_calc_timeout_us(Dev,
 2312              		.loc 1 675 26 is_stmt 0 view .LVU800
 2313 00f2 C91B     		subs	r1, r1, r7
 2314              	.LVL365:
 676:Core/Src/vl53l0x_api_core.c **** 						FinalRangeTimeOutMClks,
 2315              		.loc 1 676 3 is_stmt 1 view .LVU801
 676:Core/Src/vl53l0x_api_core.c **** 						FinalRangeTimeOutMClks,
 2316              		.loc 1 676 25 is_stmt 0 view .LVU802
 2317 00f4 9DF80F20 		ldrb	r2, [sp, #15]	@ zero_extendqisi2
 2318 00f8 89B2     		uxth	r1, r1
 676:Core/Src/vl53l0x_api_core.c **** 						FinalRangeTimeOutMClks,
 2319              		.loc 1 676 25 view .LVU803
 2320 00fa 2046     		mov	r0, r4
 2321 00fc FFF7FEFF 		bl	VL53L0X_calc_timeout_us
 2322              	.LVL366:
 676:Core/Src/vl53l0x_api_core.c **** 						FinalRangeTimeOutMClks,
 2323              		.loc 1 676 25 view .LVU804
 2324 0100 8FE7     		b	.L82
 2325              	.LVL367:
 2326              	.L102:
ARM GAS  C:\Users\anmh1\AppData\Local\Temp\ccrmGbOb.s 			page 62


 668:Core/Src/vl53l0x_api_core.c **** 				VL53L0X_REG_FINAL_RANGE_CONFIG_TIMEOUT_MACROP_HI,
 2327              		.loc 1 668 4 is_stmt 1 view .LVU805
 668:Core/Src/vl53l0x_api_core.c **** 				VL53L0X_REG_FINAL_RANGE_CONFIG_TIMEOUT_MACROP_HI,
 2328              		.loc 1 668 13 is_stmt 0 view .LVU806
 2329 0102 0DF10A02 		add	r2, sp, #10
 2330 0106 7121     		movs	r1, #113
 2331 0108 2046     		mov	r0, r4
 2332 010a FFF7FEFF 		bl	VL53L0X_RdWord
 2333              	.LVL368:
 2334 010e 0646     		mov	r6, r0
 2335              	.LVL369:
 671:Core/Src/vl53l0x_api_core.c **** 					FinalRangeEncodedTimeOut);
 2336              		.loc 1 671 4 is_stmt 1 view .LVU807
 671:Core/Src/vl53l0x_api_core.c **** 					FinalRangeEncodedTimeOut);
 2337              		.loc 1 671 29 is_stmt 0 view .LVU808
 2338 0110 BDF80A00 		ldrh	r0, [sp, #10]
 2339 0114 FFF7FEFF 		bl	VL53L0X_decode_timeout
 2340              	.LVL370:
 671:Core/Src/vl53l0x_api_core.c **** 					FinalRangeEncodedTimeOut);
 2341              		.loc 1 671 27 view .LVU809
 2342 0118 81B2     		uxth	r1, r0
 2343              	.LVL371:
 671:Core/Src/vl53l0x_api_core.c **** 					FinalRangeEncodedTimeOut);
 2344              		.loc 1 671 27 view .LVU810
 2345 011a EAE7     		b	.L88
 2346              		.cfi_endproc
 2347              	.LFE146:
 2349              		.section	.text.set_sequence_step_timeout,"ax",%progbits
 2350              		.align	1
 2351              		.global	set_sequence_step_timeout
 2352              		.syntax unified
 2353              		.thumb
 2354              		.thumb_func
 2355              		.fpu fpv4-sp-d16
 2357              	set_sequence_step_timeout:
 2358              	.LVL372:
 2359              	.LFB147:
 685:Core/Src/vl53l0x_api_core.c **** 
 686:Core/Src/vl53l0x_api_core.c **** 
 687:Core/Src/vl53l0x_api_core.c **** VL53L0X_Error set_sequence_step_timeout(VL53L0X_DEV Dev,
 688:Core/Src/vl53l0x_api_core.c **** 					VL53L0X_SequenceStepId SequenceStepId,
 689:Core/Src/vl53l0x_api_core.c **** 					uint32_t TimeOutMicroSecs)
 690:Core/Src/vl53l0x_api_core.c **** {
 2360              		.loc 1 690 1 is_stmt 1 view -0
 2361              		.cfi_startproc
 2362              		@ args = 0, pretend = 0, frame = 16
 2363              		@ frame_needed = 0, uses_anonymous_args = 0
 2364              		.loc 1 690 1 is_stmt 0 view .LVU812
 2365 0000 F0B5     		push	{r4, r5, r6, r7, lr}
 2366              		.cfi_def_cfa_offset 20
 2367              		.cfi_offset 4, -20
 2368              		.cfi_offset 5, -16
 2369              		.cfi_offset 6, -12
 2370              		.cfi_offset 7, -8
 2371              		.cfi_offset 14, -4
 2372 0002 85B0     		sub	sp, sp, #20
 2373              		.cfi_def_cfa_offset 40
ARM GAS  C:\Users\anmh1\AppData\Local\Temp\ccrmGbOb.s 			page 63


 2374 0004 0446     		mov	r4, r0
 2375 0006 1746     		mov	r7, r2
 691:Core/Src/vl53l0x_api_core.c **** 	VL53L0X_Error Status = VL53L0X_ERROR_NONE;
 2376              		.loc 1 691 2 is_stmt 1 view .LVU813
 2377              	.LVL373:
 692:Core/Src/vl53l0x_api_core.c **** 	uint8_t CurrentVCSELPulsePeriodPClk;
 2378              		.loc 1 692 2 view .LVU814
 693:Core/Src/vl53l0x_api_core.c **** 	uint8_t MsrcEncodedTimeOut;
 2379              		.loc 1 693 2 view .LVU815
 694:Core/Src/vl53l0x_api_core.c **** 	uint16_t PreRangeEncodedTimeOut;
 2380              		.loc 1 694 2 view .LVU816
 695:Core/Src/vl53l0x_api_core.c **** 	uint16_t PreRangeTimeOutMClks;
 2381              		.loc 1 695 2 view .LVU817
 696:Core/Src/vl53l0x_api_core.c **** 	uint16_t MsrcRangeTimeOutMClks;
 2382              		.loc 1 696 2 view .LVU818
 697:Core/Src/vl53l0x_api_core.c **** 	uint32_t FinalRangeTimeOutMClks;
 2383              		.loc 1 697 2 view .LVU819
 698:Core/Src/vl53l0x_api_core.c **** 	uint16_t FinalRangeEncodedTimeOut;
 2384              		.loc 1 698 2 view .LVU820
 699:Core/Src/vl53l0x_api_core.c **** 	VL53L0X_SchedulerSequenceSteps_t SchedulerSequenceSteps;
 2385              		.loc 1 699 2 view .LVU821
 700:Core/Src/vl53l0x_api_core.c **** 
 701:Core/Src/vl53l0x_api_core.c **** 	if ((SequenceStepId == VL53L0X_SEQUENCESTEP_TCC)	 ||
 2386              		.loc 1 701 2 view .LVU822
 2387              		.loc 1 701 5 is_stmt 0 view .LVU823
 2388 0008 0229     		cmp	r1, #2
 2389 000a 17D9     		bls	.L118
 702:Core/Src/vl53l0x_api_core.c **** 		(SequenceStepId == VL53L0X_SEQUENCESTEP_DSS)	 ||
 703:Core/Src/vl53l0x_api_core.c **** 		(SequenceStepId == VL53L0X_SEQUENCESTEP_MSRC)) {
 704:Core/Src/vl53l0x_api_core.c **** 
 705:Core/Src/vl53l0x_api_core.c **** 		Status = VL53L0X_GetVcselPulsePeriod(Dev,
 706:Core/Src/vl53l0x_api_core.c **** 					VL53L0X_VCSEL_PERIOD_PRE_RANGE,
 707:Core/Src/vl53l0x_api_core.c **** 					&CurrentVCSELPulsePeriodPClk);
 708:Core/Src/vl53l0x_api_core.c **** 
 709:Core/Src/vl53l0x_api_core.c **** 		if (Status == VL53L0X_ERROR_NONE) {
 710:Core/Src/vl53l0x_api_core.c **** 			MsrcRangeTimeOutMClks = VL53L0X_calc_timeout_mclks(Dev,
 711:Core/Src/vl53l0x_api_core.c **** 					TimeOutMicroSecs,
 712:Core/Src/vl53l0x_api_core.c **** 					(uint8_t)CurrentVCSELPulsePeriodPClk);
 713:Core/Src/vl53l0x_api_core.c **** 
 714:Core/Src/vl53l0x_api_core.c **** 			if (MsrcRangeTimeOutMClks > 256)
 715:Core/Src/vl53l0x_api_core.c **** 				MsrcEncodedTimeOut = 255;
 716:Core/Src/vl53l0x_api_core.c **** 			else
 717:Core/Src/vl53l0x_api_core.c **** 				MsrcEncodedTimeOut =
 718:Core/Src/vl53l0x_api_core.c **** 					(uint8_t)MsrcRangeTimeOutMClks - 1;
 719:Core/Src/vl53l0x_api_core.c **** 
 720:Core/Src/vl53l0x_api_core.c **** 			VL53L0X_SETDEVICESPECIFICPARAMETER(Dev,
 721:Core/Src/vl53l0x_api_core.c **** 				LastEncodedTimeout,
 722:Core/Src/vl53l0x_api_core.c **** 				MsrcEncodedTimeOut);
 723:Core/Src/vl53l0x_api_core.c **** 		}
 724:Core/Src/vl53l0x_api_core.c **** 
 725:Core/Src/vl53l0x_api_core.c **** 		if (Status == VL53L0X_ERROR_NONE) {
 726:Core/Src/vl53l0x_api_core.c **** 			Status = VL53L0X_WrByte(Dev,
 727:Core/Src/vl53l0x_api_core.c **** 				VL53L0X_REG_MSRC_CONFIG_TIMEOUT_MACROP,
 728:Core/Src/vl53l0x_api_core.c **** 				MsrcEncodedTimeOut);
 729:Core/Src/vl53l0x_api_core.c **** 		}
 730:Core/Src/vl53l0x_api_core.c **** 	} else {
 731:Core/Src/vl53l0x_api_core.c **** 
ARM GAS  C:\Users\anmh1\AppData\Local\Temp\ccrmGbOb.s 			page 64


 732:Core/Src/vl53l0x_api_core.c **** 		if (SequenceStepId == VL53L0X_SEQUENCESTEP_PRE_RANGE) {
 2390              		.loc 1 732 3 is_stmt 1 view .LVU824
 2391              		.loc 1 732 6 is_stmt 0 view .LVU825
 2392 000c 0329     		cmp	r1, #3
 2393 000e 36D0     		beq	.L119
 733:Core/Src/vl53l0x_api_core.c **** 
 734:Core/Src/vl53l0x_api_core.c **** 			if (Status == VL53L0X_ERROR_NONE) {
 735:Core/Src/vl53l0x_api_core.c **** 				Status = VL53L0X_GetVcselPulsePeriod(Dev,
 736:Core/Src/vl53l0x_api_core.c **** 						VL53L0X_VCSEL_PERIOD_PRE_RANGE,
 737:Core/Src/vl53l0x_api_core.c **** 						&CurrentVCSELPulsePeriodPClk);
 738:Core/Src/vl53l0x_api_core.c **** 				PreRangeTimeOutMClks =
 739:Core/Src/vl53l0x_api_core.c **** 					VL53L0X_calc_timeout_mclks(Dev,
 740:Core/Src/vl53l0x_api_core.c **** 					TimeOutMicroSecs,
 741:Core/Src/vl53l0x_api_core.c **** 					(uint8_t)CurrentVCSELPulsePeriodPClk);
 742:Core/Src/vl53l0x_api_core.c **** 				PreRangeEncodedTimeOut = VL53L0X_encode_timeout(
 743:Core/Src/vl53l0x_api_core.c **** 					PreRangeTimeOutMClks);
 744:Core/Src/vl53l0x_api_core.c **** 
 745:Core/Src/vl53l0x_api_core.c **** 				VL53L0X_SETDEVICESPECIFICPARAMETER(Dev,
 746:Core/Src/vl53l0x_api_core.c **** 					LastEncodedTimeout,
 747:Core/Src/vl53l0x_api_core.c **** 					PreRangeEncodedTimeOut);
 748:Core/Src/vl53l0x_api_core.c **** 			}
 749:Core/Src/vl53l0x_api_core.c **** 
 750:Core/Src/vl53l0x_api_core.c **** 			if (Status == VL53L0X_ERROR_NONE) {
 751:Core/Src/vl53l0x_api_core.c **** 				Status = VL53L0X_WrWord(Dev,
 752:Core/Src/vl53l0x_api_core.c **** 				VL53L0X_REG_PRE_RANGE_CONFIG_TIMEOUT_MACROP_HI,
 753:Core/Src/vl53l0x_api_core.c **** 				PreRangeEncodedTimeOut);
 754:Core/Src/vl53l0x_api_core.c **** 			}
 755:Core/Src/vl53l0x_api_core.c **** 
 756:Core/Src/vl53l0x_api_core.c **** 			if (Status == VL53L0X_ERROR_NONE) {
 757:Core/Src/vl53l0x_api_core.c **** 				VL53L0X_SETDEVICESPECIFICPARAMETER(
 758:Core/Src/vl53l0x_api_core.c **** 					Dev,
 759:Core/Src/vl53l0x_api_core.c **** 					PreRangeTimeoutMicroSecs,
 760:Core/Src/vl53l0x_api_core.c **** 					TimeOutMicroSecs);
 761:Core/Src/vl53l0x_api_core.c **** 			}
 762:Core/Src/vl53l0x_api_core.c **** 		} else if (SequenceStepId == VL53L0X_SEQUENCESTEP_FINAL_RANGE) {
 2394              		.loc 1 762 10 is_stmt 1 view .LVU826
 2395              		.loc 1 762 13 is_stmt 0 view .LVU827
 2396 0010 0429     		cmp	r1, #4
 2397 0012 7FD1     		bne	.L114
 763:Core/Src/vl53l0x_api_core.c **** 
 764:Core/Src/vl53l0x_api_core.c **** 			/* For the final range timeout, the pre-range timeout
 765:Core/Src/vl53l0x_api_core.c **** 			 * must be added. To do this both final and pre-range
 766:Core/Src/vl53l0x_api_core.c **** 			 * timeouts must be expressed in macro periods MClks
 767:Core/Src/vl53l0x_api_core.c **** 			 * because they have different vcsel periods.
 768:Core/Src/vl53l0x_api_core.c **** 			 */
 769:Core/Src/vl53l0x_api_core.c **** 
 770:Core/Src/vl53l0x_api_core.c **** 			VL53L0X_GetSequenceStepEnables(Dev,
 2398              		.loc 1 770 4 is_stmt 1 view .LVU828
 2399 0014 01A9     		add	r1, sp, #4
 2400              	.LVL374:
 2401              		.loc 1 770 4 is_stmt 0 view .LVU829
 2402 0016 FFF7FEFF 		bl	VL53L0X_GetSequenceStepEnables
 2403              	.LVL375:
 771:Core/Src/vl53l0x_api_core.c **** 					&SchedulerSequenceSteps);
 772:Core/Src/vl53l0x_api_core.c **** 			PreRangeTimeOutMClks = 0;
 2404              		.loc 1 772 4 is_stmt 1 view .LVU830
 773:Core/Src/vl53l0x_api_core.c **** 			if (SchedulerSequenceSteps.PreRangeOn) {
ARM GAS  C:\Users\anmh1\AppData\Local\Temp\ccrmGbOb.s 			page 65


 2405              		.loc 1 773 4 view .LVU831
 2406              		.loc 1 773 30 is_stmt 0 view .LVU832
 2407 001a 9DF80730 		ldrb	r3, [sp, #7]	@ zero_extendqisi2
 2408              		.loc 1 773 7 view .LVU833
 2409 001e 002B     		cmp	r3, #0
 2410 0020 58D0     		beq	.L115
 774:Core/Src/vl53l0x_api_core.c **** 
 775:Core/Src/vl53l0x_api_core.c **** 				/* Retrieve PRE-RANGE VCSEL Period */
 776:Core/Src/vl53l0x_api_core.c **** 				Status = VL53L0X_GetVcselPulsePeriod(Dev,
 2411              		.loc 1 776 5 is_stmt 1 view .LVU834
 2412              		.loc 1 776 14 is_stmt 0 view .LVU835
 2413 0022 0DF10F02 		add	r2, sp, #15
 2414 0026 0021     		movs	r1, #0
 2415 0028 2046     		mov	r0, r4
 2416 002a FFF7FEFF 		bl	VL53L0X_GetVcselPulsePeriod
 2417              	.LVL376:
 777:Core/Src/vl53l0x_api_core.c **** 					VL53L0X_VCSEL_PERIOD_PRE_RANGE,
 778:Core/Src/vl53l0x_api_core.c **** 					&CurrentVCSELPulsePeriodPClk);
 779:Core/Src/vl53l0x_api_core.c **** 
 780:Core/Src/vl53l0x_api_core.c **** 				/* Retrieve PRE-RANGE Timeout in Macro periods
 781:Core/Src/vl53l0x_api_core.c **** 				 * (MCLKS) */
 782:Core/Src/vl53l0x_api_core.c **** 				if (Status == VL53L0X_ERROR_NONE) {
 2418              		.loc 1 782 5 is_stmt 1 view .LVU836
 2419              		.loc 1 782 8 is_stmt 0 view .LVU837
 2420 002e 0546     		mov	r5, r0
 2421 0030 0028     		cmp	r0, #0
 2422 0032 43D0     		beq	.L120
 772:Core/Src/vl53l0x_api_core.c **** 			if (SchedulerSequenceSteps.PreRangeOn) {
 2423              		.loc 1 772 25 view .LVU838
 2424 0034 0026     		movs	r6, #0
 2425              	.LVL377:
 2426              	.L111:
 783:Core/Src/vl53l0x_api_core.c **** 					Status = VL53L0X_RdWord(Dev, 0x51,
 784:Core/Src/vl53l0x_api_core.c **** 						&PreRangeEncodedTimeOut);
 785:Core/Src/vl53l0x_api_core.c **** 					PreRangeTimeOutMClks =
 786:Core/Src/vl53l0x_api_core.c **** 						VL53L0X_decode_timeout(
 787:Core/Src/vl53l0x_api_core.c **** 							PreRangeEncodedTimeOut);
 788:Core/Src/vl53l0x_api_core.c **** 				}
 789:Core/Src/vl53l0x_api_core.c **** 			}
 790:Core/Src/vl53l0x_api_core.c **** 
 791:Core/Src/vl53l0x_api_core.c **** 			/* Calculate FINAL RANGE Timeout in Macro Periods
 792:Core/Src/vl53l0x_api_core.c **** 			 * (MCLKS) and add PRE-RANGE value
 793:Core/Src/vl53l0x_api_core.c **** 			 */
 794:Core/Src/vl53l0x_api_core.c **** 			if (Status == VL53L0X_ERROR_NONE) {
 2427              		.loc 1 794 4 is_stmt 1 view .LVU839
 2428              		.loc 1 794 7 is_stmt 0 view .LVU840
 2429 0036 002D     		cmp	r5, #0
 2430 0038 54D1     		bne	.L112
 2431 003a 4CE0     		b	.L110
 2432              	.LVL378:
 2433              	.L118:
 2434              		.loc 1 794 7 view .LVU841
 2435 003c 0026     		movs	r6, #0
 705:Core/Src/vl53l0x_api_core.c **** 					VL53L0X_VCSEL_PERIOD_PRE_RANGE,
 2436              		.loc 1 705 3 is_stmt 1 view .LVU842
 705:Core/Src/vl53l0x_api_core.c **** 					VL53L0X_VCSEL_PERIOD_PRE_RANGE,
 2437              		.loc 1 705 12 is_stmt 0 view .LVU843
ARM GAS  C:\Users\anmh1\AppData\Local\Temp\ccrmGbOb.s 			page 66


 2438 003e 0DF10F02 		add	r2, sp, #15
 2439              	.LVL379:
 705:Core/Src/vl53l0x_api_core.c **** 					VL53L0X_VCSEL_PERIOD_PRE_RANGE,
 2440              		.loc 1 705 12 view .LVU844
 2441 0042 3146     		mov	r1, r6
 2442              	.LVL380:
 705:Core/Src/vl53l0x_api_core.c **** 					VL53L0X_VCSEL_PERIOD_PRE_RANGE,
 2443              		.loc 1 705 12 view .LVU845
 2444 0044 FFF7FEFF 		bl	VL53L0X_GetVcselPulsePeriod
 2445              	.LVL381:
 709:Core/Src/vl53l0x_api_core.c **** 			MsrcRangeTimeOutMClks = VL53L0X_calc_timeout_mclks(Dev,
 2446              		.loc 1 709 3 is_stmt 1 view .LVU846
 709:Core/Src/vl53l0x_api_core.c **** 			MsrcRangeTimeOutMClks = VL53L0X_calc_timeout_mclks(Dev,
 2447              		.loc 1 709 6 is_stmt 0 view .LVU847
 2448 0048 0546     		mov	r5, r0
 2449 004a 70B9     		cbnz	r0, .L105
 710:Core/Src/vl53l0x_api_core.c **** 					TimeOutMicroSecs,
 2450              		.loc 1 710 4 is_stmt 1 view .LVU848
 710:Core/Src/vl53l0x_api_core.c **** 					TimeOutMicroSecs,
 2451              		.loc 1 710 28 is_stmt 0 view .LVU849
 2452 004c 9DF80F20 		ldrb	r2, [sp, #15]	@ zero_extendqisi2
 2453 0050 3946     		mov	r1, r7
 2454 0052 2046     		mov	r0, r4
 2455              	.LVL382:
 710:Core/Src/vl53l0x_api_core.c **** 					TimeOutMicroSecs,
 2456              		.loc 1 710 28 view .LVU850
 2457 0054 FFF7FEFF 		bl	VL53L0X_calc_timeout_mclks
 2458              	.LVL383:
 710:Core/Src/vl53l0x_api_core.c **** 					TimeOutMicroSecs,
 2459              		.loc 1 710 26 view .LVU851
 2460 0058 83B2     		uxth	r3, r0
 2461              	.LVL384:
 714:Core/Src/vl53l0x_api_core.c **** 				MsrcEncodedTimeOut = 255;
 2462              		.loc 1 714 4 is_stmt 1 view .LVU852
 714:Core/Src/vl53l0x_api_core.c **** 				MsrcEncodedTimeOut = 255;
 2463              		.loc 1 714 7 is_stmt 0 view .LVU853
 2464 005a B3F5807F 		cmp	r3, #256
 2465 005e 0CD8     		bhi	.L113
 717:Core/Src/vl53l0x_api_core.c **** 					(uint8_t)MsrcRangeTimeOutMClks - 1;
 2466              		.loc 1 717 5 is_stmt 1 view .LVU854
 718:Core/Src/vl53l0x_api_core.c **** 
 2467              		.loc 1 718 6 is_stmt 0 view .LVU855
 2468 0060 C6B2     		uxtb	r6, r0
 717:Core/Src/vl53l0x_api_core.c **** 					(uint8_t)MsrcRangeTimeOutMClks - 1;
 2469              		.loc 1 717 24 view .LVU856
 2470 0062 013E     		subs	r6, r6, #1
 2471 0064 F6B2     		uxtb	r6, r6
 2472              	.LVL385:
 2473              	.L106:
 720:Core/Src/vl53l0x_api_core.c **** 				LastEncodedTimeout,
 2474              		.loc 1 720 4 is_stmt 1 view .LVU857
 2475 0066 A4F8D860 		strh	r6, [r4, #216]	@ movhi
 2476              	.LVL386:
 2477              	.L105:
 725:Core/Src/vl53l0x_api_core.c **** 			Status = VL53L0X_WrByte(Dev,
 2478              		.loc 1 725 3 view .LVU858
 725:Core/Src/vl53l0x_api_core.c **** 			Status = VL53L0X_WrByte(Dev,
ARM GAS  C:\Users\anmh1\AppData\Local\Temp\ccrmGbOb.s 			page 67


 2479              		.loc 1 725 6 is_stmt 0 view .LVU859
 2480 006a E5BB     		cbnz	r5, .L107
 726:Core/Src/vl53l0x_api_core.c **** 				VL53L0X_REG_MSRC_CONFIG_TIMEOUT_MACROP,
 2481              		.loc 1 726 4 is_stmt 1 view .LVU860
 726:Core/Src/vl53l0x_api_core.c **** 				VL53L0X_REG_MSRC_CONFIG_TIMEOUT_MACROP,
 2482              		.loc 1 726 13 is_stmt 0 view .LVU861
 2483 006c 3246     		mov	r2, r6
 2484 006e 4621     		movs	r1, #70
 2485 0070 2046     		mov	r0, r4
 2486 0072 FFF7FEFF 		bl	VL53L0X_WrByte
 2487              	.LVL387:
 2488 0076 0546     		mov	r5, r0
 2489              	.LVL388:
 726:Core/Src/vl53l0x_api_core.c **** 				VL53L0X_REG_MSRC_CONFIG_TIMEOUT_MACROP,
 2490              		.loc 1 726 13 view .LVU862
 2491 0078 35E0     		b	.L107
 2492              	.LVL389:
 2493              	.L113:
 715:Core/Src/vl53l0x_api_core.c **** 			else
 2494              		.loc 1 715 24 view .LVU863
 2495 007a FF26     		movs	r6, #255
 2496 007c F3E7     		b	.L106
 2497              	.LVL390:
 2498              	.L119:
 734:Core/Src/vl53l0x_api_core.c **** 				Status = VL53L0X_GetVcselPulsePeriod(Dev,
 2499              		.loc 1 734 4 is_stmt 1 view .LVU864
 735:Core/Src/vl53l0x_api_core.c **** 						VL53L0X_VCSEL_PERIOD_PRE_RANGE,
 2500              		.loc 1 735 5 view .LVU865
 735:Core/Src/vl53l0x_api_core.c **** 						VL53L0X_VCSEL_PERIOD_PRE_RANGE,
 2501              		.loc 1 735 14 is_stmt 0 view .LVU866
 2502 007e 0DF10F02 		add	r2, sp, #15
 2503              	.LVL391:
 735:Core/Src/vl53l0x_api_core.c **** 						VL53L0X_VCSEL_PERIOD_PRE_RANGE,
 2504              		.loc 1 735 14 view .LVU867
 2505 0082 0021     		movs	r1, #0
 2506              	.LVL392:
 735:Core/Src/vl53l0x_api_core.c **** 						VL53L0X_VCSEL_PERIOD_PRE_RANGE,
 2507              		.loc 1 735 14 view .LVU868
 2508 0084 FFF7FEFF 		bl	VL53L0X_GetVcselPulsePeriod
 2509              	.LVL393:
 735:Core/Src/vl53l0x_api_core.c **** 						VL53L0X_VCSEL_PERIOD_PRE_RANGE,
 2510              		.loc 1 735 14 view .LVU869
 2511 0088 0546     		mov	r5, r0
 2512              	.LVL394:
 738:Core/Src/vl53l0x_api_core.c **** 					VL53L0X_calc_timeout_mclks(Dev,
 2513              		.loc 1 738 5 is_stmt 1 view .LVU870
 739:Core/Src/vl53l0x_api_core.c **** 					TimeOutMicroSecs,
 2514              		.loc 1 739 6 is_stmt 0 view .LVU871
 2515 008a 9DF80F20 		ldrb	r2, [sp, #15]	@ zero_extendqisi2
 2516 008e 3946     		mov	r1, r7
 2517 0090 2046     		mov	r0, r4
 2518 0092 FFF7FEFF 		bl	VL53L0X_calc_timeout_mclks
 2519              	.LVL395:
 742:Core/Src/vl53l0x_api_core.c **** 					PreRangeTimeOutMClks);
 2520              		.loc 1 742 5 is_stmt 1 view .LVU872
 742:Core/Src/vl53l0x_api_core.c **** 					PreRangeTimeOutMClks);
 2521              		.loc 1 742 30 is_stmt 0 view .LVU873
ARM GAS  C:\Users\anmh1\AppData\Local\Temp\ccrmGbOb.s 			page 68


 2522 0096 80B2     		uxth	r0, r0
 742:Core/Src/vl53l0x_api_core.c **** 					PreRangeTimeOutMClks);
 2523              		.loc 1 742 30 view .LVU874
 2524 0098 FFF7FEFF 		bl	VL53L0X_encode_timeout
 2525              	.LVL396:
 742:Core/Src/vl53l0x_api_core.c **** 					PreRangeTimeOutMClks);
 2526              		.loc 1 742 28 view .LVU875
 2527 009c ADF80C00 		strh	r0, [sp, #12]	@ movhi
 745:Core/Src/vl53l0x_api_core.c **** 					LastEncodedTimeout,
 2528              		.loc 1 745 5 is_stmt 1 view .LVU876
 2529 00a0 A4F8D800 		strh	r0, [r4, #216]	@ movhi
 750:Core/Src/vl53l0x_api_core.c **** 				Status = VL53L0X_WrWord(Dev,
 2530              		.loc 1 750 4 view .LVU877
 750:Core/Src/vl53l0x_api_core.c **** 				Status = VL53L0X_WrWord(Dev,
 2531              		.loc 1 750 7 is_stmt 0 view .LVU878
 2532 00a4 1DB1     		cbz	r5, .L121
 2533              	.L109:
 756:Core/Src/vl53l0x_api_core.c **** 				VL53L0X_SETDEVICESPECIFICPARAMETER(
 2534              		.loc 1 756 4 is_stmt 1 view .LVU879
 756:Core/Src/vl53l0x_api_core.c **** 				VL53L0X_SETDEVICESPECIFICPARAMETER(
 2535              		.loc 1 756 7 is_stmt 0 view .LVU880
 2536 00a6 F5B9     		cbnz	r5, .L107
 757:Core/Src/vl53l0x_api_core.c **** 					Dev,
 2537              		.loc 1 757 5 is_stmt 1 view .LVU881
 2538 00a8 C4F8E470 		str	r7, [r4, #228]
 2539 00ac 1BE0     		b	.L107
 2540              	.L121:
 751:Core/Src/vl53l0x_api_core.c **** 				VL53L0X_REG_PRE_RANGE_CONFIG_TIMEOUT_MACROP_HI,
 2541              		.loc 1 751 5 view .LVU882
 751:Core/Src/vl53l0x_api_core.c **** 				VL53L0X_REG_PRE_RANGE_CONFIG_TIMEOUT_MACROP_HI,
 2542              		.loc 1 751 14 is_stmt 0 view .LVU883
 2543 00ae 0246     		mov	r2, r0
 2544 00b0 5121     		movs	r1, #81
 2545 00b2 2046     		mov	r0, r4
 2546 00b4 FFF7FEFF 		bl	VL53L0X_WrWord
 2547              	.LVL397:
 2548 00b8 0546     		mov	r5, r0
 2549              	.LVL398:
 751:Core/Src/vl53l0x_api_core.c **** 				VL53L0X_REG_PRE_RANGE_CONFIG_TIMEOUT_MACROP_HI,
 2550              		.loc 1 751 14 view .LVU884
 2551 00ba F4E7     		b	.L109
 2552              	.LVL399:
 2553              	.L120:
 783:Core/Src/vl53l0x_api_core.c **** 						&PreRangeEncodedTimeOut);
 2554              		.loc 1 783 6 is_stmt 1 view .LVU885
 783:Core/Src/vl53l0x_api_core.c **** 						&PreRangeEncodedTimeOut);
 2555              		.loc 1 783 15 is_stmt 0 view .LVU886
 2556 00bc 03AA     		add	r2, sp, #12
 2557 00be 5121     		movs	r1, #81
 2558 00c0 2046     		mov	r0, r4
 2559              	.LVL400:
 783:Core/Src/vl53l0x_api_core.c **** 						&PreRangeEncodedTimeOut);
 2560              		.loc 1 783 15 view .LVU887
 2561 00c2 FFF7FEFF 		bl	VL53L0X_RdWord
 2562              	.LVL401:
 2563 00c6 0546     		mov	r5, r0
 2564              	.LVL402:
ARM GAS  C:\Users\anmh1\AppData\Local\Temp\ccrmGbOb.s 			page 69


 785:Core/Src/vl53l0x_api_core.c **** 						VL53L0X_decode_timeout(
 2565              		.loc 1 785 6 is_stmt 1 view .LVU888
 786:Core/Src/vl53l0x_api_core.c **** 							PreRangeEncodedTimeOut);
 2566              		.loc 1 786 7 is_stmt 0 view .LVU889
 2567 00c8 BDF80C00 		ldrh	r0, [sp, #12]
 2568 00cc FFF7FEFF 		bl	VL53L0X_decode_timeout
 2569              	.LVL403:
 785:Core/Src/vl53l0x_api_core.c **** 						VL53L0X_decode_timeout(
 2570              		.loc 1 785 27 view .LVU890
 2571 00d0 86B2     		uxth	r6, r0
 2572              	.LVL404:
 785:Core/Src/vl53l0x_api_core.c **** 						VL53L0X_decode_timeout(
 2573              		.loc 1 785 27 view .LVU891
 2574 00d2 B0E7     		b	.L111
 2575              	.LVL405:
 2576              	.L115:
 772:Core/Src/vl53l0x_api_core.c **** 			if (SchedulerSequenceSteps.PreRangeOn) {
 2577              		.loc 1 772 25 view .LVU892
 2578 00d4 0026     		movs	r6, #0
 2579              	.LVL406:
 2580              	.L110:
 795:Core/Src/vl53l0x_api_core.c **** 
 796:Core/Src/vl53l0x_api_core.c **** 				Status = VL53L0X_GetVcselPulsePeriod(Dev,
 2581              		.loc 1 796 5 is_stmt 1 view .LVU893
 2582              		.loc 1 796 14 is_stmt 0 view .LVU894
 2583 00d6 0DF10F02 		add	r2, sp, #15
 2584 00da 0121     		movs	r1, #1
 2585 00dc 2046     		mov	r0, r4
 2586 00de FFF7FEFF 		bl	VL53L0X_GetVcselPulsePeriod
 2587              	.LVL407:
 2588 00e2 0546     		mov	r5, r0
 2589              	.LVL408:
 2590              	.L112:
 797:Core/Src/vl53l0x_api_core.c **** 						VL53L0X_VCSEL_PERIOD_FINAL_RANGE,
 798:Core/Src/vl53l0x_api_core.c **** 						&CurrentVCSELPulsePeriodPClk);
 799:Core/Src/vl53l0x_api_core.c **** 			}
 800:Core/Src/vl53l0x_api_core.c **** 			if (Status == VL53L0X_ERROR_NONE) {
 2591              		.loc 1 800 4 is_stmt 1 view .LVU895
 2592              		.loc 1 800 7 is_stmt 0 view .LVU896
 2593 00e4 15B1     		cbz	r5, .L122
 2594              	.LVL409:
 2595              	.L107:
 801:Core/Src/vl53l0x_api_core.c **** 
 802:Core/Src/vl53l0x_api_core.c **** 				FinalRangeTimeOutMClks =
 803:Core/Src/vl53l0x_api_core.c **** 					VL53L0X_calc_timeout_mclks(Dev,
 804:Core/Src/vl53l0x_api_core.c **** 					TimeOutMicroSecs,
 805:Core/Src/vl53l0x_api_core.c **** 					(uint8_t) CurrentVCSELPulsePeriodPClk);
 806:Core/Src/vl53l0x_api_core.c **** 
 807:Core/Src/vl53l0x_api_core.c **** 				FinalRangeTimeOutMClks += PreRangeTimeOutMClks;
 808:Core/Src/vl53l0x_api_core.c **** 
 809:Core/Src/vl53l0x_api_core.c **** 				FinalRangeEncodedTimeOut =
 810:Core/Src/vl53l0x_api_core.c **** 				VL53L0X_encode_timeout(FinalRangeTimeOutMClks);
 811:Core/Src/vl53l0x_api_core.c **** 
 812:Core/Src/vl53l0x_api_core.c **** 				if (Status == VL53L0X_ERROR_NONE) {
 813:Core/Src/vl53l0x_api_core.c **** 					Status = VL53L0X_WrWord(Dev, 0x71,
 814:Core/Src/vl53l0x_api_core.c **** 					FinalRangeEncodedTimeOut);
 815:Core/Src/vl53l0x_api_core.c **** 				}
ARM GAS  C:\Users\anmh1\AppData\Local\Temp\ccrmGbOb.s 			page 70


 816:Core/Src/vl53l0x_api_core.c **** 
 817:Core/Src/vl53l0x_api_core.c **** 				if (Status == VL53L0X_ERROR_NONE) {
 818:Core/Src/vl53l0x_api_core.c **** 					VL53L0X_SETDEVICESPECIFICPARAMETER(
 819:Core/Src/vl53l0x_api_core.c **** 						Dev,
 820:Core/Src/vl53l0x_api_core.c **** 						FinalRangeTimeoutMicroSecs,
 821:Core/Src/vl53l0x_api_core.c **** 						TimeOutMicroSecs);
 822:Core/Src/vl53l0x_api_core.c **** 				}
 823:Core/Src/vl53l0x_api_core.c **** 			}
 824:Core/Src/vl53l0x_api_core.c **** 		} else
 825:Core/Src/vl53l0x_api_core.c **** 			Status = VL53L0X_ERROR_INVALID_PARAMS;
 826:Core/Src/vl53l0x_api_core.c **** 
 827:Core/Src/vl53l0x_api_core.c **** 	}
 828:Core/Src/vl53l0x_api_core.c **** 	return Status;
 2596              		.loc 1 828 2 is_stmt 1 view .LVU897
 829:Core/Src/vl53l0x_api_core.c **** }
 2597              		.loc 1 829 1 is_stmt 0 view .LVU898
 2598 00e6 2846     		mov	r0, r5
 2599 00e8 05B0     		add	sp, sp, #20
 2600              		.cfi_remember_state
 2601              		.cfi_def_cfa_offset 20
 2602              		@ sp needed
 2603 00ea F0BD     		pop	{r4, r5, r6, r7, pc}
 2604              	.LVL410:
 2605              	.L122:
 2606              		.cfi_restore_state
 802:Core/Src/vl53l0x_api_core.c **** 					VL53L0X_calc_timeout_mclks(Dev,
 2607              		.loc 1 802 5 is_stmt 1 view .LVU899
 803:Core/Src/vl53l0x_api_core.c **** 					TimeOutMicroSecs,
 2608              		.loc 1 803 6 is_stmt 0 view .LVU900
 2609 00ec 9DF80F20 		ldrb	r2, [sp, #15]	@ zero_extendqisi2
 2610 00f0 3946     		mov	r1, r7
 2611 00f2 2046     		mov	r0, r4
 2612 00f4 FFF7FEFF 		bl	VL53L0X_calc_timeout_mclks
 2613              	.LVL411:
 807:Core/Src/vl53l0x_api_core.c **** 
 2614              		.loc 1 807 5 is_stmt 1 view .LVU901
 809:Core/Src/vl53l0x_api_core.c **** 				VL53L0X_encode_timeout(FinalRangeTimeOutMClks);
 2615              		.loc 1 809 5 view .LVU902
 810:Core/Src/vl53l0x_api_core.c **** 
 2616              		.loc 1 810 5 is_stmt 0 view .LVU903
 2617 00f8 3044     		add	r0, r0, r6
 2618              	.LVL412:
 810:Core/Src/vl53l0x_api_core.c **** 
 2619              		.loc 1 810 5 view .LVU904
 2620 00fa FFF7FEFF 		bl	VL53L0X_encode_timeout
 2621              	.LVL413:
 810:Core/Src/vl53l0x_api_core.c **** 
 2622              		.loc 1 810 5 view .LVU905
 2623 00fe 0246     		mov	r2, r0
 2624              	.LVL414:
 812:Core/Src/vl53l0x_api_core.c **** 					Status = VL53L0X_WrWord(Dev, 0x71,
 2625              		.loc 1 812 5 is_stmt 1 view .LVU906
 813:Core/Src/vl53l0x_api_core.c **** 					FinalRangeEncodedTimeOut);
 2626              		.loc 1 813 6 view .LVU907
 813:Core/Src/vl53l0x_api_core.c **** 					FinalRangeEncodedTimeOut);
 2627              		.loc 1 813 15 is_stmt 0 view .LVU908
 2628 0100 7121     		movs	r1, #113
ARM GAS  C:\Users\anmh1\AppData\Local\Temp\ccrmGbOb.s 			page 71


 2629 0102 2046     		mov	r0, r4
 2630 0104 FFF7FEFF 		bl	VL53L0X_WrWord
 2631              	.LVL415:
 817:Core/Src/vl53l0x_api_core.c **** 					VL53L0X_SETDEVICESPECIFICPARAMETER(
 2632              		.loc 1 817 5 is_stmt 1 view .LVU909
 817:Core/Src/vl53l0x_api_core.c **** 					VL53L0X_SETDEVICESPECIFICPARAMETER(
 2633              		.loc 1 817 8 is_stmt 0 view .LVU910
 2634 0108 0546     		mov	r5, r0
 2635 010a 0028     		cmp	r0, #0
 2636 010c EBD1     		bne	.L107
 818:Core/Src/vl53l0x_api_core.c **** 						Dev,
 2637              		.loc 1 818 6 is_stmt 1 view .LVU911
 2638 010e C4F8DC70 		str	r7, [r4, #220]
 2639 0112 E8E7     		b	.L107
 2640              	.LVL416:
 2641              	.L114:
 825:Core/Src/vl53l0x_api_core.c **** 
 2642              		.loc 1 825 11 is_stmt 0 view .LVU912
 2643 0114 6FF00305 		mvn	r5, #3
 2644 0118 E5E7     		b	.L107
 2645              		.cfi_endproc
 2646              	.LFE147:
 2648              		.section	.text.VL53L0X_set_vcsel_pulse_period,"ax",%progbits
 2649              		.align	1
 2650              		.global	VL53L0X_set_vcsel_pulse_period
 2651              		.syntax unified
 2652              		.thumb
 2653              		.thumb_func
 2654              		.fpu fpv4-sp-d16
 2656              	VL53L0X_set_vcsel_pulse_period:
 2657              	.LVL417:
 2658              	.LFB148:
 830:Core/Src/vl53l0x_api_core.c **** 
 831:Core/Src/vl53l0x_api_core.c **** VL53L0X_Error VL53L0X_set_vcsel_pulse_period(VL53L0X_DEV Dev,
 832:Core/Src/vl53l0x_api_core.c **** 	VL53L0X_VcselPeriod VcselPeriodType, uint8_t VCSELPulsePeriodPCLK)
 833:Core/Src/vl53l0x_api_core.c **** {
 2659              		.loc 1 833 1 is_stmt 1 view -0
 2660              		.cfi_startproc
 2661              		@ args = 0, pretend = 0, frame = 16
 2662              		@ frame_needed = 0, uses_anonymous_args = 0
 2663              		.loc 1 833 1 is_stmt 0 view .LVU914
 2664 0000 F0B5     		push	{r4, r5, r6, r7, lr}
 2665              		.cfi_def_cfa_offset 20
 2666              		.cfi_offset 4, -20
 2667              		.cfi_offset 5, -16
 2668              		.cfi_offset 6, -12
 2669              		.cfi_offset 7, -8
 2670              		.cfi_offset 14, -4
 2671 0002 85B0     		sub	sp, sp, #20
 2672              		.cfi_def_cfa_offset 40
 834:Core/Src/vl53l0x_api_core.c **** 	VL53L0X_Error Status = VL53L0X_ERROR_NONE;
 2673              		.loc 1 834 2 is_stmt 1 view .LVU915
 2674              	.LVL418:
 835:Core/Src/vl53l0x_api_core.c **** 	uint8_t vcsel_period_reg;
 2675              		.loc 1 835 2 view .LVU916
 836:Core/Src/vl53l0x_api_core.c **** 	uint8_t MinPreVcselPeriodPCLK = 12;
 2676              		.loc 1 836 2 view .LVU917
ARM GAS  C:\Users\anmh1\AppData\Local\Temp\ccrmGbOb.s 			page 72


 837:Core/Src/vl53l0x_api_core.c **** 	uint8_t MaxPreVcselPeriodPCLK = 18;
 2677              		.loc 1 837 2 view .LVU918
 838:Core/Src/vl53l0x_api_core.c **** 	uint8_t MinFinalVcselPeriodPCLK = 8;
 2678              		.loc 1 838 2 view .LVU919
 839:Core/Src/vl53l0x_api_core.c **** 	uint8_t MaxFinalVcselPeriodPCLK = 14;
 2679              		.loc 1 839 2 view .LVU920
 840:Core/Src/vl53l0x_api_core.c **** 	uint32_t MeasurementTimingBudgetMicroSeconds;
 2680              		.loc 1 840 2 view .LVU921
 841:Core/Src/vl53l0x_api_core.c **** 	uint32_t FinalRangeTimeoutMicroSeconds;
 2681              		.loc 1 841 2 view .LVU922
 842:Core/Src/vl53l0x_api_core.c **** 	uint32_t PreRangeTimeoutMicroSeconds;
 2682              		.loc 1 842 2 view .LVU923
 843:Core/Src/vl53l0x_api_core.c **** 	uint32_t MsrcTimeoutMicroSeconds;
 2683              		.loc 1 843 2 view .LVU924
 844:Core/Src/vl53l0x_api_core.c **** 	uint8_t PhaseCalInt = 0;
 2684              		.loc 1 844 2 view .LVU925
 2685              		.loc 1 844 10 is_stmt 0 view .LVU926
 2686 0004 0023     		movs	r3, #0
 2687 0006 8DF80330 		strb	r3, [sp, #3]
 845:Core/Src/vl53l0x_api_core.c **** 
 846:Core/Src/vl53l0x_api_core.c **** 	/* Check if valid clock period requested */
 847:Core/Src/vl53l0x_api_core.c **** 
 848:Core/Src/vl53l0x_api_core.c **** 	if ((VCSELPulsePeriodPCLK % 2) != 0) {
 2688              		.loc 1 848 2 is_stmt 1 view .LVU927
 2689              		.loc 1 848 5 is_stmt 0 view .LVU928
 2690 000a 12F0010F 		tst	r2, #1
 2691 000e 40F06F81 		bne	.L145
 2692 0012 0446     		mov	r4, r0
 2693 0014 0E46     		mov	r6, r1
 2694 0016 1546     		mov	r5, r2
 849:Core/Src/vl53l0x_api_core.c **** 		/* Value must be an even number */
 850:Core/Src/vl53l0x_api_core.c **** 		Status = VL53L0X_ERROR_INVALID_PARAMS;
 851:Core/Src/vl53l0x_api_core.c **** 	} else if (VcselPeriodType == VL53L0X_VCSEL_PERIOD_PRE_RANGE &&
 2695              		.loc 1 851 9 is_stmt 1 view .LVU929
 2696              		.loc 1 851 12 is_stmt 0 view .LVU930
 2697 0018 29B9     		cbnz	r1, .L125
 2698              		.loc 1 851 63 discriminator 1 view .LVU931
 2699 001a 0B2A     		cmp	r2, #11
 2700 001c 40F26B81 		bls	.L146
 852:Core/Src/vl53l0x_api_core.c **** 		(VCSELPulsePeriodPCLK < MinPreVcselPeriodPCLK ||
 2701              		.loc 1 852 49 view .LVU932
 2702 0020 122A     		cmp	r2, #18
 2703 0022 00F26B81 		bhi	.L147
 2704              	.L125:
 853:Core/Src/vl53l0x_api_core.c **** 		VCSELPulsePeriodPCLK > MaxPreVcselPeriodPCLK)) {
 854:Core/Src/vl53l0x_api_core.c **** 		Status = VL53L0X_ERROR_INVALID_PARAMS;
 855:Core/Src/vl53l0x_api_core.c **** 	} else if (VcselPeriodType == VL53L0X_VCSEL_PERIOD_FINAL_RANGE &&
 2705              		.loc 1 855 9 is_stmt 1 view .LVU933
 2706              		.loc 1 855 12 is_stmt 0 view .LVU934
 2707 0026 012E     		cmp	r6, #1
 2708 0028 0AD0     		beq	.L154
 2709              	.L126:
 2710              	.LVL419:
 856:Core/Src/vl53l0x_api_core.c **** 		(VCSELPulsePeriodPCLK < MinFinalVcselPeriodPCLK ||
 857:Core/Src/vl53l0x_api_core.c **** 		 VCSELPulsePeriodPCLK > MaxFinalVcselPeriodPCLK)) {
 858:Core/Src/vl53l0x_api_core.c **** 
 859:Core/Src/vl53l0x_api_core.c **** 		Status = VL53L0X_ERROR_INVALID_PARAMS;
ARM GAS  C:\Users\anmh1\AppData\Local\Temp\ccrmGbOb.s 			page 73


 860:Core/Src/vl53l0x_api_core.c **** 	}
 861:Core/Src/vl53l0x_api_core.c **** 
 862:Core/Src/vl53l0x_api_core.c **** 	/* Apply specific settings for the requested clock period */
 863:Core/Src/vl53l0x_api_core.c **** 
 864:Core/Src/vl53l0x_api_core.c **** 	if (Status != VL53L0X_ERROR_NONE)
 865:Core/Src/vl53l0x_api_core.c **** 		return Status;
 866:Core/Src/vl53l0x_api_core.c **** 
 867:Core/Src/vl53l0x_api_core.c **** 
 868:Core/Src/vl53l0x_api_core.c **** 	if (VcselPeriodType == VL53L0X_VCSEL_PERIOD_PRE_RANGE) {
 2711              		.loc 1 868 2 is_stmt 1 view .LVU935
 2712              		.loc 1 868 5 is_stmt 0 view .LVU936
 2713 002a EEBB     		cbnz	r6, .L127
 869:Core/Src/vl53l0x_api_core.c **** 
 870:Core/Src/vl53l0x_api_core.c **** 		/* Set phase check limits */
 871:Core/Src/vl53l0x_api_core.c **** 		if (VCSELPulsePeriodPCLK == 12) {
 2714              		.loc 1 871 3 is_stmt 1 view .LVU937
 2715              		.loc 1 871 6 is_stmt 0 view .LVU938
 2716 002c 0C2D     		cmp	r5, #12
 2717 002e 0FD0     		beq	.L155
 872:Core/Src/vl53l0x_api_core.c **** 
 873:Core/Src/vl53l0x_api_core.c **** 			Status = VL53L0X_WrByte(Dev,
 874:Core/Src/vl53l0x_api_core.c **** 				VL53L0X_REG_PRE_RANGE_CONFIG_VALID_PHASE_HIGH,
 875:Core/Src/vl53l0x_api_core.c **** 				0x18);
 876:Core/Src/vl53l0x_api_core.c **** 			Status = VL53L0X_WrByte(Dev,
 877:Core/Src/vl53l0x_api_core.c **** 				VL53L0X_REG_PRE_RANGE_CONFIG_VALID_PHASE_LOW,
 878:Core/Src/vl53l0x_api_core.c **** 				0x08);
 879:Core/Src/vl53l0x_api_core.c **** 		} else if (VCSELPulsePeriodPCLK == 14) {
 2718              		.loc 1 879 10 is_stmt 1 view .LVU939
 2719              		.loc 1 879 13 is_stmt 0 view .LVU940
 2720 0030 0E2D     		cmp	r5, #14
 2721 0032 18D0     		beq	.L156
 880:Core/Src/vl53l0x_api_core.c **** 
 881:Core/Src/vl53l0x_api_core.c **** 			Status = VL53L0X_WrByte(Dev,
 882:Core/Src/vl53l0x_api_core.c **** 				VL53L0X_REG_PRE_RANGE_CONFIG_VALID_PHASE_HIGH,
 883:Core/Src/vl53l0x_api_core.c **** 				0x30);
 884:Core/Src/vl53l0x_api_core.c **** 			Status = VL53L0X_WrByte(Dev,
 885:Core/Src/vl53l0x_api_core.c **** 				VL53L0X_REG_PRE_RANGE_CONFIG_VALID_PHASE_LOW,
 886:Core/Src/vl53l0x_api_core.c **** 				0x08);
 887:Core/Src/vl53l0x_api_core.c **** 		} else if (VCSELPulsePeriodPCLK == 16) {
 2722              		.loc 1 887 10 is_stmt 1 view .LVU941
 2723              		.loc 1 887 13 is_stmt 0 view .LVU942
 2724 0034 102D     		cmp	r5, #16
 2725 0036 21D0     		beq	.L157
 888:Core/Src/vl53l0x_api_core.c **** 
 889:Core/Src/vl53l0x_api_core.c **** 			Status = VL53L0X_WrByte(Dev,
 890:Core/Src/vl53l0x_api_core.c **** 				VL53L0X_REG_PRE_RANGE_CONFIG_VALID_PHASE_HIGH,
 891:Core/Src/vl53l0x_api_core.c **** 				0x40);
 892:Core/Src/vl53l0x_api_core.c **** 			Status = VL53L0X_WrByte(Dev,
 893:Core/Src/vl53l0x_api_core.c **** 				VL53L0X_REG_PRE_RANGE_CONFIG_VALID_PHASE_LOW,
 894:Core/Src/vl53l0x_api_core.c **** 				0x08);
 895:Core/Src/vl53l0x_api_core.c **** 		} else if (VCSELPulsePeriodPCLK == 18) {
 2726              		.loc 1 895 10 is_stmt 1 view .LVU943
 2727              		.loc 1 895 13 is_stmt 0 view .LVU944
 2728 0038 122D     		cmp	r5, #18
 2729 003a 2AD0     		beq	.L158
 2730 003c 0020     		movs	r0, #0
 2731              	.LVL420:
ARM GAS  C:\Users\anmh1\AppData\Local\Temp\ccrmGbOb.s 			page 74


 2732              		.loc 1 895 13 view .LVU945
 2733 003e 36E0     		b	.L129
 2734              	.LVL421:
 2735              	.L154:
 855:Core/Src/vl53l0x_api_core.c **** 		(VCSELPulsePeriodPCLK < MinFinalVcselPeriodPCLK ||
 2736              		.loc 1 855 65 discriminator 1 view .LVU946
 2737 0040 072D     		cmp	r5, #7
 2738 0042 40F25E81 		bls	.L148
 856:Core/Src/vl53l0x_api_core.c **** 		 VCSELPulsePeriodPCLK > MaxFinalVcselPeriodPCLK)) {
 2739              		.loc 1 856 51 view .LVU947
 2740 0046 0E2D     		cmp	r5, #14
 2741 0048 EFD9     		bls	.L126
 2742 004a 6FF00300 		mvn	r0, #3
 2743              	.LVL422:
 856:Core/Src/vl53l0x_api_core.c **** 		 VCSELPulsePeriodPCLK > MaxFinalVcselPeriodPCLK)) {
 2744              		.loc 1 856 51 view .LVU948
 2745 004e 12E1     		b	.L124
 2746              	.LVL423:
 2747              	.L155:
 873:Core/Src/vl53l0x_api_core.c **** 				VL53L0X_REG_PRE_RANGE_CONFIG_VALID_PHASE_HIGH,
 2748              		.loc 1 873 4 is_stmt 1 view .LVU949
 873:Core/Src/vl53l0x_api_core.c **** 				VL53L0X_REG_PRE_RANGE_CONFIG_VALID_PHASE_HIGH,
 2749              		.loc 1 873 13 is_stmt 0 view .LVU950
 2750 0050 1822     		movs	r2, #24
 2751              	.LVL424:
 873:Core/Src/vl53l0x_api_core.c **** 				VL53L0X_REG_PRE_RANGE_CONFIG_VALID_PHASE_HIGH,
 2752              		.loc 1 873 13 view .LVU951
 2753 0052 5721     		movs	r1, #87
 2754              	.LVL425:
 873:Core/Src/vl53l0x_api_core.c **** 				VL53L0X_REG_PRE_RANGE_CONFIG_VALID_PHASE_HIGH,
 2755              		.loc 1 873 13 view .LVU952
 2756 0054 2046     		mov	r0, r4
 2757              	.LVL426:
 873:Core/Src/vl53l0x_api_core.c **** 				VL53L0X_REG_PRE_RANGE_CONFIG_VALID_PHASE_HIGH,
 2758              		.loc 1 873 13 view .LVU953
 2759 0056 FFF7FEFF 		bl	VL53L0X_WrByte
 2760              	.LVL427:
 876:Core/Src/vl53l0x_api_core.c **** 				VL53L0X_REG_PRE_RANGE_CONFIG_VALID_PHASE_LOW,
 2761              		.loc 1 876 4 is_stmt 1 view .LVU954
 876:Core/Src/vl53l0x_api_core.c **** 				VL53L0X_REG_PRE_RANGE_CONFIG_VALID_PHASE_LOW,
 2762              		.loc 1 876 13 is_stmt 0 view .LVU955
 2763 005a 0822     		movs	r2, #8
 2764 005c 5621     		movs	r1, #86
 2765 005e 2046     		mov	r0, r4
 2766 0060 FFF7FEFF 		bl	VL53L0X_WrByte
 2767              	.LVL428:
 876:Core/Src/vl53l0x_api_core.c **** 				VL53L0X_REG_PRE_RANGE_CONFIG_VALID_PHASE_LOW,
 2768              		.loc 1 876 13 view .LVU956
 2769 0064 23E0     		b	.L129
 2770              	.LVL429:
 2771              	.L156:
 881:Core/Src/vl53l0x_api_core.c **** 				VL53L0X_REG_PRE_RANGE_CONFIG_VALID_PHASE_HIGH,
 2772              		.loc 1 881 4 is_stmt 1 view .LVU957
 881:Core/Src/vl53l0x_api_core.c **** 				VL53L0X_REG_PRE_RANGE_CONFIG_VALID_PHASE_HIGH,
 2773              		.loc 1 881 13 is_stmt 0 view .LVU958
 2774 0066 3022     		movs	r2, #48
 2775              	.LVL430:
ARM GAS  C:\Users\anmh1\AppData\Local\Temp\ccrmGbOb.s 			page 75


 881:Core/Src/vl53l0x_api_core.c **** 				VL53L0X_REG_PRE_RANGE_CONFIG_VALID_PHASE_HIGH,
 2776              		.loc 1 881 13 view .LVU959
 2777 0068 5721     		movs	r1, #87
 2778              	.LVL431:
 881:Core/Src/vl53l0x_api_core.c **** 				VL53L0X_REG_PRE_RANGE_CONFIG_VALID_PHASE_HIGH,
 2779              		.loc 1 881 13 view .LVU960
 2780 006a 2046     		mov	r0, r4
 2781              	.LVL432:
 881:Core/Src/vl53l0x_api_core.c **** 				VL53L0X_REG_PRE_RANGE_CONFIG_VALID_PHASE_HIGH,
 2782              		.loc 1 881 13 view .LVU961
 2783 006c FFF7FEFF 		bl	VL53L0X_WrByte
 2784              	.LVL433:
 884:Core/Src/vl53l0x_api_core.c **** 				VL53L0X_REG_PRE_RANGE_CONFIG_VALID_PHASE_LOW,
 2785              		.loc 1 884 4 is_stmt 1 view .LVU962
 884:Core/Src/vl53l0x_api_core.c **** 				VL53L0X_REG_PRE_RANGE_CONFIG_VALID_PHASE_LOW,
 2786              		.loc 1 884 13 is_stmt 0 view .LVU963
 2787 0070 0822     		movs	r2, #8
 2788 0072 5621     		movs	r1, #86
 2789 0074 2046     		mov	r0, r4
 2790 0076 FFF7FEFF 		bl	VL53L0X_WrByte
 2791              	.LVL434:
 884:Core/Src/vl53l0x_api_core.c **** 				VL53L0X_REG_PRE_RANGE_CONFIG_VALID_PHASE_LOW,
 2792              		.loc 1 884 13 view .LVU964
 2793 007a 18E0     		b	.L129
 2794              	.LVL435:
 2795              	.L157:
 889:Core/Src/vl53l0x_api_core.c **** 				VL53L0X_REG_PRE_RANGE_CONFIG_VALID_PHASE_HIGH,
 2796              		.loc 1 889 4 is_stmt 1 view .LVU965
 889:Core/Src/vl53l0x_api_core.c **** 				VL53L0X_REG_PRE_RANGE_CONFIG_VALID_PHASE_HIGH,
 2797              		.loc 1 889 13 is_stmt 0 view .LVU966
 2798 007c 4022     		movs	r2, #64
 2799              	.LVL436:
 889:Core/Src/vl53l0x_api_core.c **** 				VL53L0X_REG_PRE_RANGE_CONFIG_VALID_PHASE_HIGH,
 2800              		.loc 1 889 13 view .LVU967
 2801 007e 5721     		movs	r1, #87
 2802              	.LVL437:
 889:Core/Src/vl53l0x_api_core.c **** 				VL53L0X_REG_PRE_RANGE_CONFIG_VALID_PHASE_HIGH,
 2803              		.loc 1 889 13 view .LVU968
 2804 0080 2046     		mov	r0, r4
 2805              	.LVL438:
 889:Core/Src/vl53l0x_api_core.c **** 				VL53L0X_REG_PRE_RANGE_CONFIG_VALID_PHASE_HIGH,
 2806              		.loc 1 889 13 view .LVU969
 2807 0082 FFF7FEFF 		bl	VL53L0X_WrByte
 2808              	.LVL439:
 892:Core/Src/vl53l0x_api_core.c **** 				VL53L0X_REG_PRE_RANGE_CONFIG_VALID_PHASE_LOW,
 2809              		.loc 1 892 4 is_stmt 1 view .LVU970
 892:Core/Src/vl53l0x_api_core.c **** 				VL53L0X_REG_PRE_RANGE_CONFIG_VALID_PHASE_LOW,
 2810              		.loc 1 892 13 is_stmt 0 view .LVU971
 2811 0086 0822     		movs	r2, #8
 2812 0088 5621     		movs	r1, #86
 2813 008a 2046     		mov	r0, r4
 2814 008c FFF7FEFF 		bl	VL53L0X_WrByte
 2815              	.LVL440:
 892:Core/Src/vl53l0x_api_core.c **** 				VL53L0X_REG_PRE_RANGE_CONFIG_VALID_PHASE_LOW,
 2816              		.loc 1 892 13 view .LVU972
 2817 0090 0DE0     		b	.L129
 2818              	.LVL441:
ARM GAS  C:\Users\anmh1\AppData\Local\Temp\ccrmGbOb.s 			page 76


 2819              	.L158:
 896:Core/Src/vl53l0x_api_core.c **** 
 897:Core/Src/vl53l0x_api_core.c **** 			Status = VL53L0X_WrByte(Dev,
 2820              		.loc 1 897 4 is_stmt 1 view .LVU973
 2821              		.loc 1 897 13 is_stmt 0 view .LVU974
 2822 0092 5022     		movs	r2, #80
 2823              	.LVL442:
 2824              		.loc 1 897 13 view .LVU975
 2825 0094 5721     		movs	r1, #87
 2826              	.LVL443:
 2827              		.loc 1 897 13 view .LVU976
 2828 0096 2046     		mov	r0, r4
 2829              	.LVL444:
 2830              		.loc 1 897 13 view .LVU977
 2831 0098 FFF7FEFF 		bl	VL53L0X_WrByte
 2832              	.LVL445:
 898:Core/Src/vl53l0x_api_core.c **** 				VL53L0X_REG_PRE_RANGE_CONFIG_VALID_PHASE_HIGH,
 899:Core/Src/vl53l0x_api_core.c **** 				0x50);
 900:Core/Src/vl53l0x_api_core.c **** 			Status = VL53L0X_WrByte(Dev,
 2833              		.loc 1 900 4 is_stmt 1 view .LVU978
 2834              		.loc 1 900 13 is_stmt 0 view .LVU979
 2835 009c 0822     		movs	r2, #8
 2836 009e 5621     		movs	r1, #86
 2837 00a0 2046     		mov	r0, r4
 2838 00a2 FFF7FEFF 		bl	VL53L0X_WrByte
 2839              	.LVL446:
 2840              		.loc 1 900 13 view .LVU980
 2841 00a6 02E0     		b	.L129
 2842              	.LVL447:
 2843              	.L127:
 901:Core/Src/vl53l0x_api_core.c **** 				VL53L0X_REG_PRE_RANGE_CONFIG_VALID_PHASE_LOW,
 902:Core/Src/vl53l0x_api_core.c **** 				0x08);
 903:Core/Src/vl53l0x_api_core.c **** 		}
 904:Core/Src/vl53l0x_api_core.c **** 	} else if (VcselPeriodType == VL53L0X_VCSEL_PERIOD_FINAL_RANGE) {
 2844              		.loc 1 904 9 is_stmt 1 view .LVU981
 2845              		.loc 1 904 12 is_stmt 0 view .LVU982
 2846 00a8 012E     		cmp	r6, #1
 2847 00aa 10D0     		beq	.L159
 2848 00ac 0020     		movs	r0, #0
 2849              	.LVL448:
 2850              	.L129:
 905:Core/Src/vl53l0x_api_core.c **** 
 906:Core/Src/vl53l0x_api_core.c **** 		if (VCSELPulsePeriodPCLK == 8) {
 907:Core/Src/vl53l0x_api_core.c **** 
 908:Core/Src/vl53l0x_api_core.c **** 			Status = VL53L0X_WrByte(Dev,
 909:Core/Src/vl53l0x_api_core.c **** 				VL53L0X_REG_FINAL_RANGE_CONFIG_VALID_PHASE_HIGH,
 910:Core/Src/vl53l0x_api_core.c **** 				0x10);
 911:Core/Src/vl53l0x_api_core.c **** 			Status = VL53L0X_WrByte(Dev,
 912:Core/Src/vl53l0x_api_core.c **** 				VL53L0X_REG_FINAL_RANGE_CONFIG_VALID_PHASE_LOW,
 913:Core/Src/vl53l0x_api_core.c **** 				0x08);
 914:Core/Src/vl53l0x_api_core.c **** 
 915:Core/Src/vl53l0x_api_core.c **** 			Status |= VL53L0X_WrByte(Dev,
 916:Core/Src/vl53l0x_api_core.c **** 				VL53L0X_REG_GLOBAL_CONFIG_VCSEL_WIDTH, 0x02);
 917:Core/Src/vl53l0x_api_core.c **** 			Status |= VL53L0X_WrByte(Dev,
 918:Core/Src/vl53l0x_api_core.c **** 				VL53L0X_REG_ALGO_PHASECAL_CONFIG_TIMEOUT, 0x0C);
 919:Core/Src/vl53l0x_api_core.c **** 
 920:Core/Src/vl53l0x_api_core.c **** 			Status |= VL53L0X_WrByte(Dev, 0xff, 0x01);
ARM GAS  C:\Users\anmh1\AppData\Local\Temp\ccrmGbOb.s 			page 77


 921:Core/Src/vl53l0x_api_core.c **** 			Status |= VL53L0X_WrByte(Dev,
 922:Core/Src/vl53l0x_api_core.c **** 				VL53L0X_REG_ALGO_PHASECAL_LIM,
 923:Core/Src/vl53l0x_api_core.c **** 				0x30);
 924:Core/Src/vl53l0x_api_core.c **** 			Status |= VL53L0X_WrByte(Dev, 0xff, 0x00);
 925:Core/Src/vl53l0x_api_core.c **** 		} else if (VCSELPulsePeriodPCLK == 10) {
 926:Core/Src/vl53l0x_api_core.c **** 
 927:Core/Src/vl53l0x_api_core.c **** 			Status = VL53L0X_WrByte(Dev,
 928:Core/Src/vl53l0x_api_core.c **** 				VL53L0X_REG_FINAL_RANGE_CONFIG_VALID_PHASE_HIGH,
 929:Core/Src/vl53l0x_api_core.c **** 				0x28);
 930:Core/Src/vl53l0x_api_core.c **** 			Status = VL53L0X_WrByte(Dev,
 931:Core/Src/vl53l0x_api_core.c **** 				VL53L0X_REG_FINAL_RANGE_CONFIG_VALID_PHASE_LOW,
 932:Core/Src/vl53l0x_api_core.c **** 				0x08);
 933:Core/Src/vl53l0x_api_core.c **** 
 934:Core/Src/vl53l0x_api_core.c **** 			Status |= VL53L0X_WrByte(Dev,
 935:Core/Src/vl53l0x_api_core.c **** 				VL53L0X_REG_GLOBAL_CONFIG_VCSEL_WIDTH, 0x03);
 936:Core/Src/vl53l0x_api_core.c **** 			Status |= VL53L0X_WrByte(Dev,
 937:Core/Src/vl53l0x_api_core.c **** 				VL53L0X_REG_ALGO_PHASECAL_CONFIG_TIMEOUT, 0x09);
 938:Core/Src/vl53l0x_api_core.c **** 
 939:Core/Src/vl53l0x_api_core.c **** 			Status |= VL53L0X_WrByte(Dev, 0xff, 0x01);
 940:Core/Src/vl53l0x_api_core.c **** 			Status |= VL53L0X_WrByte(Dev,
 941:Core/Src/vl53l0x_api_core.c **** 				VL53L0X_REG_ALGO_PHASECAL_LIM,
 942:Core/Src/vl53l0x_api_core.c **** 				0x20);
 943:Core/Src/vl53l0x_api_core.c **** 			Status |= VL53L0X_WrByte(Dev, 0xff, 0x00);
 944:Core/Src/vl53l0x_api_core.c **** 		} else if (VCSELPulsePeriodPCLK == 12) {
 945:Core/Src/vl53l0x_api_core.c **** 
 946:Core/Src/vl53l0x_api_core.c **** 			Status = VL53L0X_WrByte(Dev,
 947:Core/Src/vl53l0x_api_core.c **** 				VL53L0X_REG_FINAL_RANGE_CONFIG_VALID_PHASE_HIGH,
 948:Core/Src/vl53l0x_api_core.c **** 				0x38);
 949:Core/Src/vl53l0x_api_core.c **** 			Status = VL53L0X_WrByte(Dev,
 950:Core/Src/vl53l0x_api_core.c **** 				VL53L0X_REG_FINAL_RANGE_CONFIG_VALID_PHASE_LOW,
 951:Core/Src/vl53l0x_api_core.c **** 				0x08);
 952:Core/Src/vl53l0x_api_core.c **** 
 953:Core/Src/vl53l0x_api_core.c **** 			Status |= VL53L0X_WrByte(Dev,
 954:Core/Src/vl53l0x_api_core.c **** 				VL53L0X_REG_GLOBAL_CONFIG_VCSEL_WIDTH, 0x03);
 955:Core/Src/vl53l0x_api_core.c **** 			Status |= VL53L0X_WrByte(Dev,
 956:Core/Src/vl53l0x_api_core.c **** 				VL53L0X_REG_ALGO_PHASECAL_CONFIG_TIMEOUT, 0x08);
 957:Core/Src/vl53l0x_api_core.c **** 
 958:Core/Src/vl53l0x_api_core.c **** 			Status |= VL53L0X_WrByte(Dev, 0xff, 0x01);
 959:Core/Src/vl53l0x_api_core.c **** 			Status |= VL53L0X_WrByte(Dev,
 960:Core/Src/vl53l0x_api_core.c **** 				VL53L0X_REG_ALGO_PHASECAL_LIM,
 961:Core/Src/vl53l0x_api_core.c **** 				0x20);
 962:Core/Src/vl53l0x_api_core.c **** 			Status |= VL53L0X_WrByte(Dev, 0xff, 0x00);
 963:Core/Src/vl53l0x_api_core.c **** 		} else if (VCSELPulsePeriodPCLK == 14) {
 964:Core/Src/vl53l0x_api_core.c **** 
 965:Core/Src/vl53l0x_api_core.c **** 			Status = VL53L0X_WrByte(Dev,
 966:Core/Src/vl53l0x_api_core.c **** 				VL53L0X_REG_FINAL_RANGE_CONFIG_VALID_PHASE_HIGH,
 967:Core/Src/vl53l0x_api_core.c **** 				0x048);
 968:Core/Src/vl53l0x_api_core.c **** 			Status = VL53L0X_WrByte(Dev,
 969:Core/Src/vl53l0x_api_core.c **** 				VL53L0X_REG_FINAL_RANGE_CONFIG_VALID_PHASE_LOW,
 970:Core/Src/vl53l0x_api_core.c **** 				0x08);
 971:Core/Src/vl53l0x_api_core.c **** 
 972:Core/Src/vl53l0x_api_core.c **** 			Status |= VL53L0X_WrByte(Dev,
 973:Core/Src/vl53l0x_api_core.c **** 				VL53L0X_REG_GLOBAL_CONFIG_VCSEL_WIDTH, 0x03);
 974:Core/Src/vl53l0x_api_core.c **** 			Status |= VL53L0X_WrByte(Dev,
 975:Core/Src/vl53l0x_api_core.c **** 				VL53L0X_REG_ALGO_PHASECAL_CONFIG_TIMEOUT, 0x07);
 976:Core/Src/vl53l0x_api_core.c **** 
 977:Core/Src/vl53l0x_api_core.c **** 			Status |= VL53L0X_WrByte(Dev, 0xff, 0x01);
ARM GAS  C:\Users\anmh1\AppData\Local\Temp\ccrmGbOb.s 			page 78


 978:Core/Src/vl53l0x_api_core.c **** 			Status |= VL53L0X_WrByte(Dev,
 979:Core/Src/vl53l0x_api_core.c **** 				VL53L0X_REG_ALGO_PHASECAL_LIM,
 980:Core/Src/vl53l0x_api_core.c **** 				0x20);
 981:Core/Src/vl53l0x_api_core.c **** 			Status |= VL53L0X_WrByte(Dev, 0xff, 0x00);
 982:Core/Src/vl53l0x_api_core.c **** 		}
 983:Core/Src/vl53l0x_api_core.c **** 	}
 984:Core/Src/vl53l0x_api_core.c **** 
 985:Core/Src/vl53l0x_api_core.c **** 
 986:Core/Src/vl53l0x_api_core.c **** 	/* Re-calculate and apply timeouts, in macro periods */
 987:Core/Src/vl53l0x_api_core.c **** 
 988:Core/Src/vl53l0x_api_core.c **** 	if (Status == VL53L0X_ERROR_NONE) {
 2851              		.loc 1 988 2 is_stmt 1 view .LVU983
 2852              		.loc 1 988 5 is_stmt 0 view .LVU984
 2853 00ae 0028     		cmp	r0, #0
 2854 00b0 40F0DF80 		bne	.L135
 989:Core/Src/vl53l0x_api_core.c **** 		vcsel_period_reg = VL53L0X_encode_vcsel_period((uint8_t)
 2855              		.loc 1 989 3 is_stmt 1 view .LVU985
 2856              		.loc 1 989 22 is_stmt 0 view .LVU986
 2857 00b4 2846     		mov	r0, r5
 2858              	.LVL449:
 2859              		.loc 1 989 22 view .LVU987
 2860 00b6 FFF7FEFF 		bl	VL53L0X_encode_vcsel_period
 2861              	.LVL450:
 2862 00ba 0746     		mov	r7, r0
 2863              	.LVL451:
 990:Core/Src/vl53l0x_api_core.c **** 			VCSELPulsePeriodPCLK);
 991:Core/Src/vl53l0x_api_core.c **** 
 992:Core/Src/vl53l0x_api_core.c **** 		/* When the VCSEL period for the pre or final range is changed,
 993:Core/Src/vl53l0x_api_core.c **** 		* the corresponding timeout must be read from the device using
 994:Core/Src/vl53l0x_api_core.c **** 		* the current VCSEL period, then the new VCSEL period can be
 995:Core/Src/vl53l0x_api_core.c **** 		* applied. The timeout then must be written back to the device
 996:Core/Src/vl53l0x_api_core.c **** 		* using the new VCSEL period.
 997:Core/Src/vl53l0x_api_core.c **** 		*
 998:Core/Src/vl53l0x_api_core.c **** 		* For the MSRC timeout, the same applies - this timeout being
 999:Core/Src/vl53l0x_api_core.c **** 		* dependant on the pre-range vcsel period.
1000:Core/Src/vl53l0x_api_core.c **** 		*/
1001:Core/Src/vl53l0x_api_core.c **** 		switch (VcselPeriodType) {
 2864              		.loc 1 1001 3 is_stmt 1 view .LVU988
 2865 00bc 002E     		cmp	r6, #0
 2866 00be 00F0CD80 		beq	.L136
 2867 00c2 012E     		cmp	r6, #1
 2868 00c4 00F0F180 		beq	.L137
 2869 00c8 6FF00300 		mvn	r0, #3
 2870 00cc D2E0     		b	.L138
 2871              	.LVL452:
 2872              	.L159:
 906:Core/Src/vl53l0x_api_core.c **** 
 2873              		.loc 1 906 3 view .LVU989
 906:Core/Src/vl53l0x_api_core.c **** 
 2874              		.loc 1 906 6 is_stmt 0 view .LVU990
 2875 00ce 082D     		cmp	r5, #8
 2876 00d0 08D0     		beq	.L160
 925:Core/Src/vl53l0x_api_core.c **** 
 2877              		.loc 1 925 10 is_stmt 1 view .LVU991
 925:Core/Src/vl53l0x_api_core.c **** 
 2878              		.loc 1 925 13 is_stmt 0 view .LVU992
 2879 00d2 0A2D     		cmp	r5, #10
ARM GAS  C:\Users\anmh1\AppData\Local\Temp\ccrmGbOb.s 			page 79


 2880 00d4 35D0     		beq	.L161
 944:Core/Src/vl53l0x_api_core.c **** 
 2881              		.loc 1 944 10 is_stmt 1 view .LVU993
 944:Core/Src/vl53l0x_api_core.c **** 
 2882              		.loc 1 944 13 is_stmt 0 view .LVU994
 2883 00d6 0C2D     		cmp	r5, #12
 2884 00d8 62D0     		beq	.L162
 963:Core/Src/vl53l0x_api_core.c **** 
 2885              		.loc 1 963 10 is_stmt 1 view .LVU995
 963:Core/Src/vl53l0x_api_core.c **** 
 2886              		.loc 1 963 13 is_stmt 0 view .LVU996
 2887 00da 0E2D     		cmp	r5, #14
 2888 00dc 00F08F80 		beq	.L163
 2889 00e0 0020     		movs	r0, #0
 2890              	.LVL453:
 963:Core/Src/vl53l0x_api_core.c **** 
 2891              		.loc 1 963 13 view .LVU997
 2892 00e2 E4E7     		b	.L129
 2893              	.LVL454:
 2894              	.L160:
 908:Core/Src/vl53l0x_api_core.c **** 				VL53L0X_REG_FINAL_RANGE_CONFIG_VALID_PHASE_HIGH,
 2895              		.loc 1 908 4 is_stmt 1 view .LVU998
 908:Core/Src/vl53l0x_api_core.c **** 				VL53L0X_REG_FINAL_RANGE_CONFIG_VALID_PHASE_HIGH,
 2896              		.loc 1 908 13 is_stmt 0 view .LVU999
 2897 00e4 1022     		movs	r2, #16
 2898              	.LVL455:
 908:Core/Src/vl53l0x_api_core.c **** 				VL53L0X_REG_FINAL_RANGE_CONFIG_VALID_PHASE_HIGH,
 2899              		.loc 1 908 13 view .LVU1000
 2900 00e6 4821     		movs	r1, #72
 2901              	.LVL456:
 908:Core/Src/vl53l0x_api_core.c **** 				VL53L0X_REG_FINAL_RANGE_CONFIG_VALID_PHASE_HIGH,
 2902              		.loc 1 908 13 view .LVU1001
 2903 00e8 2046     		mov	r0, r4
 2904              	.LVL457:
 908:Core/Src/vl53l0x_api_core.c **** 				VL53L0X_REG_FINAL_RANGE_CONFIG_VALID_PHASE_HIGH,
 2905              		.loc 1 908 13 view .LVU1002
 2906 00ea FFF7FEFF 		bl	VL53L0X_WrByte
 2907              	.LVL458:
 911:Core/Src/vl53l0x_api_core.c **** 				VL53L0X_REG_FINAL_RANGE_CONFIG_VALID_PHASE_LOW,
 2908              		.loc 1 911 4 is_stmt 1 view .LVU1003
 911:Core/Src/vl53l0x_api_core.c **** 				VL53L0X_REG_FINAL_RANGE_CONFIG_VALID_PHASE_LOW,
 2909              		.loc 1 911 13 is_stmt 0 view .LVU1004
 2910 00ee 0822     		movs	r2, #8
 2911 00f0 4721     		movs	r1, #71
 2912 00f2 2046     		mov	r0, r4
 2913 00f4 FFF7FEFF 		bl	VL53L0X_WrByte
 2914              	.LVL459:
 2915 00f8 0746     		mov	r7, r0
 2916              	.LVL460:
 915:Core/Src/vl53l0x_api_core.c **** 				VL53L0X_REG_GLOBAL_CONFIG_VCSEL_WIDTH, 0x02);
 2917              		.loc 1 915 4 is_stmt 1 view .LVU1005
 915:Core/Src/vl53l0x_api_core.c **** 				VL53L0X_REG_GLOBAL_CONFIG_VCSEL_WIDTH, 0x02);
 2918              		.loc 1 915 14 is_stmt 0 view .LVU1006
 2919 00fa 0222     		movs	r2, #2
 2920 00fc 3221     		movs	r1, #50
 2921 00fe 2046     		mov	r0, r4
 2922 0100 FFF7FEFF 		bl	VL53L0X_WrByte
ARM GAS  C:\Users\anmh1\AppData\Local\Temp\ccrmGbOb.s 			page 80


 2923              	.LVL461:
 915:Core/Src/vl53l0x_api_core.c **** 				VL53L0X_REG_GLOBAL_CONFIG_VCSEL_WIDTH, 0x02);
 2924              		.loc 1 915 11 view .LVU1007
 2925 0104 0743     		orrs	r7, r7, r0
 2926              	.LVL462:
 915:Core/Src/vl53l0x_api_core.c **** 				VL53L0X_REG_GLOBAL_CONFIG_VCSEL_WIDTH, 0x02);
 2927              		.loc 1 915 11 view .LVU1008
 2928 0106 7FB2     		sxtb	r7, r7
 2929              	.LVL463:
 917:Core/Src/vl53l0x_api_core.c **** 				VL53L0X_REG_ALGO_PHASECAL_CONFIG_TIMEOUT, 0x0C);
 2930              		.loc 1 917 4 is_stmt 1 view .LVU1009
 917:Core/Src/vl53l0x_api_core.c **** 				VL53L0X_REG_ALGO_PHASECAL_CONFIG_TIMEOUT, 0x0C);
 2931              		.loc 1 917 14 is_stmt 0 view .LVU1010
 2932 0108 0C22     		movs	r2, #12
 2933 010a 3021     		movs	r1, #48
 2934 010c 2046     		mov	r0, r4
 2935 010e FFF7FEFF 		bl	VL53L0X_WrByte
 2936              	.LVL464:
 917:Core/Src/vl53l0x_api_core.c **** 				VL53L0X_REG_ALGO_PHASECAL_CONFIG_TIMEOUT, 0x0C);
 2937              		.loc 1 917 11 view .LVU1011
 2938 0112 0743     		orrs	r7, r7, r0
 2939              	.LVL465:
 917:Core/Src/vl53l0x_api_core.c **** 				VL53L0X_REG_ALGO_PHASECAL_CONFIG_TIMEOUT, 0x0C);
 2940              		.loc 1 917 11 view .LVU1012
 2941 0114 7FB2     		sxtb	r7, r7
 2942              	.LVL466:
 920:Core/Src/vl53l0x_api_core.c **** 			Status |= VL53L0X_WrByte(Dev,
 2943              		.loc 1 920 4 is_stmt 1 view .LVU1013
 920:Core/Src/vl53l0x_api_core.c **** 			Status |= VL53L0X_WrByte(Dev,
 2944              		.loc 1 920 14 is_stmt 0 view .LVU1014
 2945 0116 0122     		movs	r2, #1
 2946 0118 FF21     		movs	r1, #255
 2947 011a 2046     		mov	r0, r4
 2948 011c FFF7FEFF 		bl	VL53L0X_WrByte
 2949              	.LVL467:
 920:Core/Src/vl53l0x_api_core.c **** 			Status |= VL53L0X_WrByte(Dev,
 2950              		.loc 1 920 11 view .LVU1015
 2951 0120 0743     		orrs	r7, r7, r0
 2952              	.LVL468:
 920:Core/Src/vl53l0x_api_core.c **** 			Status |= VL53L0X_WrByte(Dev,
 2953              		.loc 1 920 11 view .LVU1016
 2954 0122 7FB2     		sxtb	r7, r7
 2955              	.LVL469:
 921:Core/Src/vl53l0x_api_core.c **** 				VL53L0X_REG_ALGO_PHASECAL_LIM,
 2956              		.loc 1 921 4 is_stmt 1 view .LVU1017
 921:Core/Src/vl53l0x_api_core.c **** 				VL53L0X_REG_ALGO_PHASECAL_LIM,
 2957              		.loc 1 921 14 is_stmt 0 view .LVU1018
 2958 0124 3022     		movs	r2, #48
 2959 0126 1146     		mov	r1, r2
 2960 0128 2046     		mov	r0, r4
 2961 012a FFF7FEFF 		bl	VL53L0X_WrByte
 2962              	.LVL470:
 921:Core/Src/vl53l0x_api_core.c **** 				VL53L0X_REG_ALGO_PHASECAL_LIM,
 2963              		.loc 1 921 11 view .LVU1019
 2964 012e 0743     		orrs	r7, r7, r0
 2965              	.LVL471:
 921:Core/Src/vl53l0x_api_core.c **** 				VL53L0X_REG_ALGO_PHASECAL_LIM,
ARM GAS  C:\Users\anmh1\AppData\Local\Temp\ccrmGbOb.s 			page 81


 2966              		.loc 1 921 11 view .LVU1020
 2967 0130 7FB2     		sxtb	r7, r7
 2968              	.LVL472:
 924:Core/Src/vl53l0x_api_core.c **** 		} else if (VCSELPulsePeriodPCLK == 10) {
 2969              		.loc 1 924 4 is_stmt 1 view .LVU1021
 924:Core/Src/vl53l0x_api_core.c **** 		} else if (VCSELPulsePeriodPCLK == 10) {
 2970              		.loc 1 924 14 is_stmt 0 view .LVU1022
 2971 0132 0022     		movs	r2, #0
 2972 0134 FF21     		movs	r1, #255
 2973 0136 2046     		mov	r0, r4
 2974 0138 FFF7FEFF 		bl	VL53L0X_WrByte
 2975              	.LVL473:
 924:Core/Src/vl53l0x_api_core.c **** 		} else if (VCSELPulsePeriodPCLK == 10) {
 2976              		.loc 1 924 11 view .LVU1023
 2977 013c 3843     		orrs	r0, r0, r7
 2978 013e 40B2     		sxtb	r0, r0
 2979              	.LVL474:
 924:Core/Src/vl53l0x_api_core.c **** 		} else if (VCSELPulsePeriodPCLK == 10) {
 2980              		.loc 1 924 11 view .LVU1024
 2981 0140 B5E7     		b	.L129
 2982              	.LVL475:
 2983              	.L161:
 927:Core/Src/vl53l0x_api_core.c **** 				VL53L0X_REG_FINAL_RANGE_CONFIG_VALID_PHASE_HIGH,
 2984              		.loc 1 927 4 is_stmt 1 view .LVU1025
 927:Core/Src/vl53l0x_api_core.c **** 				VL53L0X_REG_FINAL_RANGE_CONFIG_VALID_PHASE_HIGH,
 2985              		.loc 1 927 13 is_stmt 0 view .LVU1026
 2986 0142 2822     		movs	r2, #40
 2987              	.LVL476:
 927:Core/Src/vl53l0x_api_core.c **** 				VL53L0X_REG_FINAL_RANGE_CONFIG_VALID_PHASE_HIGH,
 2988              		.loc 1 927 13 view .LVU1027
 2989 0144 4821     		movs	r1, #72
 2990              	.LVL477:
 927:Core/Src/vl53l0x_api_core.c **** 				VL53L0X_REG_FINAL_RANGE_CONFIG_VALID_PHASE_HIGH,
 2991              		.loc 1 927 13 view .LVU1028
 2992 0146 2046     		mov	r0, r4
 2993              	.LVL478:
 927:Core/Src/vl53l0x_api_core.c **** 				VL53L0X_REG_FINAL_RANGE_CONFIG_VALID_PHASE_HIGH,
 2994              		.loc 1 927 13 view .LVU1029
 2995 0148 FFF7FEFF 		bl	VL53L0X_WrByte
 2996              	.LVL479:
 930:Core/Src/vl53l0x_api_core.c **** 				VL53L0X_REG_FINAL_RANGE_CONFIG_VALID_PHASE_LOW,
 2997              		.loc 1 930 4 is_stmt 1 view .LVU1030
 930:Core/Src/vl53l0x_api_core.c **** 				VL53L0X_REG_FINAL_RANGE_CONFIG_VALID_PHASE_LOW,
 2998              		.loc 1 930 13 is_stmt 0 view .LVU1031
 2999 014c 0822     		movs	r2, #8
 3000 014e 4721     		movs	r1, #71
 3001 0150 2046     		mov	r0, r4
 3002 0152 FFF7FEFF 		bl	VL53L0X_WrByte
 3003              	.LVL480:
 3004 0156 0746     		mov	r7, r0
 3005              	.LVL481:
 934:Core/Src/vl53l0x_api_core.c **** 				VL53L0X_REG_GLOBAL_CONFIG_VCSEL_WIDTH, 0x03);
 3006              		.loc 1 934 4 is_stmt 1 view .LVU1032
 934:Core/Src/vl53l0x_api_core.c **** 				VL53L0X_REG_GLOBAL_CONFIG_VCSEL_WIDTH, 0x03);
 3007              		.loc 1 934 14 is_stmt 0 view .LVU1033
 3008 0158 0322     		movs	r2, #3
 3009 015a 3221     		movs	r1, #50
ARM GAS  C:\Users\anmh1\AppData\Local\Temp\ccrmGbOb.s 			page 82


 3010 015c 2046     		mov	r0, r4
 3011 015e FFF7FEFF 		bl	VL53L0X_WrByte
 3012              	.LVL482:
 934:Core/Src/vl53l0x_api_core.c **** 				VL53L0X_REG_GLOBAL_CONFIG_VCSEL_WIDTH, 0x03);
 3013              		.loc 1 934 11 view .LVU1034
 3014 0162 0743     		orrs	r7, r7, r0
 3015              	.LVL483:
 934:Core/Src/vl53l0x_api_core.c **** 				VL53L0X_REG_GLOBAL_CONFIG_VCSEL_WIDTH, 0x03);
 3016              		.loc 1 934 11 view .LVU1035
 3017 0164 7FB2     		sxtb	r7, r7
 3018              	.LVL484:
 936:Core/Src/vl53l0x_api_core.c **** 				VL53L0X_REG_ALGO_PHASECAL_CONFIG_TIMEOUT, 0x09);
 3019              		.loc 1 936 4 is_stmt 1 view .LVU1036
 936:Core/Src/vl53l0x_api_core.c **** 				VL53L0X_REG_ALGO_PHASECAL_CONFIG_TIMEOUT, 0x09);
 3020              		.loc 1 936 14 is_stmt 0 view .LVU1037
 3021 0166 0922     		movs	r2, #9
 3022 0168 3021     		movs	r1, #48
 3023 016a 2046     		mov	r0, r4
 3024 016c FFF7FEFF 		bl	VL53L0X_WrByte
 3025              	.LVL485:
 936:Core/Src/vl53l0x_api_core.c **** 				VL53L0X_REG_ALGO_PHASECAL_CONFIG_TIMEOUT, 0x09);
 3026              		.loc 1 936 11 view .LVU1038
 3027 0170 0743     		orrs	r7, r7, r0
 3028              	.LVL486:
 936:Core/Src/vl53l0x_api_core.c **** 				VL53L0X_REG_ALGO_PHASECAL_CONFIG_TIMEOUT, 0x09);
 3029              		.loc 1 936 11 view .LVU1039
 3030 0172 7FB2     		sxtb	r7, r7
 3031              	.LVL487:
 939:Core/Src/vl53l0x_api_core.c **** 			Status |= VL53L0X_WrByte(Dev,
 3032              		.loc 1 939 4 is_stmt 1 view .LVU1040
 939:Core/Src/vl53l0x_api_core.c **** 			Status |= VL53L0X_WrByte(Dev,
 3033              		.loc 1 939 14 is_stmt 0 view .LVU1041
 3034 0174 0122     		movs	r2, #1
 3035 0176 FF21     		movs	r1, #255
 3036 0178 2046     		mov	r0, r4
 3037 017a FFF7FEFF 		bl	VL53L0X_WrByte
 3038              	.LVL488:
 939:Core/Src/vl53l0x_api_core.c **** 			Status |= VL53L0X_WrByte(Dev,
 3039              		.loc 1 939 11 view .LVU1042
 3040 017e 0743     		orrs	r7, r7, r0
 3041              	.LVL489:
 939:Core/Src/vl53l0x_api_core.c **** 			Status |= VL53L0X_WrByte(Dev,
 3042              		.loc 1 939 11 view .LVU1043
 3043 0180 7FB2     		sxtb	r7, r7
 3044              	.LVL490:
 940:Core/Src/vl53l0x_api_core.c **** 				VL53L0X_REG_ALGO_PHASECAL_LIM,
 3045              		.loc 1 940 4 is_stmt 1 view .LVU1044
 940:Core/Src/vl53l0x_api_core.c **** 				VL53L0X_REG_ALGO_PHASECAL_LIM,
 3046              		.loc 1 940 14 is_stmt 0 view .LVU1045
 3047 0182 2022     		movs	r2, #32
 3048 0184 3021     		movs	r1, #48
 3049 0186 2046     		mov	r0, r4
 3050 0188 FFF7FEFF 		bl	VL53L0X_WrByte
 3051              	.LVL491:
 940:Core/Src/vl53l0x_api_core.c **** 				VL53L0X_REG_ALGO_PHASECAL_LIM,
 3052              		.loc 1 940 11 view .LVU1046
 3053 018c 0743     		orrs	r7, r7, r0
ARM GAS  C:\Users\anmh1\AppData\Local\Temp\ccrmGbOb.s 			page 83


 3054              	.LVL492:
 940:Core/Src/vl53l0x_api_core.c **** 				VL53L0X_REG_ALGO_PHASECAL_LIM,
 3055              		.loc 1 940 11 view .LVU1047
 3056 018e 7FB2     		sxtb	r7, r7
 3057              	.LVL493:
 943:Core/Src/vl53l0x_api_core.c **** 		} else if (VCSELPulsePeriodPCLK == 12) {
 3058              		.loc 1 943 4 is_stmt 1 view .LVU1048
 943:Core/Src/vl53l0x_api_core.c **** 		} else if (VCSELPulsePeriodPCLK == 12) {
 3059              		.loc 1 943 14 is_stmt 0 view .LVU1049
 3060 0190 0022     		movs	r2, #0
 3061 0192 FF21     		movs	r1, #255
 3062 0194 2046     		mov	r0, r4
 3063 0196 FFF7FEFF 		bl	VL53L0X_WrByte
 3064              	.LVL494:
 943:Core/Src/vl53l0x_api_core.c **** 		} else if (VCSELPulsePeriodPCLK == 12) {
 3065              		.loc 1 943 11 view .LVU1050
 3066 019a 3843     		orrs	r0, r0, r7
 3067 019c 40B2     		sxtb	r0, r0
 3068              	.LVL495:
 943:Core/Src/vl53l0x_api_core.c **** 		} else if (VCSELPulsePeriodPCLK == 12) {
 3069              		.loc 1 943 11 view .LVU1051
 3070 019e 86E7     		b	.L129
 3071              	.LVL496:
 3072              	.L162:
 946:Core/Src/vl53l0x_api_core.c **** 				VL53L0X_REG_FINAL_RANGE_CONFIG_VALID_PHASE_HIGH,
 3073              		.loc 1 946 4 is_stmt 1 view .LVU1052
 946:Core/Src/vl53l0x_api_core.c **** 				VL53L0X_REG_FINAL_RANGE_CONFIG_VALID_PHASE_HIGH,
 3074              		.loc 1 946 13 is_stmt 0 view .LVU1053
 3075 01a0 3822     		movs	r2, #56
 3076              	.LVL497:
 946:Core/Src/vl53l0x_api_core.c **** 				VL53L0X_REG_FINAL_RANGE_CONFIG_VALID_PHASE_HIGH,
 3077              		.loc 1 946 13 view .LVU1054
 3078 01a2 4821     		movs	r1, #72
 3079              	.LVL498:
 946:Core/Src/vl53l0x_api_core.c **** 				VL53L0X_REG_FINAL_RANGE_CONFIG_VALID_PHASE_HIGH,
 3080              		.loc 1 946 13 view .LVU1055
 3081 01a4 2046     		mov	r0, r4
 3082              	.LVL499:
 946:Core/Src/vl53l0x_api_core.c **** 				VL53L0X_REG_FINAL_RANGE_CONFIG_VALID_PHASE_HIGH,
 3083              		.loc 1 946 13 view .LVU1056
 3084 01a6 FFF7FEFF 		bl	VL53L0X_WrByte
 3085              	.LVL500:
 949:Core/Src/vl53l0x_api_core.c **** 				VL53L0X_REG_FINAL_RANGE_CONFIG_VALID_PHASE_LOW,
 3086              		.loc 1 949 4 is_stmt 1 view .LVU1057
 949:Core/Src/vl53l0x_api_core.c **** 				VL53L0X_REG_FINAL_RANGE_CONFIG_VALID_PHASE_LOW,
 3087              		.loc 1 949 13 is_stmt 0 view .LVU1058
 3088 01aa 0822     		movs	r2, #8
 3089 01ac 4721     		movs	r1, #71
 3090 01ae 2046     		mov	r0, r4
 3091 01b0 FFF7FEFF 		bl	VL53L0X_WrByte
 3092              	.LVL501:
 3093 01b4 0746     		mov	r7, r0
 3094              	.LVL502:
 953:Core/Src/vl53l0x_api_core.c **** 				VL53L0X_REG_GLOBAL_CONFIG_VCSEL_WIDTH, 0x03);
 3095              		.loc 1 953 4 is_stmt 1 view .LVU1059
 953:Core/Src/vl53l0x_api_core.c **** 				VL53L0X_REG_GLOBAL_CONFIG_VCSEL_WIDTH, 0x03);
 3096              		.loc 1 953 14 is_stmt 0 view .LVU1060
ARM GAS  C:\Users\anmh1\AppData\Local\Temp\ccrmGbOb.s 			page 84


 3097 01b6 0322     		movs	r2, #3
 3098 01b8 3221     		movs	r1, #50
 3099 01ba 2046     		mov	r0, r4
 3100 01bc FFF7FEFF 		bl	VL53L0X_WrByte
 3101              	.LVL503:
 953:Core/Src/vl53l0x_api_core.c **** 				VL53L0X_REG_GLOBAL_CONFIG_VCSEL_WIDTH, 0x03);
 3102              		.loc 1 953 11 view .LVU1061
 3103 01c0 0743     		orrs	r7, r7, r0
 3104              	.LVL504:
 953:Core/Src/vl53l0x_api_core.c **** 				VL53L0X_REG_GLOBAL_CONFIG_VCSEL_WIDTH, 0x03);
 3105              		.loc 1 953 11 view .LVU1062
 3106 01c2 7FB2     		sxtb	r7, r7
 3107              	.LVL505:
 955:Core/Src/vl53l0x_api_core.c **** 				VL53L0X_REG_ALGO_PHASECAL_CONFIG_TIMEOUT, 0x08);
 3108              		.loc 1 955 4 is_stmt 1 view .LVU1063
 955:Core/Src/vl53l0x_api_core.c **** 				VL53L0X_REG_ALGO_PHASECAL_CONFIG_TIMEOUT, 0x08);
 3109              		.loc 1 955 14 is_stmt 0 view .LVU1064
 3110 01c4 0822     		movs	r2, #8
 3111 01c6 3021     		movs	r1, #48
 3112 01c8 2046     		mov	r0, r4
 3113 01ca FFF7FEFF 		bl	VL53L0X_WrByte
 3114              	.LVL506:
 955:Core/Src/vl53l0x_api_core.c **** 				VL53L0X_REG_ALGO_PHASECAL_CONFIG_TIMEOUT, 0x08);
 3115              		.loc 1 955 11 view .LVU1065
 3116 01ce 0743     		orrs	r7, r7, r0
 3117              	.LVL507:
 955:Core/Src/vl53l0x_api_core.c **** 				VL53L0X_REG_ALGO_PHASECAL_CONFIG_TIMEOUT, 0x08);
 3118              		.loc 1 955 11 view .LVU1066
 3119 01d0 7FB2     		sxtb	r7, r7
 3120              	.LVL508:
 958:Core/Src/vl53l0x_api_core.c **** 			Status |= VL53L0X_WrByte(Dev,
 3121              		.loc 1 958 4 is_stmt 1 view .LVU1067
 958:Core/Src/vl53l0x_api_core.c **** 			Status |= VL53L0X_WrByte(Dev,
 3122              		.loc 1 958 14 is_stmt 0 view .LVU1068
 3123 01d2 0122     		movs	r2, #1
 3124 01d4 FF21     		movs	r1, #255
 3125 01d6 2046     		mov	r0, r4
 3126 01d8 FFF7FEFF 		bl	VL53L0X_WrByte
 3127              	.LVL509:
 958:Core/Src/vl53l0x_api_core.c **** 			Status |= VL53L0X_WrByte(Dev,
 3128              		.loc 1 958 11 view .LVU1069
 3129 01dc 0743     		orrs	r7, r7, r0
 3130              	.LVL510:
 958:Core/Src/vl53l0x_api_core.c **** 			Status |= VL53L0X_WrByte(Dev,
 3131              		.loc 1 958 11 view .LVU1070
 3132 01de 7FB2     		sxtb	r7, r7
 3133              	.LVL511:
 959:Core/Src/vl53l0x_api_core.c **** 				VL53L0X_REG_ALGO_PHASECAL_LIM,
 3134              		.loc 1 959 4 is_stmt 1 view .LVU1071
 959:Core/Src/vl53l0x_api_core.c **** 				VL53L0X_REG_ALGO_PHASECAL_LIM,
 3135              		.loc 1 959 14 is_stmt 0 view .LVU1072
 3136 01e0 2022     		movs	r2, #32
 3137 01e2 3021     		movs	r1, #48
 3138 01e4 2046     		mov	r0, r4
 3139 01e6 FFF7FEFF 		bl	VL53L0X_WrByte
 3140              	.LVL512:
 959:Core/Src/vl53l0x_api_core.c **** 				VL53L0X_REG_ALGO_PHASECAL_LIM,
ARM GAS  C:\Users\anmh1\AppData\Local\Temp\ccrmGbOb.s 			page 85


 3141              		.loc 1 959 11 view .LVU1073
 3142 01ea 0743     		orrs	r7, r7, r0
 3143              	.LVL513:
 959:Core/Src/vl53l0x_api_core.c **** 				VL53L0X_REG_ALGO_PHASECAL_LIM,
 3144              		.loc 1 959 11 view .LVU1074
 3145 01ec 7FB2     		sxtb	r7, r7
 3146              	.LVL514:
 962:Core/Src/vl53l0x_api_core.c **** 		} else if (VCSELPulsePeriodPCLK == 14) {
 3147              		.loc 1 962 4 is_stmt 1 view .LVU1075
 962:Core/Src/vl53l0x_api_core.c **** 		} else if (VCSELPulsePeriodPCLK == 14) {
 3148              		.loc 1 962 14 is_stmt 0 view .LVU1076
 3149 01ee 0022     		movs	r2, #0
 3150 01f0 FF21     		movs	r1, #255
 3151 01f2 2046     		mov	r0, r4
 3152 01f4 FFF7FEFF 		bl	VL53L0X_WrByte
 3153              	.LVL515:
 962:Core/Src/vl53l0x_api_core.c **** 		} else if (VCSELPulsePeriodPCLK == 14) {
 3154              		.loc 1 962 11 view .LVU1077
 3155 01f8 3843     		orrs	r0, r0, r7
 3156 01fa 40B2     		sxtb	r0, r0
 3157              	.LVL516:
 962:Core/Src/vl53l0x_api_core.c **** 		} else if (VCSELPulsePeriodPCLK == 14) {
 3158              		.loc 1 962 11 view .LVU1078
 3159 01fc 57E7     		b	.L129
 3160              	.LVL517:
 3161              	.L163:
 965:Core/Src/vl53l0x_api_core.c **** 				VL53L0X_REG_FINAL_RANGE_CONFIG_VALID_PHASE_HIGH,
 3162              		.loc 1 965 4 is_stmt 1 view .LVU1079
 965:Core/Src/vl53l0x_api_core.c **** 				VL53L0X_REG_FINAL_RANGE_CONFIG_VALID_PHASE_HIGH,
 3163              		.loc 1 965 13 is_stmt 0 view .LVU1080
 3164 01fe 4822     		movs	r2, #72
 3165              	.LVL518:
 965:Core/Src/vl53l0x_api_core.c **** 				VL53L0X_REG_FINAL_RANGE_CONFIG_VALID_PHASE_HIGH,
 3166              		.loc 1 965 13 view .LVU1081
 3167 0200 1146     		mov	r1, r2
 3168              	.LVL519:
 965:Core/Src/vl53l0x_api_core.c **** 				VL53L0X_REG_FINAL_RANGE_CONFIG_VALID_PHASE_HIGH,
 3169              		.loc 1 965 13 view .LVU1082
 3170 0202 2046     		mov	r0, r4
 3171              	.LVL520:
 965:Core/Src/vl53l0x_api_core.c **** 				VL53L0X_REG_FINAL_RANGE_CONFIG_VALID_PHASE_HIGH,
 3172              		.loc 1 965 13 view .LVU1083
 3173 0204 FFF7FEFF 		bl	VL53L0X_WrByte
 3174              	.LVL521:
 968:Core/Src/vl53l0x_api_core.c **** 				VL53L0X_REG_FINAL_RANGE_CONFIG_VALID_PHASE_LOW,
 3175              		.loc 1 968 4 is_stmt 1 view .LVU1084
 968:Core/Src/vl53l0x_api_core.c **** 				VL53L0X_REG_FINAL_RANGE_CONFIG_VALID_PHASE_LOW,
 3176              		.loc 1 968 13 is_stmt 0 view .LVU1085
 3177 0208 0822     		movs	r2, #8
 3178 020a 4721     		movs	r1, #71
 3179 020c 2046     		mov	r0, r4
 3180 020e FFF7FEFF 		bl	VL53L0X_WrByte
 3181              	.LVL522:
 3182 0212 0746     		mov	r7, r0
 3183              	.LVL523:
 972:Core/Src/vl53l0x_api_core.c **** 				VL53L0X_REG_GLOBAL_CONFIG_VCSEL_WIDTH, 0x03);
 3184              		.loc 1 972 4 is_stmt 1 view .LVU1086
ARM GAS  C:\Users\anmh1\AppData\Local\Temp\ccrmGbOb.s 			page 86


 972:Core/Src/vl53l0x_api_core.c **** 				VL53L0X_REG_GLOBAL_CONFIG_VCSEL_WIDTH, 0x03);
 3185              		.loc 1 972 14 is_stmt 0 view .LVU1087
 3186 0214 0322     		movs	r2, #3
 3187 0216 3221     		movs	r1, #50
 3188 0218 2046     		mov	r0, r4
 3189 021a FFF7FEFF 		bl	VL53L0X_WrByte
 3190              	.LVL524:
 972:Core/Src/vl53l0x_api_core.c **** 				VL53L0X_REG_GLOBAL_CONFIG_VCSEL_WIDTH, 0x03);
 3191              		.loc 1 972 11 view .LVU1088
 3192 021e 0743     		orrs	r7, r7, r0
 3193              	.LVL525:
 972:Core/Src/vl53l0x_api_core.c **** 				VL53L0X_REG_GLOBAL_CONFIG_VCSEL_WIDTH, 0x03);
 3194              		.loc 1 972 11 view .LVU1089
 3195 0220 7FB2     		sxtb	r7, r7
 3196              	.LVL526:
 974:Core/Src/vl53l0x_api_core.c **** 				VL53L0X_REG_ALGO_PHASECAL_CONFIG_TIMEOUT, 0x07);
 3197              		.loc 1 974 4 is_stmt 1 view .LVU1090
 974:Core/Src/vl53l0x_api_core.c **** 				VL53L0X_REG_ALGO_PHASECAL_CONFIG_TIMEOUT, 0x07);
 3198              		.loc 1 974 14 is_stmt 0 view .LVU1091
 3199 0222 0722     		movs	r2, #7
 3200 0224 3021     		movs	r1, #48
 3201 0226 2046     		mov	r0, r4
 3202 0228 FFF7FEFF 		bl	VL53L0X_WrByte
 3203              	.LVL527:
 974:Core/Src/vl53l0x_api_core.c **** 				VL53L0X_REG_ALGO_PHASECAL_CONFIG_TIMEOUT, 0x07);
 3204              		.loc 1 974 11 view .LVU1092
 3205 022c 0743     		orrs	r7, r7, r0
 3206              	.LVL528:
 974:Core/Src/vl53l0x_api_core.c **** 				VL53L0X_REG_ALGO_PHASECAL_CONFIG_TIMEOUT, 0x07);
 3207              		.loc 1 974 11 view .LVU1093
 3208 022e 7FB2     		sxtb	r7, r7
 3209              	.LVL529:
 977:Core/Src/vl53l0x_api_core.c **** 			Status |= VL53L0X_WrByte(Dev,
 3210              		.loc 1 977 4 is_stmt 1 view .LVU1094
 977:Core/Src/vl53l0x_api_core.c **** 			Status |= VL53L0X_WrByte(Dev,
 3211              		.loc 1 977 14 is_stmt 0 view .LVU1095
 3212 0230 0122     		movs	r2, #1
 3213 0232 FF21     		movs	r1, #255
 3214 0234 2046     		mov	r0, r4
 3215 0236 FFF7FEFF 		bl	VL53L0X_WrByte
 3216              	.LVL530:
 977:Core/Src/vl53l0x_api_core.c **** 			Status |= VL53L0X_WrByte(Dev,
 3217              		.loc 1 977 11 view .LVU1096
 3218 023a 0743     		orrs	r7, r7, r0
 3219              	.LVL531:
 977:Core/Src/vl53l0x_api_core.c **** 			Status |= VL53L0X_WrByte(Dev,
 3220              		.loc 1 977 11 view .LVU1097
 3221 023c 7FB2     		sxtb	r7, r7
 3222              	.LVL532:
 978:Core/Src/vl53l0x_api_core.c **** 				VL53L0X_REG_ALGO_PHASECAL_LIM,
 3223              		.loc 1 978 4 is_stmt 1 view .LVU1098
 978:Core/Src/vl53l0x_api_core.c **** 				VL53L0X_REG_ALGO_PHASECAL_LIM,
 3224              		.loc 1 978 14 is_stmt 0 view .LVU1099
 3225 023e 2022     		movs	r2, #32
 3226 0240 3021     		movs	r1, #48
 3227 0242 2046     		mov	r0, r4
 3228 0244 FFF7FEFF 		bl	VL53L0X_WrByte
ARM GAS  C:\Users\anmh1\AppData\Local\Temp\ccrmGbOb.s 			page 87


 3229              	.LVL533:
 978:Core/Src/vl53l0x_api_core.c **** 				VL53L0X_REG_ALGO_PHASECAL_LIM,
 3230              		.loc 1 978 11 view .LVU1100
 3231 0248 0743     		orrs	r7, r7, r0
 3232              	.LVL534:
 978:Core/Src/vl53l0x_api_core.c **** 				VL53L0X_REG_ALGO_PHASECAL_LIM,
 3233              		.loc 1 978 11 view .LVU1101
 3234 024a 7FB2     		sxtb	r7, r7
 3235              	.LVL535:
 981:Core/Src/vl53l0x_api_core.c **** 		}
 3236              		.loc 1 981 4 is_stmt 1 view .LVU1102
 981:Core/Src/vl53l0x_api_core.c **** 		}
 3237              		.loc 1 981 14 is_stmt 0 view .LVU1103
 3238 024c 0022     		movs	r2, #0
 3239 024e FF21     		movs	r1, #255
 3240 0250 2046     		mov	r0, r4
 3241 0252 FFF7FEFF 		bl	VL53L0X_WrByte
 3242              	.LVL536:
 981:Core/Src/vl53l0x_api_core.c **** 		}
 3243              		.loc 1 981 11 view .LVU1104
 3244 0256 3843     		orrs	r0, r0, r7
 3245 0258 40B2     		sxtb	r0, r0
 3246              	.LVL537:
 981:Core/Src/vl53l0x_api_core.c **** 		}
 3247              		.loc 1 981 11 view .LVU1105
 3248 025a 28E7     		b	.L129
 3249              	.LVL538:
 3250              	.L136:
1002:Core/Src/vl53l0x_api_core.c **** 		case VL53L0X_VCSEL_PERIOD_PRE_RANGE:
1003:Core/Src/vl53l0x_api_core.c **** 			Status = get_sequence_step_timeout(Dev,
 3251              		.loc 1 1003 4 is_stmt 1 view .LVU1106
 3252              		.loc 1 1003 13 is_stmt 0 view .LVU1107
 3253 025c 02AA     		add	r2, sp, #8
 3254 025e 0321     		movs	r1, #3
 3255 0260 2046     		mov	r0, r4
 3256 0262 FFF7FEFF 		bl	get_sequence_step_timeout
 3257              	.LVL539:
1004:Core/Src/vl53l0x_api_core.c **** 				VL53L0X_SEQUENCESTEP_PRE_RANGE,
1005:Core/Src/vl53l0x_api_core.c **** 				&PreRangeTimeoutMicroSeconds);
1006:Core/Src/vl53l0x_api_core.c **** 
1007:Core/Src/vl53l0x_api_core.c **** 			if (Status == VL53L0X_ERROR_NONE)
 3258              		.loc 1 1007 4 is_stmt 1 view .LVU1108
 3259              		.loc 1 1007 7 is_stmt 0 view .LVU1109
 3260 0266 40B1     		cbz	r0, .L164
 3261              	.L139:
1008:Core/Src/vl53l0x_api_core.c **** 				Status = get_sequence_step_timeout(Dev,
1009:Core/Src/vl53l0x_api_core.c **** 					VL53L0X_SEQUENCESTEP_MSRC,
1010:Core/Src/vl53l0x_api_core.c **** 					&MsrcTimeoutMicroSeconds);
1011:Core/Src/vl53l0x_api_core.c **** 
1012:Core/Src/vl53l0x_api_core.c **** 			if (Status == VL53L0X_ERROR_NONE)
 3262              		.loc 1 1012 4 is_stmt 1 view .LVU1110
 3263              		.loc 1 1012 7 is_stmt 0 view .LVU1111
 3264 0268 68B1     		cbz	r0, .L165
 3265              	.L140:
1013:Core/Src/vl53l0x_api_core.c **** 				Status = VL53L0X_WrByte(Dev,
1014:Core/Src/vl53l0x_api_core.c **** 				VL53L0X_REG_PRE_RANGE_CONFIG_VCSEL_PERIOD,
1015:Core/Src/vl53l0x_api_core.c **** 					vcsel_period_reg);
ARM GAS  C:\Users\anmh1\AppData\Local\Temp\ccrmGbOb.s 			page 88


1016:Core/Src/vl53l0x_api_core.c **** 
1017:Core/Src/vl53l0x_api_core.c **** 
1018:Core/Src/vl53l0x_api_core.c **** 			if (Status == VL53L0X_ERROR_NONE)
 3266              		.loc 1 1018 4 is_stmt 1 view .LVU1112
 3267              		.loc 1 1018 7 is_stmt 0 view .LVU1113
 3268 026a 90B1     		cbz	r0, .L166
 3269              	.L141:
1019:Core/Src/vl53l0x_api_core.c **** 				Status = set_sequence_step_timeout(Dev,
1020:Core/Src/vl53l0x_api_core.c **** 					VL53L0X_SEQUENCESTEP_PRE_RANGE,
1021:Core/Src/vl53l0x_api_core.c **** 					PreRangeTimeoutMicroSeconds);
1022:Core/Src/vl53l0x_api_core.c **** 
1023:Core/Src/vl53l0x_api_core.c **** 
1024:Core/Src/vl53l0x_api_core.c **** 			if (Status == VL53L0X_ERROR_NONE)
 3270              		.loc 1 1024 4 is_stmt 1 view .LVU1114
 3271              		.loc 1 1024 7 is_stmt 0 view .LVU1115
 3272 026c B8B1     		cbz	r0, .L167
 3273              	.L142:
1025:Core/Src/vl53l0x_api_core.c **** 				Status = set_sequence_step_timeout(Dev,
1026:Core/Src/vl53l0x_api_core.c **** 					VL53L0X_SEQUENCESTEP_MSRC,
1027:Core/Src/vl53l0x_api_core.c **** 					MsrcTimeoutMicroSeconds);
1028:Core/Src/vl53l0x_api_core.c **** 
1029:Core/Src/vl53l0x_api_core.c **** 			VL53L0X_SETDEVICESPECIFICPARAMETER(
 3274              		.loc 1 1029 4 is_stmt 1 view .LVU1116
 3275 026e 84F8E850 		strb	r5, [r4, #232]
1030:Core/Src/vl53l0x_api_core.c **** 				Dev,
1031:Core/Src/vl53l0x_api_core.c **** 				PreRangeVcselPulsePeriod,
1032:Core/Src/vl53l0x_api_core.c **** 				VCSELPulsePeriodPCLK);
1033:Core/Src/vl53l0x_api_core.c **** 			break;
 3276              		.loc 1 1033 4 view .LVU1117
 3277              	.LVL540:
 3278              	.L135:
1034:Core/Src/vl53l0x_api_core.c **** 		case VL53L0X_VCSEL_PERIOD_FINAL_RANGE:
1035:Core/Src/vl53l0x_api_core.c **** 			Status = get_sequence_step_timeout(Dev,
1036:Core/Src/vl53l0x_api_core.c **** 				VL53L0X_SEQUENCESTEP_FINAL_RANGE,
1037:Core/Src/vl53l0x_api_core.c **** 				&FinalRangeTimeoutMicroSeconds);
1038:Core/Src/vl53l0x_api_core.c **** 
1039:Core/Src/vl53l0x_api_core.c **** 			if (Status == VL53L0X_ERROR_NONE)
1040:Core/Src/vl53l0x_api_core.c **** 				Status = VL53L0X_WrByte(Dev,
1041:Core/Src/vl53l0x_api_core.c **** 				VL53L0X_REG_FINAL_RANGE_CONFIG_VCSEL_PERIOD,
1042:Core/Src/vl53l0x_api_core.c **** 					vcsel_period_reg);
1043:Core/Src/vl53l0x_api_core.c **** 
1044:Core/Src/vl53l0x_api_core.c **** 
1045:Core/Src/vl53l0x_api_core.c **** 			if (Status == VL53L0X_ERROR_NONE)
1046:Core/Src/vl53l0x_api_core.c **** 				Status = set_sequence_step_timeout(Dev,
1047:Core/Src/vl53l0x_api_core.c **** 					VL53L0X_SEQUENCESTEP_FINAL_RANGE,
1048:Core/Src/vl53l0x_api_core.c **** 					FinalRangeTimeoutMicroSeconds);
1049:Core/Src/vl53l0x_api_core.c **** 
1050:Core/Src/vl53l0x_api_core.c **** 			VL53L0X_SETDEVICESPECIFICPARAMETER(
1051:Core/Src/vl53l0x_api_core.c **** 				Dev,
1052:Core/Src/vl53l0x_api_core.c **** 				FinalRangeVcselPulsePeriod,
1053:Core/Src/vl53l0x_api_core.c **** 				VCSELPulsePeriodPCLK);
1054:Core/Src/vl53l0x_api_core.c **** 			break;
1055:Core/Src/vl53l0x_api_core.c **** 		default:
1056:Core/Src/vl53l0x_api_core.c **** 			Status = VL53L0X_ERROR_INVALID_PARAMS;
1057:Core/Src/vl53l0x_api_core.c **** 		}
1058:Core/Src/vl53l0x_api_core.c **** 	}
1059:Core/Src/vl53l0x_api_core.c **** 
ARM GAS  C:\Users\anmh1\AppData\Local\Temp\ccrmGbOb.s 			page 89


1060:Core/Src/vl53l0x_api_core.c **** 	/* Finally, the timing budget must be re-applied */
1061:Core/Src/vl53l0x_api_core.c **** 	if (Status == VL53L0X_ERROR_NONE) {
 3279              		.loc 1 1061 2 view .LVU1118
 3280              		.loc 1 1061 5 is_stmt 0 view .LVU1119
 3281 0272 80B3     		cbz	r0, .L168
 3282              	.LVL541:
 3283              	.L138:
1062:Core/Src/vl53l0x_api_core.c **** 		VL53L0X_GETPARAMETERFIELD(Dev,
1063:Core/Src/vl53l0x_api_core.c **** 			MeasurementTimingBudgetMicroSeconds,
1064:Core/Src/vl53l0x_api_core.c **** 			MeasurementTimingBudgetMicroSeconds);
1065:Core/Src/vl53l0x_api_core.c **** 
1066:Core/Src/vl53l0x_api_core.c **** 		Status = VL53L0X_SetMeasurementTimingBudgetMicroSeconds(Dev,
1067:Core/Src/vl53l0x_api_core.c **** 				MeasurementTimingBudgetMicroSeconds);
1068:Core/Src/vl53l0x_api_core.c **** 	}
1069:Core/Src/vl53l0x_api_core.c **** 
1070:Core/Src/vl53l0x_api_core.c **** 	/* Perform the phase calibration. This is needed after changing on
1071:Core/Src/vl53l0x_api_core.c **** 	 * vcsel period.
1072:Core/Src/vl53l0x_api_core.c **** 	 * get_data_enable = 0, restore_config = 1 */
1073:Core/Src/vl53l0x_api_core.c **** 	if (Status == VL53L0X_ERROR_NONE)
 3284              		.loc 1 1073 2 is_stmt 1 view .LVU1120
 3285              		.loc 1 1073 5 is_stmt 0 view .LVU1121
 3286 0274 A0B3     		cbz	r0, .L169
 3287              	.LVL542:
 3288              	.L124:
1074:Core/Src/vl53l0x_api_core.c **** 		Status = VL53L0X_perform_phase_calibration(
1075:Core/Src/vl53l0x_api_core.c **** 			Dev, &PhaseCalInt, 0, 1);
1076:Core/Src/vl53l0x_api_core.c **** 
1077:Core/Src/vl53l0x_api_core.c **** 	return Status;
1078:Core/Src/vl53l0x_api_core.c **** }
 3289              		.loc 1 1078 1 view .LVU1122
 3290 0276 05B0     		add	sp, sp, #20
 3291              		.cfi_remember_state
 3292              		.cfi_def_cfa_offset 20
 3293              		@ sp needed
 3294 0278 F0BD     		pop	{r4, r5, r6, r7, pc}
 3295              	.LVL543:
 3296              	.L164:
 3297              		.cfi_restore_state
1008:Core/Src/vl53l0x_api_core.c **** 					VL53L0X_SEQUENCESTEP_MSRC,
 3298              		.loc 1 1008 5 is_stmt 1 view .LVU1123
1008:Core/Src/vl53l0x_api_core.c **** 					VL53L0X_SEQUENCESTEP_MSRC,
 3299              		.loc 1 1008 14 is_stmt 0 view .LVU1124
 3300 027a 01AA     		add	r2, sp, #4
 3301 027c 0221     		movs	r1, #2
 3302 027e 2046     		mov	r0, r4
 3303              	.LVL544:
1008:Core/Src/vl53l0x_api_core.c **** 					VL53L0X_SEQUENCESTEP_MSRC,
 3304              		.loc 1 1008 14 view .LVU1125
 3305 0280 FFF7FEFF 		bl	get_sequence_step_timeout
 3306              	.LVL545:
1008:Core/Src/vl53l0x_api_core.c **** 					VL53L0X_SEQUENCESTEP_MSRC,
 3307              		.loc 1 1008 14 view .LVU1126
 3308 0284 F0E7     		b	.L139
 3309              	.L165:
1013:Core/Src/vl53l0x_api_core.c **** 				VL53L0X_REG_PRE_RANGE_CONFIG_VCSEL_PERIOD,
 3310              		.loc 1 1013 5 is_stmt 1 view .LVU1127
1013:Core/Src/vl53l0x_api_core.c **** 				VL53L0X_REG_PRE_RANGE_CONFIG_VCSEL_PERIOD,
ARM GAS  C:\Users\anmh1\AppData\Local\Temp\ccrmGbOb.s 			page 90


 3311              		.loc 1 1013 14 is_stmt 0 view .LVU1128
 3312 0286 3A46     		mov	r2, r7
 3313 0288 5021     		movs	r1, #80
 3314 028a 2046     		mov	r0, r4
 3315              	.LVL546:
1013:Core/Src/vl53l0x_api_core.c **** 				VL53L0X_REG_PRE_RANGE_CONFIG_VCSEL_PERIOD,
 3316              		.loc 1 1013 14 view .LVU1129
 3317 028c FFF7FEFF 		bl	VL53L0X_WrByte
 3318              	.LVL547:
1013:Core/Src/vl53l0x_api_core.c **** 				VL53L0X_REG_PRE_RANGE_CONFIG_VCSEL_PERIOD,
 3319              		.loc 1 1013 14 view .LVU1130
 3320 0290 EBE7     		b	.L140
 3321              	.L166:
1019:Core/Src/vl53l0x_api_core.c **** 					VL53L0X_SEQUENCESTEP_PRE_RANGE,
 3322              		.loc 1 1019 5 is_stmt 1 view .LVU1131
1019:Core/Src/vl53l0x_api_core.c **** 					VL53L0X_SEQUENCESTEP_PRE_RANGE,
 3323              		.loc 1 1019 14 is_stmt 0 view .LVU1132
 3324 0292 029A     		ldr	r2, [sp, #8]
 3325 0294 0321     		movs	r1, #3
 3326 0296 2046     		mov	r0, r4
 3327              	.LVL548:
1019:Core/Src/vl53l0x_api_core.c **** 					VL53L0X_SEQUENCESTEP_PRE_RANGE,
 3328              		.loc 1 1019 14 view .LVU1133
 3329 0298 FFF7FEFF 		bl	set_sequence_step_timeout
 3330              	.LVL549:
1019:Core/Src/vl53l0x_api_core.c **** 					VL53L0X_SEQUENCESTEP_PRE_RANGE,
 3331              		.loc 1 1019 14 view .LVU1134
 3332 029c E6E7     		b	.L141
 3333              	.L167:
1025:Core/Src/vl53l0x_api_core.c **** 					VL53L0X_SEQUENCESTEP_MSRC,
 3334              		.loc 1 1025 5 is_stmt 1 view .LVU1135
1025:Core/Src/vl53l0x_api_core.c **** 					VL53L0X_SEQUENCESTEP_MSRC,
 3335              		.loc 1 1025 14 is_stmt 0 view .LVU1136
 3336 029e 019A     		ldr	r2, [sp, #4]
 3337 02a0 0221     		movs	r1, #2
 3338 02a2 2046     		mov	r0, r4
 3339              	.LVL550:
1025:Core/Src/vl53l0x_api_core.c **** 					VL53L0X_SEQUENCESTEP_MSRC,
 3340              		.loc 1 1025 14 view .LVU1137
 3341 02a4 FFF7FEFF 		bl	set_sequence_step_timeout
 3342              	.LVL551:
1025:Core/Src/vl53l0x_api_core.c **** 					VL53L0X_SEQUENCESTEP_MSRC,
 3343              		.loc 1 1025 14 view .LVU1138
 3344 02a8 E1E7     		b	.L142
 3345              	.LVL552:
 3346              	.L137:
1035:Core/Src/vl53l0x_api_core.c **** 				VL53L0X_SEQUENCESTEP_FINAL_RANGE,
 3347              		.loc 1 1035 4 is_stmt 1 view .LVU1139
1035:Core/Src/vl53l0x_api_core.c **** 				VL53L0X_SEQUENCESTEP_FINAL_RANGE,
 3348              		.loc 1 1035 13 is_stmt 0 view .LVU1140
 3349 02aa 03AA     		add	r2, sp, #12
 3350 02ac 0421     		movs	r1, #4
 3351 02ae 2046     		mov	r0, r4
 3352 02b0 FFF7FEFF 		bl	get_sequence_step_timeout
 3353              	.LVL553:
1039:Core/Src/vl53l0x_api_core.c **** 				Status = VL53L0X_WrByte(Dev,
 3354              		.loc 1 1039 4 is_stmt 1 view .LVU1141
ARM GAS  C:\Users\anmh1\AppData\Local\Temp\ccrmGbOb.s 			page 91


1039:Core/Src/vl53l0x_api_core.c **** 				Status = VL53L0X_WrByte(Dev,
 3355              		.loc 1 1039 7 is_stmt 0 view .LVU1142
 3356 02b4 18B1     		cbz	r0, .L170
 3357              	.L143:
1045:Core/Src/vl53l0x_api_core.c **** 				Status = set_sequence_step_timeout(Dev,
 3358              		.loc 1 1045 4 is_stmt 1 view .LVU1143
1045:Core/Src/vl53l0x_api_core.c **** 				Status = set_sequence_step_timeout(Dev,
 3359              		.loc 1 1045 7 is_stmt 0 view .LVU1144
 3360 02b6 40B1     		cbz	r0, .L171
 3361              	.L144:
1050:Core/Src/vl53l0x_api_core.c **** 				Dev,
 3362              		.loc 1 1050 4 is_stmt 1 view .LVU1145
 3363 02b8 84F8E050 		strb	r5, [r4, #224]
1054:Core/Src/vl53l0x_api_core.c **** 		default:
 3364              		.loc 1 1054 4 view .LVU1146
 3365 02bc D9E7     		b	.L135
 3366              	.L170:
1040:Core/Src/vl53l0x_api_core.c **** 				VL53L0X_REG_FINAL_RANGE_CONFIG_VCSEL_PERIOD,
 3367              		.loc 1 1040 5 view .LVU1147
1040:Core/Src/vl53l0x_api_core.c **** 				VL53L0X_REG_FINAL_RANGE_CONFIG_VCSEL_PERIOD,
 3368              		.loc 1 1040 14 is_stmt 0 view .LVU1148
 3369 02be 3A46     		mov	r2, r7
 3370 02c0 7021     		movs	r1, #112
 3371 02c2 2046     		mov	r0, r4
 3372              	.LVL554:
1040:Core/Src/vl53l0x_api_core.c **** 				VL53L0X_REG_FINAL_RANGE_CONFIG_VCSEL_PERIOD,
 3373              		.loc 1 1040 14 view .LVU1149
 3374 02c4 FFF7FEFF 		bl	VL53L0X_WrByte
 3375              	.LVL555:
1040:Core/Src/vl53l0x_api_core.c **** 				VL53L0X_REG_FINAL_RANGE_CONFIG_VCSEL_PERIOD,
 3376              		.loc 1 1040 14 view .LVU1150
 3377 02c8 F5E7     		b	.L143
 3378              	.L171:
1046:Core/Src/vl53l0x_api_core.c **** 					VL53L0X_SEQUENCESTEP_FINAL_RANGE,
 3379              		.loc 1 1046 5 is_stmt 1 view .LVU1151
1046:Core/Src/vl53l0x_api_core.c **** 					VL53L0X_SEQUENCESTEP_FINAL_RANGE,
 3380              		.loc 1 1046 14 is_stmt 0 view .LVU1152
 3381 02ca 039A     		ldr	r2, [sp, #12]
 3382 02cc 0421     		movs	r1, #4
 3383 02ce 2046     		mov	r0, r4
 3384              	.LVL556:
1046:Core/Src/vl53l0x_api_core.c **** 					VL53L0X_SEQUENCESTEP_FINAL_RANGE,
 3385              		.loc 1 1046 14 view .LVU1153
 3386 02d0 FFF7FEFF 		bl	set_sequence_step_timeout
 3387              	.LVL557:
1046:Core/Src/vl53l0x_api_core.c **** 					VL53L0X_SEQUENCESTEP_FINAL_RANGE,
 3388              		.loc 1 1046 14 view .LVU1154
 3389 02d4 F0E7     		b	.L144
 3390              	.LVL558:
 3391              	.L168:
1062:Core/Src/vl53l0x_api_core.c **** 			MeasurementTimingBudgetMicroSeconds,
 3392              		.loc 1 1062 3 is_stmt 1 view .LVU1155
1066:Core/Src/vl53l0x_api_core.c **** 				MeasurementTimingBudgetMicroSeconds);
 3393              		.loc 1 1066 3 view .LVU1156
1066:Core/Src/vl53l0x_api_core.c **** 				MeasurementTimingBudgetMicroSeconds);
 3394              		.loc 1 1066 12 is_stmt 0 view .LVU1157
 3395 02d6 6169     		ldr	r1, [r4, #20]
ARM GAS  C:\Users\anmh1\AppData\Local\Temp\ccrmGbOb.s 			page 92


 3396 02d8 2046     		mov	r0, r4
 3397              	.LVL559:
1066:Core/Src/vl53l0x_api_core.c **** 				MeasurementTimingBudgetMicroSeconds);
 3398              		.loc 1 1066 12 view .LVU1158
 3399 02da FFF7FEFF 		bl	VL53L0X_SetMeasurementTimingBudgetMicroSeconds
 3400              	.LVL560:
1066:Core/Src/vl53l0x_api_core.c **** 				MeasurementTimingBudgetMicroSeconds);
 3401              		.loc 1 1066 12 view .LVU1159
 3402 02de C9E7     		b	.L138
 3403              	.L169:
1074:Core/Src/vl53l0x_api_core.c **** 			Dev, &PhaseCalInt, 0, 1);
 3404              		.loc 1 1074 3 is_stmt 1 view .LVU1160
1074:Core/Src/vl53l0x_api_core.c **** 			Dev, &PhaseCalInt, 0, 1);
 3405              		.loc 1 1074 12 is_stmt 0 view .LVU1161
 3406 02e0 0123     		movs	r3, #1
 3407 02e2 0022     		movs	r2, #0
 3408 02e4 0DF10301 		add	r1, sp, #3
 3409 02e8 2046     		mov	r0, r4
 3410              	.LVL561:
1074:Core/Src/vl53l0x_api_core.c **** 			Dev, &PhaseCalInt, 0, 1);
 3411              		.loc 1 1074 12 view .LVU1162
 3412 02ea FFF7FEFF 		bl	VL53L0X_perform_phase_calibration
 3413              	.LVL562:
1074:Core/Src/vl53l0x_api_core.c **** 			Dev, &PhaseCalInt, 0, 1);
 3414              		.loc 1 1074 12 view .LVU1163
 3415 02ee C2E7     		b	.L124
 3416              	.LVL563:
 3417              	.L145:
1074:Core/Src/vl53l0x_api_core.c **** 			Dev, &PhaseCalInt, 0, 1);
 3418              		.loc 1 1074 12 view .LVU1164
 3419 02f0 6FF00300 		mvn	r0, #3
 3420              	.LVL564:
1074:Core/Src/vl53l0x_api_core.c **** 			Dev, &PhaseCalInt, 0, 1);
 3421              		.loc 1 1074 12 view .LVU1165
 3422 02f4 BFE7     		b	.L124
 3423              	.LVL565:
 3424              	.L146:
1074:Core/Src/vl53l0x_api_core.c **** 			Dev, &PhaseCalInt, 0, 1);
 3425              		.loc 1 1074 12 view .LVU1166
 3426 02f6 6FF00300 		mvn	r0, #3
 3427              	.LVL566:
1074:Core/Src/vl53l0x_api_core.c **** 			Dev, &PhaseCalInt, 0, 1);
 3428              		.loc 1 1074 12 view .LVU1167
 3429 02fa BCE7     		b	.L124
 3430              	.LVL567:
 3431              	.L147:
1074:Core/Src/vl53l0x_api_core.c **** 			Dev, &PhaseCalInt, 0, 1);
 3432              		.loc 1 1074 12 view .LVU1168
 3433 02fc 6FF00300 		mvn	r0, #3
 3434              	.LVL568:
1074:Core/Src/vl53l0x_api_core.c **** 			Dev, &PhaseCalInt, 0, 1);
 3435              		.loc 1 1074 12 view .LVU1169
 3436 0300 B9E7     		b	.L124
 3437              	.LVL569:
 3438              	.L148:
1074:Core/Src/vl53l0x_api_core.c **** 			Dev, &PhaseCalInt, 0, 1);
 3439              		.loc 1 1074 12 view .LVU1170
ARM GAS  C:\Users\anmh1\AppData\Local\Temp\ccrmGbOb.s 			page 93


 3440 0302 6FF00300 		mvn	r0, #3
 3441              	.LVL570:
1074:Core/Src/vl53l0x_api_core.c **** 			Dev, &PhaseCalInt, 0, 1);
 3442              		.loc 1 1074 12 view .LVU1171
 3443 0306 B6E7     		b	.L124
 3444              		.cfi_endproc
 3445              	.LFE148:
 3447              		.section	.text.VL53L0X_get_vcsel_pulse_period,"ax",%progbits
 3448              		.align	1
 3449              		.global	VL53L0X_get_vcsel_pulse_period
 3450              		.syntax unified
 3451              		.thumb
 3452              		.thumb_func
 3453              		.fpu fpv4-sp-d16
 3455              	VL53L0X_get_vcsel_pulse_period:
 3456              	.LVL571:
 3457              	.LFB149:
1079:Core/Src/vl53l0x_api_core.c **** 
1080:Core/Src/vl53l0x_api_core.c **** VL53L0X_Error VL53L0X_get_vcsel_pulse_period(VL53L0X_DEV Dev,
1081:Core/Src/vl53l0x_api_core.c **** 	VL53L0X_VcselPeriod VcselPeriodType, uint8_t *pVCSELPulsePeriodPCLK)
1082:Core/Src/vl53l0x_api_core.c **** {
 3458              		.loc 1 1082 1 is_stmt 1 view -0
 3459              		.cfi_startproc
 3460              		@ args = 0, pretend = 0, frame = 8
 3461              		@ frame_needed = 0, uses_anonymous_args = 0
 3462              		.loc 1 1082 1 is_stmt 0 view .LVU1173
 3463 0000 30B5     		push	{r4, r5, lr}
 3464              		.cfi_def_cfa_offset 12
 3465              		.cfi_offset 4, -12
 3466              		.cfi_offset 5, -8
 3467              		.cfi_offset 14, -4
 3468 0002 83B0     		sub	sp, sp, #12
 3469              		.cfi_def_cfa_offset 24
 3470 0004 1546     		mov	r5, r2
1083:Core/Src/vl53l0x_api_core.c **** 	VL53L0X_Error Status = VL53L0X_ERROR_NONE;
 3471              		.loc 1 1083 2 is_stmt 1 view .LVU1174
 3472              	.LVL572:
1084:Core/Src/vl53l0x_api_core.c **** 	uint8_t vcsel_period_reg;
 3473              		.loc 1 1084 2 view .LVU1175
1085:Core/Src/vl53l0x_api_core.c **** 
1086:Core/Src/vl53l0x_api_core.c **** 	switch (VcselPeriodType) {
 3474              		.loc 1 1086 2 view .LVU1176
 3475 0006 31B1     		cbz	r1, .L173
 3476 0008 0129     		cmp	r1, #1
 3477 000a 12D0     		beq	.L174
 3478 000c 6FF00304 		mvn	r4, #3
 3479              	.LVL573:
 3480              	.L175:
1087:Core/Src/vl53l0x_api_core.c **** 	case VL53L0X_VCSEL_PERIOD_PRE_RANGE:
1088:Core/Src/vl53l0x_api_core.c **** 		Status = VL53L0X_RdByte(Dev,
1089:Core/Src/vl53l0x_api_core.c **** 			VL53L0X_REG_PRE_RANGE_CONFIG_VCSEL_PERIOD,
1090:Core/Src/vl53l0x_api_core.c **** 			&vcsel_period_reg);
1091:Core/Src/vl53l0x_api_core.c **** 	break;
1092:Core/Src/vl53l0x_api_core.c **** 	case VL53L0X_VCSEL_PERIOD_FINAL_RANGE:
1093:Core/Src/vl53l0x_api_core.c **** 		Status = VL53L0X_RdByte(Dev,
1094:Core/Src/vl53l0x_api_core.c **** 			VL53L0X_REG_FINAL_RANGE_CONFIG_VCSEL_PERIOD,
1095:Core/Src/vl53l0x_api_core.c **** 			&vcsel_period_reg);
ARM GAS  C:\Users\anmh1\AppData\Local\Temp\ccrmGbOb.s 			page 94


1096:Core/Src/vl53l0x_api_core.c **** 	break;
1097:Core/Src/vl53l0x_api_core.c **** 	default:
1098:Core/Src/vl53l0x_api_core.c **** 		Status = VL53L0X_ERROR_INVALID_PARAMS;
1099:Core/Src/vl53l0x_api_core.c **** 	}
1100:Core/Src/vl53l0x_api_core.c **** 
1101:Core/Src/vl53l0x_api_core.c **** 	if (Status == VL53L0X_ERROR_NONE)
1102:Core/Src/vl53l0x_api_core.c **** 		*pVCSELPulsePeriodPCLK =
1103:Core/Src/vl53l0x_api_core.c **** 			VL53L0X_decode_vcsel_period(vcsel_period_reg);
1104:Core/Src/vl53l0x_api_core.c **** 
1105:Core/Src/vl53l0x_api_core.c **** 	return Status;
 3481              		.loc 1 1105 2 view .LVU1177
1106:Core/Src/vl53l0x_api_core.c **** }
 3482              		.loc 1 1106 1 is_stmt 0 view .LVU1178
 3483 0010 2046     		mov	r0, r4
 3484 0012 03B0     		add	sp, sp, #12
 3485              		.cfi_remember_state
 3486              		.cfi_def_cfa_offset 12
 3487              		@ sp needed
 3488 0014 30BD     		pop	{r4, r5, pc}
 3489              	.LVL574:
 3490              	.L173:
 3491              		.cfi_restore_state
1088:Core/Src/vl53l0x_api_core.c **** 			VL53L0X_REG_PRE_RANGE_CONFIG_VCSEL_PERIOD,
 3492              		.loc 1 1088 3 is_stmt 1 view .LVU1179
1088:Core/Src/vl53l0x_api_core.c **** 			VL53L0X_REG_PRE_RANGE_CONFIG_VCSEL_PERIOD,
 3493              		.loc 1 1088 12 is_stmt 0 view .LVU1180
 3494 0016 0DF10702 		add	r2, sp, #7
 3495              	.LVL575:
1088:Core/Src/vl53l0x_api_core.c **** 			VL53L0X_REG_PRE_RANGE_CONFIG_VCSEL_PERIOD,
 3496              		.loc 1 1088 12 view .LVU1181
 3497 001a 5021     		movs	r1, #80
 3498              	.LVL576:
1088:Core/Src/vl53l0x_api_core.c **** 			VL53L0X_REG_PRE_RANGE_CONFIG_VCSEL_PERIOD,
 3499              		.loc 1 1088 12 view .LVU1182
 3500 001c FFF7FEFF 		bl	VL53L0X_RdByte
 3501              	.LVL577:
1088:Core/Src/vl53l0x_api_core.c **** 			VL53L0X_REG_PRE_RANGE_CONFIG_VCSEL_PERIOD,
 3502              		.loc 1 1088 12 view .LVU1183
 3503 0020 0446     		mov	r4, r0
 3504              	.LVL578:
1091:Core/Src/vl53l0x_api_core.c **** 	case VL53L0X_VCSEL_PERIOD_FINAL_RANGE:
 3505              		.loc 1 1091 2 is_stmt 1 view .LVU1184
 3506              	.L176:
1101:Core/Src/vl53l0x_api_core.c **** 		*pVCSELPulsePeriodPCLK =
 3507              		.loc 1 1101 2 view .LVU1185
1101:Core/Src/vl53l0x_api_core.c **** 		*pVCSELPulsePeriodPCLK =
 3508              		.loc 1 1101 5 is_stmt 0 view .LVU1186
 3509 0022 002C     		cmp	r4, #0
 3510 0024 F4D1     		bne	.L175
1102:Core/Src/vl53l0x_api_core.c **** 			VL53L0X_decode_vcsel_period(vcsel_period_reg);
 3511              		.loc 1 1102 3 is_stmt 1 view .LVU1187
1103:Core/Src/vl53l0x_api_core.c **** 
 3512              		.loc 1 1103 4 is_stmt 0 view .LVU1188
 3513 0026 9DF80700 		ldrb	r0, [sp, #7]	@ zero_extendqisi2
 3514 002a FFF7FEFF 		bl	VL53L0X_decode_vcsel_period
 3515              	.LVL579:
1102:Core/Src/vl53l0x_api_core.c **** 			VL53L0X_decode_vcsel_period(vcsel_period_reg);
ARM GAS  C:\Users\anmh1\AppData\Local\Temp\ccrmGbOb.s 			page 95


 3516              		.loc 1 1102 26 view .LVU1189
 3517 002e 2870     		strb	r0, [r5]
 3518 0030 EEE7     		b	.L175
 3519              	.LVL580:
 3520              	.L174:
1093:Core/Src/vl53l0x_api_core.c **** 			VL53L0X_REG_FINAL_RANGE_CONFIG_VCSEL_PERIOD,
 3521              		.loc 1 1093 3 is_stmt 1 view .LVU1190
1093:Core/Src/vl53l0x_api_core.c **** 			VL53L0X_REG_FINAL_RANGE_CONFIG_VCSEL_PERIOD,
 3522              		.loc 1 1093 12 is_stmt 0 view .LVU1191
 3523 0032 0DF10702 		add	r2, sp, #7
 3524              	.LVL581:
1093:Core/Src/vl53l0x_api_core.c **** 			VL53L0X_REG_FINAL_RANGE_CONFIG_VCSEL_PERIOD,
 3525              		.loc 1 1093 12 view .LVU1192
 3526 0036 7021     		movs	r1, #112
 3527              	.LVL582:
1093:Core/Src/vl53l0x_api_core.c **** 			VL53L0X_REG_FINAL_RANGE_CONFIG_VCSEL_PERIOD,
 3528              		.loc 1 1093 12 view .LVU1193
 3529 0038 FFF7FEFF 		bl	VL53L0X_RdByte
 3530              	.LVL583:
1093:Core/Src/vl53l0x_api_core.c **** 			VL53L0X_REG_FINAL_RANGE_CONFIG_VCSEL_PERIOD,
 3531              		.loc 1 1093 12 view .LVU1194
 3532 003c 0446     		mov	r4, r0
 3533              	.LVL584:
1096:Core/Src/vl53l0x_api_core.c **** 	default:
 3534              		.loc 1 1096 2 is_stmt 1 view .LVU1195
 3535 003e F0E7     		b	.L176
 3536              		.cfi_endproc
 3537              	.LFE149:
 3539              		.section	.text.VL53L0X_set_measurement_timing_budget_micro_seconds,"ax",%progbits
 3540              		.align	1
 3541              		.global	VL53L0X_set_measurement_timing_budget_micro_seconds
 3542              		.syntax unified
 3543              		.thumb
 3544              		.thumb_func
 3545              		.fpu fpv4-sp-d16
 3547              	VL53L0X_set_measurement_timing_budget_micro_seconds:
 3548              	.LVL585:
 3549              	.LFB150:
1107:Core/Src/vl53l0x_api_core.c **** 
1108:Core/Src/vl53l0x_api_core.c **** 
1109:Core/Src/vl53l0x_api_core.c **** 
1110:Core/Src/vl53l0x_api_core.c **** VL53L0X_Error VL53L0X_set_measurement_timing_budget_micro_seconds(VL53L0X_DEV Dev,
1111:Core/Src/vl53l0x_api_core.c **** 		uint32_t MeasurementTimingBudgetMicroSeconds)
1112:Core/Src/vl53l0x_api_core.c **** {
 3550              		.loc 1 1112 1 view -0
 3551              		.cfi_startproc
 3552              		@ args = 0, pretend = 0, frame = 16
 3553              		@ frame_needed = 0, uses_anonymous_args = 0
 3554              		.loc 1 1112 1 is_stmt 0 view .LVU1197
 3555 0000 70B5     		push	{r4, r5, r6, lr}
 3556              		.cfi_def_cfa_offset 16
 3557              		.cfi_offset 4, -16
 3558              		.cfi_offset 5, -12
 3559              		.cfi_offset 6, -8
 3560              		.cfi_offset 14, -4
 3561 0002 84B0     		sub	sp, sp, #16
 3562              		.cfi_def_cfa_offset 32
ARM GAS  C:\Users\anmh1\AppData\Local\Temp\ccrmGbOb.s 			page 96


1113:Core/Src/vl53l0x_api_core.c **** 	VL53L0X_Error Status = VL53L0X_ERROR_NONE;
 3563              		.loc 1 1113 2 is_stmt 1 view .LVU1198
 3564              	.LVL586:
1114:Core/Src/vl53l0x_api_core.c **** 	uint32_t FinalRangeTimingBudgetMicroSeconds;
 3565              		.loc 1 1114 2 view .LVU1199
1115:Core/Src/vl53l0x_api_core.c **** 	VL53L0X_SchedulerSequenceSteps_t SchedulerSequenceSteps;
 3566              		.loc 1 1115 2 view .LVU1200
1116:Core/Src/vl53l0x_api_core.c **** 	uint32_t MsrcDccTccTimeoutMicroSeconds	= 2000;
 3567              		.loc 1 1116 2 view .LVU1201
 3568              		.loc 1 1116 11 is_stmt 0 view .LVU1202
 3569 0004 4FF4FA63 		mov	r3, #2000
 3570 0008 0193     		str	r3, [sp, #4]
1117:Core/Src/vl53l0x_api_core.c **** 	uint32_t StartOverheadMicroSeconds		= 1910;
 3571              		.loc 1 1117 2 is_stmt 1 view .LVU1203
 3572              	.LVL587:
1118:Core/Src/vl53l0x_api_core.c **** 	uint32_t EndOverheadMicroSeconds		= 960;
 3573              		.loc 1 1118 2 view .LVU1204
1119:Core/Src/vl53l0x_api_core.c **** 	uint32_t MsrcOverheadMicroSeconds		= 660;
 3574              		.loc 1 1119 2 view .LVU1205
1120:Core/Src/vl53l0x_api_core.c **** 	uint32_t TccOverheadMicroSeconds		= 590;
 3575              		.loc 1 1120 2 view .LVU1206
1121:Core/Src/vl53l0x_api_core.c **** 	uint32_t DssOverheadMicroSeconds		= 690;
 3576              		.loc 1 1121 2 view .LVU1207
1122:Core/Src/vl53l0x_api_core.c **** 	uint32_t PreRangeOverheadMicroSeconds	= 660;
 3577              		.loc 1 1122 2 view .LVU1208
1123:Core/Src/vl53l0x_api_core.c **** 	uint32_t FinalRangeOverheadMicroSeconds = 550;
 3578              		.loc 1 1123 2 view .LVU1209
1124:Core/Src/vl53l0x_api_core.c **** 	uint32_t PreRangeTimeoutMicroSeconds	= 0;
 3579              		.loc 1 1124 2 view .LVU1210
 3580              		.loc 1 1124 11 is_stmt 0 view .LVU1211
 3581 000a 0023     		movs	r3, #0
 3582 000c 0093     		str	r3, [sp]
1125:Core/Src/vl53l0x_api_core.c **** 	uint32_t cMinTimingBudgetMicroSeconds	= 20000;
 3583              		.loc 1 1125 2 is_stmt 1 view .LVU1212
 3584              	.LVL588:
1126:Core/Src/vl53l0x_api_core.c **** 	uint32_t SubTimeout = 0;
 3585              		.loc 1 1126 2 view .LVU1213
1127:Core/Src/vl53l0x_api_core.c **** 
1128:Core/Src/vl53l0x_api_core.c **** 	LOG_FUNCTION_START("");
 3586              		.loc 1 1128 2 view .LVU1214
1129:Core/Src/vl53l0x_api_core.c **** 
1130:Core/Src/vl53l0x_api_core.c **** 	if (MeasurementTimingBudgetMicroSeconds
 3587              		.loc 1 1130 2 view .LVU1215
 3588              		.loc 1 1130 5 is_stmt 0 view .LVU1216
 3589 000e 44F61F63 		movw	r3, #19999
 3590 0012 9942     		cmp	r1, r3
 3591 0014 5ED9     		bls	.L187
 3592 0016 0546     		mov	r5, r0
 3593 0018 0C46     		mov	r4, r1
1131:Core/Src/vl53l0x_api_core.c **** 			< cMinTimingBudgetMicroSeconds) {
1132:Core/Src/vl53l0x_api_core.c **** 		Status = VL53L0X_ERROR_INVALID_PARAMS;
1133:Core/Src/vl53l0x_api_core.c **** 		return Status;
1134:Core/Src/vl53l0x_api_core.c **** 	}
1135:Core/Src/vl53l0x_api_core.c **** 
1136:Core/Src/vl53l0x_api_core.c **** 	FinalRangeTimingBudgetMicroSeconds =
 3594              		.loc 1 1136 2 is_stmt 1 view .LVU1217
 3595              		.loc 1 1136 37 is_stmt 0 view .LVU1218
ARM GAS  C:\Users\anmh1\AppData\Local\Temp\ccrmGbOb.s 			page 97


 3596 001a A1F63636 		subw	r6, r1, #2870
 3597              	.LVL589:
1137:Core/Src/vl53l0x_api_core.c **** 		MeasurementTimingBudgetMicroSeconds -
1138:Core/Src/vl53l0x_api_core.c **** 		(StartOverheadMicroSeconds + EndOverheadMicroSeconds);
1139:Core/Src/vl53l0x_api_core.c **** 
1140:Core/Src/vl53l0x_api_core.c **** 	Status = VL53L0X_GetSequenceStepEnables(Dev, &SchedulerSequenceSteps);
 3598              		.loc 1 1140 2 is_stmt 1 view .LVU1219
 3599              		.loc 1 1140 11 is_stmt 0 view .LVU1220
 3600 001e 02A9     		add	r1, sp, #8
 3601              	.LVL590:
 3602              		.loc 1 1140 11 view .LVU1221
 3603 0020 FFF7FEFF 		bl	VL53L0X_GetSequenceStepEnables
 3604              	.LVL591:
1141:Core/Src/vl53l0x_api_core.c **** 
1142:Core/Src/vl53l0x_api_core.c **** 	if (Status == VL53L0X_ERROR_NONE &&
 3605              		.loc 1 1142 2 is_stmt 1 view .LVU1222
 3606              		.loc 1 1142 5 is_stmt 0 view .LVU1223
 3607 0024 0346     		mov	r3, r0
 3608 0026 18BB     		cbnz	r0, .L180
1143:Core/Src/vl53l0x_api_core.c **** 		(SchedulerSequenceSteps.TccOn  ||
 3609              		.loc 1 1143 26 discriminator 1 view .LVU1224
 3610 0028 9DF80820 		ldrb	r2, [sp, #8]	@ zero_extendqisi2
1142:Core/Src/vl53l0x_api_core.c **** 		(SchedulerSequenceSteps.TccOn  ||
 3611              		.loc 1 1142 35 discriminator 1 view .LVU1225
 3612 002c 2AB9     		cbnz	r2, .L181
1144:Core/Src/vl53l0x_api_core.c **** 		SchedulerSequenceSteps.MsrcOn ||
 3613              		.loc 1 1144 25 view .LVU1226
 3614 002e 9DF80920 		ldrb	r2, [sp, #9]	@ zero_extendqisi2
1143:Core/Src/vl53l0x_api_core.c **** 		(SchedulerSequenceSteps.TccOn  ||
 3615              		.loc 1 1143 34 view .LVU1227
 3616 0032 12B9     		cbnz	r2, .L181
1145:Core/Src/vl53l0x_api_core.c **** 		SchedulerSequenceSteps.DssOn)) {
 3617              		.loc 1 1145 25 view .LVU1228
 3618 0034 9DF80A20 		ldrb	r2, [sp, #10]	@ zero_extendqisi2
1144:Core/Src/vl53l0x_api_core.c **** 		SchedulerSequenceSteps.MsrcOn ||
 3619              		.loc 1 1144 33 view .LVU1229
 3620 0038 D2B1     		cbz	r2, .L180
 3621              	.L181:
1146:Core/Src/vl53l0x_api_core.c **** 
1147:Core/Src/vl53l0x_api_core.c **** 		/* TCC, MSRC and DSS all share the same timeout */
1148:Core/Src/vl53l0x_api_core.c **** 		Status = get_sequence_step_timeout(Dev,
 3622              		.loc 1 1148 3 is_stmt 1 view .LVU1230
 3623              		.loc 1 1148 12 is_stmt 0 view .LVU1231
 3624 003a 01AA     		add	r2, sp, #4
 3625 003c 0221     		movs	r1, #2
 3626 003e 2846     		mov	r0, r5
 3627              	.LVL592:
 3628              		.loc 1 1148 12 view .LVU1232
 3629 0040 FFF7FEFF 		bl	get_sequence_step_timeout
 3630              	.LVL593:
1149:Core/Src/vl53l0x_api_core.c **** 					VL53L0X_SEQUENCESTEP_MSRC,
1150:Core/Src/vl53l0x_api_core.c **** 					&MsrcDccTccTimeoutMicroSeconds);
1151:Core/Src/vl53l0x_api_core.c **** 
1152:Core/Src/vl53l0x_api_core.c **** 		/* Subtract the TCC, MSRC and DSS timeouts if they are
1153:Core/Src/vl53l0x_api_core.c **** 		 * enabled. */
1154:Core/Src/vl53l0x_api_core.c **** 
1155:Core/Src/vl53l0x_api_core.c **** 		if (Status != VL53L0X_ERROR_NONE)
ARM GAS  C:\Users\anmh1\AppData\Local\Temp\ccrmGbOb.s 			page 98


 3631              		.loc 1 1155 3 is_stmt 1 view .LVU1233
 3632              		.loc 1 1155 6 is_stmt 0 view .LVU1234
 3633 0044 0346     		mov	r3, r0
 3634 0046 D8B9     		cbnz	r0, .L179
1156:Core/Src/vl53l0x_api_core.c **** 			return Status;
1157:Core/Src/vl53l0x_api_core.c **** 
1158:Core/Src/vl53l0x_api_core.c **** 		/* TCC */
1159:Core/Src/vl53l0x_api_core.c **** 		if (SchedulerSequenceSteps.TccOn) {
 3635              		.loc 1 1159 3 is_stmt 1 view .LVU1235
 3636              		.loc 1 1159 29 is_stmt 0 view .LVU1236
 3637 0048 9DF80820 		ldrb	r2, [sp, #8]	@ zero_extendqisi2
 3638              		.loc 1 1159 6 view .LVU1237
 3639 004c 2AB1     		cbz	r2, .L182
1160:Core/Src/vl53l0x_api_core.c **** 
1161:Core/Src/vl53l0x_api_core.c **** 			SubTimeout = MsrcDccTccTimeoutMicroSeconds
 3640              		.loc 1 1161 4 is_stmt 1 view .LVU1238
1162:Core/Src/vl53l0x_api_core.c **** 				+ TccOverheadMicroSeconds;
 3641              		.loc 1 1162 5 is_stmt 0 view .LVU1239
 3642 004e 019A     		ldr	r2, [sp, #4]
1161:Core/Src/vl53l0x_api_core.c **** 				+ TccOverheadMicroSeconds;
 3643              		.loc 1 1161 15 view .LVU1240
 3644 0050 02F24E22 		addw	r2, r2, #590
 3645              	.LVL594:
1163:Core/Src/vl53l0x_api_core.c **** 
1164:Core/Src/vl53l0x_api_core.c **** 			if (SubTimeout <
 3646              		.loc 1 1164 4 is_stmt 1 view .LVU1241
 3647              		.loc 1 1164 7 is_stmt 0 view .LVU1242
 3648 0054 9642     		cmp	r6, r2
 3649 0056 40D9     		bls	.L188
1165:Core/Src/vl53l0x_api_core.c **** 				FinalRangeTimingBudgetMicroSeconds) {
1166:Core/Src/vl53l0x_api_core.c **** 				FinalRangeTimingBudgetMicroSeconds -=
 3650              		.loc 1 1166 5 is_stmt 1 view .LVU1243
 3651              		.loc 1 1166 40 is_stmt 0 view .LVU1244
 3652 0058 B61A     		subs	r6, r6, r2
 3653              	.LVL595:
 3654              	.L182:
1167:Core/Src/vl53l0x_api_core.c **** 							SubTimeout;
1168:Core/Src/vl53l0x_api_core.c **** 			} else {
1169:Core/Src/vl53l0x_api_core.c **** 				/* Requested timeout too big. */
1170:Core/Src/vl53l0x_api_core.c **** 				Status = VL53L0X_ERROR_INVALID_PARAMS;
1171:Core/Src/vl53l0x_api_core.c **** 			}
1172:Core/Src/vl53l0x_api_core.c **** 		}
1173:Core/Src/vl53l0x_api_core.c **** 
1174:Core/Src/vl53l0x_api_core.c **** 		if (Status != VL53L0X_ERROR_NONE) {
 3655              		.loc 1 1174 3 is_stmt 1 view .LVU1245
1175:Core/Src/vl53l0x_api_core.c **** 			LOG_FUNCTION_END(Status);
1176:Core/Src/vl53l0x_api_core.c **** 			return Status;
1177:Core/Src/vl53l0x_api_core.c **** 		}
1178:Core/Src/vl53l0x_api_core.c **** 
1179:Core/Src/vl53l0x_api_core.c **** 		/* DSS */
1180:Core/Src/vl53l0x_api_core.c **** 		if (SchedulerSequenceSteps.DssOn) {
 3656              		.loc 1 1180 3 view .LVU1246
 3657              		.loc 1 1180 29 is_stmt 0 view .LVU1247
 3658 005a 9DF80A20 		ldrb	r2, [sp, #10]	@ zero_extendqisi2
 3659              		.loc 1 1180 6 view .LVU1248
 3660 005e 92B1     		cbz	r2, .L183
1181:Core/Src/vl53l0x_api_core.c **** 
ARM GAS  C:\Users\anmh1\AppData\Local\Temp\ccrmGbOb.s 			page 99


1182:Core/Src/vl53l0x_api_core.c **** 			SubTimeout = 2 * (MsrcDccTccTimeoutMicroSeconds +
 3661              		.loc 1 1182 4 is_stmt 1 view .LVU1249
 3662              		.loc 1 1182 52 is_stmt 0 view .LVU1250
 3663 0060 019A     		ldr	r2, [sp, #4]
 3664 0062 02F2B222 		addw	r2, r2, #690
 3665              		.loc 1 1182 15 view .LVU1251
 3666 0066 5100     		lsls	r1, r2, #1
 3667              	.LVL596:
1183:Core/Src/vl53l0x_api_core.c **** 				DssOverheadMicroSeconds);
1184:Core/Src/vl53l0x_api_core.c **** 
1185:Core/Src/vl53l0x_api_core.c **** 			if (SubTimeout < FinalRangeTimingBudgetMicroSeconds) {
 3668              		.loc 1 1185 4 is_stmt 1 view .LVU1252
 3669              		.loc 1 1185 7 is_stmt 0 view .LVU1253
 3670 0068 B6EB420F 		cmp	r6, r2, lsl #1
 3671 006c 16D9     		bls	.L189
1186:Core/Src/vl53l0x_api_core.c **** 				FinalRangeTimingBudgetMicroSeconds
 3672              		.loc 1 1186 5 is_stmt 1 view .LVU1254
1187:Core/Src/vl53l0x_api_core.c **** 							-= SubTimeout;
 3673              		.loc 1 1187 8 is_stmt 0 view .LVU1255
 3674 006e 761A     		subs	r6, r6, r1
 3675              	.LVL597:
 3676              	.L180:
1188:Core/Src/vl53l0x_api_core.c **** 			} else {
1189:Core/Src/vl53l0x_api_core.c **** 				/* Requested timeout too big. */
1190:Core/Src/vl53l0x_api_core.c **** 				Status = VL53L0X_ERROR_INVALID_PARAMS;
1191:Core/Src/vl53l0x_api_core.c **** 			}
1192:Core/Src/vl53l0x_api_core.c **** 		} else if (SchedulerSequenceSteps.MsrcOn) {
1193:Core/Src/vl53l0x_api_core.c **** 			/* MSRC */
1194:Core/Src/vl53l0x_api_core.c **** 			SubTimeout = MsrcDccTccTimeoutMicroSeconds +
1195:Core/Src/vl53l0x_api_core.c **** 						MsrcOverheadMicroSeconds;
1196:Core/Src/vl53l0x_api_core.c **** 
1197:Core/Src/vl53l0x_api_core.c **** 			if (SubTimeout < FinalRangeTimingBudgetMicroSeconds) {
1198:Core/Src/vl53l0x_api_core.c **** 				FinalRangeTimingBudgetMicroSeconds
1199:Core/Src/vl53l0x_api_core.c **** 							-= SubTimeout;
1200:Core/Src/vl53l0x_api_core.c **** 			} else {
1201:Core/Src/vl53l0x_api_core.c **** 				/* Requested timeout too big. */
1202:Core/Src/vl53l0x_api_core.c **** 				Status = VL53L0X_ERROR_INVALID_PARAMS;
1203:Core/Src/vl53l0x_api_core.c **** 			}
1204:Core/Src/vl53l0x_api_core.c **** 		}
1205:Core/Src/vl53l0x_api_core.c **** 
1206:Core/Src/vl53l0x_api_core.c **** 	}
1207:Core/Src/vl53l0x_api_core.c **** 
1208:Core/Src/vl53l0x_api_core.c **** 	if (Status != VL53L0X_ERROR_NONE) {
 3677              		.loc 1 1208 2 is_stmt 1 view .LVU1256
 3678              		.loc 1 1208 5 is_stmt 0 view .LVU1257
 3679 0070 33B9     		cbnz	r3, .L179
1209:Core/Src/vl53l0x_api_core.c **** 		LOG_FUNCTION_END(Status);
1210:Core/Src/vl53l0x_api_core.c **** 		return Status;
1211:Core/Src/vl53l0x_api_core.c **** 	}
1212:Core/Src/vl53l0x_api_core.c **** 
1213:Core/Src/vl53l0x_api_core.c **** 	if (SchedulerSequenceSteps.PreRangeOn) {
 3680              		.loc 1 1213 2 is_stmt 1 view .LVU1258
 3681              		.loc 1 1213 28 is_stmt 0 view .LVU1259
 3682 0072 9DF80B20 		ldrb	r2, [sp, #11]	@ zero_extendqisi2
 3683              		.loc 1 1213 5 view .LVU1260
 3684 0076 BAB9     		cbnz	r2, .L193
 3685              	.L186:
ARM GAS  C:\Users\anmh1\AppData\Local\Temp\ccrmGbOb.s 			page 100


1214:Core/Src/vl53l0x_api_core.c **** 
1215:Core/Src/vl53l0x_api_core.c **** 		/* Subtract the Pre-range timeout if enabled. */
1216:Core/Src/vl53l0x_api_core.c **** 
1217:Core/Src/vl53l0x_api_core.c **** 		Status = get_sequence_step_timeout(Dev,
1218:Core/Src/vl53l0x_api_core.c **** 				VL53L0X_SEQUENCESTEP_PRE_RANGE,
1219:Core/Src/vl53l0x_api_core.c **** 				&PreRangeTimeoutMicroSeconds);
1220:Core/Src/vl53l0x_api_core.c **** 
1221:Core/Src/vl53l0x_api_core.c **** 		SubTimeout = PreRangeTimeoutMicroSeconds +
1222:Core/Src/vl53l0x_api_core.c **** 				PreRangeOverheadMicroSeconds;
1223:Core/Src/vl53l0x_api_core.c **** 
1224:Core/Src/vl53l0x_api_core.c **** 		if (SubTimeout < FinalRangeTimingBudgetMicroSeconds) {
1225:Core/Src/vl53l0x_api_core.c **** 			FinalRangeTimingBudgetMicroSeconds -= SubTimeout;
1226:Core/Src/vl53l0x_api_core.c **** 		} else {
1227:Core/Src/vl53l0x_api_core.c **** 			/* Requested timeout too big. */
1228:Core/Src/vl53l0x_api_core.c **** 			Status = VL53L0X_ERROR_INVALID_PARAMS;
1229:Core/Src/vl53l0x_api_core.c **** 		}
1230:Core/Src/vl53l0x_api_core.c **** 	}
1231:Core/Src/vl53l0x_api_core.c **** 
1232:Core/Src/vl53l0x_api_core.c **** 
1233:Core/Src/vl53l0x_api_core.c **** 	if (Status == VL53L0X_ERROR_NONE &&
 3686              		.loc 1 1233 2 is_stmt 1 view .LVU1261
 3687              		.loc 1 1233 5 is_stmt 0 view .LVU1262
 3688 0078 13B9     		cbnz	r3, .L179
1234:Core/Src/vl53l0x_api_core.c **** 		SchedulerSequenceSteps.FinalRangeOn) {
 3689              		.loc 1 1234 25 discriminator 1 view .LVU1263
 3690 007a 9DF80C20 		ldrb	r2, [sp, #12]	@ zero_extendqisi2
1233:Core/Src/vl53l0x_api_core.c **** 		SchedulerSequenceSteps.FinalRangeOn) {
 3691              		.loc 1 1233 35 discriminator 1 view .LVU1264
 3692 007e 02BB     		cbnz	r2, .L194
 3693              	.LVL598:
 3694              	.L179:
1235:Core/Src/vl53l0x_api_core.c **** 
1236:Core/Src/vl53l0x_api_core.c **** 		FinalRangeTimingBudgetMicroSeconds -=
1237:Core/Src/vl53l0x_api_core.c **** 				FinalRangeOverheadMicroSeconds;
1238:Core/Src/vl53l0x_api_core.c **** 
1239:Core/Src/vl53l0x_api_core.c **** 		/* Final Range Timeout
1240:Core/Src/vl53l0x_api_core.c **** 		 * Note that the final range timeout is determined by the timing
1241:Core/Src/vl53l0x_api_core.c **** 		 * budget and the sum of all other timeouts within the sequence.
1242:Core/Src/vl53l0x_api_core.c **** 		 * If there is no room for the final range timeout, then an error
1243:Core/Src/vl53l0x_api_core.c **** 		 * will be set. Otherwise the remaining time will be applied to
1244:Core/Src/vl53l0x_api_core.c **** 		 * the final range.
1245:Core/Src/vl53l0x_api_core.c **** 		 */
1246:Core/Src/vl53l0x_api_core.c **** 		Status = set_sequence_step_timeout(Dev,
1247:Core/Src/vl53l0x_api_core.c **** 			VL53L0X_SEQUENCESTEP_FINAL_RANGE,
1248:Core/Src/vl53l0x_api_core.c **** 			FinalRangeTimingBudgetMicroSeconds);
1249:Core/Src/vl53l0x_api_core.c **** 
1250:Core/Src/vl53l0x_api_core.c **** 		VL53L0X_SETPARAMETERFIELD(Dev,
1251:Core/Src/vl53l0x_api_core.c **** 			MeasurementTimingBudgetMicroSeconds,
1252:Core/Src/vl53l0x_api_core.c **** 			MeasurementTimingBudgetMicroSeconds);
1253:Core/Src/vl53l0x_api_core.c **** 	}
1254:Core/Src/vl53l0x_api_core.c **** 
1255:Core/Src/vl53l0x_api_core.c **** 	LOG_FUNCTION_END(Status);
1256:Core/Src/vl53l0x_api_core.c **** 
1257:Core/Src/vl53l0x_api_core.c **** 	return Status;
1258:Core/Src/vl53l0x_api_core.c **** }
 3695              		.loc 1 1258 1 view .LVU1265
 3696 0080 1846     		mov	r0, r3
ARM GAS  C:\Users\anmh1\AppData\Local\Temp\ccrmGbOb.s 			page 101


 3697 0082 04B0     		add	sp, sp, #16
 3698              		.cfi_remember_state
 3699              		.cfi_def_cfa_offset 16
 3700              		@ sp needed
 3701 0084 70BD     		pop	{r4, r5, r6, pc}
 3702              	.LVL599:
 3703              	.L183:
 3704              		.cfi_restore_state
1192:Core/Src/vl53l0x_api_core.c **** 			/* MSRC */
 3705              		.loc 1 1192 10 is_stmt 1 view .LVU1266
1192:Core/Src/vl53l0x_api_core.c **** 			/* MSRC */
 3706              		.loc 1 1192 36 is_stmt 0 view .LVU1267
 3707 0086 9DF80920 		ldrb	r2, [sp, #9]	@ zero_extendqisi2
1192:Core/Src/vl53l0x_api_core.c **** 			/* MSRC */
 3708              		.loc 1 1192 13 view .LVU1268
 3709 008a 002A     		cmp	r2, #0
 3710 008c F0D0     		beq	.L180
1194:Core/Src/vl53l0x_api_core.c **** 						MsrcOverheadMicroSeconds;
 3711              		.loc 1 1194 4 is_stmt 1 view .LVU1269
1194:Core/Src/vl53l0x_api_core.c **** 						MsrcOverheadMicroSeconds;
 3712              		.loc 1 1194 47 is_stmt 0 view .LVU1270
 3713 008e 019A     		ldr	r2, [sp, #4]
1194:Core/Src/vl53l0x_api_core.c **** 						MsrcOverheadMicroSeconds;
 3714              		.loc 1 1194 15 view .LVU1271
 3715 0090 02F52572 		add	r2, r2, #660
 3716              	.LVL600:
1197:Core/Src/vl53l0x_api_core.c **** 				FinalRangeTimingBudgetMicroSeconds
 3717              		.loc 1 1197 4 is_stmt 1 view .LVU1272
1197:Core/Src/vl53l0x_api_core.c **** 				FinalRangeTimingBudgetMicroSeconds
 3718              		.loc 1 1197 7 is_stmt 0 view .LVU1273
 3719 0094 9642     		cmp	r6, r2
 3720 0096 04D9     		bls	.L190
1198:Core/Src/vl53l0x_api_core.c **** 							-= SubTimeout;
 3721              		.loc 1 1198 5 is_stmt 1 view .LVU1274
1199:Core/Src/vl53l0x_api_core.c **** 			} else {
 3722              		.loc 1 1199 8 is_stmt 0 view .LVU1275
 3723 0098 B61A     		subs	r6, r6, r2
 3724              	.LVL601:
1199:Core/Src/vl53l0x_api_core.c **** 			} else {
 3725              		.loc 1 1199 8 view .LVU1276
 3726 009a E9E7     		b	.L180
 3727              	.LVL602:
 3728              	.L189:
1190:Core/Src/vl53l0x_api_core.c **** 			}
 3729              		.loc 1 1190 12 view .LVU1277
 3730 009c 6FF00303 		mvn	r3, #3
 3731              	.LVL603:
1190:Core/Src/vl53l0x_api_core.c **** 			}
 3732              		.loc 1 1190 12 view .LVU1278
 3733 00a0 EEE7     		b	.L179
 3734              	.LVL604:
 3735              	.L190:
1202:Core/Src/vl53l0x_api_core.c **** 			}
 3736              		.loc 1 1202 12 view .LVU1279
 3737 00a2 6FF00303 		mvn	r3, #3
 3738              	.LVL605:
1209:Core/Src/vl53l0x_api_core.c **** 		return Status;
ARM GAS  C:\Users\anmh1\AppData\Local\Temp\ccrmGbOb.s 			page 102


 3739              		.loc 1 1209 3 is_stmt 1 view .LVU1280
1210:Core/Src/vl53l0x_api_core.c **** 	}
 3740              		.loc 1 1210 3 view .LVU1281
1210:Core/Src/vl53l0x_api_core.c **** 	}
 3741              		.loc 1 1210 10 is_stmt 0 view .LVU1282
 3742 00a6 EBE7     		b	.L179
 3743              	.LVL606:
 3744              	.L193:
1217:Core/Src/vl53l0x_api_core.c **** 				VL53L0X_SEQUENCESTEP_PRE_RANGE,
 3745              		.loc 1 1217 3 is_stmt 1 view .LVU1283
1217:Core/Src/vl53l0x_api_core.c **** 				VL53L0X_SEQUENCESTEP_PRE_RANGE,
 3746              		.loc 1 1217 12 is_stmt 0 view .LVU1284
 3747 00a8 6A46     		mov	r2, sp
 3748 00aa 0321     		movs	r1, #3
 3749 00ac 2846     		mov	r0, r5
 3750 00ae FFF7FEFF 		bl	get_sequence_step_timeout
 3751              	.LVL607:
1217:Core/Src/vl53l0x_api_core.c **** 				VL53L0X_SEQUENCESTEP_PRE_RANGE,
 3752              		.loc 1 1217 12 view .LVU1285
 3753 00b2 0346     		mov	r3, r0
 3754              	.LVL608:
1221:Core/Src/vl53l0x_api_core.c **** 				PreRangeOverheadMicroSeconds;
 3755              		.loc 1 1221 3 is_stmt 1 view .LVU1286
1221:Core/Src/vl53l0x_api_core.c **** 				PreRangeOverheadMicroSeconds;
 3756              		.loc 1 1221 44 is_stmt 0 view .LVU1287
 3757 00b4 009A     		ldr	r2, [sp]
1221:Core/Src/vl53l0x_api_core.c **** 				PreRangeOverheadMicroSeconds;
 3758              		.loc 1 1221 14 view .LVU1288
 3759 00b6 02F52572 		add	r2, r2, #660
 3760              	.LVL609:
1224:Core/Src/vl53l0x_api_core.c **** 			FinalRangeTimingBudgetMicroSeconds -= SubTimeout;
 3761              		.loc 1 1224 3 is_stmt 1 view .LVU1289
1224:Core/Src/vl53l0x_api_core.c **** 			FinalRangeTimingBudgetMicroSeconds -= SubTimeout;
 3762              		.loc 1 1224 6 is_stmt 0 view .LVU1290
 3763 00ba 9642     		cmp	r6, r2
 3764 00bc 10D9     		bls	.L191
1225:Core/Src/vl53l0x_api_core.c **** 		} else {
 3765              		.loc 1 1225 4 is_stmt 1 view .LVU1291
1225:Core/Src/vl53l0x_api_core.c **** 		} else {
 3766              		.loc 1 1225 39 is_stmt 0 view .LVU1292
 3767 00be B61A     		subs	r6, r6, r2
 3768              	.LVL610:
1225:Core/Src/vl53l0x_api_core.c **** 		} else {
 3769              		.loc 1 1225 39 view .LVU1293
 3770 00c0 DAE7     		b	.L186
 3771              	.LVL611:
 3772              	.L194:
1236:Core/Src/vl53l0x_api_core.c **** 				FinalRangeOverheadMicroSeconds;
 3773              		.loc 1 1236 3 is_stmt 1 view .LVU1294
1246:Core/Src/vl53l0x_api_core.c **** 			VL53L0X_SEQUENCESTEP_FINAL_RANGE,
 3774              		.loc 1 1246 3 view .LVU1295
1246:Core/Src/vl53l0x_api_core.c **** 			VL53L0X_SEQUENCESTEP_FINAL_RANGE,
 3775              		.loc 1 1246 12 is_stmt 0 view .LVU1296
 3776 00c2 A6F22622 		subw	r2, r6, #550
 3777              	.LVL612:
1246:Core/Src/vl53l0x_api_core.c **** 			VL53L0X_SEQUENCESTEP_FINAL_RANGE,
 3778              		.loc 1 1246 12 view .LVU1297
ARM GAS  C:\Users\anmh1\AppData\Local\Temp\ccrmGbOb.s 			page 103


 3779 00c6 0421     		movs	r1, #4
 3780 00c8 2846     		mov	r0, r5
 3781 00ca FFF7FEFF 		bl	set_sequence_step_timeout
 3782              	.LVL613:
1246:Core/Src/vl53l0x_api_core.c **** 			VL53L0X_SEQUENCESTEP_FINAL_RANGE,
 3783              		.loc 1 1246 12 view .LVU1298
 3784 00ce 0346     		mov	r3, r0
 3785              	.LVL614:
1250:Core/Src/vl53l0x_api_core.c **** 			MeasurementTimingBudgetMicroSeconds,
 3786              		.loc 1 1250 3 is_stmt 1 view .LVU1299
 3787 00d0 6C61     		str	r4, [r5, #20]
 3788 00d2 D5E7     		b	.L179
 3789              	.LVL615:
 3790              	.L187:
1133:Core/Src/vl53l0x_api_core.c **** 	}
 3791              		.loc 1 1133 10 is_stmt 0 view .LVU1300
 3792 00d4 6FF00303 		mvn	r3, #3
 3793 00d8 D2E7     		b	.L179
 3794              	.LVL616:
 3795              	.L188:
1133:Core/Src/vl53l0x_api_core.c **** 	}
 3796              		.loc 1 1133 10 view .LVU1301
 3797 00da 6FF00303 		mvn	r3, #3
 3798 00de CFE7     		b	.L179
 3799              	.LVL617:
 3800              	.L191:
1228:Core/Src/vl53l0x_api_core.c **** 		}
 3801              		.loc 1 1228 11 view .LVU1302
 3802 00e0 6FF00303 		mvn	r3, #3
 3803              	.LVL618:
1228:Core/Src/vl53l0x_api_core.c **** 		}
 3804              		.loc 1 1228 11 view .LVU1303
 3805 00e4 CCE7     		b	.L179
 3806              		.cfi_endproc
 3807              	.LFE150:
 3809              		.section	.text.VL53L0X_get_measurement_timing_budget_micro_seconds,"ax",%progbits
 3810              		.align	1
 3811              		.global	VL53L0X_get_measurement_timing_budget_micro_seconds
 3812              		.syntax unified
 3813              		.thumb
 3814              		.thumb_func
 3815              		.fpu fpv4-sp-d16
 3817              	VL53L0X_get_measurement_timing_budget_micro_seconds:
 3818              	.LVL619:
 3819              	.LFB151:
1259:Core/Src/vl53l0x_api_core.c **** 
1260:Core/Src/vl53l0x_api_core.c **** VL53L0X_Error VL53L0X_get_measurement_timing_budget_micro_seconds(VL53L0X_DEV Dev,
1261:Core/Src/vl53l0x_api_core.c **** 		uint32_t *pMeasurementTimingBudgetMicroSeconds)
1262:Core/Src/vl53l0x_api_core.c **** {
 3820              		.loc 1 1262 1 is_stmt 1 view -0
 3821              		.cfi_startproc
 3822              		@ args = 0, pretend = 0, frame = 24
 3823              		@ frame_needed = 0, uses_anonymous_args = 0
 3824              		.loc 1 1262 1 is_stmt 0 view .LVU1305
 3825 0000 30B5     		push	{r4, r5, lr}
 3826              		.cfi_def_cfa_offset 12
 3827              		.cfi_offset 4, -12
ARM GAS  C:\Users\anmh1\AppData\Local\Temp\ccrmGbOb.s 			page 104


 3828              		.cfi_offset 5, -8
 3829              		.cfi_offset 14, -4
 3830 0002 87B0     		sub	sp, sp, #28
 3831              		.cfi_def_cfa_offset 40
 3832 0004 0546     		mov	r5, r0
 3833 0006 0C46     		mov	r4, r1
1263:Core/Src/vl53l0x_api_core.c **** 	VL53L0X_Error Status = VL53L0X_ERROR_NONE;
 3834              		.loc 1 1263 2 is_stmt 1 view .LVU1306
 3835              	.LVL620:
1264:Core/Src/vl53l0x_api_core.c **** 	VL53L0X_SchedulerSequenceSteps_t SchedulerSequenceSteps;
 3836              		.loc 1 1264 2 view .LVU1307
1265:Core/Src/vl53l0x_api_core.c **** 	uint32_t FinalRangeTimeoutMicroSeconds;
 3837              		.loc 1 1265 2 view .LVU1308
1266:Core/Src/vl53l0x_api_core.c **** 	uint32_t MsrcDccTccTimeoutMicroSeconds	= 2000;
 3838              		.loc 1 1266 2 view .LVU1309
 3839              		.loc 1 1266 11 is_stmt 0 view .LVU1310
 3840 0008 4FF4FA63 		mov	r3, #2000
 3841 000c 0293     		str	r3, [sp, #8]
1267:Core/Src/vl53l0x_api_core.c **** 	uint32_t StartOverheadMicroSeconds		= 1910;
 3842              		.loc 1 1267 2 is_stmt 1 view .LVU1311
 3843              	.LVL621:
1268:Core/Src/vl53l0x_api_core.c **** 	uint32_t EndOverheadMicroSeconds		= 960;
 3844              		.loc 1 1268 2 view .LVU1312
1269:Core/Src/vl53l0x_api_core.c **** 	uint32_t MsrcOverheadMicroSeconds		= 660;
 3845              		.loc 1 1269 2 view .LVU1313
1270:Core/Src/vl53l0x_api_core.c **** 	uint32_t TccOverheadMicroSeconds		= 590;
 3846              		.loc 1 1270 2 view .LVU1314
1271:Core/Src/vl53l0x_api_core.c **** 	uint32_t DssOverheadMicroSeconds		= 690;
 3847              		.loc 1 1271 2 view .LVU1315
1272:Core/Src/vl53l0x_api_core.c **** 	uint32_t PreRangeOverheadMicroSeconds	= 660;
 3848              		.loc 1 1272 2 view .LVU1316
1273:Core/Src/vl53l0x_api_core.c **** 	uint32_t FinalRangeOverheadMicroSeconds = 550;
 3849              		.loc 1 1273 2 view .LVU1317
1274:Core/Src/vl53l0x_api_core.c **** 	uint32_t PreRangeTimeoutMicroSeconds	= 0;
 3850              		.loc 1 1274 2 view .LVU1318
 3851              		.loc 1 1274 11 is_stmt 0 view .LVU1319
 3852 000e 0023     		movs	r3, #0
 3853 0010 0193     		str	r3, [sp, #4]
1275:Core/Src/vl53l0x_api_core.c **** 
1276:Core/Src/vl53l0x_api_core.c **** 	LOG_FUNCTION_START("");
 3854              		.loc 1 1276 2 is_stmt 1 view .LVU1320
1277:Core/Src/vl53l0x_api_core.c **** 
1278:Core/Src/vl53l0x_api_core.c **** 	/* Start and end overhead times always present */
1279:Core/Src/vl53l0x_api_core.c **** 	*pMeasurementTimingBudgetMicroSeconds
 3855              		.loc 1 1279 2 view .LVU1321
1280:Core/Src/vl53l0x_api_core.c **** 		= StartOverheadMicroSeconds + EndOverheadMicroSeconds;
 3856              		.loc 1 1280 3 is_stmt 0 view .LVU1322
 3857 0012 40F63633 		movw	r3, #2870
 3858 0016 0B60     		str	r3, [r1]
1281:Core/Src/vl53l0x_api_core.c **** 
1282:Core/Src/vl53l0x_api_core.c **** 	Status = VL53L0X_GetSequenceStepEnables(Dev, &SchedulerSequenceSteps);
 3859              		.loc 1 1282 2 is_stmt 1 view .LVU1323
 3860              		.loc 1 1282 11 is_stmt 0 view .LVU1324
 3861 0018 04A9     		add	r1, sp, #16
 3862              	.LVL622:
 3863              		.loc 1 1282 11 view .LVU1325
 3864 001a FFF7FEFF 		bl	VL53L0X_GetSequenceStepEnables
ARM GAS  C:\Users\anmh1\AppData\Local\Temp\ccrmGbOb.s 			page 105


 3865              	.LVL623:
1283:Core/Src/vl53l0x_api_core.c **** 
1284:Core/Src/vl53l0x_api_core.c **** 	if (Status != VL53L0X_ERROR_NONE) {
 3866              		.loc 1 1284 2 is_stmt 1 view .LVU1326
 3867              		.loc 1 1284 5 is_stmt 0 view .LVU1327
 3868 001e 0346     		mov	r3, r0
 3869 0020 68BB     		cbnz	r0, .L196
1285:Core/Src/vl53l0x_api_core.c **** 		LOG_FUNCTION_END(Status);
1286:Core/Src/vl53l0x_api_core.c **** 		return Status;
1287:Core/Src/vl53l0x_api_core.c **** 	}
1288:Core/Src/vl53l0x_api_core.c **** 
1289:Core/Src/vl53l0x_api_core.c **** 
1290:Core/Src/vl53l0x_api_core.c **** 	if (SchedulerSequenceSteps.TccOn  ||
 3870              		.loc 1 1290 2 is_stmt 1 view .LVU1328
 3871              		.loc 1 1290 28 is_stmt 0 view .LVU1329
 3872 0022 9DF81020 		ldrb	r2, [sp, #16]	@ zero_extendqisi2
 3873              		.loc 1 1290 5 view .LVU1330
 3874 0026 2AB9     		cbnz	r2, .L197
1291:Core/Src/vl53l0x_api_core.c **** 		SchedulerSequenceSteps.MsrcOn ||
 3875              		.loc 1 1291 25 discriminator 1 view .LVU1331
 3876 0028 9DF81120 		ldrb	r2, [sp, #17]	@ zero_extendqisi2
1290:Core/Src/vl53l0x_api_core.c **** 		SchedulerSequenceSteps.MsrcOn ||
 3877              		.loc 1 1290 36 discriminator 1 view .LVU1332
 3878 002c 12B9     		cbnz	r2, .L197
1292:Core/Src/vl53l0x_api_core.c **** 		SchedulerSequenceSteps.DssOn) {
 3879              		.loc 1 1292 25 view .LVU1333
 3880 002e 9DF81220 		ldrb	r2, [sp, #18]	@ zero_extendqisi2
1291:Core/Src/vl53l0x_api_core.c **** 		SchedulerSequenceSteps.MsrcOn ||
 3881              		.loc 1 1291 33 view .LVU1334
 3882 0032 CAB1     		cbz	r2, .L198
 3883              	.L197:
1293:Core/Src/vl53l0x_api_core.c **** 
1294:Core/Src/vl53l0x_api_core.c **** 		Status = get_sequence_step_timeout(Dev,
 3884              		.loc 1 1294 3 is_stmt 1 view .LVU1335
 3885              		.loc 1 1294 12 is_stmt 0 view .LVU1336
 3886 0034 02AA     		add	r2, sp, #8
 3887 0036 0221     		movs	r1, #2
 3888 0038 2846     		mov	r0, r5
 3889              	.LVL624:
 3890              		.loc 1 1294 12 view .LVU1337
 3891 003a FFF7FEFF 		bl	get_sequence_step_timeout
 3892              	.LVL625:
1295:Core/Src/vl53l0x_api_core.c **** 				VL53L0X_SEQUENCESTEP_MSRC,
1296:Core/Src/vl53l0x_api_core.c **** 				&MsrcDccTccTimeoutMicroSeconds);
1297:Core/Src/vl53l0x_api_core.c **** 
1298:Core/Src/vl53l0x_api_core.c **** 		if (Status == VL53L0X_ERROR_NONE) {
 3893              		.loc 1 1298 3 is_stmt 1 view .LVU1338
 3894              		.loc 1 1298 6 is_stmt 0 view .LVU1339
 3895 003e 0346     		mov	r3, r0
 3896 0040 90B9     		cbnz	r0, .L198
1299:Core/Src/vl53l0x_api_core.c **** 			if (SchedulerSequenceSteps.TccOn) {
 3897              		.loc 1 1299 4 is_stmt 1 view .LVU1340
 3898              		.loc 1 1299 30 is_stmt 0 view .LVU1341
 3899 0042 9DF81020 		ldrb	r2, [sp, #16]	@ zero_extendqisi2
 3900              		.loc 1 1299 7 view .LVU1342
 3901 0046 2AB1     		cbz	r2, .L199
1300:Core/Src/vl53l0x_api_core.c **** 				*pMeasurementTimingBudgetMicroSeconds +=
ARM GAS  C:\Users\anmh1\AppData\Local\Temp\ccrmGbOb.s 			page 106


 3902              		.loc 1 1300 5 is_stmt 1 view .LVU1343
1301:Core/Src/vl53l0x_api_core.c **** 					MsrcDccTccTimeoutMicroSeconds +
 3903              		.loc 1 1301 36 is_stmt 0 view .LVU1344
 3904 0048 029A     		ldr	r2, [sp, #8]
 3905 004a 02F24E21 		addw	r1, r2, #590
1300:Core/Src/vl53l0x_api_core.c **** 				*pMeasurementTimingBudgetMicroSeconds +=
 3906              		.loc 1 1300 43 view .LVU1345
 3907 004e 2268     		ldr	r2, [r4]
 3908 0050 0A44     		add	r2, r2, r1
 3909 0052 2260     		str	r2, [r4]
 3910              	.L199:
1302:Core/Src/vl53l0x_api_core.c **** 					TccOverheadMicroSeconds;
1303:Core/Src/vl53l0x_api_core.c **** 			}
1304:Core/Src/vl53l0x_api_core.c **** 
1305:Core/Src/vl53l0x_api_core.c **** 			if (SchedulerSequenceSteps.DssOn) {
 3911              		.loc 1 1305 4 is_stmt 1 view .LVU1346
 3912              		.loc 1 1305 30 is_stmt 0 view .LVU1347
 3913 0054 9DF81220 		ldrb	r2, [sp, #18]	@ zero_extendqisi2
 3914              		.loc 1 1305 7 view .LVU1348
 3915 0058 A2B1     		cbz	r2, .L200
1306:Core/Src/vl53l0x_api_core.c **** 				*pMeasurementTimingBudgetMicroSeconds +=
 3916              		.loc 1 1306 5 is_stmt 1 view .LVU1349
1307:Core/Src/vl53l0x_api_core.c **** 				2 * (MsrcDccTccTimeoutMicroSeconds +
 3917              		.loc 1 1307 40 is_stmt 0 view .LVU1350
 3918 005a 029A     		ldr	r2, [sp, #8]
 3919 005c 02F2B221 		addw	r1, r2, #690
1306:Core/Src/vl53l0x_api_core.c **** 				*pMeasurementTimingBudgetMicroSeconds +=
 3920              		.loc 1 1306 43 view .LVU1351
 3921 0060 2268     		ldr	r2, [r4]
 3922 0062 02EB4102 		add	r2, r2, r1, lsl #1
 3923 0066 2260     		str	r2, [r4]
 3924              	.L198:
 3925              	.LVL626:
1308:Core/Src/vl53l0x_api_core.c **** 					DssOverheadMicroSeconds);
1309:Core/Src/vl53l0x_api_core.c **** 			} else if (SchedulerSequenceSteps.MsrcOn) {
1310:Core/Src/vl53l0x_api_core.c **** 				*pMeasurementTimingBudgetMicroSeconds +=
1311:Core/Src/vl53l0x_api_core.c **** 					MsrcDccTccTimeoutMicroSeconds +
1312:Core/Src/vl53l0x_api_core.c **** 					MsrcOverheadMicroSeconds;
1313:Core/Src/vl53l0x_api_core.c **** 			}
1314:Core/Src/vl53l0x_api_core.c **** 		}
1315:Core/Src/vl53l0x_api_core.c **** 	}
1316:Core/Src/vl53l0x_api_core.c **** 
1317:Core/Src/vl53l0x_api_core.c **** 	if (Status == VL53L0X_ERROR_NONE) {
 3926              		.loc 1 1317 2 is_stmt 1 view .LVU1352
 3927              		.loc 1 1317 5 is_stmt 0 view .LVU1353
 3928 0068 13B9     		cbnz	r3, .L201
1318:Core/Src/vl53l0x_api_core.c **** 		if (SchedulerSequenceSteps.PreRangeOn) {
 3929              		.loc 1 1318 3 is_stmt 1 view .LVU1354
 3930              		.loc 1 1318 29 is_stmt 0 view .LVU1355
 3931 006a 9DF81320 		ldrb	r2, [sp, #19]	@ zero_extendqisi2
 3932              		.loc 1 1318 6 view .LVU1356
 3933 006e A2B9     		cbnz	r2, .L204
 3934              	.L201:
1319:Core/Src/vl53l0x_api_core.c **** 			Status = get_sequence_step_timeout(Dev,
1320:Core/Src/vl53l0x_api_core.c **** 				VL53L0X_SEQUENCESTEP_PRE_RANGE,
1321:Core/Src/vl53l0x_api_core.c **** 				&PreRangeTimeoutMicroSeconds);
1322:Core/Src/vl53l0x_api_core.c **** 			*pMeasurementTimingBudgetMicroSeconds +=
ARM GAS  C:\Users\anmh1\AppData\Local\Temp\ccrmGbOb.s 			page 107


1323:Core/Src/vl53l0x_api_core.c **** 				PreRangeTimeoutMicroSeconds +
1324:Core/Src/vl53l0x_api_core.c **** 				PreRangeOverheadMicroSeconds;
1325:Core/Src/vl53l0x_api_core.c **** 		}
1326:Core/Src/vl53l0x_api_core.c **** 	}
1327:Core/Src/vl53l0x_api_core.c **** 
1328:Core/Src/vl53l0x_api_core.c **** 	if (Status == VL53L0X_ERROR_NONE) {
 3935              		.loc 1 1328 2 is_stmt 1 view .LVU1357
 3936              		.loc 1 1328 5 is_stmt 0 view .LVU1358
 3937 0070 13B9     		cbnz	r3, .L202
1329:Core/Src/vl53l0x_api_core.c **** 		if (SchedulerSequenceSteps.FinalRangeOn) {
 3938              		.loc 1 1329 3 is_stmt 1 view .LVU1359
 3939              		.loc 1 1329 29 is_stmt 0 view .LVU1360
 3940 0072 9DF81420 		ldrb	r2, [sp, #20]	@ zero_extendqisi2
 3941              		.loc 1 1329 6 view .LVU1361
 3942 0076 EAB9     		cbnz	r2, .L205
 3943              	.L202:
1330:Core/Src/vl53l0x_api_core.c **** 			Status = get_sequence_step_timeout(Dev,
1331:Core/Src/vl53l0x_api_core.c **** 					VL53L0X_SEQUENCESTEP_FINAL_RANGE,
1332:Core/Src/vl53l0x_api_core.c **** 					&FinalRangeTimeoutMicroSeconds);
1333:Core/Src/vl53l0x_api_core.c **** 			*pMeasurementTimingBudgetMicroSeconds +=
1334:Core/Src/vl53l0x_api_core.c **** 				(FinalRangeTimeoutMicroSeconds +
1335:Core/Src/vl53l0x_api_core.c **** 				FinalRangeOverheadMicroSeconds);
1336:Core/Src/vl53l0x_api_core.c **** 		}
1337:Core/Src/vl53l0x_api_core.c **** 	}
1338:Core/Src/vl53l0x_api_core.c **** 
1339:Core/Src/vl53l0x_api_core.c **** 	if (Status == VL53L0X_ERROR_NONE) {
 3944              		.loc 1 1339 2 is_stmt 1 view .LVU1362
 3945              		.loc 1 1339 5 is_stmt 0 view .LVU1363
 3946 0078 0BB9     		cbnz	r3, .L196
1340:Core/Src/vl53l0x_api_core.c **** 		VL53L0X_SETPARAMETERFIELD(Dev,
 3947              		.loc 1 1340 3 is_stmt 1 view .LVU1364
 3948 007a 2268     		ldr	r2, [r4]
 3949 007c 6A61     		str	r2, [r5, #20]
 3950              	.LVL627:
 3951              	.L196:
1341:Core/Src/vl53l0x_api_core.c **** 			MeasurementTimingBudgetMicroSeconds,
1342:Core/Src/vl53l0x_api_core.c **** 			*pMeasurementTimingBudgetMicroSeconds);
1343:Core/Src/vl53l0x_api_core.c **** 	}
1344:Core/Src/vl53l0x_api_core.c **** 
1345:Core/Src/vl53l0x_api_core.c **** 	LOG_FUNCTION_END(Status);
1346:Core/Src/vl53l0x_api_core.c **** 	return Status;
1347:Core/Src/vl53l0x_api_core.c **** }
 3952              		.loc 1 1347 1 is_stmt 0 view .LVU1365
 3953 007e 1846     		mov	r0, r3
 3954 0080 07B0     		add	sp, sp, #28
 3955              		.cfi_remember_state
 3956              		.cfi_def_cfa_offset 12
 3957              		@ sp needed
 3958 0082 30BD     		pop	{r4, r5, pc}
 3959              	.LVL628:
 3960              	.L200:
 3961              		.cfi_restore_state
1309:Core/Src/vl53l0x_api_core.c **** 				*pMeasurementTimingBudgetMicroSeconds +=
 3962              		.loc 1 1309 11 is_stmt 1 view .LVU1366
1309:Core/Src/vl53l0x_api_core.c **** 				*pMeasurementTimingBudgetMicroSeconds +=
 3963              		.loc 1 1309 37 is_stmt 0 view .LVU1367
 3964 0084 9DF81120 		ldrb	r2, [sp, #17]	@ zero_extendqisi2
ARM GAS  C:\Users\anmh1\AppData\Local\Temp\ccrmGbOb.s 			page 108


1309:Core/Src/vl53l0x_api_core.c **** 				*pMeasurementTimingBudgetMicroSeconds +=
 3965              		.loc 1 1309 14 view .LVU1368
 3966 0088 002A     		cmp	r2, #0
 3967 008a EDD0     		beq	.L198
1310:Core/Src/vl53l0x_api_core.c **** 					MsrcDccTccTimeoutMicroSeconds +
 3968              		.loc 1 1310 5 is_stmt 1 view .LVU1369
1311:Core/Src/vl53l0x_api_core.c **** 					MsrcOverheadMicroSeconds;
 3969              		.loc 1 1311 36 is_stmt 0 view .LVU1370
 3970 008c 029A     		ldr	r2, [sp, #8]
 3971 008e 02F52571 		add	r1, r2, #660
1310:Core/Src/vl53l0x_api_core.c **** 					MsrcDccTccTimeoutMicroSeconds +
 3972              		.loc 1 1310 43 view .LVU1371
 3973 0092 2268     		ldr	r2, [r4]
 3974 0094 0A44     		add	r2, r2, r1
 3975 0096 2260     		str	r2, [r4]
 3976 0098 E6E7     		b	.L198
 3977              	.LVL629:
 3978              	.L204:
1319:Core/Src/vl53l0x_api_core.c **** 				VL53L0X_SEQUENCESTEP_PRE_RANGE,
 3979              		.loc 1 1319 4 is_stmt 1 view .LVU1372
1319:Core/Src/vl53l0x_api_core.c **** 				VL53L0X_SEQUENCESTEP_PRE_RANGE,
 3980              		.loc 1 1319 13 is_stmt 0 view .LVU1373
 3981 009a 01AA     		add	r2, sp, #4
 3982 009c 0321     		movs	r1, #3
 3983 009e 2846     		mov	r0, r5
 3984 00a0 FFF7FEFF 		bl	get_sequence_step_timeout
 3985              	.LVL630:
1319:Core/Src/vl53l0x_api_core.c **** 				VL53L0X_SEQUENCESTEP_PRE_RANGE,
 3986              		.loc 1 1319 13 view .LVU1374
 3987 00a4 0346     		mov	r3, r0
 3988              	.LVL631:
1322:Core/Src/vl53l0x_api_core.c **** 				PreRangeTimeoutMicroSeconds +
 3989              		.loc 1 1322 4 is_stmt 1 view .LVU1375
1323:Core/Src/vl53l0x_api_core.c **** 				PreRangeOverheadMicroSeconds;
 3990              		.loc 1 1323 33 is_stmt 0 view .LVU1376
 3991 00a6 019A     		ldr	r2, [sp, #4]
 3992 00a8 02F52571 		add	r1, r2, #660
1322:Core/Src/vl53l0x_api_core.c **** 				PreRangeTimeoutMicroSeconds +
 3993              		.loc 1 1322 42 view .LVU1377
 3994 00ac 2268     		ldr	r2, [r4]
 3995 00ae 0A44     		add	r2, r2, r1
 3996 00b0 2260     		str	r2, [r4]
 3997 00b2 DDE7     		b	.L201
 3998              	.L205:
1330:Core/Src/vl53l0x_api_core.c **** 					VL53L0X_SEQUENCESTEP_FINAL_RANGE,
 3999              		.loc 1 1330 4 is_stmt 1 view .LVU1378
1330:Core/Src/vl53l0x_api_core.c **** 					VL53L0X_SEQUENCESTEP_FINAL_RANGE,
 4000              		.loc 1 1330 13 is_stmt 0 view .LVU1379
 4001 00b4 03AA     		add	r2, sp, #12
 4002 00b6 0421     		movs	r1, #4
 4003 00b8 2846     		mov	r0, r5
 4004 00ba FFF7FEFF 		bl	get_sequence_step_timeout
 4005              	.LVL632:
1330:Core/Src/vl53l0x_api_core.c **** 					VL53L0X_SEQUENCESTEP_FINAL_RANGE,
 4006              		.loc 1 1330 13 view .LVU1380
 4007 00be 0346     		mov	r3, r0
 4008              	.LVL633:
ARM GAS  C:\Users\anmh1\AppData\Local\Temp\ccrmGbOb.s 			page 109


1333:Core/Src/vl53l0x_api_core.c **** 				(FinalRangeTimeoutMicroSeconds +
 4009              		.loc 1 1333 4 is_stmt 1 view .LVU1381
1334:Core/Src/vl53l0x_api_core.c **** 				FinalRangeOverheadMicroSeconds);
 4010              		.loc 1 1334 36 is_stmt 0 view .LVU1382
 4011 00c0 039A     		ldr	r2, [sp, #12]
 4012 00c2 02F22621 		addw	r1, r2, #550
1333:Core/Src/vl53l0x_api_core.c **** 				(FinalRangeTimeoutMicroSeconds +
 4013              		.loc 1 1333 42 view .LVU1383
 4014 00c6 2268     		ldr	r2, [r4]
 4015 00c8 0A44     		add	r2, r2, r1
 4016 00ca 2260     		str	r2, [r4]
 4017 00cc D4E7     		b	.L202
 4018              		.cfi_endproc
 4019              	.LFE151:
 4021              		.section	.text.VL53L0X_load_tuning_settings,"ax",%progbits
 4022              		.align	1
 4023              		.global	VL53L0X_load_tuning_settings
 4024              		.syntax unified
 4025              		.thumb
 4026              		.thumb_func
 4027              		.fpu fpv4-sp-d16
 4029              	VL53L0X_load_tuning_settings:
 4030              	.LVL634:
 4031              	.LFB152:
1348:Core/Src/vl53l0x_api_core.c **** 
1349:Core/Src/vl53l0x_api_core.c **** 
1350:Core/Src/vl53l0x_api_core.c **** 
1351:Core/Src/vl53l0x_api_core.c **** VL53L0X_Error VL53L0X_load_tuning_settings(VL53L0X_DEV Dev,
1352:Core/Src/vl53l0x_api_core.c **** 		uint8_t *pTuningSettingBuffer)
1353:Core/Src/vl53l0x_api_core.c **** {
 4032              		.loc 1 1353 1 is_stmt 1 view -0
 4033              		.cfi_startproc
 4034              		@ args = 0, pretend = 0, frame = 8
 4035              		@ frame_needed = 0, uses_anonymous_args = 0
 4036              		.loc 1 1353 1 is_stmt 0 view .LVU1385
 4037 0000 F0B5     		push	{r4, r5, r6, r7, lr}
 4038              		.cfi_def_cfa_offset 20
 4039              		.cfi_offset 4, -20
 4040              		.cfi_offset 5, -16
 4041              		.cfi_offset 6, -12
 4042              		.cfi_offset 7, -8
 4043              		.cfi_offset 14, -4
 4044 0002 83B0     		sub	sp, sp, #12
 4045              		.cfi_def_cfa_offset 32
 4046 0004 0746     		mov	r7, r0
 4047 0006 0D46     		mov	r5, r1
1354:Core/Src/vl53l0x_api_core.c **** 	VL53L0X_Error Status = VL53L0X_ERROR_NONE;
 4048              		.loc 1 1354 2 is_stmt 1 view .LVU1386
 4049              	.LVL635:
1355:Core/Src/vl53l0x_api_core.c **** 	int i;
 4050              		.loc 1 1355 2 view .LVU1387
1356:Core/Src/vl53l0x_api_core.c **** 	int Index;
 4051              		.loc 1 1356 2 view .LVU1388
1357:Core/Src/vl53l0x_api_core.c **** 	uint8_t msb;
 4052              		.loc 1 1357 2 view .LVU1389
1358:Core/Src/vl53l0x_api_core.c **** 	uint8_t lsb;
 4053              		.loc 1 1358 2 view .LVU1390
ARM GAS  C:\Users\anmh1\AppData\Local\Temp\ccrmGbOb.s 			page 110


1359:Core/Src/vl53l0x_api_core.c **** 	uint8_t SelectParam;
 4054              		.loc 1 1359 2 view .LVU1391
1360:Core/Src/vl53l0x_api_core.c **** 	uint8_t NumberOfWrites;
 4055              		.loc 1 1360 2 view .LVU1392
1361:Core/Src/vl53l0x_api_core.c **** 	uint8_t Address;
 4056              		.loc 1 1361 2 view .LVU1393
1362:Core/Src/vl53l0x_api_core.c **** 	uint8_t localBuffer[4]; /* max */
 4057              		.loc 1 1362 2 view .LVU1394
1363:Core/Src/vl53l0x_api_core.c **** 	uint16_t Temp16;
 4058              		.loc 1 1363 2 view .LVU1395
1364:Core/Src/vl53l0x_api_core.c **** 
1365:Core/Src/vl53l0x_api_core.c **** 	LOG_FUNCTION_START("");
 4059              		.loc 1 1365 2 view .LVU1396
1366:Core/Src/vl53l0x_api_core.c **** 
1367:Core/Src/vl53l0x_api_core.c **** 	Index = 0;
 4060              		.loc 1 1367 2 view .LVU1397
1368:Core/Src/vl53l0x_api_core.c **** 
1369:Core/Src/vl53l0x_api_core.c **** 	while ((*(pTuningSettingBuffer + Index) != 0) &&
 4061              		.loc 1 1369 2 view .LVU1398
1367:Core/Src/vl53l0x_api_core.c **** 
 4062              		.loc 1 1367 8 is_stmt 0 view .LVU1399
 4063 0008 0024     		movs	r4, #0
1354:Core/Src/vl53l0x_api_core.c **** 	int i;
 4064              		.loc 1 1354 16 view .LVU1400
 4065 000a 2046     		mov	r0, r4
 4066              	.LVL636:
 4067              		.loc 1 1369 8 view .LVU1401
 4068 000c 3CE0     		b	.L207
 4069              	.LVL637:
 4070              	.L222:
1370:Core/Src/vl53l0x_api_core.c **** 			(Status == VL53L0X_ERROR_NONE)) {
1371:Core/Src/vl53l0x_api_core.c **** 		NumberOfWrites = *(pTuningSettingBuffer + Index);
1372:Core/Src/vl53l0x_api_core.c **** 		Index++;
1373:Core/Src/vl53l0x_api_core.c **** 		if (NumberOfWrites == 0xFF) {
1374:Core/Src/vl53l0x_api_core.c **** 			/* internal parameters */
1375:Core/Src/vl53l0x_api_core.c **** 			SelectParam = *(pTuningSettingBuffer + Index);
 4071              		.loc 1 1375 4 is_stmt 1 view .LVU1402
 4072              		.loc 1 1375 16 is_stmt 0 view .LVU1403
 4073 000e AB5C     		ldrb	r3, [r5, r2]	@ zero_extendqisi2
 4074              	.LVL638:
1376:Core/Src/vl53l0x_api_core.c **** 			Index++;
 4075              		.loc 1 1376 4 is_stmt 1 view .LVU1404
 4076              		.loc 1 1376 9 is_stmt 0 view .LVU1405
 4077 0010 A21C     		adds	r2, r4, #2
 4078              	.LVL639:
1377:Core/Src/vl53l0x_api_core.c **** 			switch (SelectParam) {
 4079              		.loc 1 1377 4 is_stmt 1 view .LVU1406
 4080 0012 032B     		cmp	r3, #3
 4081 0014 44D8     		bhi	.L219
 4082 0016 DFE803F0 		tbb	[pc, r3]
 4083              	.L211:
 4084 001a 02       		.byte	(.L214-.L211)/2
 4085 001b 0B       		.byte	(.L213-.L211)/2
 4086 001c 14       		.byte	(.L212-.L211)/2
 4087 001d 1D       		.byte	(.L210-.L211)/2
 4088              		.p2align 1
 4089              	.L214:
ARM GAS  C:\Users\anmh1\AppData\Local\Temp\ccrmGbOb.s 			page 111


1378:Core/Src/vl53l0x_api_core.c **** 			case 0: /* uint16_t SigmaEstRefArray -> 2 bytes */
1379:Core/Src/vl53l0x_api_core.c **** 				msb = *(pTuningSettingBuffer + Index);
 4090              		.loc 1 1379 5 view .LVU1407
 4091              		.loc 1 1379 9 is_stmt 0 view .LVU1408
 4092 001e A95C     		ldrb	r1, [r5, r2]	@ zero_extendqisi2
 4093              	.LVL640:
1380:Core/Src/vl53l0x_api_core.c **** 				Index++;
 4094              		.loc 1 1380 5 is_stmt 1 view .LVU1409
 4095              		.loc 1 1380 10 is_stmt 0 view .LVU1410
 4096 0020 E21C     		adds	r2, r4, #3
 4097              	.LVL641:
1381:Core/Src/vl53l0x_api_core.c **** 				lsb = *(pTuningSettingBuffer + Index);
 4098              		.loc 1 1381 5 is_stmt 1 view .LVU1411
1382:Core/Src/vl53l0x_api_core.c **** 				Index++;
 4099              		.loc 1 1382 5 view .LVU1412
1383:Core/Src/vl53l0x_api_core.c **** 				Temp16 = VL53L0X_MAKEUINT16(lsb, msb);
 4100              		.loc 1 1383 5 view .LVU1413
 4101              		.loc 1 1383 14 is_stmt 0 view .LVU1414
 4102 0022 AB5C     		ldrb	r3, [r5, r2]	@ zero_extendqisi2
 4103              	.LVL642:
 4104              		.loc 1 1383 14 view .LVU1415
 4105 0024 0434     		adds	r4, r4, #4
 4106              	.LVL643:
 4107              		.loc 1 1383 12 view .LVU1416
 4108 0026 03EB0123 		add	r3, r3, r1, lsl #8
 4109              	.LVL644:
1384:Core/Src/vl53l0x_api_core.c **** 				PALDevDataSet(Dev, SigmaEstRefArray, Temp16);
 4110              		.loc 1 1384 5 is_stmt 1 view .LVU1417
 4111 002a A7F83431 		strh	r3, [r7, #308]	@ movhi
 4112              	.LVL645:
1385:Core/Src/vl53l0x_api_core.c **** 				break;
 4113              		.loc 1 1385 5 view .LVU1418
 4114 002e 2BE0     		b	.L207
 4115              	.LVL646:
 4116              	.L213:
1386:Core/Src/vl53l0x_api_core.c **** 			case 1: /* uint16_t SigmaEstEffPulseWidth -> 2 bytes */
1387:Core/Src/vl53l0x_api_core.c **** 				msb = *(pTuningSettingBuffer + Index);
 4117              		.loc 1 1387 5 view .LVU1419
 4118              		.loc 1 1387 9 is_stmt 0 view .LVU1420
 4119 0030 A95C     		ldrb	r1, [r5, r2]	@ zero_extendqisi2
 4120              	.LVL647:
1388:Core/Src/vl53l0x_api_core.c **** 				Index++;
 4121              		.loc 1 1388 5 is_stmt 1 view .LVU1421
 4122              		.loc 1 1388 10 is_stmt 0 view .LVU1422
 4123 0032 E21C     		adds	r2, r4, #3
 4124              	.LVL648:
1389:Core/Src/vl53l0x_api_core.c **** 				lsb = *(pTuningSettingBuffer + Index);
 4125              		.loc 1 1389 5 is_stmt 1 view .LVU1423
1390:Core/Src/vl53l0x_api_core.c **** 				Index++;
 4126              		.loc 1 1390 5 view .LVU1424
1391:Core/Src/vl53l0x_api_core.c **** 				Temp16 = VL53L0X_MAKEUINT16(lsb, msb);
 4127              		.loc 1 1391 5 view .LVU1425
 4128              		.loc 1 1391 14 is_stmt 0 view .LVU1426
 4129 0034 AB5C     		ldrb	r3, [r5, r2]	@ zero_extendqisi2
 4130              	.LVL649:
 4131              		.loc 1 1391 14 view .LVU1427
 4132 0036 0434     		adds	r4, r4, #4
ARM GAS  C:\Users\anmh1\AppData\Local\Temp\ccrmGbOb.s 			page 112


 4133              	.LVL650:
 4134              		.loc 1 1391 12 view .LVU1428
 4135 0038 03EB0123 		add	r3, r3, r1, lsl #8
 4136              	.LVL651:
1392:Core/Src/vl53l0x_api_core.c **** 				PALDevDataSet(Dev, SigmaEstEffPulseWidth,
 4137              		.loc 1 1392 5 is_stmt 1 view .LVU1429
 4138 003c A7F83631 		strh	r3, [r7, #310]	@ movhi
 4139              	.LVL652:
1393:Core/Src/vl53l0x_api_core.c **** 					Temp16);
1394:Core/Src/vl53l0x_api_core.c **** 				break;
 4140              		.loc 1 1394 5 view .LVU1430
 4141 0040 22E0     		b	.L207
 4142              	.LVL653:
 4143              	.L212:
1395:Core/Src/vl53l0x_api_core.c **** 			case 2: /* uint16_t SigmaEstEffAmbWidth -> 2 bytes */
1396:Core/Src/vl53l0x_api_core.c **** 				msb = *(pTuningSettingBuffer + Index);
 4144              		.loc 1 1396 5 view .LVU1431
 4145              		.loc 1 1396 9 is_stmt 0 view .LVU1432
 4146 0042 A95C     		ldrb	r1, [r5, r2]	@ zero_extendqisi2
 4147              	.LVL654:
1397:Core/Src/vl53l0x_api_core.c **** 				Index++;
 4148              		.loc 1 1397 5 is_stmt 1 view .LVU1433
 4149              		.loc 1 1397 10 is_stmt 0 view .LVU1434
 4150 0044 E21C     		adds	r2, r4, #3
 4151              	.LVL655:
1398:Core/Src/vl53l0x_api_core.c **** 				lsb = *(pTuningSettingBuffer + Index);
 4152              		.loc 1 1398 5 is_stmt 1 view .LVU1435
1399:Core/Src/vl53l0x_api_core.c **** 				Index++;
 4153              		.loc 1 1399 5 view .LVU1436
1400:Core/Src/vl53l0x_api_core.c **** 				Temp16 = VL53L0X_MAKEUINT16(lsb, msb);
 4154              		.loc 1 1400 5 view .LVU1437
 4155              		.loc 1 1400 14 is_stmt 0 view .LVU1438
 4156 0046 AB5C     		ldrb	r3, [r5, r2]	@ zero_extendqisi2
 4157              	.LVL656:
 4158              		.loc 1 1400 14 view .LVU1439
 4159 0048 0434     		adds	r4, r4, #4
 4160              	.LVL657:
 4161              		.loc 1 1400 12 view .LVU1440
 4162 004a 03EB0123 		add	r3, r3, r1, lsl #8
 4163              	.LVL658:
1401:Core/Src/vl53l0x_api_core.c **** 				PALDevDataSet(Dev, SigmaEstEffAmbWidth, Temp16);
 4164              		.loc 1 1401 5 is_stmt 1 view .LVU1441
 4165 004e A7F83831 		strh	r3, [r7, #312]	@ movhi
 4166              	.LVL659:
1402:Core/Src/vl53l0x_api_core.c **** 				break;
 4167              		.loc 1 1402 5 view .LVU1442
 4168 0052 19E0     		b	.L207
 4169              	.LVL660:
 4170              	.L210:
1403:Core/Src/vl53l0x_api_core.c **** 			case 3: /* uint16_t targetRefRate -> 2 bytes */
1404:Core/Src/vl53l0x_api_core.c **** 				msb = *(pTuningSettingBuffer + Index);
 4171              		.loc 1 1404 5 view .LVU1443
 4172              		.loc 1 1404 9 is_stmt 0 view .LVU1444
 4173 0054 A95C     		ldrb	r1, [r5, r2]	@ zero_extendqisi2
 4174              	.LVL661:
1405:Core/Src/vl53l0x_api_core.c **** 				Index++;
 4175              		.loc 1 1405 5 is_stmt 1 view .LVU1445
ARM GAS  C:\Users\anmh1\AppData\Local\Temp\ccrmGbOb.s 			page 113


 4176              		.loc 1 1405 10 is_stmt 0 view .LVU1446
 4177 0056 E21C     		adds	r2, r4, #3
 4178              	.LVL662:
1406:Core/Src/vl53l0x_api_core.c **** 				lsb = *(pTuningSettingBuffer + Index);
 4179              		.loc 1 1406 5 is_stmt 1 view .LVU1447
1407:Core/Src/vl53l0x_api_core.c **** 				Index++;
 4180              		.loc 1 1407 5 view .LVU1448
1408:Core/Src/vl53l0x_api_core.c **** 				Temp16 = VL53L0X_MAKEUINT16(lsb, msb);
 4181              		.loc 1 1408 5 view .LVU1449
 4182              		.loc 1 1408 14 is_stmt 0 view .LVU1450
 4183 0058 AB5C     		ldrb	r3, [r5, r2]	@ zero_extendqisi2
 4184              	.LVL663:
 4185              		.loc 1 1408 14 view .LVU1451
 4186 005a 0434     		adds	r4, r4, #4
 4187              	.LVL664:
 4188              		.loc 1 1408 12 view .LVU1452
 4189 005c 03EB0123 		add	r3, r3, r1, lsl #8
 4190              	.LVL665:
1409:Core/Src/vl53l0x_api_core.c **** 				PALDevDataSet(Dev, targetRefRate, Temp16);
 4191              		.loc 1 1409 5 is_stmt 1 view .LVU1453
 4192 0060 A7F83C31 		strh	r3, [r7, #316]	@ movhi
 4193              	.LVL666:
1410:Core/Src/vl53l0x_api_core.c **** 				break;
 4194              		.loc 1 1410 5 view .LVU1454
 4195 0064 10E0     		b	.L207
 4196              	.LVL667:
 4197              	.L223:
1411:Core/Src/vl53l0x_api_core.c **** 			default: /* invalid parameter */
1412:Core/Src/vl53l0x_api_core.c **** 				Status = VL53L0X_ERROR_INVALID_PARAMS;
1413:Core/Src/vl53l0x_api_core.c **** 			}
1414:Core/Src/vl53l0x_api_core.c **** 
1415:Core/Src/vl53l0x_api_core.c **** 		} else if (NumberOfWrites <= 4) {
1416:Core/Src/vl53l0x_api_core.c **** 			Address = *(pTuningSettingBuffer + Index);
 4198              		.loc 1 1416 4 view .LVU1455
 4199              		.loc 1 1416 12 is_stmt 0 view .LVU1456
 4200 0066 A95C     		ldrb	r1, [r5, r2]	@ zero_extendqisi2
 4201              	.LVL668:
1417:Core/Src/vl53l0x_api_core.c **** 			Index++;
 4202              		.loc 1 1417 4 is_stmt 1 view .LVU1457
 4203              		.loc 1 1417 9 is_stmt 0 view .LVU1458
 4204 0068 0234     		adds	r4, r4, #2
 4205              	.LVL669:
1418:Core/Src/vl53l0x_api_core.c **** 
1419:Core/Src/vl53l0x_api_core.c **** 			for (i = 0; i < NumberOfWrites; i++) {
 4206              		.loc 1 1419 4 is_stmt 1 view .LVU1459
 4207              		.loc 1 1419 11 is_stmt 0 view .LVU1460
 4208 006a 0022     		movs	r2, #0
 4209              		.loc 1 1419 4 view .LVU1461
 4210 006c 06E0     		b	.L215
 4211              	.LVL670:
 4212              	.L216:
1420:Core/Src/vl53l0x_api_core.c **** 				localBuffer[i] = *(pTuningSettingBuffer +
 4213              		.loc 1 1420 5 is_stmt 1 discriminator 3 view .LVU1462
 4214              		.loc 1 1420 22 is_stmt 0 discriminator 3 view .LVU1463
 4215 006e 285D     		ldrb	r0, [r5, r4]	@ zero_extendqisi2
 4216              		.loc 1 1420 20 discriminator 3 view .LVU1464
 4217 0070 02AE     		add	r6, sp, #8
ARM GAS  C:\Users\anmh1\AppData\Local\Temp\ccrmGbOb.s 			page 114


 4218 0072 1644     		add	r6, r6, r2
 4219 0074 06F8040C 		strb	r0, [r6, #-4]
1421:Core/Src/vl53l0x_api_core.c **** 							Index);
1422:Core/Src/vl53l0x_api_core.c **** 				Index++;
 4220              		.loc 1 1422 5 is_stmt 1 discriminator 3 view .LVU1465
 4221              		.loc 1 1422 10 is_stmt 0 discriminator 3 view .LVU1466
 4222 0078 0134     		adds	r4, r4, #1
 4223              	.LVL671:
1419:Core/Src/vl53l0x_api_core.c **** 				localBuffer[i] = *(pTuningSettingBuffer +
 4224              		.loc 1 1419 36 is_stmt 1 discriminator 3 view .LVU1467
1419:Core/Src/vl53l0x_api_core.c **** 				localBuffer[i] = *(pTuningSettingBuffer +
 4225              		.loc 1 1419 37 is_stmt 0 discriminator 3 view .LVU1468
 4226 007a 0132     		adds	r2, r2, #1
 4227              	.LVL672:
 4228              	.L215:
1419:Core/Src/vl53l0x_api_core.c **** 				localBuffer[i] = *(pTuningSettingBuffer +
 4229              		.loc 1 1419 16 is_stmt 1 discriminator 1 view .LVU1469
1419:Core/Src/vl53l0x_api_core.c **** 				localBuffer[i] = *(pTuningSettingBuffer +
 4230              		.loc 1 1419 4 is_stmt 0 discriminator 1 view .LVU1470
 4231 007c 9342     		cmp	r3, r2
 4232 007e F6DC     		bgt	.L216
1423:Core/Src/vl53l0x_api_core.c **** 			}
1424:Core/Src/vl53l0x_api_core.c **** 
1425:Core/Src/vl53l0x_api_core.c **** 			Status = VL53L0X_WriteMulti(Dev, Address, localBuffer,
 4233              		.loc 1 1425 4 is_stmt 1 view .LVU1471
 4234              		.loc 1 1425 13 is_stmt 0 view .LVU1472
 4235 0080 01AA     		add	r2, sp, #4
 4236              	.LVL673:
 4237              		.loc 1 1425 13 view .LVU1473
 4238 0082 3846     		mov	r0, r7
 4239 0084 FFF7FEFF 		bl	VL53L0X_WriteMulti
 4240              	.LVL674:
 4241              	.L207:
1369:Core/Src/vl53l0x_api_core.c **** 			(Status == VL53L0X_ERROR_NONE)) {
 4242              		.loc 1 1369 8 is_stmt 1 view .LVU1474
1369:Core/Src/vl53l0x_api_core.c **** 			(Status == VL53L0X_ERROR_NONE)) {
 4243              		.loc 1 1369 10 is_stmt 0 view .LVU1475
 4244 0088 2B5D     		ldrb	r3, [r5, r4]	@ zero_extendqisi2
1369:Core/Src/vl53l0x_api_core.c **** 			(Status == VL53L0X_ERROR_NONE)) {
 4245              		.loc 1 1369 8 view .LVU1476
 4246 008a 6BB1     		cbz	r3, .L217
1369:Core/Src/vl53l0x_api_core.c **** 			(Status == VL53L0X_ERROR_NONE)) {
 4247              		.loc 1 1369 48 discriminator 1 view .LVU1477
 4248 008c 60B9     		cbnz	r0, .L217
1371:Core/Src/vl53l0x_api_core.c **** 		Index++;
 4249              		.loc 1 1371 3 is_stmt 1 view .LVU1478
 4250              	.LVL675:
1372:Core/Src/vl53l0x_api_core.c **** 		if (NumberOfWrites == 0xFF) {
 4251              		.loc 1 1372 3 view .LVU1479
1372:Core/Src/vl53l0x_api_core.c **** 		if (NumberOfWrites == 0xFF) {
 4252              		.loc 1 1372 8 is_stmt 0 view .LVU1480
 4253 008e 621C     		adds	r2, r4, #1
 4254              	.LVL676:
1373:Core/Src/vl53l0x_api_core.c **** 			/* internal parameters */
 4255              		.loc 1 1373 3 is_stmt 1 view .LVU1481
1373:Core/Src/vl53l0x_api_core.c **** 			/* internal parameters */
 4256              		.loc 1 1373 6 is_stmt 0 view .LVU1482
ARM GAS  C:\Users\anmh1\AppData\Local\Temp\ccrmGbOb.s 			page 115


 4257 0090 FF2B     		cmp	r3, #255
 4258 0092 BCD0     		beq	.L222
1415:Core/Src/vl53l0x_api_core.c **** 			Address = *(pTuningSettingBuffer + Index);
 4259              		.loc 1 1415 10 is_stmt 1 view .LVU1483
1415:Core/Src/vl53l0x_api_core.c **** 			Address = *(pTuningSettingBuffer + Index);
 4260              		.loc 1 1415 13 is_stmt 0 view .LVU1484
 4261 0094 042B     		cmp	r3, #4
 4262 0096 E6D9     		bls	.L223
1372:Core/Src/vl53l0x_api_core.c **** 		if (NumberOfWrites == 0xFF) {
 4263              		.loc 1 1372 8 view .LVU1485
 4264 0098 1446     		mov	r4, r2
1426:Core/Src/vl53l0x_api_core.c **** 					NumberOfWrites);
1427:Core/Src/vl53l0x_api_core.c **** 
1428:Core/Src/vl53l0x_api_core.c **** 		} else {
1429:Core/Src/vl53l0x_api_core.c **** 			Status = VL53L0X_ERROR_INVALID_PARAMS;
 4265              		.loc 1 1429 11 view .LVU1486
 4266 009a 6FF00300 		mvn	r0, #3
 4267              	.LVL677:
 4268              		.loc 1 1429 11 view .LVU1487
 4269 009e F3E7     		b	.L207
 4270              	.LVL678:
 4271              	.L219:
1376:Core/Src/vl53l0x_api_core.c **** 			switch (SelectParam) {
 4272              		.loc 1 1376 9 view .LVU1488
 4273 00a0 1446     		mov	r4, r2
 4274              	.LVL679:
1376:Core/Src/vl53l0x_api_core.c **** 			switch (SelectParam) {
 4275              		.loc 1 1376 9 view .LVU1489
 4276 00a2 6FF00300 		mvn	r0, #3
 4277              	.LVL680:
1376:Core/Src/vl53l0x_api_core.c **** 			switch (SelectParam) {
 4278              		.loc 1 1376 9 view .LVU1490
 4279 00a6 EFE7     		b	.L207
 4280              	.LVL681:
 4281              	.L217:
1430:Core/Src/vl53l0x_api_core.c **** 		}
1431:Core/Src/vl53l0x_api_core.c **** 	}
1432:Core/Src/vl53l0x_api_core.c **** 
1433:Core/Src/vl53l0x_api_core.c **** 	LOG_FUNCTION_END(Status);
 4282              		.loc 1 1433 2 is_stmt 1 view .LVU1491
1434:Core/Src/vl53l0x_api_core.c **** 	return Status;
 4283              		.loc 1 1434 2 view .LVU1492
1435:Core/Src/vl53l0x_api_core.c **** }
 4284              		.loc 1 1435 1 is_stmt 0 view .LVU1493
 4285 00a8 03B0     		add	sp, sp, #12
 4286              		.cfi_def_cfa_offset 20
 4287              		@ sp needed
 4288 00aa F0BD     		pop	{r4, r5, r6, r7, pc}
 4289              		.loc 1 1435 1 view .LVU1494
 4290              		.cfi_endproc
 4291              	.LFE152:
 4293              		.section	.text.VL53L0X_get_total_xtalk_rate,"ax",%progbits
 4294              		.align	1
 4295              		.global	VL53L0X_get_total_xtalk_rate
 4296              		.syntax unified
 4297              		.thumb
 4298              		.thumb_func
ARM GAS  C:\Users\anmh1\AppData\Local\Temp\ccrmGbOb.s 			page 116


 4299              		.fpu fpv4-sp-d16
 4301              	VL53L0X_get_total_xtalk_rate:
 4302              	.LVL682:
 4303              	.LFB153:
1436:Core/Src/vl53l0x_api_core.c **** 
1437:Core/Src/vl53l0x_api_core.c **** VL53L0X_Error VL53L0X_get_total_xtalk_rate(VL53L0X_DEV Dev,
1438:Core/Src/vl53l0x_api_core.c **** 	VL53L0X_RangingMeasurementData_t *pRangingMeasurementData,
1439:Core/Src/vl53l0x_api_core.c **** 	FixPoint1616_t *ptotal_xtalk_rate_mcps)
1440:Core/Src/vl53l0x_api_core.c **** {
 4304              		.loc 1 1440 1 is_stmt 1 view -0
 4305              		.cfi_startproc
 4306              		@ args = 0, pretend = 0, frame = 8
 4307              		@ frame_needed = 0, uses_anonymous_args = 0
 4308              		.loc 1 1440 1 is_stmt 0 view .LVU1496
 4309 0000 70B5     		push	{r4, r5, r6, lr}
 4310              		.cfi_def_cfa_offset 16
 4311              		.cfi_offset 4, -16
 4312              		.cfi_offset 5, -12
 4313              		.cfi_offset 6, -8
 4314              		.cfi_offset 14, -4
 4315 0002 82B0     		sub	sp, sp, #8
 4316              		.cfi_def_cfa_offset 24
 4317 0004 0646     		mov	r6, r0
 4318 0006 0D46     		mov	r5, r1
 4319 0008 1446     		mov	r4, r2
1441:Core/Src/vl53l0x_api_core.c **** 	VL53L0X_Error Status = VL53L0X_ERROR_NONE;
 4320              		.loc 1 1441 2 is_stmt 1 view .LVU1497
 4321              	.LVL683:
1442:Core/Src/vl53l0x_api_core.c **** 
1443:Core/Src/vl53l0x_api_core.c **** 	uint8_t xtalkCompEnable;
 4322              		.loc 1 1443 2 view .LVU1498
1444:Core/Src/vl53l0x_api_core.c **** 	FixPoint1616_t totalXtalkMegaCps;
 4323              		.loc 1 1444 2 view .LVU1499
1445:Core/Src/vl53l0x_api_core.c **** 	FixPoint1616_t xtalkPerSpadMegaCps;
 4324              		.loc 1 1445 2 view .LVU1500
1446:Core/Src/vl53l0x_api_core.c **** 
1447:Core/Src/vl53l0x_api_core.c **** 	*ptotal_xtalk_rate_mcps = 0;
 4325              		.loc 1 1447 2 view .LVU1501
 4326              		.loc 1 1447 26 is_stmt 0 view .LVU1502
 4327 000a 0023     		movs	r3, #0
 4328 000c 1360     		str	r3, [r2]
1448:Core/Src/vl53l0x_api_core.c **** 
1449:Core/Src/vl53l0x_api_core.c **** 	Status = VL53L0X_GetXTalkCompensationEnable(Dev, &xtalkCompEnable);
 4329              		.loc 1 1449 2 is_stmt 1 view .LVU1503
 4330              		.loc 1 1449 11 is_stmt 0 view .LVU1504
 4331 000e 0DF10701 		add	r1, sp, #7
 4332              	.LVL684:
 4333              		.loc 1 1449 11 view .LVU1505
 4334 0012 FFF7FEFF 		bl	VL53L0X_GetXTalkCompensationEnable
 4335              	.LVL685:
1450:Core/Src/vl53l0x_api_core.c **** 	if (Status == VL53L0X_ERROR_NONE) {
 4336              		.loc 1 1450 2 is_stmt 1 view .LVU1506
 4337              		.loc 1 1450 5 is_stmt 0 view .LVU1507
 4338 0016 48B9     		cbnz	r0, .L225
1451:Core/Src/vl53l0x_api_core.c **** 
1452:Core/Src/vl53l0x_api_core.c **** 		if (xtalkCompEnable) {
 4339              		.loc 1 1452 3 is_stmt 1 view .LVU1508
ARM GAS  C:\Users\anmh1\AppData\Local\Temp\ccrmGbOb.s 			page 117


 4340              		.loc 1 1452 7 is_stmt 0 view .LVU1509
 4341 0018 9DF80730 		ldrb	r3, [sp, #7]	@ zero_extendqisi2
 4342              		.loc 1 1452 6 view .LVU1510
 4343 001c 33B1     		cbz	r3, .L225
1453:Core/Src/vl53l0x_api_core.c **** 
1454:Core/Src/vl53l0x_api_core.c **** 			VL53L0X_GETPARAMETERFIELD(
 4344              		.loc 1 1454 4 is_stmt 1 view .LVU1511
 4345 001e 336A     		ldr	r3, [r6, #32]
 4346              	.LVL686:
1455:Core/Src/vl53l0x_api_core.c **** 				Dev,
1456:Core/Src/vl53l0x_api_core.c **** 				XTalkCompensationRateMegaCps,
1457:Core/Src/vl53l0x_api_core.c **** 				xtalkPerSpadMegaCps);
1458:Core/Src/vl53l0x_api_core.c **** 
1459:Core/Src/vl53l0x_api_core.c **** 			/* FixPoint1616 * FixPoint 8:8 = FixPoint0824 */
1460:Core/Src/vl53l0x_api_core.c **** 			totalXtalkMegaCps =
 4347              		.loc 1 1460 4 view .LVU1512
1461:Core/Src/vl53l0x_api_core.c **** 				pRangingMeasurementData->EffectiveSpadRtnCount *
 4348              		.loc 1 1461 28 is_stmt 0 view .LVU1513
 4349 0020 AA8A     		ldrh	r2, [r5, #20]
1460:Core/Src/vl53l0x_api_core.c **** 				pRangingMeasurementData->EffectiveSpadRtnCount *
 4350              		.loc 1 1460 22 view .LVU1514
 4351 0022 03FB02F3 		mul	r3, r3, r2
 4352              	.LVL687:
1462:Core/Src/vl53l0x_api_core.c **** 				xtalkPerSpadMegaCps;
1463:Core/Src/vl53l0x_api_core.c **** 
1464:Core/Src/vl53l0x_api_core.c **** 			/* FixPoint0824 >> 8 = FixPoint1616 */
1465:Core/Src/vl53l0x_api_core.c **** 			*ptotal_xtalk_rate_mcps =
 4353              		.loc 1 1465 4 is_stmt 1 view .LVU1515
1466:Core/Src/vl53l0x_api_core.c **** 				(totalXtalkMegaCps + 0x80) >> 8;
 4354              		.loc 1 1466 24 is_stmt 0 view .LVU1516
 4355 0026 8033     		adds	r3, r3, #128
 4356              	.LVL688:
 4357              		.loc 1 1466 32 view .LVU1517
 4358 0028 1B0A     		lsrs	r3, r3, #8
 4359              	.LVL689:
1465:Core/Src/vl53l0x_api_core.c **** 				(totalXtalkMegaCps + 0x80) >> 8;
 4360              		.loc 1 1465 28 view .LVU1518
 4361 002a 2360     		str	r3, [r4]
 4362              	.LVL690:
 4363              	.L225:
1467:Core/Src/vl53l0x_api_core.c **** 		}
1468:Core/Src/vl53l0x_api_core.c **** 	}
1469:Core/Src/vl53l0x_api_core.c **** 
1470:Core/Src/vl53l0x_api_core.c **** 	return Status;
 4364              		.loc 1 1470 2 is_stmt 1 view .LVU1519
1471:Core/Src/vl53l0x_api_core.c **** }
 4365              		.loc 1 1471 1 is_stmt 0 view .LVU1520
 4366 002c 02B0     		add	sp, sp, #8
 4367              		.cfi_def_cfa_offset 16
 4368              		@ sp needed
 4369 002e 70BD     		pop	{r4, r5, r6, pc}
 4370              		.loc 1 1471 1 view .LVU1521
 4371              		.cfi_endproc
 4372              	.LFE153:
 4374              		.section	.text.VL53L0X_get_total_signal_rate,"ax",%progbits
 4375              		.align	1
 4376              		.global	VL53L0X_get_total_signal_rate
ARM GAS  C:\Users\anmh1\AppData\Local\Temp\ccrmGbOb.s 			page 118


 4377              		.syntax unified
 4378              		.thumb
 4379              		.thumb_func
 4380              		.fpu fpv4-sp-d16
 4382              	VL53L0X_get_total_signal_rate:
 4383              	.LVL691:
 4384              	.LFB154:
1472:Core/Src/vl53l0x_api_core.c **** 
1473:Core/Src/vl53l0x_api_core.c **** VL53L0X_Error VL53L0X_get_total_signal_rate(VL53L0X_DEV Dev,
1474:Core/Src/vl53l0x_api_core.c **** 	VL53L0X_RangingMeasurementData_t *pRangingMeasurementData,
1475:Core/Src/vl53l0x_api_core.c **** 	FixPoint1616_t *ptotal_signal_rate_mcps)
1476:Core/Src/vl53l0x_api_core.c **** {
 4385              		.loc 1 1476 1 is_stmt 1 view -0
 4386              		.cfi_startproc
 4387              		@ args = 0, pretend = 0, frame = 8
 4388              		@ frame_needed = 0, uses_anonymous_args = 0
 4389              		.loc 1 1476 1 is_stmt 0 view .LVU1523
 4390 0000 10B5     		push	{r4, lr}
 4391              		.cfi_def_cfa_offset 8
 4392              		.cfi_offset 4, -8
 4393              		.cfi_offset 14, -4
 4394 0002 82B0     		sub	sp, sp, #8
 4395              		.cfi_def_cfa_offset 16
 4396 0004 1446     		mov	r4, r2
1477:Core/Src/vl53l0x_api_core.c **** 	VL53L0X_Error Status = VL53L0X_ERROR_NONE;
 4397              		.loc 1 1477 2 is_stmt 1 view .LVU1524
 4398              	.LVL692:
1478:Core/Src/vl53l0x_api_core.c **** 	FixPoint1616_t totalXtalkMegaCps;
 4399              		.loc 1 1478 2 view .LVU1525
1479:Core/Src/vl53l0x_api_core.c **** 
1480:Core/Src/vl53l0x_api_core.c **** 	LOG_FUNCTION_START("");
 4400              		.loc 1 1480 2 view .LVU1526
1481:Core/Src/vl53l0x_api_core.c **** 
1482:Core/Src/vl53l0x_api_core.c **** 	*ptotal_signal_rate_mcps =
 4401              		.loc 1 1482 2 view .LVU1527
1483:Core/Src/vl53l0x_api_core.c **** 		pRangingMeasurementData->SignalRateRtnMegaCps;
 4402              		.loc 1 1483 26 is_stmt 0 view .LVU1528
 4403 0006 CB68     		ldr	r3, [r1, #12]
1482:Core/Src/vl53l0x_api_core.c **** 		pRangingMeasurementData->SignalRateRtnMegaCps;
 4404              		.loc 1 1482 27 view .LVU1529
 4405 0008 1360     		str	r3, [r2]
1484:Core/Src/vl53l0x_api_core.c **** 
1485:Core/Src/vl53l0x_api_core.c **** 	Status = VL53L0X_get_total_xtalk_rate(
 4406              		.loc 1 1485 2 is_stmt 1 view .LVU1530
 4407              		.loc 1 1485 11 is_stmt 0 view .LVU1531
 4408 000a 01AA     		add	r2, sp, #4
 4409              	.LVL693:
 4410              		.loc 1 1485 11 view .LVU1532
 4411 000c FFF7FEFF 		bl	VL53L0X_get_total_xtalk_rate
 4412              	.LVL694:
1486:Core/Src/vl53l0x_api_core.c **** 		Dev, pRangingMeasurementData, &totalXtalkMegaCps);
1487:Core/Src/vl53l0x_api_core.c **** 
1488:Core/Src/vl53l0x_api_core.c **** 	if (Status == VL53L0X_ERROR_NONE)
 4413              		.loc 1 1488 2 is_stmt 1 view .LVU1533
 4414              		.loc 1 1488 5 is_stmt 0 view .LVU1534
 4415 0010 18B9     		cbnz	r0, .L228
1489:Core/Src/vl53l0x_api_core.c **** 		*ptotal_signal_rate_mcps += totalXtalkMegaCps;
ARM GAS  C:\Users\anmh1\AppData\Local\Temp\ccrmGbOb.s 			page 119


 4416              		.loc 1 1489 3 is_stmt 1 view .LVU1535
 4417              		.loc 1 1489 28 is_stmt 0 view .LVU1536
 4418 0012 2368     		ldr	r3, [r4]
 4419 0014 019A     		ldr	r2, [sp, #4]
 4420 0016 1344     		add	r3, r3, r2
 4421 0018 2360     		str	r3, [r4]
 4422              	.L228:
1490:Core/Src/vl53l0x_api_core.c **** 
1491:Core/Src/vl53l0x_api_core.c **** 	return Status;
 4423              		.loc 1 1491 2 is_stmt 1 view .LVU1537
1492:Core/Src/vl53l0x_api_core.c **** }
 4424              		.loc 1 1492 1 is_stmt 0 view .LVU1538
 4425 001a 02B0     		add	sp, sp, #8
 4426              		.cfi_def_cfa_offset 8
 4427              		@ sp needed
 4428 001c 10BD     		pop	{r4, pc}
 4429              		.loc 1 1492 1 view .LVU1539
 4430              		.cfi_endproc
 4431              	.LFE154:
 4433              		.section	.text.VL53L0X_calc_dmax,"ax",%progbits
 4434              		.align	1
 4435              		.global	VL53L0X_calc_dmax
 4436              		.syntax unified
 4437              		.thumb
 4438              		.thumb_func
 4439              		.fpu fpv4-sp-d16
 4441              	VL53L0X_calc_dmax:
 4442              	.LVL695:
 4443              	.LFB155:
1493:Core/Src/vl53l0x_api_core.c **** 
1494:Core/Src/vl53l0x_api_core.c **** VL53L0X_Error VL53L0X_calc_dmax(
1495:Core/Src/vl53l0x_api_core.c **** 	VL53L0X_DEV Dev,
1496:Core/Src/vl53l0x_api_core.c **** 	FixPoint1616_t totalSignalRate_mcps,
1497:Core/Src/vl53l0x_api_core.c **** 	FixPoint1616_t totalCorrSignalRate_mcps,
1498:Core/Src/vl53l0x_api_core.c **** 	FixPoint1616_t pwMult,
1499:Core/Src/vl53l0x_api_core.c **** 	uint32_t sigmaEstimateP1,
1500:Core/Src/vl53l0x_api_core.c **** 	FixPoint1616_t sigmaEstimateP2,
1501:Core/Src/vl53l0x_api_core.c **** 	uint32_t peakVcselDuration_us,
1502:Core/Src/vl53l0x_api_core.c **** 	uint32_t *pdmax_mm)
1503:Core/Src/vl53l0x_api_core.c **** {
 4444              		.loc 1 1503 1 is_stmt 1 view -0
 4445              		.cfi_startproc
 4446              		@ args = 16, pretend = 0, frame = 0
 4447              		@ frame_needed = 0, uses_anonymous_args = 0
 4448              		.loc 1 1503 1 is_stmt 0 view .LVU1541
 4449 0000 2DE9F041 		push	{r4, r5, r6, r7, r8, lr}
 4450              		.cfi_def_cfa_offset 24
 4451              		.cfi_offset 4, -24
 4452              		.cfi_offset 5, -20
 4453              		.cfi_offset 6, -16
 4454              		.cfi_offset 7, -12
 4455              		.cfi_offset 8, -8
 4456              		.cfi_offset 14, -4
 4457 0004 8646     		mov	lr, r0
 4458 0006 8C46     		mov	ip, r1
 4459 0008 079D     		ldr	r5, [sp, #28]
 4460 000a 0899     		ldr	r1, [sp, #32]
ARM GAS  C:\Users\anmh1\AppData\Local\Temp\ccrmGbOb.s 			page 120


 4461              	.LVL696:
 4462              		.loc 1 1503 1 view .LVU1542
 4463 000c 099F     		ldr	r7, [sp, #36]
1504:Core/Src/vl53l0x_api_core.c **** 	const uint32_t cSigmaLimit		= 18;
 4464              		.loc 1 1504 2 is_stmt 1 view .LVU1543
 4465              	.LVL697:
1505:Core/Src/vl53l0x_api_core.c **** 	const FixPoint1616_t cSignalLimit	= 0x4000; /* 0.25 */
 4466              		.loc 1 1505 2 view .LVU1544
1506:Core/Src/vl53l0x_api_core.c **** 	const FixPoint1616_t cSigmaEstRef	= 0x00000042; /* 0.001 */
 4467              		.loc 1 1506 2 view .LVU1545
1507:Core/Src/vl53l0x_api_core.c **** 	const uint32_t cAmbEffWidthSigmaEst_ns = 6;
 4468              		.loc 1 1507 2 view .LVU1546
1508:Core/Src/vl53l0x_api_core.c **** 	const uint32_t cAmbEffWidthDMax_ns	   = 7;
 4469              		.loc 1 1508 2 view .LVU1547
1509:Core/Src/vl53l0x_api_core.c **** 	uint32_t dmaxCalRange_mm;
 4470              		.loc 1 1509 2 view .LVU1548
1510:Core/Src/vl53l0x_api_core.c **** 	FixPoint1616_t dmaxCalSignalRateRtn_mcps;
 4471              		.loc 1 1510 2 view .LVU1549
1511:Core/Src/vl53l0x_api_core.c **** 	FixPoint1616_t minSignalNeeded;
 4472              		.loc 1 1511 2 view .LVU1550
1512:Core/Src/vl53l0x_api_core.c **** 	FixPoint1616_t minSignalNeeded_p1;
 4473              		.loc 1 1512 2 view .LVU1551
1513:Core/Src/vl53l0x_api_core.c **** 	FixPoint1616_t minSignalNeeded_p2;
 4474              		.loc 1 1513 2 view .LVU1552
1514:Core/Src/vl53l0x_api_core.c **** 	FixPoint1616_t minSignalNeeded_p3;
 4475              		.loc 1 1514 2 view .LVU1553
1515:Core/Src/vl53l0x_api_core.c **** 	FixPoint1616_t minSignalNeeded_p4;
 4476              		.loc 1 1515 2 view .LVU1554
1516:Core/Src/vl53l0x_api_core.c **** 	FixPoint1616_t sigmaLimitTmp;
 4477              		.loc 1 1516 2 view .LVU1555
1517:Core/Src/vl53l0x_api_core.c **** 	FixPoint1616_t sigmaEstSqTmp;
 4478              		.loc 1 1517 2 view .LVU1556
1518:Core/Src/vl53l0x_api_core.c **** 	FixPoint1616_t signalLimitTmp;
 4479              		.loc 1 1518 2 view .LVU1557
1519:Core/Src/vl53l0x_api_core.c **** 	FixPoint1616_t SignalAt0mm;
 4480              		.loc 1 1519 2 view .LVU1558
1520:Core/Src/vl53l0x_api_core.c **** 	FixPoint1616_t dmaxDark;
 4481              		.loc 1 1520 2 view .LVU1559
1521:Core/Src/vl53l0x_api_core.c **** 	FixPoint1616_t dmaxAmbient;
 4482              		.loc 1 1521 2 view .LVU1560
1522:Core/Src/vl53l0x_api_core.c **** 	FixPoint1616_t dmaxDarkTmp;
 4483              		.loc 1 1522 2 view .LVU1561
1523:Core/Src/vl53l0x_api_core.c **** 	FixPoint1616_t sigmaEstP2Tmp;
 4484              		.loc 1 1523 2 view .LVU1562
1524:Core/Src/vl53l0x_api_core.c **** 	uint32_t signalRateTemp_mcps;
 4485              		.loc 1 1524 2 view .LVU1563
1525:Core/Src/vl53l0x_api_core.c **** 
1526:Core/Src/vl53l0x_api_core.c **** 	VL53L0X_Error Status = VL53L0X_ERROR_NONE;
 4486              		.loc 1 1526 2 view .LVU1564
1527:Core/Src/vl53l0x_api_core.c **** 
1528:Core/Src/vl53l0x_api_core.c **** 	LOG_FUNCTION_START("");
 4487              		.loc 1 1528 2 view .LVU1565
1529:Core/Src/vl53l0x_api_core.c **** 
1530:Core/Src/vl53l0x_api_core.c **** 	dmaxCalRange_mm =
 4488              		.loc 1 1530 2 view .LVU1566
1531:Core/Src/vl53l0x_api_core.c **** 		PALDevDataGet(Dev, DmaxCalRangeMilliMeter);
 4489              		.loc 1 1531 3 is_stmt 0 view .LVU1567
ARM GAS  C:\Users\anmh1\AppData\Local\Temp\ccrmGbOb.s 			page 121


 4490 000e B0F85401 		ldrh	r0, [r0, #340]
 4491              	.LVL698:
1532:Core/Src/vl53l0x_api_core.c **** 
1533:Core/Src/vl53l0x_api_core.c **** 	dmaxCalSignalRateRtn_mcps =
 4492              		.loc 1 1533 2 is_stmt 1 view .LVU1568
 4493              		.loc 1 1533 28 is_stmt 0 view .LVU1569
 4494 0012 DEF85861 		ldr	r6, [lr, #344]
 4495              	.LVL699:
1534:Core/Src/vl53l0x_api_core.c **** 		PALDevDataGet(Dev, DmaxCalSignalRateRtnMegaCps);
1535:Core/Src/vl53l0x_api_core.c **** 
1536:Core/Src/vl53l0x_api_core.c **** 	/* uint32 * FixPoint1616 = FixPoint1616 */
1537:Core/Src/vl53l0x_api_core.c **** 	SignalAt0mm = dmaxCalRange_mm * dmaxCalSignalRateRtn_mcps;
 4496              		.loc 1 1537 2 is_stmt 1 view .LVU1570
 4497              		.loc 1 1537 14 is_stmt 0 view .LVU1571
 4498 0016 06FB00F6 		mul	r6, r6, r0
 4499              	.LVL700:
1538:Core/Src/vl53l0x_api_core.c **** 
1539:Core/Src/vl53l0x_api_core.c **** 	/* FixPoint1616 >> 8 = FixPoint2408 */
1540:Core/Src/vl53l0x_api_core.c **** 	SignalAt0mm = (SignalAt0mm + 0x80) >> 8;
 4500              		.loc 1 1540 2 is_stmt 1 view .LVU1572
 4501              		.loc 1 1540 29 is_stmt 0 view .LVU1573
 4502 001a 8036     		adds	r6, r6, #128
 4503              	.LVL701:
 4504              		.loc 1 1540 14 view .LVU1574
 4505 001c 360A     		lsrs	r6, r6, #8
 4506              	.LVL702:
1541:Core/Src/vl53l0x_api_core.c **** 	SignalAt0mm *= dmaxCalRange_mm;
 4507              		.loc 1 1541 2 is_stmt 1 view .LVU1575
 4508              		.loc 1 1541 14 is_stmt 0 view .LVU1576
 4509 001e 06FB00F6 		mul	r6, r6, r0
 4510              	.LVL703:
1542:Core/Src/vl53l0x_api_core.c **** 
1543:Core/Src/vl53l0x_api_core.c **** 	minSignalNeeded_p1 = 0;
 4511              		.loc 1 1543 2 is_stmt 1 view .LVU1577
1544:Core/Src/vl53l0x_api_core.c **** 	if (totalCorrSignalRate_mcps > 0) {
 4512              		.loc 1 1544 2 view .LVU1578
 4513              		.loc 1 1544 5 is_stmt 0 view .LVU1579
 4514 0022 1046     		mov	r0, r2
 4515              	.LVL704:
 4516              		.loc 1 1544 5 view .LVU1580
 4517 0024 5AB1     		cbz	r2, .L231
1545:Core/Src/vl53l0x_api_core.c **** 
1546:Core/Src/vl53l0x_api_core.c **** 		/* Shift by 10 bits to increase resolution prior to the
1547:Core/Src/vl53l0x_api_core.c **** 		 * division */
1548:Core/Src/vl53l0x_api_core.c **** 		signalRateTemp_mcps = totalSignalRate_mcps << 10;
 4518              		.loc 1 1548 3 is_stmt 1 view .LVU1581
 4519              	.LVL705:
1549:Core/Src/vl53l0x_api_core.c **** 
1550:Core/Src/vl53l0x_api_core.c **** 		/* Add rounding value prior to division */
1551:Core/Src/vl53l0x_api_core.c **** 		minSignalNeeded_p1 = signalRateTemp_mcps +
 4520              		.loc 1 1551 3 view .LVU1582
1552:Core/Src/vl53l0x_api_core.c **** 			(totalCorrSignalRate_mcps/2);
 4521              		.loc 1 1552 29 is_stmt 0 view .LVU1583
 4522 0026 5408     		lsrs	r4, r2, #1
1551:Core/Src/vl53l0x_api_core.c **** 			(totalCorrSignalRate_mcps/2);
 4523              		.loc 1 1551 22 view .LVU1584
 4524 0028 04EB8C24 		add	r4, r4, ip, lsl #10
ARM GAS  C:\Users\anmh1\AppData\Local\Temp\ccrmGbOb.s 			page 122


 4525              	.LVL706:
1553:Core/Src/vl53l0x_api_core.c **** 
1554:Core/Src/vl53l0x_api_core.c **** 		/* FixPoint0626/FixPoint1616 = FixPoint2210 */
1555:Core/Src/vl53l0x_api_core.c **** 		minSignalNeeded_p1 /= totalCorrSignalRate_mcps;
 4526              		.loc 1 1555 3 is_stmt 1 view .LVU1585
 4527              		.loc 1 1555 22 is_stmt 0 view .LVU1586
 4528 002c B4FBF2F0 		udiv	r0, r4, r2
 4529              	.LVL707:
1556:Core/Src/vl53l0x_api_core.c **** 
1557:Core/Src/vl53l0x_api_core.c **** 		/* Apply a factored version of the speed of light.
1558:Core/Src/vl53l0x_api_core.c **** 		 Correction to be applied at the end */
1559:Core/Src/vl53l0x_api_core.c **** 		minSignalNeeded_p1 *= 3;
 4530              		.loc 1 1559 3 is_stmt 1 view .LVU1587
 4531              		.loc 1 1559 22 is_stmt 0 view .LVU1588
 4532 0030 00EB4000 		add	r0, r0, r0, lsl #1
 4533              	.LVL708:
1560:Core/Src/vl53l0x_api_core.c **** 
1561:Core/Src/vl53l0x_api_core.c **** 		/* FixPoint2210 * FixPoint2210 = FixPoint1220 */
1562:Core/Src/vl53l0x_api_core.c **** 		minSignalNeeded_p1 *= minSignalNeeded_p1;
 4534              		.loc 1 1562 3 is_stmt 1 view .LVU1589
 4535              		.loc 1 1562 22 is_stmt 0 view .LVU1590
 4536 0034 00FB00F0 		mul	r0, r0, r0
 4537              	.LVL709:
1563:Core/Src/vl53l0x_api_core.c **** 
1564:Core/Src/vl53l0x_api_core.c **** 		/* FixPoint1220 >> 16 = FixPoint2804 */
1565:Core/Src/vl53l0x_api_core.c **** 		minSignalNeeded_p1 = (minSignalNeeded_p1 + 0x8000) >> 16;
 4538              		.loc 1 1565 3 is_stmt 1 view .LVU1591
 4539              		.loc 1 1565 44 is_stmt 0 view .LVU1592
 4540 0038 00F50040 		add	r0, r0, #32768
 4541              	.LVL710:
 4542              		.loc 1 1565 22 view .LVU1593
 4543 003c 000C     		lsrs	r0, r0, #16
 4544              	.LVL711:
 4545              	.L231:
1566:Core/Src/vl53l0x_api_core.c **** 	}
1567:Core/Src/vl53l0x_api_core.c **** 
1568:Core/Src/vl53l0x_api_core.c **** 	minSignalNeeded_p2 = pwMult * sigmaEstimateP1;
 4546              		.loc 1 1568 2 is_stmt 1 view .LVU1594
 4547              		.loc 1 1568 21 is_stmt 0 view .LVU1595
 4548 003e 069A     		ldr	r2, [sp, #24]
 4549              	.LVL712:
 4550              		.loc 1 1568 21 view .LVU1596
 4551 0040 02FB03F4 		mul	r4, r2, r3
 4552              	.LVL713:
1569:Core/Src/vl53l0x_api_core.c **** 
1570:Core/Src/vl53l0x_api_core.c **** 	/* FixPoint1616 >> 16 =	 uint32 */
1571:Core/Src/vl53l0x_api_core.c **** 	minSignalNeeded_p2 = (minSignalNeeded_p2 + 0x8000) >> 16;
 4553              		.loc 1 1571 2 is_stmt 1 view .LVU1597
 4554              		.loc 1 1571 43 is_stmt 0 view .LVU1598
 4555 0044 04F50044 		add	r4, r4, #32768
 4556              	.LVL714:
 4557              		.loc 1 1571 21 view .LVU1599
 4558 0048 240C     		lsrs	r4, r4, #16
 4559              	.LVL715:
1572:Core/Src/vl53l0x_api_core.c **** 
1573:Core/Src/vl53l0x_api_core.c **** 	/* uint32 * uint32	=  uint32 */
1574:Core/Src/vl53l0x_api_core.c **** 	minSignalNeeded_p2 *= minSignalNeeded_p2;
ARM GAS  C:\Users\anmh1\AppData\Local\Temp\ccrmGbOb.s 			page 123


 4560              		.loc 1 1574 2 is_stmt 1 view .LVU1600
 4561              		.loc 1 1574 21 is_stmt 0 view .LVU1601
 4562 004a 04FB04F2 		mul	r2, r4, r4
 4563              	.LVL716:
1575:Core/Src/vl53l0x_api_core.c **** 
1576:Core/Src/vl53l0x_api_core.c **** 	/* Check sigmaEstimateP2
1577:Core/Src/vl53l0x_api_core.c **** 	 * If this value is too high there is not enough signal rate
1578:Core/Src/vl53l0x_api_core.c **** 	 * to calculate dmax value so set a suitable value to ensure
1579:Core/Src/vl53l0x_api_core.c **** 	 * a very small dmax.
1580:Core/Src/vl53l0x_api_core.c **** 	 */
1581:Core/Src/vl53l0x_api_core.c **** 	sigmaEstP2Tmp = (sigmaEstimateP2 + 0x8000) >> 16;
 4564              		.loc 1 1581 2 is_stmt 1 view .LVU1602
 4565              		.loc 1 1581 35 is_stmt 0 view .LVU1603
 4566 004e 05F50043 		add	r3, r5, #32768
 4567              	.LVL717:
 4568              		.loc 1 1581 16 view .LVU1604
 4569 0052 1B0C     		lsrs	r3, r3, #16
 4570              	.LVL718:
1582:Core/Src/vl53l0x_api_core.c **** 	sigmaEstP2Tmp = (sigmaEstP2Tmp + cAmbEffWidthSigmaEst_ns/2)/
 4571              		.loc 1 1582 2 is_stmt 1 view .LVU1605
 4572              		.loc 1 1582 33 is_stmt 0 view .LVU1606
 4573 0054 0333     		adds	r3, r3, #3
 4574              	.LVL719:
 4575              		.loc 1 1582 16 view .LVU1607
 4576 0056 264C     		ldr	r4, .L238
 4577 0058 A4FB0343 		umull	r4, r3, r4, r3
 4578              	.LVL720:
 4579              		.loc 1 1582 16 view .LVU1608
 4580 005c 9B08     		lsrs	r3, r3, #2
 4581              	.LVL721:
1583:Core/Src/vl53l0x_api_core.c **** 		cAmbEffWidthSigmaEst_ns;
1584:Core/Src/vl53l0x_api_core.c **** 	sigmaEstP2Tmp *= cAmbEffWidthDMax_ns;
 4582              		.loc 1 1584 2 is_stmt 1 view .LVU1609
 4583              		.loc 1 1584 16 is_stmt 0 view .LVU1610
 4584 005e C3EBC303 		rsb	r3, r3, r3, lsl #3
 4585              	.LVL722:
1585:Core/Src/vl53l0x_api_core.c **** 
1586:Core/Src/vl53l0x_api_core.c **** 	if (sigmaEstP2Tmp > 0xffff) {
 4586              		.loc 1 1586 2 is_stmt 1 view .LVU1611
 4587              		.loc 1 1586 5 is_stmt 0 view .LVU1612
 4588 0062 B3F5803F 		cmp	r3, #65536
 4589 0066 3FD2     		bcs	.L235
1587:Core/Src/vl53l0x_api_core.c **** 		minSignalNeeded_p3 = 0xfff00000;
1588:Core/Src/vl53l0x_api_core.c **** 	} else {
1589:Core/Src/vl53l0x_api_core.c **** 
1590:Core/Src/vl53l0x_api_core.c **** 		/* DMAX uses a different ambient width from sigma, so apply
1591:Core/Src/vl53l0x_api_core.c **** 		 * correction.
1592:Core/Src/vl53l0x_api_core.c **** 		 * Perform division before multiplication to prevent overflow.
1593:Core/Src/vl53l0x_api_core.c **** 		 */
1594:Core/Src/vl53l0x_api_core.c **** 		sigmaEstimateP2 = (sigmaEstimateP2 + cAmbEffWidthSigmaEst_ns/2)/
 4590              		.loc 1 1594 3 is_stmt 1 view .LVU1613
 4591              		.loc 1 1594 38 is_stmt 0 view .LVU1614
 4592 0068 0335     		adds	r5, r5, #3
 4593              		.loc 1 1594 19 view .LVU1615
 4594 006a 214C     		ldr	r4, .L238
 4595 006c A4FB0535 		umull	r3, r5, r4, r5
 4596              	.LVL723:
ARM GAS  C:\Users\anmh1\AppData\Local\Temp\ccrmGbOb.s 			page 124


 4597              		.loc 1 1594 19 view .LVU1616
 4598 0070 AD08     		lsrs	r5, r5, #2
 4599              	.LVL724:
1595:Core/Src/vl53l0x_api_core.c **** 			cAmbEffWidthSigmaEst_ns;
1596:Core/Src/vl53l0x_api_core.c **** 		sigmaEstimateP2 *= cAmbEffWidthDMax_ns;
 4600              		.loc 1 1596 3 is_stmt 1 view .LVU1617
 4601              		.loc 1 1596 19 is_stmt 0 view .LVU1618
 4602 0072 C5EBC505 		rsb	r5, r5, r5, lsl #3
 4603              	.LVL725:
1597:Core/Src/vl53l0x_api_core.c **** 
1598:Core/Src/vl53l0x_api_core.c **** 		/* FixPoint1616 >> 16 = uint32 */
1599:Core/Src/vl53l0x_api_core.c **** 		minSignalNeeded_p3 = (sigmaEstimateP2 + 0x8000) >> 16;
 4604              		.loc 1 1599 3 is_stmt 1 view .LVU1619
 4605              		.loc 1 1599 41 is_stmt 0 view .LVU1620
 4606 0076 05F50045 		add	r5, r5, #32768
 4607              	.LVL726:
 4608              		.loc 1 1599 22 view .LVU1621
 4609 007a 2C0C     		lsrs	r4, r5, #16
 4610              	.LVL727:
1600:Core/Src/vl53l0x_api_core.c **** 
1601:Core/Src/vl53l0x_api_core.c **** 		minSignalNeeded_p3 *= minSignalNeeded_p3;
 4611              		.loc 1 1601 3 is_stmt 1 view .LVU1622
 4612              		.loc 1 1601 22 is_stmt 0 view .LVU1623
 4613 007c 04FB04F4 		mul	r4, r4, r4
 4614              	.LVL728:
 4615              	.L232:
1602:Core/Src/vl53l0x_api_core.c **** 
1603:Core/Src/vl53l0x_api_core.c **** 	}
1604:Core/Src/vl53l0x_api_core.c **** 
1605:Core/Src/vl53l0x_api_core.c **** 	/* FixPoint1814 / uint32 = FixPoint1814 */
1606:Core/Src/vl53l0x_api_core.c **** 	sigmaLimitTmp = ((cSigmaLimit << 14) + 500) / 1000;
 4616              		.loc 1 1606 2 is_stmt 1 view .LVU1624
1607:Core/Src/vl53l0x_api_core.c **** 
1608:Core/Src/vl53l0x_api_core.c **** 	/* FixPoint1814 * FixPoint1814 = FixPoint3628 := FixPoint0428 */
1609:Core/Src/vl53l0x_api_core.c **** 	sigmaLimitTmp *= sigmaLimitTmp;
 4617              		.loc 1 1609 2 view .LVU1625
1610:Core/Src/vl53l0x_api_core.c **** 
1611:Core/Src/vl53l0x_api_core.c **** 	/* FixPoint1616 * FixPoint1616 = FixPoint3232 */
1612:Core/Src/vl53l0x_api_core.c **** 	sigmaEstSqTmp = cSigmaEstRef * cSigmaEstRef;
 4618              		.loc 1 1612 2 view .LVU1626
1613:Core/Src/vl53l0x_api_core.c **** 
1614:Core/Src/vl53l0x_api_core.c **** 	/* FixPoint3232 >> 4 = FixPoint0428 */
1615:Core/Src/vl53l0x_api_core.c **** 	sigmaEstSqTmp = (sigmaEstSqTmp + 0x08) >> 4;
 4619              		.loc 1 1615 2 view .LVU1627
1616:Core/Src/vl53l0x_api_core.c **** 
1617:Core/Src/vl53l0x_api_core.c **** 	/* FixPoint0428 - FixPoint0428	= FixPoint0428 */
1618:Core/Src/vl53l0x_api_core.c **** 	sigmaLimitTmp -=  sigmaEstSqTmp;
 4620              		.loc 1 1618 2 view .LVU1628
1619:Core/Src/vl53l0x_api_core.c **** 
1620:Core/Src/vl53l0x_api_core.c **** 	/* uint32_t * FixPoint0428 = FixPoint0428 */
1621:Core/Src/vl53l0x_api_core.c **** 	minSignalNeeded_p4 = 4 * 12 * sigmaLimitTmp;
 4621              		.loc 1 1621 2 view .LVU1629
1622:Core/Src/vl53l0x_api_core.c **** 
1623:Core/Src/vl53l0x_api_core.c **** 	/* FixPoint0428 >> 14 = FixPoint1814 */
1624:Core/Src/vl53l0x_api_core.c **** 	minSignalNeeded_p4 = (minSignalNeeded_p4 + 0x2000) >> 14;
 4622              		.loc 1 1624 2 view .LVU1630
1625:Core/Src/vl53l0x_api_core.c **** 
ARM GAS  C:\Users\anmh1\AppData\Local\Temp\ccrmGbOb.s 			page 125


1626:Core/Src/vl53l0x_api_core.c **** 	/* uint32 + uint32 = uint32 */
1627:Core/Src/vl53l0x_api_core.c **** 	minSignalNeeded = (minSignalNeeded_p2 + minSignalNeeded_p3);
 4623              		.loc 1 1627 2 view .LVU1631
 4624              		.loc 1 1627 18 is_stmt 0 view .LVU1632
 4625 0080 1444     		add	r4, r4, r2
 4626              	.LVL729:
1628:Core/Src/vl53l0x_api_core.c **** 
1629:Core/Src/vl53l0x_api_core.c **** 	/* uint32 / uint32 = uint32 */
1630:Core/Src/vl53l0x_api_core.c **** 	minSignalNeeded += (peakVcselDuration_us/2);
 4627              		.loc 1 1630 2 is_stmt 1 view .LVU1633
 4628              		.loc 1 1630 18 is_stmt 0 view .LVU1634
 4629 0082 04EB5104 		add	r4, r4, r1, lsr #1
 4630              	.LVL730:
1631:Core/Src/vl53l0x_api_core.c **** 	minSignalNeeded /= peakVcselDuration_us;
 4631              		.loc 1 1631 2 is_stmt 1 view .LVU1635
 4632              		.loc 1 1631 18 is_stmt 0 view .LVU1636
 4633 0086 B4FBF1F4 		udiv	r4, r4, r1
 4634              	.LVL731:
1632:Core/Src/vl53l0x_api_core.c **** 
1633:Core/Src/vl53l0x_api_core.c **** 	/* uint32 << 14 = FixPoint1814 */
1634:Core/Src/vl53l0x_api_core.c **** 	minSignalNeeded <<= 14;
 4635              		.loc 1 1634 2 is_stmt 1 view .LVU1637
 4636              		.loc 1 1634 18 is_stmt 0 view .LVU1638
 4637 008a A403     		lsls	r4, r4, #14
 4638              	.LVL732:
1635:Core/Src/vl53l0x_api_core.c **** 
1636:Core/Src/vl53l0x_api_core.c **** 	/* FixPoint1814 / FixPoint1814 = uint32 */
1637:Core/Src/vl53l0x_api_core.c **** 	minSignalNeeded += (minSignalNeeded_p4/2);
 4639              		.loc 1 1637 2 is_stmt 1 view .LVU1639
 4640              		.loc 1 1637 18 is_stmt 0 view .LVU1640
 4641 008c 7F34     		adds	r4, r4, #127
 4642              	.LVL733:
1638:Core/Src/vl53l0x_api_core.c **** 	minSignalNeeded /= minSignalNeeded_p4;
 4643              		.loc 1 1638 2 is_stmt 1 view .LVU1641
 4644              		.loc 1 1638 18 is_stmt 0 view .LVU1642
 4645 008e 6408     		lsrs	r4, r4, #1
 4646              	.LVL734:
 4647              		.loc 1 1638 18 view .LVU1643
 4648 0090 184B     		ldr	r3, .L238+4
 4649 0092 A3FB0434 		umull	r3, r4, r3, r4
 4650 0096 A409     		lsrs	r4, r4, #6
 4651              	.LVL735:
1639:Core/Src/vl53l0x_api_core.c **** 
1640:Core/Src/vl53l0x_api_core.c **** 	/* FixPoint3200 * FixPoint2804 := FixPoint2804*/
1641:Core/Src/vl53l0x_api_core.c **** 	minSignalNeeded *= minSignalNeeded_p1;
 4652              		.loc 1 1641 2 is_stmt 1 view .LVU1644
 4653              		.loc 1 1641 18 is_stmt 0 view .LVU1645
 4654 0098 04FB00F4 		mul	r4, r4, r0
 4655              	.LVL736:
1642:Core/Src/vl53l0x_api_core.c **** 
1643:Core/Src/vl53l0x_api_core.c **** 	/* Apply correction by dividing by 1000000.
1644:Core/Src/vl53l0x_api_core.c **** 	 * This assumes 10E16 on the numerator of the equation
1645:Core/Src/vl53l0x_api_core.c **** 	 * and 10E-22 on the denominator.
1646:Core/Src/vl53l0x_api_core.c **** 	 * We do this because 32bit fix point calculation can't
1647:Core/Src/vl53l0x_api_core.c **** 	 * handle the larger and smaller elements of this equation,
1648:Core/Src/vl53l0x_api_core.c **** 	 * i.e. speed of light and pulse widths.
1649:Core/Src/vl53l0x_api_core.c **** 	 */
ARM GAS  C:\Users\anmh1\AppData\Local\Temp\ccrmGbOb.s 			page 126


1650:Core/Src/vl53l0x_api_core.c **** 	minSignalNeeded = (minSignalNeeded + 500) / 1000;
 4656              		.loc 1 1650 2 is_stmt 1 view .LVU1646
 4657              		.loc 1 1650 37 is_stmt 0 view .LVU1647
 4658 009c 04F5FA74 		add	r4, r4, #500
 4659              	.LVL737:
 4660              		.loc 1 1650 18 view .LVU1648
 4661 00a0 1548     		ldr	r0, .L238+8
 4662              	.LVL738:
 4663              		.loc 1 1650 18 view .LVU1649
 4664 00a2 A0FB0434 		umull	r3, r4, r0, r4
 4665              	.LVL739:
 4666              		.loc 1 1650 18 view .LVU1650
 4667 00a6 A409     		lsrs	r4, r4, #6
 4668              	.LVL740:
1651:Core/Src/vl53l0x_api_core.c **** 	minSignalNeeded <<= 4;
 4669              		.loc 1 1651 2 is_stmt 1 view .LVU1651
 4670              		.loc 1 1651 18 is_stmt 0 view .LVU1652
 4671 00a8 2401     		lsls	r4, r4, #4
 4672              	.LVL741:
1652:Core/Src/vl53l0x_api_core.c **** 
1653:Core/Src/vl53l0x_api_core.c **** 	minSignalNeeded = (minSignalNeeded + 500) / 1000;
 4673              		.loc 1 1653 2 is_stmt 1 view .LVU1653
 4674              		.loc 1 1653 37 is_stmt 0 view .LVU1654
 4675 00aa 04F5FA74 		add	r4, r4, #500
 4676              	.LVL742:
 4677              		.loc 1 1653 18 view .LVU1655
 4678 00ae A0FB0430 		umull	r3, r0, r0, r4
 4679 00b2 8509     		lsrs	r5, r0, #6
 4680              	.LVL743:
1654:Core/Src/vl53l0x_api_core.c **** 
1655:Core/Src/vl53l0x_api_core.c **** 	/* FixPoint1616 >> 8 = FixPoint2408 */
1656:Core/Src/vl53l0x_api_core.c **** 	signalLimitTmp = (cSignalLimit + 0x80) >> 8;
 4681              		.loc 1 1656 2 is_stmt 1 view .LVU1656
1657:Core/Src/vl53l0x_api_core.c **** 
1658:Core/Src/vl53l0x_api_core.c **** 	/* FixPoint2408/FixPoint2408 = uint32 */
1659:Core/Src/vl53l0x_api_core.c **** 	if (signalLimitTmp != 0)
 4682              		.loc 1 1659 2 view .LVU1657
1660:Core/Src/vl53l0x_api_core.c **** 		dmaxDarkTmp = (SignalAt0mm + (signalLimitTmp / 2))
 4683              		.loc 1 1660 3 view .LVU1658
 4684              		.loc 1 1660 30 is_stmt 0 view .LVU1659
 4685 00b4 06F12000 		add	r0, r6, #32
 4686              	.LVL744:
1661:Core/Src/vl53l0x_api_core.c **** 			/ signalLimitTmp;
1662:Core/Src/vl53l0x_api_core.c **** 	else
1663:Core/Src/vl53l0x_api_core.c **** 		dmaxDarkTmp = 0;
1664:Core/Src/vl53l0x_api_core.c **** 
1665:Core/Src/vl53l0x_api_core.c **** 	dmaxDark = VL53L0X_isqrt(dmaxDarkTmp);
 4687              		.loc 1 1665 2 is_stmt 1 view .LVU1660
 4688              		.loc 1 1665 13 is_stmt 0 view .LVU1661
 4689 00b8 8009     		lsrs	r0, r0, #6
 4690              	.LVL745:
 4691              		.loc 1 1665 13 view .LVU1662
 4692 00ba FFF7FEFF 		bl	VL53L0X_isqrt
 4693              	.LVL746:
 4694              		.loc 1 1665 13 view .LVU1663
 4695 00be 8046     		mov	r8, r0
 4696              	.LVL747:
ARM GAS  C:\Users\anmh1\AppData\Local\Temp\ccrmGbOb.s 			page 127


1666:Core/Src/vl53l0x_api_core.c **** 
1667:Core/Src/vl53l0x_api_core.c **** 	/* FixPoint2408/FixPoint2408 = uint32 */
1668:Core/Src/vl53l0x_api_core.c **** 	if (minSignalNeeded != 0)
 4697              		.loc 1 1668 2 is_stmt 1 view .LVU1664
 4698              		.loc 1 1668 5 is_stmt 0 view .LVU1665
 4699 00c0 B4F57A7F 		cmp	r4, #1000
 4700 00c4 12D3     		bcc	.L236
1669:Core/Src/vl53l0x_api_core.c **** 		dmaxAmbient = (SignalAt0mm + minSignalNeeded/2)
 4701              		.loc 1 1669 3 is_stmt 1 view .LVU1666
 4702              		.loc 1 1669 47 is_stmt 0 view .LVU1667
 4703 00c6 0C48     		ldr	r0, .L238+8
 4704              	.LVL748:
 4705              		.loc 1 1669 47 view .LVU1668
 4706 00c8 A0FB0430 		umull	r3, r0, r0, r4
 4707              		.loc 1 1669 30 view .LVU1669
 4708 00cc 06EBD016 		add	r6, r6, r0, lsr #7
 4709              	.LVL749:
 4710              		.loc 1 1669 15 view .LVU1670
 4711 00d0 B6FBF5F0 		udiv	r0, r6, r5
 4712              	.LVL750:
 4713              	.L233:
1670:Core/Src/vl53l0x_api_core.c **** 			/ minSignalNeeded;
1671:Core/Src/vl53l0x_api_core.c **** 	else
1672:Core/Src/vl53l0x_api_core.c **** 		dmaxAmbient = 0;
1673:Core/Src/vl53l0x_api_core.c **** 
1674:Core/Src/vl53l0x_api_core.c **** 	dmaxAmbient = VL53L0X_isqrt(dmaxAmbient);
 4714              		.loc 1 1674 2 is_stmt 1 view .LVU1671
 4715              		.loc 1 1674 16 is_stmt 0 view .LVU1672
 4716 00d4 FFF7FEFF 		bl	VL53L0X_isqrt
 4717              	.LVL751:
1675:Core/Src/vl53l0x_api_core.c **** 
1676:Core/Src/vl53l0x_api_core.c **** 	*pdmax_mm = dmaxDark;
 4718              		.loc 1 1676 2 is_stmt 1 view .LVU1673
 4719              		.loc 1 1676 12 is_stmt 0 view .LVU1674
 4720 00d8 C7F80080 		str	r8, [r7]
1677:Core/Src/vl53l0x_api_core.c **** 	if (dmaxDark > dmaxAmbient)
 4721              		.loc 1 1677 2 is_stmt 1 view .LVU1675
 4722              		.loc 1 1677 5 is_stmt 0 view .LVU1676
 4723 00dc 8045     		cmp	r8, r0
 4724 00de 00D9     		bls	.L234
1678:Core/Src/vl53l0x_api_core.c **** 		*pdmax_mm = dmaxAmbient;
 4725              		.loc 1 1678 3 is_stmt 1 view .LVU1677
 4726              		.loc 1 1678 13 is_stmt 0 view .LVU1678
 4727 00e0 3860     		str	r0, [r7]
 4728              	.L234:
1679:Core/Src/vl53l0x_api_core.c **** 
1680:Core/Src/vl53l0x_api_core.c **** 	LOG_FUNCTION_END(Status);
 4729              		.loc 1 1680 2 is_stmt 1 view .LVU1679
1681:Core/Src/vl53l0x_api_core.c **** 
1682:Core/Src/vl53l0x_api_core.c **** 	return Status;
 4730              		.loc 1 1682 2 view .LVU1680
1683:Core/Src/vl53l0x_api_core.c **** }
 4731              		.loc 1 1683 1 is_stmt 0 view .LVU1681
 4732 00e2 0020     		movs	r0, #0
 4733              	.LVL752:
 4734              		.loc 1 1683 1 view .LVU1682
 4735 00e4 BDE8F081 		pop	{r4, r5, r6, r7, r8, pc}
ARM GAS  C:\Users\anmh1\AppData\Local\Temp\ccrmGbOb.s 			page 128


 4736              	.LVL753:
 4737              	.L235:
1587:Core/Src/vl53l0x_api_core.c **** 	} else {
 4738              		.loc 1 1587 22 view .LVU1683
 4739 00e8 044C     		ldr	r4, .L238+12
 4740 00ea C9E7     		b	.L232
 4741              	.LVL754:
 4742              	.L236:
1672:Core/Src/vl53l0x_api_core.c **** 
 4743              		.loc 1 1672 15 view .LVU1684
 4744 00ec 0020     		movs	r0, #0
 4745              	.LVL755:
1672:Core/Src/vl53l0x_api_core.c **** 
 4746              		.loc 1 1672 15 view .LVU1685
 4747 00ee F1E7     		b	.L233
 4748              	.L239:
 4749              		.align	2
 4750              	.L238:
 4751 00f0 ABAAAAAA 		.word	-1431655765
 4752 00f4 09040281 		.word	-2130574327
 4753 00f8 D34D6210 		.word	274877907
 4754 00fc 0000F0FF 		.word	-1048576
 4755              		.cfi_endproc
 4756              	.LFE155:
 4758              		.section	.text.VL53L0X_calc_sigma_estimate,"ax",%progbits
 4759              		.align	1
 4760              		.global	VL53L0X_calc_sigma_estimate
 4761              		.syntax unified
 4762              		.thumb
 4763              		.thumb_func
 4764              		.fpu fpv4-sp-d16
 4766              	VL53L0X_calc_sigma_estimate:
 4767              	.LVL756:
 4768              	.LFB156:
1684:Core/Src/vl53l0x_api_core.c **** 
1685:Core/Src/vl53l0x_api_core.c **** 
1686:Core/Src/vl53l0x_api_core.c **** VL53L0X_Error VL53L0X_calc_sigma_estimate(VL53L0X_DEV Dev,
1687:Core/Src/vl53l0x_api_core.c **** 	VL53L0X_RangingMeasurementData_t *pRangingMeasurementData,
1688:Core/Src/vl53l0x_api_core.c **** 	FixPoint1616_t *pSigmaEstimate,
1689:Core/Src/vl53l0x_api_core.c **** 	uint32_t *pDmax_mm)
1690:Core/Src/vl53l0x_api_core.c **** {
 4769              		.loc 1 1690 1 is_stmt 1 view -0
 4770              		.cfi_startproc
 4771              		@ args = 0, pretend = 0, frame = 40
 4772              		@ frame_needed = 0, uses_anonymous_args = 0
 4773              		.loc 1 1690 1 is_stmt 0 view .LVU1687
 4774 0000 2DE9F04F 		push	{r4, r5, r6, r7, r8, r9, r10, fp, lr}
 4775              		.cfi_def_cfa_offset 36
 4776              		.cfi_offset 4, -36
 4777              		.cfi_offset 5, -32
 4778              		.cfi_offset 6, -28
 4779              		.cfi_offset 7, -24
 4780              		.cfi_offset 8, -20
 4781              		.cfi_offset 9, -16
 4782              		.cfi_offset 10, -12
 4783              		.cfi_offset 11, -8
 4784              		.cfi_offset 14, -4
ARM GAS  C:\Users\anmh1\AppData\Local\Temp\ccrmGbOb.s 			page 129


 4785 0004 8FB0     		sub	sp, sp, #60
 4786              		.cfi_def_cfa_offset 96
 4787 0006 0546     		mov	r5, r0
 4788 0008 8846     		mov	r8, r1
 4789 000a 0692     		str	r2, [sp, #24]
 4790 000c 0793     		str	r3, [sp, #28]
1691:Core/Src/vl53l0x_api_core.c **** 	/* Expressed in 100ths of a ns, i.e. centi-ns */
1692:Core/Src/vl53l0x_api_core.c **** 	const uint32_t cPulseEffectiveWidth_centi_ns   = 800;
 4791              		.loc 1 1692 2 is_stmt 1 view .LVU1688
 4792              	.LVL757:
1693:Core/Src/vl53l0x_api_core.c **** 	/* Expressed in 100ths of a ns, i.e. centi-ns */
1694:Core/Src/vl53l0x_api_core.c **** 	const uint32_t cAmbientEffectiveWidth_centi_ns = 600;
 4793              		.loc 1 1694 2 view .LVU1689
1695:Core/Src/vl53l0x_api_core.c **** 	const FixPoint1616_t cDfltFinalRangeIntegrationTimeMilliSecs	= 0x00190000; /* 25ms */
 4794              		.loc 1 1695 2 view .LVU1690
1696:Core/Src/vl53l0x_api_core.c **** 	const uint32_t cVcselPulseWidth_ps	= 4700; /* pico secs */
 4795              		.loc 1 1696 2 view .LVU1691
1697:Core/Src/vl53l0x_api_core.c **** 	const FixPoint1616_t cSigmaEstMax	= 0x028F87AE;
 4796              		.loc 1 1697 2 view .LVU1692
1698:Core/Src/vl53l0x_api_core.c **** 	const FixPoint1616_t cSigmaEstRtnMax	= 0xF000;
 4797              		.loc 1 1698 2 view .LVU1693
1699:Core/Src/vl53l0x_api_core.c **** 	const FixPoint1616_t cAmbToSignalRatioMax = 0xF0000000/
 4798              		.loc 1 1699 2 view .LVU1694
1700:Core/Src/vl53l0x_api_core.c **** 		cAmbientEffectiveWidth_centi_ns;
1701:Core/Src/vl53l0x_api_core.c **** 	/* Time Of Flight per mm (6.6 pico secs) */
1702:Core/Src/vl53l0x_api_core.c **** 	const FixPoint1616_t cTOF_per_mm_ps		= 0x0006999A;
 4799              		.loc 1 1702 2 view .LVU1695
1703:Core/Src/vl53l0x_api_core.c **** 	const uint32_t c16BitRoundingParam		= 0x00008000;
 4800              		.loc 1 1703 2 view .LVU1696
1704:Core/Src/vl53l0x_api_core.c **** 	const FixPoint1616_t cMaxXTalk_kcps		= 0x00320000;
 4801              		.loc 1 1704 2 view .LVU1697
1705:Core/Src/vl53l0x_api_core.c **** 	const uint32_t cPllPeriod_ps			= 1655;
 4802              		.loc 1 1705 2 view .LVU1698
1706:Core/Src/vl53l0x_api_core.c **** 
1707:Core/Src/vl53l0x_api_core.c **** 	uint32_t vcselTotalEventsRtn;
 4803              		.loc 1 1707 2 view .LVU1699
1708:Core/Src/vl53l0x_api_core.c **** 	uint32_t finalRangeTimeoutMicroSecs;
 4804              		.loc 1 1708 2 view .LVU1700
1709:Core/Src/vl53l0x_api_core.c **** 	uint32_t preRangeTimeoutMicroSecs;
 4805              		.loc 1 1709 2 view .LVU1701
1710:Core/Src/vl53l0x_api_core.c **** 	uint32_t finalRangeIntegrationTimeMilliSecs;
 4806              		.loc 1 1710 2 view .LVU1702
1711:Core/Src/vl53l0x_api_core.c **** 	FixPoint1616_t sigmaEstimateP1;
 4807              		.loc 1 1711 2 view .LVU1703
1712:Core/Src/vl53l0x_api_core.c **** 	FixPoint1616_t sigmaEstimateP2;
 4808              		.loc 1 1712 2 view .LVU1704
1713:Core/Src/vl53l0x_api_core.c **** 	FixPoint1616_t sigmaEstimateP3;
 4809              		.loc 1 1713 2 view .LVU1705
1714:Core/Src/vl53l0x_api_core.c **** 	FixPoint1616_t deltaT_ps;
 4810              		.loc 1 1714 2 view .LVU1706
1715:Core/Src/vl53l0x_api_core.c **** 	FixPoint1616_t pwMult;
 4811              		.loc 1 1715 2 view .LVU1707
1716:Core/Src/vl53l0x_api_core.c **** 	FixPoint1616_t sigmaEstRtn;
 4812              		.loc 1 1716 2 view .LVU1708
1717:Core/Src/vl53l0x_api_core.c **** 	FixPoint1616_t sigmaEstimate;
 4813              		.loc 1 1717 2 view .LVU1709
1718:Core/Src/vl53l0x_api_core.c **** 	FixPoint1616_t xTalkCorrection;
ARM GAS  C:\Users\anmh1\AppData\Local\Temp\ccrmGbOb.s 			page 130


 4814              		.loc 1 1718 2 view .LVU1710
1719:Core/Src/vl53l0x_api_core.c **** 	FixPoint1616_t ambientRate_kcps;
 4815              		.loc 1 1719 2 view .LVU1711
1720:Core/Src/vl53l0x_api_core.c **** 	FixPoint1616_t peakSignalRate_kcps;
 4816              		.loc 1 1720 2 view .LVU1712
1721:Core/Src/vl53l0x_api_core.c **** 	FixPoint1616_t xTalkCompRate_mcps;
 4817              		.loc 1 1721 2 view .LVU1713
1722:Core/Src/vl53l0x_api_core.c **** 	uint32_t xTalkCompRate_kcps;
 4818              		.loc 1 1722 2 view .LVU1714
1723:Core/Src/vl53l0x_api_core.c **** 	VL53L0X_Error Status = VL53L0X_ERROR_NONE;
 4819              		.loc 1 1723 2 view .LVU1715
1724:Core/Src/vl53l0x_api_core.c **** 	FixPoint1616_t diff1_mcps;
 4820              		.loc 1 1724 2 view .LVU1716
1725:Core/Src/vl53l0x_api_core.c **** 	FixPoint1616_t diff2_mcps;
 4821              		.loc 1 1725 2 view .LVU1717
1726:Core/Src/vl53l0x_api_core.c **** 	FixPoint1616_t sqr1;
 4822              		.loc 1 1726 2 view .LVU1718
1727:Core/Src/vl53l0x_api_core.c **** 	FixPoint1616_t sqr2;
 4823              		.loc 1 1727 2 view .LVU1719
1728:Core/Src/vl53l0x_api_core.c **** 	FixPoint1616_t sqrSum;
 4824              		.loc 1 1728 2 view .LVU1720
1729:Core/Src/vl53l0x_api_core.c **** 	FixPoint1616_t sqrtResult_centi_ns;
 4825              		.loc 1 1729 2 view .LVU1721
1730:Core/Src/vl53l0x_api_core.c **** 	FixPoint1616_t sqrtResult;
 4826              		.loc 1 1730 2 view .LVU1722
1731:Core/Src/vl53l0x_api_core.c **** 	FixPoint1616_t totalSignalRate_mcps;
 4827              		.loc 1 1731 2 view .LVU1723
1732:Core/Src/vl53l0x_api_core.c **** 	FixPoint1616_t correctedSignalRate_mcps;
 4828              		.loc 1 1732 2 view .LVU1724
1733:Core/Src/vl53l0x_api_core.c **** 	FixPoint1616_t sigmaEstRef;
 4829              		.loc 1 1733 2 view .LVU1725
1734:Core/Src/vl53l0x_api_core.c **** 	uint32_t vcselWidth;
 4830              		.loc 1 1734 2 view .LVU1726
1735:Core/Src/vl53l0x_api_core.c **** 	uint32_t finalRangeMacroPCLKS;
 4831              		.loc 1 1735 2 view .LVU1727
1736:Core/Src/vl53l0x_api_core.c **** 	uint32_t preRangeMacroPCLKS;
 4832              		.loc 1 1736 2 view .LVU1728
1737:Core/Src/vl53l0x_api_core.c **** 	uint32_t peakVcselDuration_us;
 4833              		.loc 1 1737 2 view .LVU1729
1738:Core/Src/vl53l0x_api_core.c **** 	uint8_t finalRangeVcselPCLKS;
 4834              		.loc 1 1738 2 view .LVU1730
1739:Core/Src/vl53l0x_api_core.c **** 	uint8_t preRangeVcselPCLKS;
 4835              		.loc 1 1739 2 view .LVU1731
1740:Core/Src/vl53l0x_api_core.c **** 	/*! \addtogroup calc_sigma_estimate
1741:Core/Src/vl53l0x_api_core.c **** 	 * @{
1742:Core/Src/vl53l0x_api_core.c **** 	 *
1743:Core/Src/vl53l0x_api_core.c **** 	 * Estimates the range sigma
1744:Core/Src/vl53l0x_api_core.c **** 	 */
1745:Core/Src/vl53l0x_api_core.c **** 
1746:Core/Src/vl53l0x_api_core.c **** 	LOG_FUNCTION_START("");
 4836              		.loc 1 1746 2 view .LVU1732
1747:Core/Src/vl53l0x_api_core.c **** 
1748:Core/Src/vl53l0x_api_core.c **** 	VL53L0X_GETPARAMETERFIELD(Dev, XTalkCompensationRateMegaCps,
 4837              		.loc 1 1748 2 view .LVU1733
 4838 000e 036A     		ldr	r3, [r0, #32]
 4839              	.LVL758:
 4840              		.loc 1 1748 2 is_stmt 0 view .LVU1734
ARM GAS  C:\Users\anmh1\AppData\Local\Temp\ccrmGbOb.s 			page 131


 4841 0010 0D93     		str	r3, [sp, #52]
1749:Core/Src/vl53l0x_api_core.c **** 			xTalkCompRate_mcps);
1750:Core/Src/vl53l0x_api_core.c **** 
1751:Core/Src/vl53l0x_api_core.c **** 	/*
1752:Core/Src/vl53l0x_api_core.c **** 	 * We work in kcps rather than mcps as this helps keep within the
1753:Core/Src/vl53l0x_api_core.c **** 	 * confines of the 32 Fix1616 type.
1754:Core/Src/vl53l0x_api_core.c **** 	 */
1755:Core/Src/vl53l0x_api_core.c **** 
1756:Core/Src/vl53l0x_api_core.c **** 	ambientRate_kcps =
 4842              		.loc 1 1756 2 is_stmt 1 view .LVU1735
1757:Core/Src/vl53l0x_api_core.c **** 		(pRangingMeasurementData->AmbientRateRtnMegaCps * 1000) >> 16;
 4843              		.loc 1 1757 27 is_stmt 0 view .LVU1736
 4844 0012 0B69     		ldr	r3, [r1, #16]
 4845              		.loc 1 1757 51 view .LVU1737
 4846 0014 4FF47A74 		mov	r4, #1000
 4847 0018 04FB03F3 		mul	r3, r4, r3
 4848 001c 0893     		str	r3, [sp, #32]
 4849              	.LVL759:
1758:Core/Src/vl53l0x_api_core.c **** 
1759:Core/Src/vl53l0x_api_core.c **** 	correctedSignalRate_mcps =
 4850              		.loc 1 1759 2 is_stmt 1 view .LVU1738
 4851              		.loc 1 1759 27 is_stmt 0 view .LVU1739
 4852 001e CB68     		ldr	r3, [r1, #12]
 4853              	.LVL760:
 4854              		.loc 1 1759 27 view .LVU1740
 4855 0020 0993     		str	r3, [sp, #36]
 4856              	.LVL761:
1760:Core/Src/vl53l0x_api_core.c **** 		pRangingMeasurementData->SignalRateRtnMegaCps;
1761:Core/Src/vl53l0x_api_core.c **** 
1762:Core/Src/vl53l0x_api_core.c **** 
1763:Core/Src/vl53l0x_api_core.c **** 	Status = VL53L0X_get_total_signal_rate(
 4857              		.loc 1 1763 2 is_stmt 1 view .LVU1741
 4858              		.loc 1 1763 11 is_stmt 0 view .LVU1742
 4859 0022 0CAA     		add	r2, sp, #48
 4860              	.LVL762:
 4861              		.loc 1 1763 11 view .LVU1743
 4862 0024 FFF7FEFF 		bl	VL53L0X_get_total_signal_rate
 4863              	.LVL763:
1764:Core/Src/vl53l0x_api_core.c **** 		Dev, pRangingMeasurementData, &totalSignalRate_mcps);
1765:Core/Src/vl53l0x_api_core.c **** 	Status = VL53L0X_get_total_xtalk_rate(
 4864              		.loc 1 1765 2 is_stmt 1 view .LVU1744
 4865              		.loc 1 1765 11 is_stmt 0 view .LVU1745
 4866 0028 0DAA     		add	r2, sp, #52
 4867 002a 4146     		mov	r1, r8
 4868 002c 2846     		mov	r0, r5
 4869 002e FFF7FEFF 		bl	VL53L0X_get_total_xtalk_rate
 4870              	.LVL764:
 4871 0032 0746     		mov	r7, r0
 4872              	.LVL765:
1766:Core/Src/vl53l0x_api_core.c **** 		Dev, pRangingMeasurementData, &xTalkCompRate_mcps);
1767:Core/Src/vl53l0x_api_core.c **** 
1768:Core/Src/vl53l0x_api_core.c **** 
1769:Core/Src/vl53l0x_api_core.c **** 	/* Signal rate measurement provided by device is the
1770:Core/Src/vl53l0x_api_core.c **** 	 * peak signal rate, not average.
1771:Core/Src/vl53l0x_api_core.c **** 	 */
1772:Core/Src/vl53l0x_api_core.c **** 	peakSignalRate_kcps = (totalSignalRate_mcps * 1000);
 4873              		.loc 1 1772 2 is_stmt 1 view .LVU1746
ARM GAS  C:\Users\anmh1\AppData\Local\Temp\ccrmGbOb.s 			page 132


 4874              		.loc 1 1772 46 is_stmt 0 view .LVU1747
 4875 0034 DDF83090 		ldr	r9, [sp, #48]
 4876              		.loc 1 1772 22 view .LVU1748
 4877 0038 04FB09F6 		mul	r6, r4, r9
 4878              	.LVL766:
1773:Core/Src/vl53l0x_api_core.c **** 	peakSignalRate_kcps = (peakSignalRate_kcps + 0x8000) >> 16;
 4879              		.loc 1 1773 2 is_stmt 1 view .LVU1749
 4880              		.loc 1 1773 45 is_stmt 0 view .LVU1750
 4881 003c 06F50046 		add	r6, r6, #32768
 4882              	.LVL767:
 4883              		.loc 1 1773 22 view .LVU1751
 4884 0040 330C     		lsrs	r3, r6, #16
 4885 0042 0593     		str	r3, [sp, #20]
 4886              	.LVL768:
1774:Core/Src/vl53l0x_api_core.c **** 
1775:Core/Src/vl53l0x_api_core.c **** 	xTalkCompRate_kcps = xTalkCompRate_mcps * 1000;
 4887              		.loc 1 1775 2 is_stmt 1 view .LVU1752
 4888              		.loc 1 1775 42 is_stmt 0 view .LVU1753
 4889 0044 0D9B     		ldr	r3, [sp, #52]
 4890              	.LVL769:
 4891              		.loc 1 1775 21 view .LVU1754
 4892 0046 04FB03F4 		mul	r4, r4, r3
 4893              	.LVL770:
1776:Core/Src/vl53l0x_api_core.c **** 
1777:Core/Src/vl53l0x_api_core.c **** 	if (xTalkCompRate_kcps > cMaxXTalk_kcps)
 4894              		.loc 1 1777 2 is_stmt 1 view .LVU1755
 4895              		.loc 1 1777 5 is_stmt 0 view .LVU1756
 4896 004a B4F5481F 		cmp	r4, #3276800
 4897 004e 01D9     		bls	.L241
1778:Core/Src/vl53l0x_api_core.c **** 		xTalkCompRate_kcps = cMaxXTalk_kcps;
 4898              		.loc 1 1778 22 view .LVU1757
 4899 0050 4FF44814 		mov	r4, #3276800
 4900              	.LVL771:
 4901              	.L241:
1779:Core/Src/vl53l0x_api_core.c **** 
1780:Core/Src/vl53l0x_api_core.c **** 	if (Status == VL53L0X_ERROR_NONE) {
 4902              		.loc 1 1780 2 is_stmt 1 view .LVU1758
 4903              		.loc 1 1780 5 is_stmt 0 view .LVU1759
 4904 0054 C7BB     		cbnz	r7, .L242
1781:Core/Src/vl53l0x_api_core.c **** 
1782:Core/Src/vl53l0x_api_core.c **** 		/* Calculate final range macro periods */
1783:Core/Src/vl53l0x_api_core.c **** 		finalRangeTimeoutMicroSecs = VL53L0X_GETDEVICESPECIFICPARAMETER(
 4905              		.loc 1 1783 3 is_stmt 1 view .LVU1760
 4906              		.loc 1 1783 30 is_stmt 0 view .LVU1761
 4907 0056 D5F8DC30 		ldr	r3, [r5, #220]
 4908 005a 0A93     		str	r3, [sp, #40]
 4909              	.LVL772:
1784:Core/Src/vl53l0x_api_core.c **** 			Dev, FinalRangeTimeoutMicroSecs);
1785:Core/Src/vl53l0x_api_core.c **** 
1786:Core/Src/vl53l0x_api_core.c **** 		finalRangeVcselPCLKS = VL53L0X_GETDEVICESPECIFICPARAMETER(
 4910              		.loc 1 1786 3 is_stmt 1 view .LVU1762
 4911              		.loc 1 1786 24 is_stmt 0 view .LVU1763
 4912 005c 95F8E0A0 		ldrb	r10, [r5, #224]	@ zero_extendqisi2
 4913              	.LVL773:
1787:Core/Src/vl53l0x_api_core.c **** 			Dev, FinalRangeVcselPulsePeriod);
1788:Core/Src/vl53l0x_api_core.c **** 
1789:Core/Src/vl53l0x_api_core.c **** 		finalRangeMacroPCLKS = VL53L0X_calc_timeout_mclks(
ARM GAS  C:\Users\anmh1\AppData\Local\Temp\ccrmGbOb.s 			page 133


 4914              		.loc 1 1789 3 is_stmt 1 view .LVU1764
 4915              		.loc 1 1789 26 is_stmt 0 view .LVU1765
 4916 0060 5246     		mov	r2, r10
 4917 0062 1946     		mov	r1, r3
 4918 0064 2846     		mov	r0, r5
 4919 0066 FFF7FEFF 		bl	VL53L0X_calc_timeout_mclks
 4920              	.LVL774:
 4921              		.loc 1 1789 26 view .LVU1766
 4922 006a 8346     		mov	fp, r0
 4923              	.LVL775:
1790:Core/Src/vl53l0x_api_core.c **** 			Dev, finalRangeTimeoutMicroSecs, finalRangeVcselPCLKS);
1791:Core/Src/vl53l0x_api_core.c **** 
1792:Core/Src/vl53l0x_api_core.c **** 		/* Calculate pre-range macro periods */
1793:Core/Src/vl53l0x_api_core.c **** 		preRangeTimeoutMicroSecs = VL53L0X_GETDEVICESPECIFICPARAMETER(
 4924              		.loc 1 1793 3 is_stmt 1 view .LVU1767
 4925              		.loc 1 1793 28 is_stmt 0 view .LVU1768
 4926 006c D5F8E430 		ldr	r3, [r5, #228]
 4927 0070 0B93     		str	r3, [sp, #44]
 4928              	.LVL776:
1794:Core/Src/vl53l0x_api_core.c **** 			Dev, PreRangeTimeoutMicroSecs);
1795:Core/Src/vl53l0x_api_core.c **** 
1796:Core/Src/vl53l0x_api_core.c **** 		preRangeVcselPCLKS = VL53L0X_GETDEVICESPECIFICPARAMETER(
 4929              		.loc 1 1796 3 is_stmt 1 view .LVU1769
1797:Core/Src/vl53l0x_api_core.c **** 			Dev, PreRangeVcselPulsePeriod);
1798:Core/Src/vl53l0x_api_core.c **** 
1799:Core/Src/vl53l0x_api_core.c **** 		preRangeMacroPCLKS = VL53L0X_calc_timeout_mclks(
 4930              		.loc 1 1799 3 view .LVU1770
 4931              		.loc 1 1799 24 is_stmt 0 view .LVU1771
 4932 0072 95F8E820 		ldrb	r2, [r5, #232]	@ zero_extendqisi2
 4933 0076 1946     		mov	r1, r3
 4934 0078 2846     		mov	r0, r5
 4935              	.LVL777:
 4936              		.loc 1 1799 24 view .LVU1772
 4937 007a FFF7FEFF 		bl	VL53L0X_calc_timeout_mclks
 4938              	.LVL778:
1800:Core/Src/vl53l0x_api_core.c **** 			Dev, preRangeTimeoutMicroSecs, preRangeVcselPCLKS);
1801:Core/Src/vl53l0x_api_core.c **** 
1802:Core/Src/vl53l0x_api_core.c **** 		vcselWidth = 3;
 4939              		.loc 1 1802 3 is_stmt 1 view .LVU1773
1803:Core/Src/vl53l0x_api_core.c **** 		if (finalRangeVcselPCLKS == 8)
 4940              		.loc 1 1803 3 view .LVU1774
 4941              		.loc 1 1803 6 is_stmt 0 view .LVU1775
 4942 007e BAF1080F 		cmp	r10, #8
 4943 0082 30D0     		beq	.L252
1802:Core/Src/vl53l0x_api_core.c **** 		if (finalRangeVcselPCLKS == 8)
 4944              		.loc 1 1802 14 view .LVU1776
 4945 0084 0323     		movs	r3, #3
 4946              	.L243:
 4947              	.LVL779:
1804:Core/Src/vl53l0x_api_core.c **** 			vcselWidth = 2;
1805:Core/Src/vl53l0x_api_core.c **** 
1806:Core/Src/vl53l0x_api_core.c **** 
1807:Core/Src/vl53l0x_api_core.c **** 		peakVcselDuration_us = vcselWidth * 2048 *
 4948              		.loc 1 1807 3 is_stmt 1 view .LVU1777
1808:Core/Src/vl53l0x_api_core.c **** 			(preRangeMacroPCLKS + finalRangeMacroPCLKS);
 4949              		.loc 1 1808 24 is_stmt 0 view .LVU1778
 4950 0086 8344     		add	fp, fp, r0
ARM GAS  C:\Users\anmh1\AppData\Local\Temp\ccrmGbOb.s 			page 134


 4951              	.LVL780:
1807:Core/Src/vl53l0x_api_core.c **** 			(preRangeMacroPCLKS + finalRangeMacroPCLKS);
 4952              		.loc 1 1807 44 view .LVU1779
 4953 0088 03FB0BF3 		mul	r3, r3, fp
 4954              	.LVL781:
1807:Core/Src/vl53l0x_api_core.c **** 			(preRangeMacroPCLKS + finalRangeMacroPCLKS);
 4955              		.loc 1 1807 24 view .LVU1780
 4956 008c DB02     		lsls	r3, r3, #11
 4957              	.LVL782:
1809:Core/Src/vl53l0x_api_core.c **** 		peakVcselDuration_us = (peakVcselDuration_us + 500)/1000;
 4958              		.loc 1 1809 3 is_stmt 1 view .LVU1781
 4959              		.loc 1 1809 48 is_stmt 0 view .LVU1782
 4960 008e 03F5FA73 		add	r3, r3, #500
 4961              	.LVL783:
 4962              		.loc 1 1809 24 view .LVU1783
 4963 0092 6D4A     		ldr	r2, .L260
 4964 0094 A2FB0313 		umull	r1, r3, r2, r3
 4965              	.LVL784:
 4966              		.loc 1 1809 24 view .LVU1784
 4967 0098 9B09     		lsrs	r3, r3, #6
 4968              	.LVL785:
1810:Core/Src/vl53l0x_api_core.c **** 		peakVcselDuration_us *= cPllPeriod_ps;
 4969              		.loc 1 1810 3 is_stmt 1 view .LVU1785
 4970              		.loc 1 1810 24 is_stmt 0 view .LVU1786
 4971 009a 40F2776A 		movw	r10, #1655
 4972              	.LVL786:
 4973              		.loc 1 1810 24 view .LVU1787
 4974 009e 0AFB03FA 		mul	r10, r10, r3
 4975              	.LVL787:
1811:Core/Src/vl53l0x_api_core.c **** 		peakVcselDuration_us = (peakVcselDuration_us + 500)/1000;
 4976              		.loc 1 1811 3 is_stmt 1 view .LVU1788
 4977              		.loc 1 1811 48 is_stmt 0 view .LVU1789
 4978 00a2 0AF5FA7A 		add	r10, r10, #500
 4979              	.LVL788:
 4980              		.loc 1 1811 24 view .LVU1790
 4981 00a6 A2FB0A3A 		umull	r3, r10, r2, r10
 4982              	.LVL789:
 4983              		.loc 1 1811 24 view .LVU1791
 4984 00aa 4FEA9A1A 		lsr	r10, r10, #6
 4985              	.LVL790:
1812:Core/Src/vl53l0x_api_core.c **** 
1813:Core/Src/vl53l0x_api_core.c **** 		/* Fix1616 >> 8 = Fix2408 */
1814:Core/Src/vl53l0x_api_core.c **** 		totalSignalRate_mcps = (totalSignalRate_mcps + 0x80) >> 8;
 4986              		.loc 1 1814 3 is_stmt 1 view .LVU1792
 4987              		.loc 1 1814 48 is_stmt 0 view .LVU1793
 4988 00ae 09F18009 		add	r9, r9, #128
 4989              		.loc 1 1814 56 view .LVU1794
 4990 00b2 4FEA1929 		lsr	r9, r9, #8
1815:Core/Src/vl53l0x_api_core.c **** 
1816:Core/Src/vl53l0x_api_core.c **** 		/* Fix2408 * uint32 = Fix2408 */
1817:Core/Src/vl53l0x_api_core.c **** 		vcselTotalEventsRtn = totalSignalRate_mcps *
 4991              		.loc 1 1817 3 is_stmt 1 view .LVU1795
 4992              		.loc 1 1817 23 is_stmt 0 view .LVU1796
 4993 00b6 0AFB09FB 		mul	fp, r10, r9
 4994              	.LVL791:
1818:Core/Src/vl53l0x_api_core.c **** 			peakVcselDuration_us;
1819:Core/Src/vl53l0x_api_core.c **** 
ARM GAS  C:\Users\anmh1\AppData\Local\Temp\ccrmGbOb.s 			page 135


1820:Core/Src/vl53l0x_api_core.c **** 		/* Fix2408 >> 8 = uint32 */
1821:Core/Src/vl53l0x_api_core.c **** 		vcselTotalEventsRtn = (vcselTotalEventsRtn + 0x80) >> 8;
 4995              		.loc 1 1821 3 is_stmt 1 view .LVU1797
 4996              		.loc 1 1821 46 is_stmt 0 view .LVU1798
 4997 00ba 0BF1800B 		add	fp, fp, #128
 4998              	.LVL792:
 4999              		.loc 1 1821 23 view .LVU1799
 5000 00be 4FEA1B2B 		lsr	fp, fp, #8
 5001              	.LVL793:
1822:Core/Src/vl53l0x_api_core.c **** 
1823:Core/Src/vl53l0x_api_core.c **** 		/* Fix2408 << 8 = Fix1616 = */
1824:Core/Src/vl53l0x_api_core.c **** 		totalSignalRate_mcps <<= 8;
 5002              		.loc 1 1824 3 is_stmt 1 view .LVU1800
 5003              		.loc 1 1824 24 is_stmt 0 view .LVU1801
 5004 00c2 4FEA0923 		lsl	r3, r9, #8
 5005 00c6 0C93     		str	r3, [sp, #48]
 5006              	.LVL794:
 5007              	.L242:
1825:Core/Src/vl53l0x_api_core.c **** 	}
1826:Core/Src/vl53l0x_api_core.c **** 
1827:Core/Src/vl53l0x_api_core.c **** 	if (Status != VL53L0X_ERROR_NONE) {
 5008              		.loc 1 1827 2 is_stmt 1 view .LVU1802
 5009              		.loc 1 1827 5 is_stmt 0 view .LVU1803
 5010 00c8 4FB9     		cbnz	r7, .L244
1828:Core/Src/vl53l0x_api_core.c **** 		LOG_FUNCTION_END(Status);
1829:Core/Src/vl53l0x_api_core.c **** 		return Status;
1830:Core/Src/vl53l0x_api_core.c **** 	}
1831:Core/Src/vl53l0x_api_core.c **** 
1832:Core/Src/vl53l0x_api_core.c **** 	if (peakSignalRate_kcps == 0) {
 5011              		.loc 1 1832 2 is_stmt 1 view .LVU1804
 5012              		.loc 1 1832 5 is_stmt 0 view .LVU1805
 5013 00ca 059B     		ldr	r3, [sp, #20]
 5014 00cc 6BB9     		cbnz	r3, .L245
1833:Core/Src/vl53l0x_api_core.c **** 		*pSigmaEstimate = cSigmaEstMax;
 5015              		.loc 1 1833 3 is_stmt 1 view .LVU1806
 5016              		.loc 1 1833 19 is_stmt 0 view .LVU1807
 5017 00ce 5F4B     		ldr	r3, .L260+4
 5018 00d0 069A     		ldr	r2, [sp, #24]
 5019 00d2 1360     		str	r3, [r2]
1834:Core/Src/vl53l0x_api_core.c **** 		PALDevDataSet(Dev, SigmaEstimate, cSigmaEstMax);
 5020              		.loc 1 1834 3 is_stmt 1 view .LVU1808
 5021 00d4 C5F84031 		str	r3, [r5, #320]
1835:Core/Src/vl53l0x_api_core.c **** 		*pDmax_mm = 0;
 5022              		.loc 1 1835 3 view .LVU1809
 5023              		.loc 1 1835 13 is_stmt 0 view .LVU1810
 5024 00d8 0023     		movs	r3, #0
 5025 00da 079A     		ldr	r2, [sp, #28]
 5026 00dc 1360     		str	r3, [r2]
 5027              	.LVL795:
 5028              	.L244:
1836:Core/Src/vl53l0x_api_core.c **** 	} else {
1837:Core/Src/vl53l0x_api_core.c **** 		if (vcselTotalEventsRtn < 1)
1838:Core/Src/vl53l0x_api_core.c **** 			vcselTotalEventsRtn = 1;
1839:Core/Src/vl53l0x_api_core.c **** 
1840:Core/Src/vl53l0x_api_core.c **** 		sigmaEstimateP1 = cPulseEffectiveWidth_centi_ns;
1841:Core/Src/vl53l0x_api_core.c **** 
1842:Core/Src/vl53l0x_api_core.c **** 		/* ((FixPoint1616 << 16)* uint32)/uint32 = FixPoint1616 */
ARM GAS  C:\Users\anmh1\AppData\Local\Temp\ccrmGbOb.s 			page 136


1843:Core/Src/vl53l0x_api_core.c **** 		sigmaEstimateP2 = (ambientRate_kcps << 16)/peakSignalRate_kcps;
1844:Core/Src/vl53l0x_api_core.c **** 		if (sigmaEstimateP2 > cAmbToSignalRatioMax) {
1845:Core/Src/vl53l0x_api_core.c **** 			/* Clip to prevent overflow. Will ensure safe
1846:Core/Src/vl53l0x_api_core.c **** 			 * max result. */
1847:Core/Src/vl53l0x_api_core.c **** 			sigmaEstimateP2 = cAmbToSignalRatioMax;
1848:Core/Src/vl53l0x_api_core.c **** 		}
1849:Core/Src/vl53l0x_api_core.c **** 		sigmaEstimateP2 *= cAmbientEffectiveWidth_centi_ns;
1850:Core/Src/vl53l0x_api_core.c **** 
1851:Core/Src/vl53l0x_api_core.c **** 		sigmaEstimateP3 = 2 * VL53L0X_isqrt(vcselTotalEventsRtn * 12);
1852:Core/Src/vl53l0x_api_core.c **** 
1853:Core/Src/vl53l0x_api_core.c **** 		/* uint32 * FixPoint1616 = FixPoint1616 */
1854:Core/Src/vl53l0x_api_core.c **** 		deltaT_ps = pRangingMeasurementData->RangeMilliMeter *
1855:Core/Src/vl53l0x_api_core.c **** 					cTOF_per_mm_ps;
1856:Core/Src/vl53l0x_api_core.c **** 
1857:Core/Src/vl53l0x_api_core.c **** 		/*
1858:Core/Src/vl53l0x_api_core.c **** 		 * vcselRate - xtalkCompRate
1859:Core/Src/vl53l0x_api_core.c **** 		 * (uint32 << 16) - FixPoint1616 = FixPoint1616.
1860:Core/Src/vl53l0x_api_core.c **** 		 * Divide result by 1000 to convert to mcps.
1861:Core/Src/vl53l0x_api_core.c **** 		 * 500 is added to ensure rounding when integer division
1862:Core/Src/vl53l0x_api_core.c **** 		 * truncates.
1863:Core/Src/vl53l0x_api_core.c **** 		 */
1864:Core/Src/vl53l0x_api_core.c **** 		diff1_mcps = (((peakSignalRate_kcps << 16) -
1865:Core/Src/vl53l0x_api_core.c **** 			2 * xTalkCompRate_kcps) + 500)/1000;
1866:Core/Src/vl53l0x_api_core.c **** 
1867:Core/Src/vl53l0x_api_core.c **** 		/* vcselRate + xtalkCompRate */
1868:Core/Src/vl53l0x_api_core.c **** 		diff2_mcps = ((peakSignalRate_kcps << 16) + 500)/1000;
1869:Core/Src/vl53l0x_api_core.c **** 
1870:Core/Src/vl53l0x_api_core.c **** 		/* Shift by 8 bits to increase resolution prior to the
1871:Core/Src/vl53l0x_api_core.c **** 		 * division */
1872:Core/Src/vl53l0x_api_core.c **** 		diff1_mcps <<= 8;
1873:Core/Src/vl53l0x_api_core.c **** 
1874:Core/Src/vl53l0x_api_core.c **** 		/* FixPoint0824/FixPoint1616 = FixPoint2408 */
1875:Core/Src/vl53l0x_api_core.c **** 		xTalkCorrection	 = abs(diff1_mcps/diff2_mcps);
1876:Core/Src/vl53l0x_api_core.c **** 
1877:Core/Src/vl53l0x_api_core.c **** 		/* FixPoint2408 << 8 = FixPoint1616 */
1878:Core/Src/vl53l0x_api_core.c **** 		xTalkCorrection <<= 8;
1879:Core/Src/vl53l0x_api_core.c **** 
1880:Core/Src/vl53l0x_api_core.c **** 		if(pRangingMeasurementData->RangeStatus != 0){
1881:Core/Src/vl53l0x_api_core.c **** 			pwMult = 1 << 16;
1882:Core/Src/vl53l0x_api_core.c **** 		} else {
1883:Core/Src/vl53l0x_api_core.c **** 			/* FixPoint1616/uint32 = FixPoint1616 */
1884:Core/Src/vl53l0x_api_core.c **** 			pwMult = deltaT_ps/cVcselPulseWidth_ps; /* smaller than 1.0f */
1885:Core/Src/vl53l0x_api_core.c **** 
1886:Core/Src/vl53l0x_api_core.c **** 			/*
1887:Core/Src/vl53l0x_api_core.c **** 			 * FixPoint1616 * FixPoint1616 = FixPoint3232, however both
1888:Core/Src/vl53l0x_api_core.c **** 			 * values are small enough such that32 bits will not be
1889:Core/Src/vl53l0x_api_core.c **** 			 * exceeded.
1890:Core/Src/vl53l0x_api_core.c **** 			 */
1891:Core/Src/vl53l0x_api_core.c **** 			pwMult *= ((1 << 16) - xTalkCorrection);
1892:Core/Src/vl53l0x_api_core.c **** 
1893:Core/Src/vl53l0x_api_core.c **** 			/* (FixPoint3232 >> 16) = FixPoint1616 */
1894:Core/Src/vl53l0x_api_core.c **** 			pwMult =  (pwMult + c16BitRoundingParam) >> 16;
1895:Core/Src/vl53l0x_api_core.c **** 
1896:Core/Src/vl53l0x_api_core.c **** 			/* FixPoint1616 + FixPoint1616 = FixPoint1616 */
1897:Core/Src/vl53l0x_api_core.c **** 			pwMult += (1 << 16);
1898:Core/Src/vl53l0x_api_core.c **** 
1899:Core/Src/vl53l0x_api_core.c **** 			/*
ARM GAS  C:\Users\anmh1\AppData\Local\Temp\ccrmGbOb.s 			page 137


1900:Core/Src/vl53l0x_api_core.c **** 			 * At this point the value will be 1.xx, therefore if we square
1901:Core/Src/vl53l0x_api_core.c **** 			 * the value this will exceed 32 bits. To address this perform
1902:Core/Src/vl53l0x_api_core.c **** 			 * a single shift to the right before the multiplication.
1903:Core/Src/vl53l0x_api_core.c **** 			 */
1904:Core/Src/vl53l0x_api_core.c **** 			pwMult >>= 1;
1905:Core/Src/vl53l0x_api_core.c **** 			/* FixPoint1715 * FixPoint1715 = FixPoint3430 */
1906:Core/Src/vl53l0x_api_core.c **** 			pwMult = pwMult * pwMult;
1907:Core/Src/vl53l0x_api_core.c **** 
1908:Core/Src/vl53l0x_api_core.c **** 			/* (FixPoint3430 >> 14) = Fix1616 */
1909:Core/Src/vl53l0x_api_core.c **** 			pwMult >>= 14;
1910:Core/Src/vl53l0x_api_core.c **** 		}
1911:Core/Src/vl53l0x_api_core.c **** 
1912:Core/Src/vl53l0x_api_core.c **** 		/* FixPoint1616 * uint32 = FixPoint1616 */
1913:Core/Src/vl53l0x_api_core.c **** 		sqr1 = pwMult * sigmaEstimateP1;
1914:Core/Src/vl53l0x_api_core.c **** 
1915:Core/Src/vl53l0x_api_core.c **** 		/* (FixPoint1616 >> 16) = FixPoint3200 */
1916:Core/Src/vl53l0x_api_core.c **** 		sqr1 = (sqr1 + 0x8000) >> 16;
1917:Core/Src/vl53l0x_api_core.c **** 
1918:Core/Src/vl53l0x_api_core.c **** 		/* FixPoint3200 * FixPoint3200 = FixPoint6400 */
1919:Core/Src/vl53l0x_api_core.c **** 		sqr1 *= sqr1;
1920:Core/Src/vl53l0x_api_core.c **** 
1921:Core/Src/vl53l0x_api_core.c **** 		sqr2 = sigmaEstimateP2;
1922:Core/Src/vl53l0x_api_core.c **** 
1923:Core/Src/vl53l0x_api_core.c **** 		/* (FixPoint1616 >> 16) = FixPoint3200 */
1924:Core/Src/vl53l0x_api_core.c **** 		sqr2 = (sqr2 + 0x8000) >> 16;
1925:Core/Src/vl53l0x_api_core.c **** 
1926:Core/Src/vl53l0x_api_core.c **** 		/* FixPoint3200 * FixPoint3200 = FixPoint6400 */
1927:Core/Src/vl53l0x_api_core.c **** 		sqr2 *= sqr2;
1928:Core/Src/vl53l0x_api_core.c **** 
1929:Core/Src/vl53l0x_api_core.c **** 		/* FixPoint64000 + FixPoint6400 = FixPoint6400 */
1930:Core/Src/vl53l0x_api_core.c **** 		sqrSum = sqr1 + sqr2;
1931:Core/Src/vl53l0x_api_core.c **** 
1932:Core/Src/vl53l0x_api_core.c **** 		/* SQRT(FixPoin6400) = FixPoint3200 */
1933:Core/Src/vl53l0x_api_core.c **** 		sqrtResult_centi_ns = VL53L0X_isqrt(sqrSum);
1934:Core/Src/vl53l0x_api_core.c **** 
1935:Core/Src/vl53l0x_api_core.c **** 		/* (FixPoint3200 << 16) = FixPoint1616 */
1936:Core/Src/vl53l0x_api_core.c **** 		sqrtResult_centi_ns <<= 16;
1937:Core/Src/vl53l0x_api_core.c **** 
1938:Core/Src/vl53l0x_api_core.c **** 		/*
1939:Core/Src/vl53l0x_api_core.c **** 		 * Note that the Speed Of Light is expressed in um per 1E-10
1940:Core/Src/vl53l0x_api_core.c **** 		 * seconds (2997) Therefore to get mm/ns we have to divide by
1941:Core/Src/vl53l0x_api_core.c **** 		 * 10000
1942:Core/Src/vl53l0x_api_core.c **** 		 */
1943:Core/Src/vl53l0x_api_core.c **** 		sigmaEstRtn = (((sqrtResult_centi_ns+50)/100) /
1944:Core/Src/vl53l0x_api_core.c **** 				sigmaEstimateP3);
1945:Core/Src/vl53l0x_api_core.c **** 		sigmaEstRtn		 *= VL53L0X_SPEED_OF_LIGHT_IN_AIR;
1946:Core/Src/vl53l0x_api_core.c **** 
1947:Core/Src/vl53l0x_api_core.c **** 		/* Add 5000 before dividing by 10000 to ensure rounding. */
1948:Core/Src/vl53l0x_api_core.c **** 		sigmaEstRtn		 += 5000;
1949:Core/Src/vl53l0x_api_core.c **** 		sigmaEstRtn		 /= 10000;
1950:Core/Src/vl53l0x_api_core.c **** 
1951:Core/Src/vl53l0x_api_core.c **** 		if (sigmaEstRtn > cSigmaEstRtnMax) {
1952:Core/Src/vl53l0x_api_core.c **** 			/* Clip to prevent overflow. Will ensure safe
1953:Core/Src/vl53l0x_api_core.c **** 			 * max result. */
1954:Core/Src/vl53l0x_api_core.c **** 			sigmaEstRtn = cSigmaEstRtnMax;
1955:Core/Src/vl53l0x_api_core.c **** 		}
1956:Core/Src/vl53l0x_api_core.c **** 		finalRangeIntegrationTimeMilliSecs =
ARM GAS  C:\Users\anmh1\AppData\Local\Temp\ccrmGbOb.s 			page 138


1957:Core/Src/vl53l0x_api_core.c **** 			(finalRangeTimeoutMicroSecs + preRangeTimeoutMicroSecs + 500)/1000;
1958:Core/Src/vl53l0x_api_core.c **** 
1959:Core/Src/vl53l0x_api_core.c **** 		/* sigmaEstRef = 1mm * 25ms/final range integration time (inc pre-range)
1960:Core/Src/vl53l0x_api_core.c **** 		 * sqrt(FixPoint1616/int) = FixPoint2408)
1961:Core/Src/vl53l0x_api_core.c **** 		 */
1962:Core/Src/vl53l0x_api_core.c **** 		sigmaEstRef =
1963:Core/Src/vl53l0x_api_core.c **** 			VL53L0X_isqrt((cDfltFinalRangeIntegrationTimeMilliSecs +
1964:Core/Src/vl53l0x_api_core.c **** 				finalRangeIntegrationTimeMilliSecs/2)/
1965:Core/Src/vl53l0x_api_core.c **** 				finalRangeIntegrationTimeMilliSecs);
1966:Core/Src/vl53l0x_api_core.c **** 
1967:Core/Src/vl53l0x_api_core.c **** 		/* FixPoint2408 << 8 = FixPoint1616 */
1968:Core/Src/vl53l0x_api_core.c **** 		sigmaEstRef <<= 8;
1969:Core/Src/vl53l0x_api_core.c **** 		sigmaEstRef = (sigmaEstRef + 500)/1000;
1970:Core/Src/vl53l0x_api_core.c **** 
1971:Core/Src/vl53l0x_api_core.c **** 		/* FixPoint1616 * FixPoint1616 = FixPoint3232 */
1972:Core/Src/vl53l0x_api_core.c **** 		sqr1 = sigmaEstRtn * sigmaEstRtn;
1973:Core/Src/vl53l0x_api_core.c **** 		/* FixPoint1616 * FixPoint1616 = FixPoint3232 */
1974:Core/Src/vl53l0x_api_core.c **** 		sqr2 = sigmaEstRef * sigmaEstRef;
1975:Core/Src/vl53l0x_api_core.c **** 
1976:Core/Src/vl53l0x_api_core.c **** 		/* sqrt(FixPoint3232) = FixPoint1616 */
1977:Core/Src/vl53l0x_api_core.c **** 		sqrtResult = VL53L0X_isqrt((sqr1 + sqr2));
1978:Core/Src/vl53l0x_api_core.c **** 		/*
1979:Core/Src/vl53l0x_api_core.c **** 		 * Note that the Shift by 4 bits increases resolution prior to
1980:Core/Src/vl53l0x_api_core.c **** 		 * the sqrt, therefore the result must be shifted by 2 bits to
1981:Core/Src/vl53l0x_api_core.c **** 		 * the right to revert back to the FixPoint1616 format.
1982:Core/Src/vl53l0x_api_core.c **** 		 */
1983:Core/Src/vl53l0x_api_core.c **** 
1984:Core/Src/vl53l0x_api_core.c **** 		sigmaEstimate	 = 1000 * sqrtResult;
1985:Core/Src/vl53l0x_api_core.c **** 
1986:Core/Src/vl53l0x_api_core.c **** 		if ((peakSignalRate_kcps < 1) || (vcselTotalEventsRtn < 1) ||
1987:Core/Src/vl53l0x_api_core.c **** 				(sigmaEstimate > cSigmaEstMax)) {
1988:Core/Src/vl53l0x_api_core.c **** 				sigmaEstimate = cSigmaEstMax;
1989:Core/Src/vl53l0x_api_core.c **** 		}
1990:Core/Src/vl53l0x_api_core.c **** 
1991:Core/Src/vl53l0x_api_core.c **** 		*pSigmaEstimate = (uint32_t)(sigmaEstimate);
1992:Core/Src/vl53l0x_api_core.c **** 		PALDevDataSet(Dev, SigmaEstimate, *pSigmaEstimate);
1993:Core/Src/vl53l0x_api_core.c **** 		Status = VL53L0X_calc_dmax(
1994:Core/Src/vl53l0x_api_core.c **** 			Dev,
1995:Core/Src/vl53l0x_api_core.c **** 			totalSignalRate_mcps,
1996:Core/Src/vl53l0x_api_core.c **** 			correctedSignalRate_mcps,
1997:Core/Src/vl53l0x_api_core.c **** 			pwMult,
1998:Core/Src/vl53l0x_api_core.c **** 			sigmaEstimateP1,
1999:Core/Src/vl53l0x_api_core.c **** 			sigmaEstimateP2,
2000:Core/Src/vl53l0x_api_core.c **** 			peakVcselDuration_us,
2001:Core/Src/vl53l0x_api_core.c **** 			pDmax_mm);
2002:Core/Src/vl53l0x_api_core.c **** 	}
2003:Core/Src/vl53l0x_api_core.c **** 
2004:Core/Src/vl53l0x_api_core.c **** 	LOG_FUNCTION_END(Status);
2005:Core/Src/vl53l0x_api_core.c **** 	return Status;
2006:Core/Src/vl53l0x_api_core.c **** }
 5029              		.loc 1 2006 1 view .LVU1811
 5030 00de 3846     		mov	r0, r7
 5031 00e0 0FB0     		add	sp, sp, #60
 5032              		.cfi_remember_state
 5033              		.cfi_def_cfa_offset 36
 5034              		@ sp needed
 5035 00e2 BDE8F08F 		pop	{r4, r5, r6, r7, r8, r9, r10, fp, pc}
ARM GAS  C:\Users\anmh1\AppData\Local\Temp\ccrmGbOb.s 			page 139


 5036              	.LVL796:
 5037              	.L252:
 5038              		.cfi_restore_state
1804:Core/Src/vl53l0x_api_core.c **** 
 5039              		.loc 1 1804 15 view .LVU1812
 5040 00e6 0223     		movs	r3, #2
 5041 00e8 CDE7     		b	.L243
 5042              	.LVL797:
 5043              	.L245:
1837:Core/Src/vl53l0x_api_core.c **** 			vcselTotalEventsRtn = 1;
 5044              		.loc 1 1837 3 is_stmt 1 view .LVU1813
1837:Core/Src/vl53l0x_api_core.c **** 			vcselTotalEventsRtn = 1;
 5045              		.loc 1 1837 6 is_stmt 0 view .LVU1814
 5046 00ea BBF1000F 		cmp	fp, #0
 5047 00ee 01D1     		bne	.L246
1838:Core/Src/vl53l0x_api_core.c **** 
 5048              		.loc 1 1838 24 view .LVU1815
 5049 00f0 4FF0010B 		mov	fp, #1
 5050              	.LVL798:
 5051              	.L246:
1840:Core/Src/vl53l0x_api_core.c **** 
 5052              		.loc 1 1840 3 is_stmt 1 view .LVU1816
1843:Core/Src/vl53l0x_api_core.c **** 		if (sigmaEstimateP2 > cAmbToSignalRatioMax) {
 5053              		.loc 1 1843 3 view .LVU1817
1843:Core/Src/vl53l0x_api_core.c **** 		if (sigmaEstimateP2 > cAmbToSignalRatioMax) {
 5054              		.loc 1 1843 39 is_stmt 0 view .LVU1818
 5055 00f4 089B     		ldr	r3, [sp, #32]
 5056 00f6 1F0C     		lsrs	r7, r3, #16
 5057              	.LVL799:
1843:Core/Src/vl53l0x_api_core.c **** 		if (sigmaEstimateP2 > cAmbToSignalRatioMax) {
 5058              		.loc 1 1843 39 view .LVU1819
 5059 00f8 3F04     		lsls	r7, r7, #16
1843:Core/Src/vl53l0x_api_core.c **** 		if (sigmaEstimateP2 > cAmbToSignalRatioMax) {
 5060              		.loc 1 1843 19 view .LVU1820
 5061 00fa 059B     		ldr	r3, [sp, #20]
 5062 00fc B7FBF3F7 		udiv	r7, r7, r3
 5063              	.LVL800:
1844:Core/Src/vl53l0x_api_core.c **** 			/* Clip to prevent overflow. Will ensure safe
 5064              		.loc 1 1844 3 is_stmt 1 view .LVU1821
1844:Core/Src/vl53l0x_api_core.c **** 			/* Clip to prevent overflow. Will ensure safe
 5065              		.loc 1 1844 6 is_stmt 0 view .LVU1822
 5066 0100 534B     		ldr	r3, .L260+8
 5067 0102 9F42     		cmp	r7, r3
 5068 0104 00D9     		bls	.L247
1847:Core/Src/vl53l0x_api_core.c **** 		}
 5069              		.loc 1 1847 20 view .LVU1823
 5070 0106 1F46     		mov	r7, r3
 5071              	.LVL801:
 5072              	.L247:
1849:Core/Src/vl53l0x_api_core.c **** 
 5073              		.loc 1 1849 3 is_stmt 1 view .LVU1824
1849:Core/Src/vl53l0x_api_core.c **** 
 5074              		.loc 1 1849 19 is_stmt 0 view .LVU1825
 5075 0108 4FF41673 		mov	r3, #600
 5076 010c 03FB07F7 		mul	r7, r3, r7
 5077              	.LVL802:
1851:Core/Src/vl53l0x_api_core.c **** 
ARM GAS  C:\Users\anmh1\AppData\Local\Temp\ccrmGbOb.s 			page 140


 5078              		.loc 1 1851 3 is_stmt 1 view .LVU1826
1851:Core/Src/vl53l0x_api_core.c **** 
 5079              		.loc 1 1851 25 is_stmt 0 view .LVU1827
 5080 0110 0BEB4B00 		add	r0, fp, fp, lsl #1
 5081 0114 8000     		lsls	r0, r0, #2
 5082 0116 FFF7FEFF 		bl	VL53L0X_isqrt
 5083              	.LVL803:
1851:Core/Src/vl53l0x_api_core.c **** 
 5084              		.loc 1 1851 19 view .LVU1828
 5085 011a 4FEA4009 		lsl	r9, r0, #1
 5086              	.LVL804:
1854:Core/Src/vl53l0x_api_core.c **** 					cTOF_per_mm_ps;
 5087              		.loc 1 1854 3 is_stmt 1 view .LVU1829
1854:Core/Src/vl53l0x_api_core.c **** 					cTOF_per_mm_ps;
 5088              		.loc 1 1854 38 is_stmt 0 view .LVU1830
 5089 011e B8F80830 		ldrh	r3, [r8, #8]
1854:Core/Src/vl53l0x_api_core.c **** 					cTOF_per_mm_ps;
 5090              		.loc 1 1854 13 view .LVU1831
 5091 0122 4C4A     		ldr	r2, .L260+12
 5092 0124 02FB03F3 		mul	r3, r2, r3
 5093              	.LVL805:
1864:Core/Src/vl53l0x_api_core.c **** 			2 * xTalkCompRate_kcps) + 500)/1000;
 5094              		.loc 1 1864 3 is_stmt 1 view .LVU1832
1864:Core/Src/vl53l0x_api_core.c **** 			2 * xTalkCompRate_kcps) + 500)/1000;
 5095              		.loc 1 1864 39 is_stmt 0 view .LVU1833
 5096 0128 360C     		lsrs	r6, r6, #16
 5097 012a 3604     		lsls	r6, r6, #16
1864:Core/Src/vl53l0x_api_core.c **** 			2 * xTalkCompRate_kcps) + 500)/1000;
 5098              		.loc 1 1864 46 view .LVU1834
 5099 012c A6EB4404 		sub	r4, r6, r4, lsl #1
 5100              	.LVL806:
1865:Core/Src/vl53l0x_api_core.c **** 
 5101              		.loc 1 1865 28 view .LVU1835
 5102 0130 04F5FA74 		add	r4, r4, #500
1864:Core/Src/vl53l0x_api_core.c **** 			2 * xTalkCompRate_kcps) + 500)/1000;
 5103              		.loc 1 1864 14 view .LVU1836
 5104 0134 444A     		ldr	r2, .L260
 5105 0136 A2FB0414 		umull	r1, r4, r2, r4
 5106 013a A409     		lsrs	r4, r4, #6
 5107              	.LVL807:
1868:Core/Src/vl53l0x_api_core.c **** 
 5108              		.loc 1 1868 3 is_stmt 1 view .LVU1837
1868:Core/Src/vl53l0x_api_core.c **** 
 5109              		.loc 1 1868 45 is_stmt 0 view .LVU1838
 5110 013c 06F5FA76 		add	r6, r6, #500
1868:Core/Src/vl53l0x_api_core.c **** 
 5111              		.loc 1 1868 14 view .LVU1839
 5112 0140 A2FB0626 		umull	r2, r6, r2, r6
 5113 0144 B609     		lsrs	r6, r6, #6
 5114              	.LVL808:
1872:Core/Src/vl53l0x_api_core.c **** 
 5115              		.loc 1 1872 3 is_stmt 1 view .LVU1840
1872:Core/Src/vl53l0x_api_core.c **** 
 5116              		.loc 1 1872 14 is_stmt 0 view .LVU1841
 5117 0146 2402     		lsls	r4, r4, #8
 5118              	.LVL809:
1875:Core/Src/vl53l0x_api_core.c **** 
ARM GAS  C:\Users\anmh1\AppData\Local\Temp\ccrmGbOb.s 			page 141


 5119              		.loc 1 1875 3 is_stmt 1 view .LVU1842
1875:Core/Src/vl53l0x_api_core.c **** 
 5120              		.loc 1 1875 22 is_stmt 0 view .LVU1843
 5121 0148 B4FBF6F6 		udiv	r6, r4, r6
 5122              	.LVL810:
1878:Core/Src/vl53l0x_api_core.c **** 
 5123              		.loc 1 1878 3 is_stmt 1 view .LVU1844
1878:Core/Src/vl53l0x_api_core.c **** 
 5124              		.loc 1 1878 19 is_stmt 0 view .LVU1845
 5125 014c 3602     		lsls	r6, r6, #8
 5126              	.LVL811:
1880:Core/Src/vl53l0x_api_core.c **** 			pwMult = 1 << 16;
 5127              		.loc 1 1880 3 is_stmt 1 view .LVU1846
1880:Core/Src/vl53l0x_api_core.c **** 			pwMult = 1 << 16;
 5128              		.loc 1 1880 29 is_stmt 0 view .LVU1847
 5129 014e 98F81820 		ldrb	r2, [r8, #24]	@ zero_extendqisi2
1880:Core/Src/vl53l0x_api_core.c **** 			pwMult = 1 << 16;
 5130              		.loc 1 1880 5 view .LVU1848
 5131 0152 002A     		cmp	r2, #0
 5132 0154 60D1     		bne	.L255
1884:Core/Src/vl53l0x_api_core.c **** 
 5133              		.loc 1 1884 4 is_stmt 1 view .LVU1849
1884:Core/Src/vl53l0x_api_core.c **** 
 5134              		.loc 1 1884 11 is_stmt 0 view .LVU1850
 5135 0156 404C     		ldr	r4, .L260+16
 5136              	.LVL812:
1884:Core/Src/vl53l0x_api_core.c **** 
 5137              		.loc 1 1884 11 view .LVU1851
 5138 0158 A4FB0334 		umull	r3, r4, r4, r3
 5139              	.LVL813:
1884:Core/Src/vl53l0x_api_core.c **** 
 5140              		.loc 1 1884 11 view .LVU1852
 5141 015c A40A     		lsrs	r4, r4, #10
 5142              	.LVL814:
1891:Core/Src/vl53l0x_api_core.c **** 
 5143              		.loc 1 1891 4 is_stmt 1 view .LVU1853
1891:Core/Src/vl53l0x_api_core.c **** 
 5144              		.loc 1 1891 25 is_stmt 0 view .LVU1854
 5145 015e C6F58036 		rsb	r6, r6, #65536
 5146              	.LVL815:
1891:Core/Src/vl53l0x_api_core.c **** 
 5147              		.loc 1 1891 11 view .LVU1855
 5148 0162 04FB06F4 		mul	r4, r4, r6
 5149              	.LVL816:
1894:Core/Src/vl53l0x_api_core.c **** 
 5150              		.loc 1 1894 4 is_stmt 1 view .LVU1856
1894:Core/Src/vl53l0x_api_core.c **** 
 5151              		.loc 1 1894 22 is_stmt 0 view .LVU1857
 5152 0166 04F50044 		add	r4, r4, #32768
 5153              	.LVL817:
1894:Core/Src/vl53l0x_api_core.c **** 
 5154              		.loc 1 1894 11 view .LVU1858
 5155 016a 240C     		lsrs	r4, r4, #16
 5156              	.LVL818:
1897:Core/Src/vl53l0x_api_core.c **** 
 5157              		.loc 1 1897 4 is_stmt 1 view .LVU1859
1897:Core/Src/vl53l0x_api_core.c **** 
ARM GAS  C:\Users\anmh1\AppData\Local\Temp\ccrmGbOb.s 			page 142


 5158              		.loc 1 1897 11 is_stmt 0 view .LVU1860
 5159 016c 04F58034 		add	r4, r4, #65536
 5160              	.LVL819:
1904:Core/Src/vl53l0x_api_core.c **** 			/* FixPoint1715 * FixPoint1715 = FixPoint3430 */
 5161              		.loc 1 1904 4 is_stmt 1 view .LVU1861
1904:Core/Src/vl53l0x_api_core.c **** 			/* FixPoint1715 * FixPoint1715 = FixPoint3430 */
 5162              		.loc 1 1904 11 is_stmt 0 view .LVU1862
 5163 0170 6408     		lsrs	r4, r4, #1
 5164              	.LVL820:
1906:Core/Src/vl53l0x_api_core.c **** 
 5165              		.loc 1 1906 4 is_stmt 1 view .LVU1863
1906:Core/Src/vl53l0x_api_core.c **** 
 5166              		.loc 1 1906 11 is_stmt 0 view .LVU1864
 5167 0172 04FB04F4 		mul	r4, r4, r4
 5168              	.LVL821:
1909:Core/Src/vl53l0x_api_core.c **** 		}
 5169              		.loc 1 1909 4 is_stmt 1 view .LVU1865
1909:Core/Src/vl53l0x_api_core.c **** 		}
 5170              		.loc 1 1909 11 is_stmt 0 view .LVU1866
 5171 0176 A40B     		lsrs	r4, r4, #14
 5172              	.LVL822:
 5173              	.L248:
1913:Core/Src/vl53l0x_api_core.c **** 
 5174              		.loc 1 1913 3 is_stmt 1 view .LVU1867
1913:Core/Src/vl53l0x_api_core.c **** 
 5175              		.loc 1 1913 8 is_stmt 0 view .LVU1868
 5176 0178 4FF44870 		mov	r0, #800
 5177 017c 00FB04F0 		mul	r0, r0, r4
 5178              	.LVL823:
1916:Core/Src/vl53l0x_api_core.c **** 
 5179              		.loc 1 1916 3 is_stmt 1 view .LVU1869
1916:Core/Src/vl53l0x_api_core.c **** 
 5180              		.loc 1 1916 16 is_stmt 0 view .LVU1870
 5181 0180 00F50040 		add	r0, r0, #32768
 5182              	.LVL824:
1916:Core/Src/vl53l0x_api_core.c **** 
 5183              		.loc 1 1916 8 view .LVU1871
 5184 0184 000C     		lsrs	r0, r0, #16
 5185              	.LVL825:
1919:Core/Src/vl53l0x_api_core.c **** 
 5186              		.loc 1 1919 3 is_stmt 1 view .LVU1872
1921:Core/Src/vl53l0x_api_core.c **** 
 5187              		.loc 1 1921 3 view .LVU1873
1924:Core/Src/vl53l0x_api_core.c **** 
 5188              		.loc 1 1924 3 view .LVU1874
1924:Core/Src/vl53l0x_api_core.c **** 
 5189              		.loc 1 1924 16 is_stmt 0 view .LVU1875
 5190 0186 07F50043 		add	r3, r7, #32768
1924:Core/Src/vl53l0x_api_core.c **** 
 5191              		.loc 1 1924 8 view .LVU1876
 5192 018a 1B0C     		lsrs	r3, r3, #16
 5193              	.LVL826:
1927:Core/Src/vl53l0x_api_core.c **** 
 5194              		.loc 1 1927 3 is_stmt 1 view .LVU1877
1927:Core/Src/vl53l0x_api_core.c **** 
 5195              		.loc 1 1927 8 is_stmt 0 view .LVU1878
 5196 018c 03FB03F3 		mul	r3, r3, r3
ARM GAS  C:\Users\anmh1\AppData\Local\Temp\ccrmGbOb.s 			page 143


 5197              	.LVL827:
1930:Core/Src/vl53l0x_api_core.c **** 
 5198              		.loc 1 1930 3 is_stmt 1 view .LVU1879
1933:Core/Src/vl53l0x_api_core.c **** 
 5199              		.loc 1 1933 3 view .LVU1880
1933:Core/Src/vl53l0x_api_core.c **** 
 5200              		.loc 1 1933 25 is_stmt 0 view .LVU1881
 5201 0190 00FB0030 		mla	r0, r0, r0, r3
 5202              	.LVL828:
1933:Core/Src/vl53l0x_api_core.c **** 
 5203              		.loc 1 1933 25 view .LVU1882
 5204 0194 FFF7FEFF 		bl	VL53L0X_isqrt
 5205              	.LVL829:
1936:Core/Src/vl53l0x_api_core.c **** 
 5206              		.loc 1 1936 3 is_stmt 1 view .LVU1883
1936:Core/Src/vl53l0x_api_core.c **** 
 5207              		.loc 1 1936 23 is_stmt 0 view .LVU1884
 5208 0198 0004     		lsls	r0, r0, #16
 5209              	.LVL830:
1943:Core/Src/vl53l0x_api_core.c **** 				sigmaEstimateP3);
 5210              		.loc 1 1943 3 is_stmt 1 view .LVU1885
1943:Core/Src/vl53l0x_api_core.c **** 				sigmaEstimateP3);
 5211              		.loc 1 1943 39 is_stmt 0 view .LVU1886
 5212 019a 3230     		adds	r0, r0, #50
 5213              	.LVL831:
1943:Core/Src/vl53l0x_api_core.c **** 				sigmaEstimateP3);
 5214              		.loc 1 1943 43 view .LVU1887
 5215 019c 2F4B     		ldr	r3, .L260+20
 5216 019e A3FB0030 		umull	r3, r0, r3, r0
 5217              	.LVL832:
1943:Core/Src/vl53l0x_api_core.c **** 				sigmaEstimateP3);
 5218              		.loc 1 1943 43 view .LVU1888
 5219 01a2 4009     		lsrs	r0, r0, #5
1943:Core/Src/vl53l0x_api_core.c **** 				sigmaEstimateP3);
 5220              		.loc 1 1943 15 view .LVU1889
 5221 01a4 B0FBF9F9 		udiv	r9, r0, r9
 5222              	.LVL833:
1945:Core/Src/vl53l0x_api_core.c **** 
 5223              		.loc 1 1945 3 is_stmt 1 view .LVU1890
1948:Core/Src/vl53l0x_api_core.c **** 		sigmaEstRtn		 /= 10000;
 5224              		.loc 1 1948 3 view .LVU1891
1948:Core/Src/vl53l0x_api_core.c **** 		sigmaEstRtn		 /= 10000;
 5225              		.loc 1 1948 17 is_stmt 0 view .LVU1892
 5226 01a8 40F6B533 		movw	r3, #2997
 5227 01ac 41F28830 		movw	r0, #5000
 5228 01b0 03FB0909 		mla	r9, r3, r9, r0
 5229              	.LVL834:
1949:Core/Src/vl53l0x_api_core.c **** 
 5230              		.loc 1 1949 3 is_stmt 1 view .LVU1893
1949:Core/Src/vl53l0x_api_core.c **** 
 5231              		.loc 1 1949 17 is_stmt 0 view .LVU1894
 5232 01b4 2A4E     		ldr	r6, .L260+24
 5233 01b6 A6FB0936 		umull	r3, r6, r6, r9
 5234 01ba 760B     		lsrs	r6, r6, #13
 5235              	.LVL835:
1951:Core/Src/vl53l0x_api_core.c **** 			/* Clip to prevent overflow. Will ensure safe
 5236              		.loc 1 1951 3 is_stmt 1 view .LVU1895
ARM GAS  C:\Users\anmh1\AppData\Local\Temp\ccrmGbOb.s 			page 144


1951:Core/Src/vl53l0x_api_core.c **** 			/* Clip to prevent overflow. Will ensure safe
 5237              		.loc 1 1951 6 is_stmt 0 view .LVU1896
 5238 01bc 294B     		ldr	r3, .L260+28
 5239 01be 9945     		cmp	r9, r3
 5240 01c0 01D9     		bls	.L249
1954:Core/Src/vl53l0x_api_core.c **** 		}
 5241              		.loc 1 1954 16 view .LVU1897
 5242 01c2 4FF47046 		mov	r6, #61440
 5243              	.LVL836:
 5244              	.L249:
1956:Core/Src/vl53l0x_api_core.c **** 			(finalRangeTimeoutMicroSecs + preRangeTimeoutMicroSecs + 500)/1000;
 5245              		.loc 1 1956 3 is_stmt 1 view .LVU1898
1957:Core/Src/vl53l0x_api_core.c **** 
 5246              		.loc 1 1957 32 is_stmt 0 view .LVU1899
 5247 01c6 0A9B     		ldr	r3, [sp, #40]
 5248 01c8 0B9A     		ldr	r2, [sp, #44]
 5249 01ca 1344     		add	r3, r3, r2
1957:Core/Src/vl53l0x_api_core.c **** 
 5250              		.loc 1 1957 59 view .LVU1900
 5251 01cc 03F5FA73 		add	r3, r3, #500
1956:Core/Src/vl53l0x_api_core.c **** 			(finalRangeTimeoutMicroSecs + preRangeTimeoutMicroSecs + 500)/1000;
 5252              		.loc 1 1956 38 view .LVU1901
 5253 01d0 DFF87480 		ldr	r8, .L260
 5254              	.LVL837:
1956:Core/Src/vl53l0x_api_core.c **** 			(finalRangeTimeoutMicroSecs + preRangeTimeoutMicroSecs + 500)/1000;
 5255              		.loc 1 1956 38 view .LVU1902
 5256 01d4 A8FB0323 		umull	r2, r3, r8, r3
 5257 01d8 9809     		lsrs	r0, r3, #6
 5258              	.LVL838:
1962:Core/Src/vl53l0x_api_core.c **** 			VL53L0X_isqrt((cDfltFinalRangeIntegrationTimeMilliSecs +
 5259              		.loc 1 1962 3 is_stmt 1 view .LVU1903
1964:Core/Src/vl53l0x_api_core.c **** 				finalRangeIntegrationTimeMilliSecs);
 5260              		.loc 1 1964 39 is_stmt 0 view .LVU1904
 5261 01da DB09     		lsrs	r3, r3, #7
1963:Core/Src/vl53l0x_api_core.c **** 				finalRangeIntegrationTimeMilliSecs/2)/
 5262              		.loc 1 1963 59 view .LVU1905
 5263 01dc 03F5C813 		add	r3, r3, #1638400
1963:Core/Src/vl53l0x_api_core.c **** 				finalRangeIntegrationTimeMilliSecs/2)/
 5264              		.loc 1 1963 4 view .LVU1906
 5265 01e0 B3FBF0F0 		udiv	r0, r3, r0
 5266              	.LVL839:
1963:Core/Src/vl53l0x_api_core.c **** 				finalRangeIntegrationTimeMilliSecs/2)/
 5267              		.loc 1 1963 4 view .LVU1907
 5268 01e4 FFF7FEFF 		bl	VL53L0X_isqrt
 5269              	.LVL840:
1968:Core/Src/vl53l0x_api_core.c **** 		sigmaEstRef = (sigmaEstRef + 500)/1000;
 5270              		.loc 1 1968 3 is_stmt 1 view .LVU1908
1968:Core/Src/vl53l0x_api_core.c **** 		sigmaEstRef = (sigmaEstRef + 500)/1000;
 5271              		.loc 1 1968 15 is_stmt 0 view .LVU1909
 5272 01e8 0002     		lsls	r0, r0, #8
 5273              	.LVL841:
1969:Core/Src/vl53l0x_api_core.c **** 
 5274              		.loc 1 1969 3 is_stmt 1 view .LVU1910
1969:Core/Src/vl53l0x_api_core.c **** 
 5275              		.loc 1 1969 30 is_stmt 0 view .LVU1911
 5276 01ea 00F5FA70 		add	r0, r0, #500
 5277              	.LVL842:
ARM GAS  C:\Users\anmh1\AppData\Local\Temp\ccrmGbOb.s 			page 145


1969:Core/Src/vl53l0x_api_core.c **** 
 5278              		.loc 1 1969 15 view .LVU1912
 5279 01ee A8FB0030 		umull	r3, r0, r8, r0
 5280              	.LVL843:
1969:Core/Src/vl53l0x_api_core.c **** 
 5281              		.loc 1 1969 15 view .LVU1913
 5282 01f2 8009     		lsrs	r0, r0, #6
 5283              	.LVL844:
1972:Core/Src/vl53l0x_api_core.c **** 		/* FixPoint1616 * FixPoint1616 = FixPoint3232 */
 5284              		.loc 1 1972 3 is_stmt 1 view .LVU1914
1974:Core/Src/vl53l0x_api_core.c **** 
 5285              		.loc 1 1974 3 view .LVU1915
1974:Core/Src/vl53l0x_api_core.c **** 
 5286              		.loc 1 1974 8 is_stmt 0 view .LVU1916
 5287 01f4 00FB00F0 		mul	r0, r0, r0
 5288              	.LVL845:
1977:Core/Src/vl53l0x_api_core.c **** 		/*
 5289              		.loc 1 1977 3 is_stmt 1 view .LVU1917
1977:Core/Src/vl53l0x_api_core.c **** 		/*
 5290              		.loc 1 1977 16 is_stmt 0 view .LVU1918
 5291 01f8 06FB0600 		mla	r0, r6, r6, r0
 5292              	.LVL846:
1977:Core/Src/vl53l0x_api_core.c **** 		/*
 5293              		.loc 1 1977 16 view .LVU1919
 5294 01fc FFF7FEFF 		bl	VL53L0X_isqrt
 5295              	.LVL847:
1984:Core/Src/vl53l0x_api_core.c **** 
 5296              		.loc 1 1984 3 is_stmt 1 view .LVU1920
1984:Core/Src/vl53l0x_api_core.c **** 
 5297              		.loc 1 1984 18 is_stmt 0 view .LVU1921
 5298 0200 4FF47A73 		mov	r3, #1000
1984:Core/Src/vl53l0x_api_core.c **** 
 5299              		.loc 1 1984 18 view .LVU1922
 5300 0204 03FB00F0 		mul	r0, r3, r0
 5301              	.LVL848:
1986:Core/Src/vl53l0x_api_core.c **** 				(sigmaEstimate > cSigmaEstMax)) {
 5302              		.loc 1 1986 3 is_stmt 1 view .LVU1923
1986:Core/Src/vl53l0x_api_core.c **** 				(sigmaEstimate > cSigmaEstMax)) {
 5303              		.loc 1 1986 33 is_stmt 0 view .LVU1924
 5304 0208 BBF1000F 		cmp	fp, #0
 5305 020c 07D0     		beq	.L257
1986:Core/Src/vl53l0x_api_core.c **** 				(sigmaEstimate > cSigmaEstMax)) {
 5306              		.loc 1 1986 62 discriminator 2 view .LVU1925
 5307 020e 0F4B     		ldr	r3, .L260+4
1986:Core/Src/vl53l0x_api_core.c **** 				(sigmaEstimate > cSigmaEstMax)) {
 5308              		.loc 1 1986 62 discriminator 2 view .LVU1926
 5309 0210 9842     		cmp	r0, r3
 5310 0212 05D9     		bls	.L250
1988:Core/Src/vl53l0x_api_core.c **** 		}
 5311              		.loc 1 1988 19 view .LVU1927
 5312 0214 0D48     		ldr	r0, .L260+4
 5313              	.LVL849:
1988:Core/Src/vl53l0x_api_core.c **** 		}
 5314              		.loc 1 1988 19 view .LVU1928
 5315 0216 03E0     		b	.L250
 5316              	.LVL850:
 5317              	.L255:
ARM GAS  C:\Users\anmh1\AppData\Local\Temp\ccrmGbOb.s 			page 146


1881:Core/Src/vl53l0x_api_core.c **** 		} else {
 5318              		.loc 1 1881 11 view .LVU1929
 5319 0218 4FF48034 		mov	r4, #65536
 5320              	.LVL851:
1881:Core/Src/vl53l0x_api_core.c **** 		} else {
 5321              		.loc 1 1881 11 view .LVU1930
 5322 021c ACE7     		b	.L248
 5323              	.LVL852:
 5324              	.L257:
1988:Core/Src/vl53l0x_api_core.c **** 		}
 5325              		.loc 1 1988 19 view .LVU1931
 5326 021e 0B48     		ldr	r0, .L260+4
 5327              	.LVL853:
 5328              	.L250:
1991:Core/Src/vl53l0x_api_core.c **** 		PALDevDataSet(Dev, SigmaEstimate, *pSigmaEstimate);
 5329              		.loc 1 1991 3 is_stmt 1 view .LVU1932
1991:Core/Src/vl53l0x_api_core.c **** 		PALDevDataSet(Dev, SigmaEstimate, *pSigmaEstimate);
 5330              		.loc 1 1991 19 is_stmt 0 view .LVU1933
 5331 0220 069B     		ldr	r3, [sp, #24]
 5332 0222 1860     		str	r0, [r3]
1992:Core/Src/vl53l0x_api_core.c **** 		Status = VL53L0X_calc_dmax(
 5333              		.loc 1 1992 3 is_stmt 1 view .LVU1934
 5334 0224 C5F84001 		str	r0, [r5, #320]
1993:Core/Src/vl53l0x_api_core.c **** 			Dev,
 5335              		.loc 1 1993 3 view .LVU1935
1993:Core/Src/vl53l0x_api_core.c **** 			Dev,
 5336              		.loc 1 1993 12 is_stmt 0 view .LVU1936
 5337 0228 079B     		ldr	r3, [sp, #28]
 5338 022a 0393     		str	r3, [sp, #12]
 5339 022c CDF808A0 		str	r10, [sp, #8]
 5340 0230 0197     		str	r7, [sp, #4]
 5341 0232 4FF44873 		mov	r3, #800
 5342              	.LVL854:
1993:Core/Src/vl53l0x_api_core.c **** 			Dev,
 5343              		.loc 1 1993 12 view .LVU1937
 5344 0236 0093     		str	r3, [sp]
 5345 0238 2346     		mov	r3, r4
 5346              	.LVL855:
1993:Core/Src/vl53l0x_api_core.c **** 			Dev,
 5347              		.loc 1 1993 12 view .LVU1938
 5348 023a 099A     		ldr	r2, [sp, #36]
 5349 023c 0C99     		ldr	r1, [sp, #48]
 5350 023e 2846     		mov	r0, r5
 5351              	.LVL856:
1993:Core/Src/vl53l0x_api_core.c **** 			Dev,
 5352              		.loc 1 1993 12 view .LVU1939
 5353 0240 FFF7FEFF 		bl	VL53L0X_calc_dmax
 5354              	.LVL857:
1993:Core/Src/vl53l0x_api_core.c **** 			Dev,
 5355              		.loc 1 1993 12 view .LVU1940
 5356 0244 0746     		mov	r7, r0
 5357              	.LVL858:
1993:Core/Src/vl53l0x_api_core.c **** 			Dev,
 5358              		.loc 1 1993 12 view .LVU1941
 5359 0246 4AE7     		b	.L244
 5360              	.L261:
 5361              		.align	2
ARM GAS  C:\Users\anmh1\AppData\Local\Temp\ccrmGbOb.s 			page 147


 5362              	.L260:
 5363 0248 D34D6210 		.word	274877907
 5364 024c AE878F02 		.word	42960814
 5365 0250 66666600 		.word	6710886
 5366 0254 9A990600 		.word	432538
 5367 0258 517BC637 		.word	935754577
 5368 025c 1F85EB51 		.word	1374389535
 5369 0260 5917B7D1 		.word	-776530087
 5370 0264 0F279F24 		.word	614409999
 5371              		.cfi_endproc
 5372              	.LFE156:
 5374              		.section	.text.VL53L0X_get_pal_range_status,"ax",%progbits
 5375              		.align	1
 5376              		.global	VL53L0X_get_pal_range_status
 5377              		.syntax unified
 5378              		.thumb
 5379              		.thumb_func
 5380              		.fpu fpv4-sp-d16
 5382              	VL53L0X_get_pal_range_status:
 5383              	.LVL859:
 5384              	.LFB157:
2007:Core/Src/vl53l0x_api_core.c **** 
2008:Core/Src/vl53l0x_api_core.c **** VL53L0X_Error VL53L0X_get_pal_range_status(VL53L0X_DEV Dev,
2009:Core/Src/vl53l0x_api_core.c **** 		uint8_t DeviceRangeStatus,
2010:Core/Src/vl53l0x_api_core.c **** 		FixPoint1616_t SignalRate,
2011:Core/Src/vl53l0x_api_core.c **** 		uint16_t EffectiveSpadRtnCount,
2012:Core/Src/vl53l0x_api_core.c **** 		VL53L0X_RangingMeasurementData_t *pRangingMeasurementData,
2013:Core/Src/vl53l0x_api_core.c **** 		uint8_t *pPalRangeStatus)
2014:Core/Src/vl53l0x_api_core.c **** {
 5385              		.loc 1 2014 1 is_stmt 1 view -0
 5386              		.cfi_startproc
 5387              		@ args = 8, pretend = 0, frame = 40
 5388              		@ frame_needed = 0, uses_anonymous_args = 0
 5389              		.loc 1 2014 1 is_stmt 0 view .LVU1943
 5390 0000 2DE9F04F 		push	{r4, r5, r6, r7, r8, r9, r10, fp, lr}
 5391              		.cfi_def_cfa_offset 36
 5392              		.cfi_offset 4, -36
 5393              		.cfi_offset 5, -32
 5394              		.cfi_offset 6, -28
 5395              		.cfi_offset 7, -24
 5396              		.cfi_offset 8, -20
 5397              		.cfi_offset 9, -16
 5398              		.cfi_offset 10, -12
 5399              		.cfi_offset 11, -8
 5400              		.cfi_offset 14, -4
 5401 0004 8BB0     		sub	sp, sp, #44
 5402              		.cfi_def_cfa_offset 80
 5403 0006 0446     		mov	r4, r0
 5404 0008 0192     		str	r2, [sp, #4]
 5405 000a 1E46     		mov	r6, r3
 5406 000c DDF854A0 		ldr	r10, [sp, #84]
2015:Core/Src/vl53l0x_api_core.c **** 	VL53L0X_Error Status = VL53L0X_ERROR_NONE;
 5407              		.loc 1 2015 2 is_stmt 1 view .LVU1944
 5408              	.LVL860:
2016:Core/Src/vl53l0x_api_core.c **** 	uint8_t NoneFlag;
 5409              		.loc 1 2016 2 view .LVU1945
2017:Core/Src/vl53l0x_api_core.c **** 	uint8_t SigmaLimitflag = 0;
ARM GAS  C:\Users\anmh1\AppData\Local\Temp\ccrmGbOb.s 			page 148


 5410              		.loc 1 2017 2 view .LVU1946
2018:Core/Src/vl53l0x_api_core.c **** 	uint8_t SignalRefClipflag = 0;
 5411              		.loc 1 2018 2 view .LVU1947
2019:Core/Src/vl53l0x_api_core.c **** 	uint8_t RangeIgnoreThresholdflag = 0;
 5412              		.loc 1 2019 2 view .LVU1948
2020:Core/Src/vl53l0x_api_core.c **** 	uint8_t SigmaLimitCheckEnable = 0;
 5413              		.loc 1 2020 2 view .LVU1949
 5414              		.loc 1 2020 10 is_stmt 0 view .LVU1950
 5415 0010 0023     		movs	r3, #0
 5416              	.LVL861:
 5417              		.loc 1 2020 10 view .LVU1951
 5418 0012 8DF82730 		strb	r3, [sp, #39]
2021:Core/Src/vl53l0x_api_core.c **** 	uint8_t SignalRateFinalRangeLimitCheckEnable = 0;
 5419              		.loc 1 2021 2 is_stmt 1 view .LVU1952
 5420              		.loc 1 2021 10 is_stmt 0 view .LVU1953
 5421 0016 8DF82630 		strb	r3, [sp, #38]
2022:Core/Src/vl53l0x_api_core.c **** 	uint8_t SignalRefClipLimitCheckEnable = 0;
 5422              		.loc 1 2022 2 is_stmt 1 view .LVU1954
 5423              		.loc 1 2022 10 is_stmt 0 view .LVU1955
 5424 001a 8DF82530 		strb	r3, [sp, #37]
2023:Core/Src/vl53l0x_api_core.c **** 	uint8_t RangeIgnoreThresholdLimitCheckEnable = 0;
 5425              		.loc 1 2023 2 is_stmt 1 view .LVU1956
 5426              		.loc 1 2023 10 is_stmt 0 view .LVU1957
 5427 001e 8DF82430 		strb	r3, [sp, #36]
2024:Core/Src/vl53l0x_api_core.c **** 	FixPoint1616_t SigmaEstimate;
 5428              		.loc 1 2024 2 is_stmt 1 view .LVU1958
2025:Core/Src/vl53l0x_api_core.c **** 	FixPoint1616_t SigmaLimitValue;
 5429              		.loc 1 2025 2 view .LVU1959
2026:Core/Src/vl53l0x_api_core.c **** 	FixPoint1616_t SignalRefClipValue;
 5430              		.loc 1 2026 2 view .LVU1960
2027:Core/Src/vl53l0x_api_core.c **** 	FixPoint1616_t RangeIgnoreThresholdValue;
 5431              		.loc 1 2027 2 view .LVU1961
2028:Core/Src/vl53l0x_api_core.c **** 	FixPoint1616_t SignalRatePerSpad;
 5432              		.loc 1 2028 2 view .LVU1962
2029:Core/Src/vl53l0x_api_core.c **** 	uint8_t DeviceRangeStatusInternal = 0;
 5433              		.loc 1 2029 2 view .LVU1963
 5434              	.LVL862:
2030:Core/Src/vl53l0x_api_core.c **** 	uint16_t tmpWord = 0;
 5435              		.loc 1 2030 2 view .LVU1964
 5436              		.loc 1 2030 11 is_stmt 0 view .LVU1965
 5437 0022 ADF81230 		strh	r3, [sp, #18]	@ movhi
2031:Core/Src/vl53l0x_api_core.c **** 	uint8_t Temp8;
 5438              		.loc 1 2031 2 is_stmt 1 view .LVU1966
2032:Core/Src/vl53l0x_api_core.c **** 	uint32_t Dmax_mm = 0;
 5439              		.loc 1 2032 2 view .LVU1967
 5440              		.loc 1 2032 11 is_stmt 0 view .LVU1968
 5441 0026 0393     		str	r3, [sp, #12]
2033:Core/Src/vl53l0x_api_core.c **** 	FixPoint1616_t LastSignalRefMcps;
 5442              		.loc 1 2033 2 is_stmt 1 view .LVU1969
2034:Core/Src/vl53l0x_api_core.c **** 
2035:Core/Src/vl53l0x_api_core.c **** 	LOG_FUNCTION_START("");
 5443              		.loc 1 2035 2 view .LVU1970
2036:Core/Src/vl53l0x_api_core.c **** 
2037:Core/Src/vl53l0x_api_core.c **** 
2038:Core/Src/vl53l0x_api_core.c **** 	/*
2039:Core/Src/vl53l0x_api_core.c **** 	 * VL53L0X has a good ranging when the value of the
2040:Core/Src/vl53l0x_api_core.c **** 	 * DeviceRangeStatus = 11. This function will replace the value 0 with
ARM GAS  C:\Users\anmh1\AppData\Local\Temp\ccrmGbOb.s 			page 149


2041:Core/Src/vl53l0x_api_core.c **** 	 * the value 11 in the DeviceRangeStatus.
2042:Core/Src/vl53l0x_api_core.c **** 	 * In addition, the SigmaEstimator is not included in the VL53L0X
2043:Core/Src/vl53l0x_api_core.c **** 	 * DeviceRangeStatus, this will be added in the PalRangeStatus.
2044:Core/Src/vl53l0x_api_core.c **** 	 */
2045:Core/Src/vl53l0x_api_core.c **** 
2046:Core/Src/vl53l0x_api_core.c **** 	DeviceRangeStatusInternal = ((DeviceRangeStatus & 0x78) >> 3);
 5444              		.loc 1 2046 2 view .LVU1971
 5445              		.loc 1 2046 28 is_stmt 0 view .LVU1972
 5446 0028 C1F3C305 		ubfx	r5, r1, #3, #4
 5447              	.LVL863:
2047:Core/Src/vl53l0x_api_core.c **** 
2048:Core/Src/vl53l0x_api_core.c **** 	if (DeviceRangeStatusInternal == 0 ||
 5448              		.loc 1 2048 2 is_stmt 1 view .LVU1973
 5449              		.loc 1 2048 5 is_stmt 0 view .LVU1974
 5450 002c 11F0780F 		tst	r1, #120
 5451 0030 11D0     		beq	.L290
 5452              		.loc 1 2048 37 discriminator 1 view .LVU1975
 5453 0032 052D     		cmp	r5, #5
 5454 0034 44D0     		beq	.L291
2049:Core/Src/vl53l0x_api_core.c **** 		DeviceRangeStatusInternal == 5 ||
 5455              		.loc 1 2049 34 view .LVU1976
 5456 0036 072D     		cmp	r5, #7
 5457 0038 45D0     		beq	.L292
2050:Core/Src/vl53l0x_api_core.c **** 		DeviceRangeStatusInternal == 7 ||
 5458              		.loc 1 2050 34 view .LVU1977
 5459 003a 0C2D     		cmp	r5, #12
 5460 003c 46D0     		beq	.L293
2051:Core/Src/vl53l0x_api_core.c **** 		DeviceRangeStatusInternal == 12 ||
 5461              		.loc 1 2051 35 view .LVU1978
 5462 003e 0D2D     		cmp	r5, #13
 5463 0040 47D0     		beq	.L294
2052:Core/Src/vl53l0x_api_core.c **** 		DeviceRangeStatusInternal == 13 ||
 5464              		.loc 1 2052 35 view .LVU1979
 5465 0042 0E2D     		cmp	r5, #14
 5466 0044 48D0     		beq	.L295
2053:Core/Src/vl53l0x_api_core.c **** 		DeviceRangeStatusInternal == 14 ||
 5467              		.loc 1 2053 35 view .LVU1980
 5468 0046 0F2D     		cmp	r5, #15
 5469 0048 02D0     		beq	.L314
2054:Core/Src/vl53l0x_api_core.c **** 		DeviceRangeStatusInternal == 15
2055:Core/Src/vl53l0x_api_core.c **** 			) {
2056:Core/Src/vl53l0x_api_core.c **** 		NoneFlag = 1;
2057:Core/Src/vl53l0x_api_core.c **** 	} else {
2058:Core/Src/vl53l0x_api_core.c **** 		NoneFlag = 0;
 5470              		.loc 1 2058 12 view .LVU1981
 5471 004a 4FF0000B 		mov	fp, #0
 5472 004e 04E0     		b	.L263
 5473              	.L314:
2056:Core/Src/vl53l0x_api_core.c **** 	} else {
 5474              		.loc 1 2056 12 view .LVU1982
 5475 0050 4FF0010B 		mov	fp, #1
 5476 0054 01E0     		b	.L263
 5477              	.L290:
 5478 0056 4FF0010B 		mov	fp, #1
 5479              	.L263:
 5480              	.LVL864:
2059:Core/Src/vl53l0x_api_core.c **** 	}
ARM GAS  C:\Users\anmh1\AppData\Local\Temp\ccrmGbOb.s 			page 150


2060:Core/Src/vl53l0x_api_core.c **** 
2061:Core/Src/vl53l0x_api_core.c **** 	/*
2062:Core/Src/vl53l0x_api_core.c **** 	 * Check if Sigma limit is enabled, if yes then do comparison with limit
2063:Core/Src/vl53l0x_api_core.c **** 	 * value and put the result back into pPalRangeStatus.
2064:Core/Src/vl53l0x_api_core.c **** 	 */
2065:Core/Src/vl53l0x_api_core.c **** 	if (Status == VL53L0X_ERROR_NONE)
 5481              		.loc 1 2065 2 is_stmt 1 view .LVU1983
2066:Core/Src/vl53l0x_api_core.c **** 		Status =  VL53L0X_GetLimitCheckEnable(Dev,
 5482              		.loc 1 2066 3 view .LVU1984
 5483              		.loc 1 2066 13 is_stmt 0 view .LVU1985
 5484 005a 0DF12702 		add	r2, sp, #39
 5485              	.LVL865:
 5486              		.loc 1 2066 13 view .LVU1986
 5487 005e 0021     		movs	r1, #0
 5488              	.LVL866:
 5489              		.loc 1 2066 13 view .LVU1987
 5490 0060 2046     		mov	r0, r4
 5491              	.LVL867:
 5492              		.loc 1 2066 13 view .LVU1988
 5493 0062 FFF7FEFF 		bl	VL53L0X_GetLimitCheckEnable
 5494              	.LVL868:
2067:Core/Src/vl53l0x_api_core.c **** 			VL53L0X_CHECKENABLE_SIGMA_FINAL_RANGE,
2068:Core/Src/vl53l0x_api_core.c **** 			&SigmaLimitCheckEnable);
2069:Core/Src/vl53l0x_api_core.c **** 
2070:Core/Src/vl53l0x_api_core.c **** 	if ((SigmaLimitCheckEnable != 0) && (Status == VL53L0X_ERROR_NONE)) {
 5495              		.loc 1 2070 2 is_stmt 1 view .LVU1989
 5496              		.loc 1 2070 29 is_stmt 0 view .LVU1990
 5497 0066 9DF82790 		ldrb	r9, [sp, #39]	@ zero_extendqisi2
 5498              		.loc 1 2070 5 view .LVU1991
 5499 006a B9F1000F 		cmp	r9, #0
 5500 006e 03D0     		beq	.L264
 5501              		.loc 1 2070 35 discriminator 1 view .LVU1992
 5502 0070 0028     		cmp	r0, #0
 5503 0072 34D0     		beq	.L315
2017:Core/Src/vl53l0x_api_core.c **** 	uint8_t SignalRefClipflag = 0;
 5504              		.loc 1 2017 10 view .LVU1993
 5505 0074 4FF00009 		mov	r9, #0
 5506              	.L264:
 5507              	.LVL869:
2071:Core/Src/vl53l0x_api_core.c **** 		/*
2072:Core/Src/vl53l0x_api_core.c **** 		* compute the Sigma and check with limit
2073:Core/Src/vl53l0x_api_core.c **** 		*/
2074:Core/Src/vl53l0x_api_core.c **** 		Status = VL53L0X_calc_sigma_estimate(
2075:Core/Src/vl53l0x_api_core.c **** 			Dev,
2076:Core/Src/vl53l0x_api_core.c **** 			pRangingMeasurementData,
2077:Core/Src/vl53l0x_api_core.c **** 			&SigmaEstimate,
2078:Core/Src/vl53l0x_api_core.c **** 			&Dmax_mm);
2079:Core/Src/vl53l0x_api_core.c **** 		if (Status == VL53L0X_ERROR_NONE)
2080:Core/Src/vl53l0x_api_core.c **** 			pRangingMeasurementData->RangeDMaxMilliMeter = Dmax_mm;
2081:Core/Src/vl53l0x_api_core.c **** 
2082:Core/Src/vl53l0x_api_core.c **** 		if (Status == VL53L0X_ERROR_NONE) {
2083:Core/Src/vl53l0x_api_core.c **** 			Status = VL53L0X_GetLimitCheckValue(Dev,
2084:Core/Src/vl53l0x_api_core.c **** 				VL53L0X_CHECKENABLE_SIGMA_FINAL_RANGE,
2085:Core/Src/vl53l0x_api_core.c **** 				&SigmaLimitValue);
2086:Core/Src/vl53l0x_api_core.c **** 
2087:Core/Src/vl53l0x_api_core.c **** 			if ((SigmaLimitValue > 0) &&
2088:Core/Src/vl53l0x_api_core.c **** 				(SigmaEstimate > SigmaLimitValue))
ARM GAS  C:\Users\anmh1\AppData\Local\Temp\ccrmGbOb.s 			page 151


2089:Core/Src/vl53l0x_api_core.c **** 					/* Limit Fail */
2090:Core/Src/vl53l0x_api_core.c **** 					SigmaLimitflag = 1;
2091:Core/Src/vl53l0x_api_core.c **** 		}
2092:Core/Src/vl53l0x_api_core.c **** 	}
2093:Core/Src/vl53l0x_api_core.c **** 
2094:Core/Src/vl53l0x_api_core.c **** 	/*
2095:Core/Src/vl53l0x_api_core.c **** 	 * Check if Signal ref clip limit is enabled, if yes then do comparison
2096:Core/Src/vl53l0x_api_core.c **** 	 * with limit value and put the result back into pPalRangeStatus.
2097:Core/Src/vl53l0x_api_core.c **** 	 */
2098:Core/Src/vl53l0x_api_core.c **** 	if (Status == VL53L0X_ERROR_NONE)
 5508              		.loc 1 2098 2 is_stmt 1 view .LVU1994
 5509              		.loc 1 2098 5 is_stmt 0 view .LVU1995
 5510 0078 0028     		cmp	r0, #0
 5511 007a 51D0     		beq	.L316
 5512              	.L266:
2099:Core/Src/vl53l0x_api_core.c **** 		Status =  VL53L0X_GetLimitCheckEnable(Dev,
2100:Core/Src/vl53l0x_api_core.c **** 				VL53L0X_CHECKENABLE_SIGNAL_REF_CLIP,
2101:Core/Src/vl53l0x_api_core.c **** 				&SignalRefClipLimitCheckEnable);
2102:Core/Src/vl53l0x_api_core.c **** 
2103:Core/Src/vl53l0x_api_core.c **** 	if ((SignalRefClipLimitCheckEnable != 0) &&
 5513              		.loc 1 2103 2 is_stmt 1 view .LVU1996
 5514              		.loc 1 2103 37 is_stmt 0 view .LVU1997
 5515 007c 9DF82570 		ldrb	r7, [sp, #37]	@ zero_extendqisi2
 5516              		.loc 1 2103 5 view .LVU1998
 5517 0080 17B1     		cbz	r7, .L267
 5518              		.loc 1 2103 43 discriminator 1 view .LVU1999
 5519 0082 0028     		cmp	r0, #0
 5520 0084 53D0     		beq	.L317
2018:Core/Src/vl53l0x_api_core.c **** 	uint8_t RangeIgnoreThresholdflag = 0;
 5521              		.loc 1 2018 10 view .LVU2000
 5522 0086 0027     		movs	r7, #0
 5523              	.L267:
 5524              	.LVL870:
2104:Core/Src/vl53l0x_api_core.c **** 			(Status == VL53L0X_ERROR_NONE)) {
2105:Core/Src/vl53l0x_api_core.c **** 
2106:Core/Src/vl53l0x_api_core.c **** 		Status = VL53L0X_GetLimitCheckValue(Dev,
2107:Core/Src/vl53l0x_api_core.c **** 				VL53L0X_CHECKENABLE_SIGNAL_REF_CLIP,
2108:Core/Src/vl53l0x_api_core.c **** 				&SignalRefClipValue);
2109:Core/Src/vl53l0x_api_core.c **** 
2110:Core/Src/vl53l0x_api_core.c **** 		/* Read LastSignalRefMcps from device */
2111:Core/Src/vl53l0x_api_core.c **** 		if (Status == VL53L0X_ERROR_NONE)
2112:Core/Src/vl53l0x_api_core.c **** 			Status = VL53L0X_WrByte(Dev, 0xFF, 0x01);
2113:Core/Src/vl53l0x_api_core.c **** 
2114:Core/Src/vl53l0x_api_core.c **** 		if (Status == VL53L0X_ERROR_NONE)
2115:Core/Src/vl53l0x_api_core.c **** 			Status = VL53L0X_RdWord(Dev,
2116:Core/Src/vl53l0x_api_core.c **** 				VL53L0X_REG_RESULT_PEAK_SIGNAL_RATE_REF,
2117:Core/Src/vl53l0x_api_core.c **** 				&tmpWord);
2118:Core/Src/vl53l0x_api_core.c **** 
2119:Core/Src/vl53l0x_api_core.c **** 		if (Status == VL53L0X_ERROR_NONE)
2120:Core/Src/vl53l0x_api_core.c **** 			Status = VL53L0X_WrByte(Dev, 0xFF, 0x00);
2121:Core/Src/vl53l0x_api_core.c **** 
2122:Core/Src/vl53l0x_api_core.c **** 		LastSignalRefMcps = VL53L0X_FIXPOINT97TOFIXPOINT1616(tmpWord);
2123:Core/Src/vl53l0x_api_core.c **** 		PALDevDataSet(Dev, LastSignalRefMcps, LastSignalRefMcps);
2124:Core/Src/vl53l0x_api_core.c **** 
2125:Core/Src/vl53l0x_api_core.c **** 		if ((SignalRefClipValue > 0) &&
2126:Core/Src/vl53l0x_api_core.c **** 				(LastSignalRefMcps > SignalRefClipValue)) {
2127:Core/Src/vl53l0x_api_core.c **** 			/* Limit Fail */
ARM GAS  C:\Users\anmh1\AppData\Local\Temp\ccrmGbOb.s 			page 152


2128:Core/Src/vl53l0x_api_core.c **** 			SignalRefClipflag = 1;
2129:Core/Src/vl53l0x_api_core.c **** 		}
2130:Core/Src/vl53l0x_api_core.c **** 	}
2131:Core/Src/vl53l0x_api_core.c **** 
2132:Core/Src/vl53l0x_api_core.c **** 	/*
2133:Core/Src/vl53l0x_api_core.c **** 	 * Check if Signal ref clip limit is enabled, if yes then do comparison
2134:Core/Src/vl53l0x_api_core.c **** 	 * with limit value and put the result back into pPalRangeStatus.
2135:Core/Src/vl53l0x_api_core.c **** 	 * EffectiveSpadRtnCount has a format 8.8
2136:Core/Src/vl53l0x_api_core.c **** 	 * If (Return signal rate < (1.5 x Xtalk x number of Spads)) : FAIL
2137:Core/Src/vl53l0x_api_core.c **** 	 */
2138:Core/Src/vl53l0x_api_core.c **** 	if (Status == VL53L0X_ERROR_NONE)
 5525              		.loc 1 2138 2 is_stmt 1 view .LVU2001
 5526              		.loc 1 2138 5 is_stmt 0 view .LVU2002
 5527 0088 0028     		cmp	r0, #0
 5528 008a 7AD0     		beq	.L318
 5529              	.L271:
2139:Core/Src/vl53l0x_api_core.c **** 		Status =  VL53L0X_GetLimitCheckEnable(Dev,
2140:Core/Src/vl53l0x_api_core.c **** 				VL53L0X_CHECKENABLE_RANGE_IGNORE_THRESHOLD,
2141:Core/Src/vl53l0x_api_core.c **** 				&RangeIgnoreThresholdLimitCheckEnable);
2142:Core/Src/vl53l0x_api_core.c **** 
2143:Core/Src/vl53l0x_api_core.c **** 	if ((RangeIgnoreThresholdLimitCheckEnable != 0) &&
 5530              		.loc 1 2143 2 is_stmt 1 view .LVU2003
 5531              		.loc 1 2143 44 is_stmt 0 view .LVU2004
 5532 008c 9DF82480 		ldrb	r8, [sp, #36]	@ zero_extendqisi2
 5533              		.loc 1 2143 5 view .LVU2005
 5534 0090 B8F1000F 		cmp	r8, #0
 5535 0094 7FD0     		beq	.L272
 5536              		.loc 1 2143 50 discriminator 1 view .LVU2006
 5537 0096 0028     		cmp	r0, #0
 5538 0098 7BD1     		bne	.L304
2144:Core/Src/vl53l0x_api_core.c **** 			(Status == VL53L0X_ERROR_NONE)) {
2145:Core/Src/vl53l0x_api_core.c **** 
2146:Core/Src/vl53l0x_api_core.c **** 		/* Compute the signal rate per spad */
2147:Core/Src/vl53l0x_api_core.c **** 		if (EffectiveSpadRtnCount == 0) {
 5539              		.loc 1 2147 3 is_stmt 1 view .LVU2007
 5540              		.loc 1 2147 6 is_stmt 0 view .LVU2008
 5541 009a 002E     		cmp	r6, #0
 5542 009c 77D0     		beq	.L305
2148:Core/Src/vl53l0x_api_core.c **** 			SignalRatePerSpad = 0;
2149:Core/Src/vl53l0x_api_core.c **** 		} else {
2150:Core/Src/vl53l0x_api_core.c **** 			SignalRatePerSpad = (FixPoint1616_t)((256 * SignalRate)
 5543              		.loc 1 2150 4 is_stmt 1 view .LVU2009
 5544              		.loc 1 2150 46 is_stmt 0 view .LVU2010
 5545 009e 019B     		ldr	r3, [sp, #4]
 5546 00a0 1A02     		lsls	r2, r3, #8
 5547              		.loc 1 2150 22 view .LVU2011
 5548 00a2 B2FBF6F6 		udiv	r6, r2, r6
 5549              	.LVL871:
 5550              	.L273:
2151:Core/Src/vl53l0x_api_core.c **** 				/ EffectiveSpadRtnCount);
2152:Core/Src/vl53l0x_api_core.c **** 		}
2153:Core/Src/vl53l0x_api_core.c **** 
2154:Core/Src/vl53l0x_api_core.c **** 		Status = VL53L0X_GetLimitCheckValue(Dev,
 5551              		.loc 1 2154 3 is_stmt 1 view .LVU2012
 5552              		.loc 1 2154 12 is_stmt 0 view .LVU2013
 5553 00a6 05AA     		add	r2, sp, #20
 5554 00a8 0321     		movs	r1, #3
ARM GAS  C:\Users\anmh1\AppData\Local\Temp\ccrmGbOb.s 			page 153


 5555 00aa 2046     		mov	r0, r4
 5556              	.LVL872:
 5557              		.loc 1 2154 12 view .LVU2014
 5558 00ac FFF7FEFF 		bl	VL53L0X_GetLimitCheckValue
 5559              	.LVL873:
2155:Core/Src/vl53l0x_api_core.c **** 				VL53L0X_CHECKENABLE_RANGE_IGNORE_THRESHOLD,
2156:Core/Src/vl53l0x_api_core.c **** 				&RangeIgnoreThresholdValue);
2157:Core/Src/vl53l0x_api_core.c **** 
2158:Core/Src/vl53l0x_api_core.c **** 		if ((RangeIgnoreThresholdValue > 0) &&
 5560              		.loc 1 2158 3 is_stmt 1 view .LVU2015
 5561              		.loc 1 2158 34 is_stmt 0 view .LVU2016
 5562 00b0 059B     		ldr	r3, [sp, #20]
 5563              		.loc 1 2158 6 view .LVU2017
 5564 00b2 002B     		cmp	r3, #0
 5565 00b4 7BD0     		beq	.L306
 5566              		.loc 1 2158 39 discriminator 1 view .LVU2018
 5567 00b6 B342     		cmp	r3, r6
 5568 00b8 7CD8     		bhi	.L307
2019:Core/Src/vl53l0x_api_core.c **** 	uint8_t SigmaLimitCheckEnable = 0;
 5569              		.loc 1 2019 10 view .LVU2019
 5570 00ba 4FF00008 		mov	r8, #0
 5571 00be 6AE0     		b	.L272
 5572              	.LVL874:
 5573              	.L291:
2056:Core/Src/vl53l0x_api_core.c **** 	} else {
 5574              		.loc 1 2056 12 view .LVU2020
 5575 00c0 4FF0010B 		mov	fp, #1
 5576 00c4 C9E7     		b	.L263
 5577              	.L292:
 5578 00c6 4FF0010B 		mov	fp, #1
 5579 00ca C6E7     		b	.L263
 5580              	.L293:
 5581 00cc 4FF0010B 		mov	fp, #1
 5582 00d0 C3E7     		b	.L263
 5583              	.L294:
 5584 00d2 4FF0010B 		mov	fp, #1
 5585 00d6 C0E7     		b	.L263
 5586              	.L295:
 5587 00d8 4FF0010B 		mov	fp, #1
 5588 00dc BDE7     		b	.L263
 5589              	.LVL875:
 5590              	.L315:
2074:Core/Src/vl53l0x_api_core.c **** 			Dev,
 5591              		.loc 1 2074 3 is_stmt 1 view .LVU2021
2074:Core/Src/vl53l0x_api_core.c **** 			Dev,
 5592              		.loc 1 2074 12 is_stmt 0 view .LVU2022
 5593 00de 03AB     		add	r3, sp, #12
 5594 00e0 08AA     		add	r2, sp, #32
 5595 00e2 1499     		ldr	r1, [sp, #80]
 5596 00e4 2046     		mov	r0, r4
 5597              	.LVL876:
2074:Core/Src/vl53l0x_api_core.c **** 			Dev,
 5598              		.loc 1 2074 12 view .LVU2023
 5599 00e6 FFF7FEFF 		bl	VL53L0X_calc_sigma_estimate
 5600              	.LVL877:
2079:Core/Src/vl53l0x_api_core.c **** 			pRangingMeasurementData->RangeDMaxMilliMeter = Dmax_mm;
 5601              		.loc 1 2079 3 is_stmt 1 view .LVU2024
ARM GAS  C:\Users\anmh1\AppData\Local\Temp\ccrmGbOb.s 			page 154


2079:Core/Src/vl53l0x_api_core.c **** 			pRangingMeasurementData->RangeDMaxMilliMeter = Dmax_mm;
 5602              		.loc 1 2079 6 is_stmt 0 view .LVU2025
 5603 00ea 10B9     		cbnz	r0, .L265
2080:Core/Src/vl53l0x_api_core.c **** 
 5604              		.loc 1 2080 4 is_stmt 1 view .LVU2026
2080:Core/Src/vl53l0x_api_core.c **** 
 5605              		.loc 1 2080 49 is_stmt 0 view .LVU2027
 5606 00ec 039B     		ldr	r3, [sp, #12]
 5607 00ee 149A     		ldr	r2, [sp, #80]
 5608 00f0 5381     		strh	r3, [r2, #10]	@ movhi
 5609              	.L265:
2082:Core/Src/vl53l0x_api_core.c **** 			Status = VL53L0X_GetLimitCheckValue(Dev,
 5610              		.loc 1 2082 3 is_stmt 1 view .LVU2028
2082:Core/Src/vl53l0x_api_core.c **** 			Status = VL53L0X_GetLimitCheckValue(Dev,
 5611              		.loc 1 2082 6 is_stmt 0 view .LVU2029
 5612 00f2 10B1     		cbz	r0, .L319
2017:Core/Src/vl53l0x_api_core.c **** 	uint8_t SignalRefClipflag = 0;
 5613              		.loc 1 2017 10 view .LVU2030
 5614 00f4 4FF00009 		mov	r9, #0
 5615 00f8 BEE7     		b	.L264
 5616              	.L319:
2083:Core/Src/vl53l0x_api_core.c **** 				VL53L0X_CHECKENABLE_SIGMA_FINAL_RANGE,
 5617              		.loc 1 2083 4 is_stmt 1 view .LVU2031
2083:Core/Src/vl53l0x_api_core.c **** 				VL53L0X_CHECKENABLE_SIGMA_FINAL_RANGE,
 5618              		.loc 1 2083 13 is_stmt 0 view .LVU2032
 5619 00fa 07AA     		add	r2, sp, #28
 5620 00fc 0021     		movs	r1, #0
 5621 00fe 2046     		mov	r0, r4
 5622              	.LVL878:
2083:Core/Src/vl53l0x_api_core.c **** 				VL53L0X_CHECKENABLE_SIGMA_FINAL_RANGE,
 5623              		.loc 1 2083 13 view .LVU2033
 5624 0100 FFF7FEFF 		bl	VL53L0X_GetLimitCheckValue
 5625              	.LVL879:
2087:Core/Src/vl53l0x_api_core.c **** 				(SigmaEstimate > SigmaLimitValue))
 5626              		.loc 1 2087 4 is_stmt 1 view .LVU2034
2087:Core/Src/vl53l0x_api_core.c **** 				(SigmaEstimate > SigmaLimitValue))
 5627              		.loc 1 2087 25 is_stmt 0 view .LVU2035
 5628 0104 079B     		ldr	r3, [sp, #28]
2087:Core/Src/vl53l0x_api_core.c **** 				(SigmaEstimate > SigmaLimitValue))
 5629              		.loc 1 2087 7 view .LVU2036
 5630 0106 2BB1     		cbz	r3, .L299
2088:Core/Src/vl53l0x_api_core.c **** 					/* Limit Fail */
 5631              		.loc 1 2088 20 discriminator 1 view .LVU2037
 5632 0108 089A     		ldr	r2, [sp, #32]
2087:Core/Src/vl53l0x_api_core.c **** 				(SigmaEstimate > SigmaLimitValue))
 5633              		.loc 1 2087 30 discriminator 1 view .LVU2038
 5634 010a 9342     		cmp	r3, r2
 5635 010c 05D3     		bcc	.L300
2017:Core/Src/vl53l0x_api_core.c **** 	uint8_t SignalRefClipflag = 0;
 5636              		.loc 1 2017 10 view .LVU2039
 5637 010e 4FF00009 		mov	r9, #0
 5638 0112 B1E7     		b	.L264
 5639              	.L299:
 5640 0114 4FF00009 		mov	r9, #0
 5641 0118 AEE7     		b	.L264
 5642              	.L300:
2090:Core/Src/vl53l0x_api_core.c **** 		}
ARM GAS  C:\Users\anmh1\AppData\Local\Temp\ccrmGbOb.s 			page 155


 5643              		.loc 1 2090 21 view .LVU2040
 5644 011a 4FF00109 		mov	r9, #1
 5645 011e ABE7     		b	.L264
 5646              	.LVL880:
 5647              	.L316:
2099:Core/Src/vl53l0x_api_core.c **** 				VL53L0X_CHECKENABLE_SIGNAL_REF_CLIP,
 5648              		.loc 1 2099 3 is_stmt 1 view .LVU2041
2099:Core/Src/vl53l0x_api_core.c **** 				VL53L0X_CHECKENABLE_SIGNAL_REF_CLIP,
 5649              		.loc 1 2099 13 is_stmt 0 view .LVU2042
 5650 0120 0DF12502 		add	r2, sp, #37
 5651 0124 0221     		movs	r1, #2
 5652 0126 2046     		mov	r0, r4
 5653              	.LVL881:
2099:Core/Src/vl53l0x_api_core.c **** 				VL53L0X_CHECKENABLE_SIGNAL_REF_CLIP,
 5654              		.loc 1 2099 13 view .LVU2043
 5655 0128 FFF7FEFF 		bl	VL53L0X_GetLimitCheckEnable
 5656              	.LVL882:
2099:Core/Src/vl53l0x_api_core.c **** 				VL53L0X_CHECKENABLE_SIGNAL_REF_CLIP,
 5657              		.loc 1 2099 13 view .LVU2044
 5658 012c A6E7     		b	.L266
 5659              	.L317:
2106:Core/Src/vl53l0x_api_core.c **** 				VL53L0X_CHECKENABLE_SIGNAL_REF_CLIP,
 5660              		.loc 1 2106 3 is_stmt 1 view .LVU2045
2106:Core/Src/vl53l0x_api_core.c **** 				VL53L0X_CHECKENABLE_SIGNAL_REF_CLIP,
 5661              		.loc 1 2106 12 is_stmt 0 view .LVU2046
 5662 012e 06AA     		add	r2, sp, #24
 5663 0130 0221     		movs	r1, #2
 5664 0132 2046     		mov	r0, r4
 5665              	.LVL883:
2106:Core/Src/vl53l0x_api_core.c **** 				VL53L0X_CHECKENABLE_SIGNAL_REF_CLIP,
 5666              		.loc 1 2106 12 view .LVU2047
 5667 0134 FFF7FEFF 		bl	VL53L0X_GetLimitCheckValue
 5668              	.LVL884:
2111:Core/Src/vl53l0x_api_core.c **** 			Status = VL53L0X_WrByte(Dev, 0xFF, 0x01);
 5669              		.loc 1 2111 3 is_stmt 1 view .LVU2048
2111:Core/Src/vl53l0x_api_core.c **** 			Status = VL53L0X_WrByte(Dev, 0xFF, 0x01);
 5670              		.loc 1 2111 6 is_stmt 0 view .LVU2049
 5671 0138 60B1     		cbz	r0, .L320
 5672              	.L268:
2114:Core/Src/vl53l0x_api_core.c **** 			Status = VL53L0X_RdWord(Dev,
 5673              		.loc 1 2114 3 is_stmt 1 view .LVU2050
2114:Core/Src/vl53l0x_api_core.c **** 			Status = VL53L0X_RdWord(Dev,
 5674              		.loc 1 2114 6 is_stmt 0 view .LVU2051
 5675 013a 88B1     		cbz	r0, .L321
 5676              	.L269:
2119:Core/Src/vl53l0x_api_core.c **** 			Status = VL53L0X_WrByte(Dev, 0xFF, 0x00);
 5677              		.loc 1 2119 3 is_stmt 1 view .LVU2052
2119:Core/Src/vl53l0x_api_core.c **** 			Status = VL53L0X_WrByte(Dev, 0xFF, 0x00);
 5678              		.loc 1 2119 6 is_stmt 0 view .LVU2053
 5679 013c B8B1     		cbz	r0, .L322
 5680              	.L270:
2122:Core/Src/vl53l0x_api_core.c **** 		PALDevDataSet(Dev, LastSignalRefMcps, LastSignalRefMcps);
 5681              		.loc 1 2122 3 is_stmt 1 view .LVU2054
2122:Core/Src/vl53l0x_api_core.c **** 		PALDevDataSet(Dev, LastSignalRefMcps, LastSignalRefMcps);
 5682              		.loc 1 2122 23 is_stmt 0 view .LVU2055
 5683 013e BDF81230 		ldrh	r3, [sp, #18]
 5684 0142 5B02     		lsls	r3, r3, #9
ARM GAS  C:\Users\anmh1\AppData\Local\Temp\ccrmGbOb.s 			page 156


 5685              	.LVL885:
2123:Core/Src/vl53l0x_api_core.c **** 
 5686              		.loc 1 2123 3 is_stmt 1 view .LVU2056
 5687 0144 C4F84831 		str	r3, [r4, #328]
2125:Core/Src/vl53l0x_api_core.c **** 				(LastSignalRefMcps > SignalRefClipValue)) {
 5688              		.loc 1 2125 3 view .LVU2057
2125:Core/Src/vl53l0x_api_core.c **** 				(LastSignalRefMcps > SignalRefClipValue)) {
 5689              		.loc 1 2125 27 is_stmt 0 view .LVU2058
 5690 0148 069A     		ldr	r2, [sp, #24]
2125:Core/Src/vl53l0x_api_core.c **** 				(LastSignalRefMcps > SignalRefClipValue)) {
 5691              		.loc 1 2125 6 view .LVU2059
 5692 014a B2B1     		cbz	r2, .L302
2125:Core/Src/vl53l0x_api_core.c **** 				(LastSignalRefMcps > SignalRefClipValue)) {
 5693              		.loc 1 2125 32 discriminator 1 view .LVU2060
 5694 014c 9A42     		cmp	r2, r3
 5695 014e 16D3     		bcc	.L303
2018:Core/Src/vl53l0x_api_core.c **** 	uint8_t RangeIgnoreThresholdflag = 0;
 5696              		.loc 1 2018 10 view .LVU2061
 5697 0150 0027     		movs	r7, #0
 5698 0152 99E7     		b	.L267
 5699              	.LVL886:
 5700              	.L320:
2112:Core/Src/vl53l0x_api_core.c **** 
 5701              		.loc 1 2112 4 is_stmt 1 view .LVU2062
2112:Core/Src/vl53l0x_api_core.c **** 
 5702              		.loc 1 2112 13 is_stmt 0 view .LVU2063
 5703 0154 0122     		movs	r2, #1
 5704 0156 FF21     		movs	r1, #255
 5705 0158 2046     		mov	r0, r4
 5706              	.LVL887:
2112:Core/Src/vl53l0x_api_core.c **** 
 5707              		.loc 1 2112 13 view .LVU2064
 5708 015a FFF7FEFF 		bl	VL53L0X_WrByte
 5709              	.LVL888:
2112:Core/Src/vl53l0x_api_core.c **** 
 5710              		.loc 1 2112 13 view .LVU2065
 5711 015e ECE7     		b	.L268
 5712              	.L321:
2115:Core/Src/vl53l0x_api_core.c **** 				VL53L0X_REG_RESULT_PEAK_SIGNAL_RATE_REF,
 5713              		.loc 1 2115 4 is_stmt 1 view .LVU2066
2115:Core/Src/vl53l0x_api_core.c **** 				VL53L0X_REG_RESULT_PEAK_SIGNAL_RATE_REF,
 5714              		.loc 1 2115 13 is_stmt 0 view .LVU2067
 5715 0160 0DF11202 		add	r2, sp, #18
 5716 0164 B621     		movs	r1, #182
 5717 0166 2046     		mov	r0, r4
 5718              	.LVL889:
2115:Core/Src/vl53l0x_api_core.c **** 				VL53L0X_REG_RESULT_PEAK_SIGNAL_RATE_REF,
 5719              		.loc 1 2115 13 view .LVU2068
 5720 0168 FFF7FEFF 		bl	VL53L0X_RdWord
 5721              	.LVL890:
2115:Core/Src/vl53l0x_api_core.c **** 				VL53L0X_REG_RESULT_PEAK_SIGNAL_RATE_REF,
 5722              		.loc 1 2115 13 view .LVU2069
 5723 016c E6E7     		b	.L269
 5724              	.L322:
2120:Core/Src/vl53l0x_api_core.c **** 
 5725              		.loc 1 2120 4 is_stmt 1 view .LVU2070
2120:Core/Src/vl53l0x_api_core.c **** 
ARM GAS  C:\Users\anmh1\AppData\Local\Temp\ccrmGbOb.s 			page 157


 5726              		.loc 1 2120 13 is_stmt 0 view .LVU2071
 5727 016e 0022     		movs	r2, #0
 5728 0170 FF21     		movs	r1, #255
 5729 0172 2046     		mov	r0, r4
 5730              	.LVL891:
2120:Core/Src/vl53l0x_api_core.c **** 
 5731              		.loc 1 2120 13 view .LVU2072
 5732 0174 FFF7FEFF 		bl	VL53L0X_WrByte
 5733              	.LVL892:
2120:Core/Src/vl53l0x_api_core.c **** 
 5734              		.loc 1 2120 13 view .LVU2073
 5735 0178 E1E7     		b	.L270
 5736              	.LVL893:
 5737              	.L302:
2018:Core/Src/vl53l0x_api_core.c **** 	uint8_t RangeIgnoreThresholdflag = 0;
 5738              		.loc 1 2018 10 view .LVU2074
 5739 017a 0027     		movs	r7, #0
 5740 017c 84E7     		b	.L267
 5741              	.L303:
2128:Core/Src/vl53l0x_api_core.c **** 		}
 5742              		.loc 1 2128 22 view .LVU2075
 5743 017e 0127     		movs	r7, #1
 5744 0180 82E7     		b	.L267
 5745              	.LVL894:
 5746              	.L318:
2139:Core/Src/vl53l0x_api_core.c **** 				VL53L0X_CHECKENABLE_RANGE_IGNORE_THRESHOLD,
 5747              		.loc 1 2139 3 is_stmt 1 view .LVU2076
2139:Core/Src/vl53l0x_api_core.c **** 				VL53L0X_CHECKENABLE_RANGE_IGNORE_THRESHOLD,
 5748              		.loc 1 2139 13 is_stmt 0 view .LVU2077
 5749 0182 09AA     		add	r2, sp, #36
 5750 0184 0321     		movs	r1, #3
 5751 0186 2046     		mov	r0, r4
 5752              	.LVL895:
2139:Core/Src/vl53l0x_api_core.c **** 				VL53L0X_CHECKENABLE_RANGE_IGNORE_THRESHOLD,
 5753              		.loc 1 2139 13 view .LVU2078
 5754 0188 FFF7FEFF 		bl	VL53L0X_GetLimitCheckEnable
 5755              	.LVL896:
2139:Core/Src/vl53l0x_api_core.c **** 				VL53L0X_CHECKENABLE_RANGE_IGNORE_THRESHOLD,
 5756              		.loc 1 2139 13 view .LVU2079
 5757 018c 7EE7     		b	.L271
 5758              	.L305:
2148:Core/Src/vl53l0x_api_core.c **** 		} else {
 5759              		.loc 1 2148 22 view .LVU2080
 5760 018e 0026     		movs	r6, #0
 5761 0190 89E7     		b	.L273
 5762              	.L304:
2019:Core/Src/vl53l0x_api_core.c **** 	uint8_t SigmaLimitCheckEnable = 0;
 5763              		.loc 1 2019 10 view .LVU2081
 5764 0192 4FF00008 		mov	r8, #0
 5765              	.L272:
 5766              	.LVL897:
2159:Core/Src/vl53l0x_api_core.c **** 			(SignalRatePerSpad < RangeIgnoreThresholdValue)) {
2160:Core/Src/vl53l0x_api_core.c **** 			/* Limit Fail add 2^6 to range status */
2161:Core/Src/vl53l0x_api_core.c **** 			RangeIgnoreThresholdflag = 1;
2162:Core/Src/vl53l0x_api_core.c **** 		}
2163:Core/Src/vl53l0x_api_core.c **** 	}
2164:Core/Src/vl53l0x_api_core.c **** 
ARM GAS  C:\Users\anmh1\AppData\Local\Temp\ccrmGbOb.s 			page 158


2165:Core/Src/vl53l0x_api_core.c **** 	if (Status == VL53L0X_ERROR_NONE) {
 5767              		.loc 1 2165 2 is_stmt 1 view .LVU2082
 5768              		.loc 1 2165 5 is_stmt 0 view .LVU2083
 5769 0196 98B9     		cbnz	r0, .L274
2166:Core/Src/vl53l0x_api_core.c **** 		if (NoneFlag == 1) {
 5770              		.loc 1 2166 3 is_stmt 1 view .LVU2084
 5771              		.loc 1 2166 6 is_stmt 0 view .LVU2085
 5772 0198 BBF1000F 		cmp	fp, #0
 5773 019c 0DD1     		bne	.L323
2167:Core/Src/vl53l0x_api_core.c **** 			*pPalRangeStatus = 255;	 /* NONE */
2168:Core/Src/vl53l0x_api_core.c **** 		} else if (DeviceRangeStatusInternal == 1 ||
 5774              		.loc 1 2168 10 is_stmt 1 view .LVU2086
2169:Core/Src/vl53l0x_api_core.c **** 					DeviceRangeStatusInternal == 2 ||
 5775              		.loc 1 2169 37 is_stmt 0 view .LVU2087
 5776 019e 6B1E     		subs	r3, r5, #1
 5777 01a0 DBB2     		uxtb	r3, r3
2168:Core/Src/vl53l0x_api_core.c **** 					DeviceRangeStatusInternal == 2 ||
 5778              		.loc 1 2168 13 view .LVU2088
 5779 01a2 022B     		cmp	r3, #2
 5780 01a4 27D8     		bhi	.L276
2170:Core/Src/vl53l0x_api_core.c **** 					DeviceRangeStatusInternal == 3) {
2171:Core/Src/vl53l0x_api_core.c **** 			*pPalRangeStatus = 5; /* HW fail */
 5781              		.loc 1 2171 4 is_stmt 1 view .LVU2089
 5782              		.loc 1 2171 21 is_stmt 0 view .LVU2090
 5783 01a6 0523     		movs	r3, #5
 5784 01a8 8AF80030 		strb	r3, [r10]
 5785 01ac 08E0     		b	.L274
 5786              	.LVL898:
 5787              	.L306:
2019:Core/Src/vl53l0x_api_core.c **** 	uint8_t SigmaLimitCheckEnable = 0;
 5788              		.loc 1 2019 10 view .LVU2091
 5789 01ae 4FF00008 		mov	r8, #0
 5790 01b2 F0E7     		b	.L272
 5791              	.L307:
2161:Core/Src/vl53l0x_api_core.c **** 		}
 5792              		.loc 1 2161 29 view .LVU2092
 5793 01b4 4FF00108 		mov	r8, #1
 5794 01b8 EDE7     		b	.L272
 5795              	.LVL899:
 5796              	.L323:
2167:Core/Src/vl53l0x_api_core.c **** 		} else if (DeviceRangeStatusInternal == 1 ||
 5797              		.loc 1 2167 4 is_stmt 1 view .LVU2093
2167:Core/Src/vl53l0x_api_core.c **** 		} else if (DeviceRangeStatusInternal == 1 ||
 5798              		.loc 1 2167 21 is_stmt 0 view .LVU2094
 5799 01ba FF23     		movs	r3, #255
 5800 01bc 8AF80030 		strb	r3, [r10]
 5801              	.L274:
2172:Core/Src/vl53l0x_api_core.c **** 		} else if (DeviceRangeStatusInternal == 6 ||
2173:Core/Src/vl53l0x_api_core.c **** 					DeviceRangeStatusInternal == 9) {
2174:Core/Src/vl53l0x_api_core.c **** 			*pPalRangeStatus = 4;  /* Phase fail */
2175:Core/Src/vl53l0x_api_core.c **** 		} else if (DeviceRangeStatusInternal == 8 ||
2176:Core/Src/vl53l0x_api_core.c **** 					DeviceRangeStatusInternal == 10 ||
2177:Core/Src/vl53l0x_api_core.c **** 					SignalRefClipflag == 1) {
2178:Core/Src/vl53l0x_api_core.c **** 			*pPalRangeStatus = 3;  /* Min range */
2179:Core/Src/vl53l0x_api_core.c **** 		} else if (DeviceRangeStatusInternal == 4 ||
2180:Core/Src/vl53l0x_api_core.c **** 					RangeIgnoreThresholdflag == 1) {
2181:Core/Src/vl53l0x_api_core.c **** 			*pPalRangeStatus = 2;  /* Signal Fail */
ARM GAS  C:\Users\anmh1\AppData\Local\Temp\ccrmGbOb.s 			page 159


2182:Core/Src/vl53l0x_api_core.c **** 		} else if (SigmaLimitflag == 1) {
2183:Core/Src/vl53l0x_api_core.c **** 			*pPalRangeStatus = 1;  /* Sigma	 Fail */
2184:Core/Src/vl53l0x_api_core.c **** 		} else {
2185:Core/Src/vl53l0x_api_core.c **** 			*pPalRangeStatus = 0; /* Range Valid */
2186:Core/Src/vl53l0x_api_core.c **** 		}
2187:Core/Src/vl53l0x_api_core.c **** 	}
2188:Core/Src/vl53l0x_api_core.c **** 
2189:Core/Src/vl53l0x_api_core.c **** 	/* DMAX only relevant during range error */
2190:Core/Src/vl53l0x_api_core.c **** 	if (*pPalRangeStatus == 0)
 5802              		.loc 1 2190 2 is_stmt 1 view .LVU2095
 5803              		.loc 1 2190 6 is_stmt 0 view .LVU2096
 5804 01c0 9AF80030 		ldrb	r3, [r10]	@ zero_extendqisi2
 5805              		.loc 1 2190 5 view .LVU2097
 5806 01c4 0BB9     		cbnz	r3, .L284
2191:Core/Src/vl53l0x_api_core.c **** 		pRangingMeasurementData->RangeDMaxMilliMeter = 0;
 5807              		.loc 1 2191 3 is_stmt 1 view .LVU2098
 5808              		.loc 1 2191 48 is_stmt 0 view .LVU2099
 5809 01c6 149A     		ldr	r2, [sp, #80]
 5810 01c8 5381     		strh	r3, [r2, #10]	@ movhi
 5811              	.L284:
2192:Core/Src/vl53l0x_api_core.c **** 
2193:Core/Src/vl53l0x_api_core.c **** 	/* fill the Limit Check Status */
2194:Core/Src/vl53l0x_api_core.c **** 
2195:Core/Src/vl53l0x_api_core.c **** 	Status =  VL53L0X_GetLimitCheckEnable(Dev,
 5812              		.loc 1 2195 2 is_stmt 1 view .LVU2100
 5813              		.loc 1 2195 12 is_stmt 0 view .LVU2101
 5814 01ca 0DF12602 		add	r2, sp, #38
 5815 01ce 0121     		movs	r1, #1
 5816 01d0 2046     		mov	r0, r4
 5817              	.LVL900:
 5818              		.loc 1 2195 12 view .LVU2102
 5819 01d2 FFF7FEFF 		bl	VL53L0X_GetLimitCheckEnable
 5820              	.LVL901:
2196:Core/Src/vl53l0x_api_core.c **** 			VL53L0X_CHECKENABLE_SIGNAL_RATE_FINAL_RANGE,
2197:Core/Src/vl53l0x_api_core.c **** 			&SignalRateFinalRangeLimitCheckEnable);
2198:Core/Src/vl53l0x_api_core.c **** 
2199:Core/Src/vl53l0x_api_core.c **** 	if (Status == VL53L0X_ERROR_NONE) {
 5821              		.loc 1 2199 2 is_stmt 1 view .LVU2103
 5822              		.loc 1 2199 5 is_stmt 0 view .LVU2104
 5823 01d6 0028     		cmp	r0, #0
 5824 01d8 43D1     		bne	.L285
2200:Core/Src/vl53l0x_api_core.c **** 		if ((SigmaLimitCheckEnable == 0) || (SigmaLimitflag == 1))
 5825              		.loc 1 2200 3 is_stmt 1 view .LVU2105
 5826              		.loc 1 2200 30 is_stmt 0 view .LVU2106
 5827 01da 9DF82730 		ldrb	r3, [sp, #39]	@ zero_extendqisi2
 5828              		.loc 1 2200 6 view .LVU2107
 5829 01de 0BB9     		cbnz	r3, .L286
2201:Core/Src/vl53l0x_api_core.c **** 			Temp8 = 1;
 5830              		.loc 1 2201 10 view .LVU2108
 5831 01e0 4FF00109 		mov	r9, #1
 5832              	.LVL902:
 5833              	.L286:
2202:Core/Src/vl53l0x_api_core.c **** 		else
2203:Core/Src/vl53l0x_api_core.c **** 			Temp8 = 0;
2204:Core/Src/vl53l0x_api_core.c **** 		VL53L0X_SETARRAYPARAMETERFIELD(Dev, LimitChecksStatus,
 5834              		.loc 1 2204 3 is_stmt 1 view .LVU2109
 5835 01e4 84F82E90 		strb	r9, [r4, #46]
ARM GAS  C:\Users\anmh1\AppData\Local\Temp\ccrmGbOb.s 			page 160


2205:Core/Src/vl53l0x_api_core.c **** 				VL53L0X_CHECKENABLE_SIGMA_FINAL_RANGE, Temp8);
2206:Core/Src/vl53l0x_api_core.c **** 
2207:Core/Src/vl53l0x_api_core.c **** 		if ((DeviceRangeStatusInternal == 4) ||
 5836              		.loc 1 2207 3 view .LVU2110
 5837              		.loc 1 2207 6 is_stmt 0 view .LVU2111
 5838 01e8 042D     		cmp	r5, #4
 5839 01ea 2AD0     		beq	.L309
2208:Core/Src/vl53l0x_api_core.c **** 				(SignalRateFinalRangeLimitCheckEnable == 0))
 5840              		.loc 1 2208 43 discriminator 1 view .LVU2112
 5841 01ec 9DF82630 		ldrb	r3, [sp, #38]	@ zero_extendqisi2
2207:Core/Src/vl53l0x_api_core.c **** 				(SignalRateFinalRangeLimitCheckEnable == 0))
 5842              		.loc 1 2207 40 discriminator 1 view .LVU2113
 5843 01f0 D3BB     		cbnz	r3, .L310
2209:Core/Src/vl53l0x_api_core.c **** 			Temp8 = 1;
 5844              		.loc 1 2209 10 view .LVU2114
 5845 01f2 0123     		movs	r3, #1
 5846 01f4 26E0     		b	.L287
 5847              	.LVL903:
 5848              	.L276:
2172:Core/Src/vl53l0x_api_core.c **** 					DeviceRangeStatusInternal == 9) {
 5849              		.loc 1 2172 10 is_stmt 1 view .LVU2115
2172:Core/Src/vl53l0x_api_core.c **** 					DeviceRangeStatusInternal == 9) {
 5850              		.loc 1 2172 13 is_stmt 0 view .LVU2116
 5851 01f6 062D     		cmp	r5, #6
 5852 01f8 13D0     		beq	.L277
2172:Core/Src/vl53l0x_api_core.c **** 					DeviceRangeStatusInternal == 9) {
 5853              		.loc 1 2172 45 discriminator 1 view .LVU2117
 5854 01fa 092D     		cmp	r5, #9
 5855 01fc 11D0     		beq	.L277
2175:Core/Src/vl53l0x_api_core.c **** 					DeviceRangeStatusInternal == 10 ||
 5856              		.loc 1 2175 10 is_stmt 1 view .LVU2118
2175:Core/Src/vl53l0x_api_core.c **** 					DeviceRangeStatusInternal == 10 ||
 5857              		.loc 1 2175 13 is_stmt 0 view .LVU2119
 5858 01fe 082D     		cmp	r5, #8
 5859 0200 13D0     		beq	.L279
2175:Core/Src/vl53l0x_api_core.c **** 					DeviceRangeStatusInternal == 10 ||
 5860              		.loc 1 2175 45 discriminator 1 view .LVU2120
 5861 0202 0A2D     		cmp	r5, #10
 5862 0204 11D0     		beq	.L279
2176:Core/Src/vl53l0x_api_core.c **** 					SignalRefClipflag == 1) {
 5863              		.loc 1 2176 38 view .LVU2121
 5864 0206 012F     		cmp	r7, #1
 5865 0208 0FD0     		beq	.L279
2179:Core/Src/vl53l0x_api_core.c **** 					RangeIgnoreThresholdflag == 1) {
 5866              		.loc 1 2179 10 is_stmt 1 view .LVU2122
2179:Core/Src/vl53l0x_api_core.c **** 					RangeIgnoreThresholdflag == 1) {
 5867              		.loc 1 2179 13 is_stmt 0 view .LVU2123
 5868 020a 042D     		cmp	r5, #4
 5869 020c 11D0     		beq	.L281
2179:Core/Src/vl53l0x_api_core.c **** 					RangeIgnoreThresholdflag == 1) {
 5870              		.loc 1 2179 45 discriminator 1 view .LVU2124
 5871 020e B8F1010F 		cmp	r8, #1
 5872 0212 0ED0     		beq	.L281
2182:Core/Src/vl53l0x_api_core.c **** 			*pPalRangeStatus = 1;  /* Sigma	 Fail */
 5873              		.loc 1 2182 10 is_stmt 1 view .LVU2125
2182:Core/Src/vl53l0x_api_core.c **** 			*pPalRangeStatus = 1;  /* Sigma	 Fail */
 5874              		.loc 1 2182 13 is_stmt 0 view .LVU2126
ARM GAS  C:\Users\anmh1\AppData\Local\Temp\ccrmGbOb.s 			page 161


 5875 0214 B9F1010F 		cmp	r9, #1
 5876 0218 0FD0     		beq	.L324
2185:Core/Src/vl53l0x_api_core.c **** 		}
 5877              		.loc 1 2185 4 is_stmt 1 view .LVU2127
2185:Core/Src/vl53l0x_api_core.c **** 		}
 5878              		.loc 1 2185 21 is_stmt 0 view .LVU2128
 5879 021a 0023     		movs	r3, #0
 5880 021c 8AF80030 		strb	r3, [r10]
 5881 0220 CEE7     		b	.L274
 5882              	.L277:
2174:Core/Src/vl53l0x_api_core.c **** 		} else if (DeviceRangeStatusInternal == 8 ||
 5883              		.loc 1 2174 4 is_stmt 1 view .LVU2129
2174:Core/Src/vl53l0x_api_core.c **** 		} else if (DeviceRangeStatusInternal == 8 ||
 5884              		.loc 1 2174 21 is_stmt 0 view .LVU2130
 5885 0222 0423     		movs	r3, #4
 5886 0224 8AF80030 		strb	r3, [r10]
 5887 0228 CAE7     		b	.L274
 5888              	.L279:
2178:Core/Src/vl53l0x_api_core.c **** 		} else if (DeviceRangeStatusInternal == 4 ||
 5889              		.loc 1 2178 4 is_stmt 1 view .LVU2131
2178:Core/Src/vl53l0x_api_core.c **** 		} else if (DeviceRangeStatusInternal == 4 ||
 5890              		.loc 1 2178 21 is_stmt 0 view .LVU2132
 5891 022a 0323     		movs	r3, #3
 5892 022c 8AF80030 		strb	r3, [r10]
 5893 0230 C6E7     		b	.L274
 5894              	.L281:
2181:Core/Src/vl53l0x_api_core.c **** 		} else if (SigmaLimitflag == 1) {
 5895              		.loc 1 2181 4 is_stmt 1 view .LVU2133
2181:Core/Src/vl53l0x_api_core.c **** 		} else if (SigmaLimitflag == 1) {
 5896              		.loc 1 2181 21 is_stmt 0 view .LVU2134
 5897 0232 0223     		movs	r3, #2
 5898 0234 8AF80030 		strb	r3, [r10]
 5899 0238 C2E7     		b	.L274
 5900              	.L324:
2183:Core/Src/vl53l0x_api_core.c **** 		} else {
 5901              		.loc 1 2183 4 is_stmt 1 view .LVU2135
2183:Core/Src/vl53l0x_api_core.c **** 		} else {
 5902              		.loc 1 2183 21 is_stmt 0 view .LVU2136
 5903 023a 0123     		movs	r3, #1
 5904 023c 8AF80030 		strb	r3, [r10]
 5905 0240 BEE7     		b	.L274
 5906              	.LVL904:
 5907              	.L309:
 5908              		.loc 1 2209 10 view .LVU2137
 5909 0242 0123     		movs	r3, #1
 5910              	.L287:
 5911              	.LVL905:
2210:Core/Src/vl53l0x_api_core.c **** 		else
2211:Core/Src/vl53l0x_api_core.c **** 			Temp8 = 0;
2212:Core/Src/vl53l0x_api_core.c **** 		VL53L0X_SETARRAYPARAMETERFIELD(Dev, LimitChecksStatus,
 5912              		.loc 1 2212 3 is_stmt 1 view .LVU2138
 5913 0244 84F82F30 		strb	r3, [r4, #47]
2213:Core/Src/vl53l0x_api_core.c **** 				VL53L0X_CHECKENABLE_SIGNAL_RATE_FINAL_RANGE,
2214:Core/Src/vl53l0x_api_core.c **** 				Temp8);
2215:Core/Src/vl53l0x_api_core.c **** 
2216:Core/Src/vl53l0x_api_core.c **** 		if ((SignalRefClipLimitCheckEnable == 0) ||
 5914              		.loc 1 2216 3 view .LVU2139
ARM GAS  C:\Users\anmh1\AppData\Local\Temp\ccrmGbOb.s 			page 162


 5915              		.loc 1 2216 38 is_stmt 0 view .LVU2140
 5916 0248 9DF82530 		ldrb	r3, [sp, #37]	@ zero_extendqisi2
 5917              	.LVL906:
 5918              		.loc 1 2216 6 view .LVU2141
 5919 024c 03B9     		cbnz	r3, .L288
2217:Core/Src/vl53l0x_api_core.c **** 					(SignalRefClipflag == 1))
2218:Core/Src/vl53l0x_api_core.c **** 			Temp8 = 1;
 5920              		.loc 1 2218 10 view .LVU2142
 5921 024e 0127     		movs	r7, #1
 5922              	.LVL907:
 5923              	.L288:
2219:Core/Src/vl53l0x_api_core.c **** 		else
2220:Core/Src/vl53l0x_api_core.c **** 			Temp8 = 0;
2221:Core/Src/vl53l0x_api_core.c **** 
2222:Core/Src/vl53l0x_api_core.c **** 		VL53L0X_SETARRAYPARAMETERFIELD(Dev, LimitChecksStatus,
 5924              		.loc 1 2222 3 is_stmt 1 view .LVU2143
 5925 0250 84F83070 		strb	r7, [r4, #48]
2223:Core/Src/vl53l0x_api_core.c **** 				VL53L0X_CHECKENABLE_SIGNAL_REF_CLIP, Temp8);
2224:Core/Src/vl53l0x_api_core.c **** 
2225:Core/Src/vl53l0x_api_core.c **** 		if ((RangeIgnoreThresholdLimitCheckEnable == 0) ||
 5926              		.loc 1 2225 3 view .LVU2144
 5927              		.loc 1 2225 45 is_stmt 0 view .LVU2145
 5928 0254 9DF82430 		ldrb	r3, [sp, #36]	@ zero_extendqisi2
 5929              		.loc 1 2225 6 view .LVU2146
 5930 0258 0BB9     		cbnz	r3, .L289
2226:Core/Src/vl53l0x_api_core.c **** 				(RangeIgnoreThresholdflag == 1))
2227:Core/Src/vl53l0x_api_core.c **** 			Temp8 = 1;
 5931              		.loc 1 2227 10 view .LVU2147
 5932 025a 4FF00108 		mov	r8, #1
 5933              	.LVL908:
 5934              	.L289:
2228:Core/Src/vl53l0x_api_core.c **** 		else
2229:Core/Src/vl53l0x_api_core.c **** 			Temp8 = 0;
2230:Core/Src/vl53l0x_api_core.c **** 
2231:Core/Src/vl53l0x_api_core.c **** 		VL53L0X_SETARRAYPARAMETERFIELD(Dev, LimitChecksStatus,
 5935              		.loc 1 2231 3 is_stmt 1 view .LVU2148
 5936 025e 84F83180 		strb	r8, [r4, #49]
 5937              	.LVL909:
 5938              	.L285:
2232:Core/Src/vl53l0x_api_core.c **** 				VL53L0X_CHECKENABLE_RANGE_IGNORE_THRESHOLD,
2233:Core/Src/vl53l0x_api_core.c **** 				Temp8);
2234:Core/Src/vl53l0x_api_core.c **** 	}
2235:Core/Src/vl53l0x_api_core.c **** 
2236:Core/Src/vl53l0x_api_core.c **** 	LOG_FUNCTION_END(Status);
 5939              		.loc 1 2236 2 view .LVU2149
2237:Core/Src/vl53l0x_api_core.c **** 	return Status;
 5940              		.loc 1 2237 2 view .LVU2150
2238:Core/Src/vl53l0x_api_core.c **** 
2239:Core/Src/vl53l0x_api_core.c **** }
 5941              		.loc 1 2239 1 is_stmt 0 view .LVU2151
 5942 0262 0BB0     		add	sp, sp, #44
 5943              		.cfi_remember_state
 5944              		.cfi_def_cfa_offset 36
 5945              		@ sp needed
 5946 0264 BDE8F08F 		pop	{r4, r5, r6, r7, r8, r9, r10, fp, pc}
 5947              	.LVL910:
 5948              	.L310:
ARM GAS  C:\Users\anmh1\AppData\Local\Temp\ccrmGbOb.s 			page 163


 5949              		.cfi_restore_state
2211:Core/Src/vl53l0x_api_core.c **** 		VL53L0X_SETARRAYPARAMETERFIELD(Dev, LimitChecksStatus,
 5950              		.loc 1 2211 10 view .LVU2152
 5951 0268 0023     		movs	r3, #0
 5952 026a EBE7     		b	.L287
 5953              		.cfi_endproc
 5954              	.LFE157:
 5956              		.text
 5957              	.Letext0:
 5958              		.file 2 "c:\\make\\test\\gcc-arm-none-eabi-9-2019-q4-major-win32\\arm-none-eabi\\include\\machine\
 5959              		.file 3 "c:\\make\\test\\gcc-arm-none-eabi-9-2019-q4-major-win32\\arm-none-eabi\\include\\sys\\_st
 5960              		.file 4 "Core/Inc/vl53l0x_types.h"
 5961              		.file 5 "Core/Inc/vl53l0x_device.h"
 5962              		.file 6 "Core/Inc/vl53l0x_def.h"
 5963              		.file 7 "c:\\make\\test\\gcc-arm-none-eabi-9-2019-q4-major-win32\\arm-none-eabi\\include\\sys\\loc
 5964              		.file 8 "c:\\make\\test\\gcc-arm-none-eabi-9-2019-q4-major-win32\\arm-none-eabi\\include\\sys\\_ty
 5965              		.file 9 "c:\\make\\test\\gcc-arm-none-eabi-9-2019-q4-major-win32\\lib\\gcc\\arm-none-eabi\\9.2.1\\
 5966              		.file 10 "c:\\make\\test\\gcc-arm-none-eabi-9-2019-q4-major-win32\\arm-none-eabi\\include\\sys\\re
 5967              		.file 11 "Drivers/CMSIS/Include/core_cm4.h"
 5968              		.file 12 "Drivers/CMSIS/Device/ST/STM32F4xx/Include/system_stm32f4xx.h"
 5969              		.file 13 "Drivers/CMSIS/Device/ST/STM32F4xx/Include/stm32f407xx.h"
 5970              		.file 14 "Drivers/STM32F4xx_HAL_Driver/Inc/stm32f4xx_hal_def.h"
 5971              		.file 15 "Drivers/STM32F4xx_HAL_Driver/Inc/stm32f4xx_hal_dma.h"
 5972              		.file 16 "Drivers/STM32F4xx_HAL_Driver/Inc/stm32f4xx_hal_i2c.h"
 5973              		.file 17 "Drivers/STM32F4xx_HAL_Driver/Inc/stm32f4xx_hal.h"
 5974              		.file 18 "Core/Inc/vl53l0x_platform.h"
 5975              		.file 19 "c:\\make\\test\\gcc-arm-none-eabi-9-2019-q4-major-win32\\arm-none-eabi\\include\\stdlib.
 5976              		.file 20 "Core/Inc/vl53l0x_api.h"
 5977              		.file 21 "Core/Inc/vl53l0x_api_calibration.h"
 5978              		.file 22 "c:\\make\\test\\gcc-arm-none-eabi-9-2019-q4-major-win32\\arm-none-eabi\\include\\string.
ARM GAS  C:\Users\anmh1\AppData\Local\Temp\ccrmGbOb.s 			page 164


DEFINED SYMBOLS
                            *ABS*:00000000 vl53l0x_api_core.c
C:\Users\anmh1\AppData\Local\Temp\ccrmGbOb.s:18     .text.VL53L0X_reverse_bytes:00000000 $t
C:\Users\anmh1\AppData\Local\Temp\ccrmGbOb.s:26     .text.VL53L0X_reverse_bytes:00000000 VL53L0X_reverse_bytes
C:\Users\anmh1\AppData\Local\Temp\ccrmGbOb.s:102    .text.VL53L0X_measurement_poll_for_completion:00000000 $t
C:\Users\anmh1\AppData\Local\Temp\ccrmGbOb.s:109    .text.VL53L0X_measurement_poll_for_completion:00000000 VL53L0X_measurement_poll_for_completion
C:\Users\anmh1\AppData\Local\Temp\ccrmGbOb.s:189    .text.VL53L0X_decode_vcsel_period:00000000 $t
C:\Users\anmh1\AppData\Local\Temp\ccrmGbOb.s:196    .text.VL53L0X_decode_vcsel_period:00000000 VL53L0X_decode_vcsel_period
C:\Users\anmh1\AppData\Local\Temp\ccrmGbOb.s:224    .text.VL53L0X_encode_vcsel_period:00000000 $t
C:\Users\anmh1\AppData\Local\Temp\ccrmGbOb.s:231    .text.VL53L0X_encode_vcsel_period:00000000 VL53L0X_encode_vcsel_period
C:\Users\anmh1\AppData\Local\Temp\ccrmGbOb.s:256    .text.VL53L0X_isqrt:00000000 $t
C:\Users\anmh1\AppData\Local\Temp\ccrmGbOb.s:263    .text.VL53L0X_isqrt:00000000 VL53L0X_isqrt
C:\Users\anmh1\AppData\Local\Temp\ccrmGbOb.s:333    .text.VL53L0X_quadrature_sum:00000000 $t
C:\Users\anmh1\AppData\Local\Temp\ccrmGbOb.s:340    .text.VL53L0X_quadrature_sum:00000000 VL53L0X_quadrature_sum
C:\Users\anmh1\AppData\Local\Temp\ccrmGbOb.s:394    .text.VL53L0X_device_read_strobe:00000000 $t
C:\Users\anmh1\AppData\Local\Temp\ccrmGbOb.s:401    .text.VL53L0X_device_read_strobe:00000000 VL53L0X_device_read_strobe
C:\Users\anmh1\AppData\Local\Temp\ccrmGbOb.s:497    .text.VL53L0X_get_info_from_device:00000000 $t
C:\Users\anmh1\AppData\Local\Temp\ccrmGbOb.s:504    .text.VL53L0X_get_info_from_device:00000000 VL53L0X_get_info_from_device
C:\Users\anmh1\AppData\Local\Temp\ccrmGbOb.s:1758   .text.VL53L0X_calc_macro_period_ps:00000000 $t
C:\Users\anmh1\AppData\Local\Temp\ccrmGbOb.s:1765   .text.VL53L0X_calc_macro_period_ps:00000000 VL53L0X_calc_macro_period_ps
C:\Users\anmh1\AppData\Local\Temp\ccrmGbOb.s:1793   .text.VL53L0X_calc_macro_period_ps:00000008 $d
C:\Users\anmh1\AppData\Local\Temp\ccrmGbOb.s:1798   .text.VL53L0X_encode_timeout:00000000 $t
C:\Users\anmh1\AppData\Local\Temp\ccrmGbOb.s:1805   .text.VL53L0X_encode_timeout:00000000 VL53L0X_encode_timeout
C:\Users\anmh1\AppData\Local\Temp\ccrmGbOb.s:1871   .text.VL53L0X_decode_timeout:00000000 $t
C:\Users\anmh1\AppData\Local\Temp\ccrmGbOb.s:1878   .text.VL53L0X_decode_timeout:00000000 VL53L0X_decode_timeout
C:\Users\anmh1\AppData\Local\Temp\ccrmGbOb.s:1906   .text.VL53L0X_calc_timeout_mclks:00000000 $t
C:\Users\anmh1\AppData\Local\Temp\ccrmGbOb.s:1913   .text.VL53L0X_calc_timeout_mclks:00000000 VL53L0X_calc_timeout_mclks
C:\Users\anmh1\AppData\Local\Temp\ccrmGbOb.s:1967   .text.VL53L0X_calc_timeout_mclks:00000028 $d
C:\Users\anmh1\AppData\Local\Temp\ccrmGbOb.s:1972   .text.VL53L0X_calc_timeout_us:00000000 $t
C:\Users\anmh1\AppData\Local\Temp\ccrmGbOb.s:1979   .text.VL53L0X_calc_timeout_us:00000000 VL53L0X_calc_timeout_us
C:\Users\anmh1\AppData\Local\Temp\ccrmGbOb.s:2032   .text.VL53L0X_calc_timeout_us:00000028 $d
C:\Users\anmh1\AppData\Local\Temp\ccrmGbOb.s:2037   .text.get_sequence_step_timeout:00000000 $t
C:\Users\anmh1\AppData\Local\Temp\ccrmGbOb.s:2044   .text.get_sequence_step_timeout:00000000 get_sequence_step_timeout
C:\Users\anmh1\AppData\Local\Temp\ccrmGbOb.s:2350   .text.set_sequence_step_timeout:00000000 $t
C:\Users\anmh1\AppData\Local\Temp\ccrmGbOb.s:2357   .text.set_sequence_step_timeout:00000000 set_sequence_step_timeout
C:\Users\anmh1\AppData\Local\Temp\ccrmGbOb.s:2649   .text.VL53L0X_set_vcsel_pulse_period:00000000 $t
C:\Users\anmh1\AppData\Local\Temp\ccrmGbOb.s:2656   .text.VL53L0X_set_vcsel_pulse_period:00000000 VL53L0X_set_vcsel_pulse_period
C:\Users\anmh1\AppData\Local\Temp\ccrmGbOb.s:3448   .text.VL53L0X_get_vcsel_pulse_period:00000000 $t
C:\Users\anmh1\AppData\Local\Temp\ccrmGbOb.s:3455   .text.VL53L0X_get_vcsel_pulse_period:00000000 VL53L0X_get_vcsel_pulse_period
C:\Users\anmh1\AppData\Local\Temp\ccrmGbOb.s:3540   .text.VL53L0X_set_measurement_timing_budget_micro_seconds:00000000 $t
C:\Users\anmh1\AppData\Local\Temp\ccrmGbOb.s:3547   .text.VL53L0X_set_measurement_timing_budget_micro_seconds:00000000 VL53L0X_set_measurement_timing_budget_micro_seconds
C:\Users\anmh1\AppData\Local\Temp\ccrmGbOb.s:3810   .text.VL53L0X_get_measurement_timing_budget_micro_seconds:00000000 $t
C:\Users\anmh1\AppData\Local\Temp\ccrmGbOb.s:3817   .text.VL53L0X_get_measurement_timing_budget_micro_seconds:00000000 VL53L0X_get_measurement_timing_budget_micro_seconds
C:\Users\anmh1\AppData\Local\Temp\ccrmGbOb.s:4022   .text.VL53L0X_load_tuning_settings:00000000 $t
C:\Users\anmh1\AppData\Local\Temp\ccrmGbOb.s:4029   .text.VL53L0X_load_tuning_settings:00000000 VL53L0X_load_tuning_settings
C:\Users\anmh1\AppData\Local\Temp\ccrmGbOb.s:4084   .text.VL53L0X_load_tuning_settings:0000001a $d
C:\Users\anmh1\AppData\Local\Temp\ccrmGbOb.s:4088   .text.VL53L0X_load_tuning_settings:0000001e $t
C:\Users\anmh1\AppData\Local\Temp\ccrmGbOb.s:4294   .text.VL53L0X_get_total_xtalk_rate:00000000 $t
C:\Users\anmh1\AppData\Local\Temp\ccrmGbOb.s:4301   .text.VL53L0X_get_total_xtalk_rate:00000000 VL53L0X_get_total_xtalk_rate
C:\Users\anmh1\AppData\Local\Temp\ccrmGbOb.s:4375   .text.VL53L0X_get_total_signal_rate:00000000 $t
C:\Users\anmh1\AppData\Local\Temp\ccrmGbOb.s:4382   .text.VL53L0X_get_total_signal_rate:00000000 VL53L0X_get_total_signal_rate
C:\Users\anmh1\AppData\Local\Temp\ccrmGbOb.s:4434   .text.VL53L0X_calc_dmax:00000000 $t
C:\Users\anmh1\AppData\Local\Temp\ccrmGbOb.s:4441   .text.VL53L0X_calc_dmax:00000000 VL53L0X_calc_dmax
C:\Users\anmh1\AppData\Local\Temp\ccrmGbOb.s:4751   .text.VL53L0X_calc_dmax:000000f0 $d
C:\Users\anmh1\AppData\Local\Temp\ccrmGbOb.s:4759   .text.VL53L0X_calc_sigma_estimate:00000000 $t
C:\Users\anmh1\AppData\Local\Temp\ccrmGbOb.s:4766   .text.VL53L0X_calc_sigma_estimate:00000000 VL53L0X_calc_sigma_estimate
C:\Users\anmh1\AppData\Local\Temp\ccrmGbOb.s:5363   .text.VL53L0X_calc_sigma_estimate:00000248 $d
ARM GAS  C:\Users\anmh1\AppData\Local\Temp\ccrmGbOb.s 			page 165


C:\Users\anmh1\AppData\Local\Temp\ccrmGbOb.s:5375   .text.VL53L0X_get_pal_range_status:00000000 $t
C:\Users\anmh1\AppData\Local\Temp\ccrmGbOb.s:5382   .text.VL53L0X_get_pal_range_status:00000000 VL53L0X_get_pal_range_status

UNDEFINED SYMBOLS
VL53L0X_GetMeasurementDataReady
VL53L0X_PollingDelay
VL53L0X_WrByte
VL53L0X_RdByte
VL53L0X_RdDWord
strcpy
VL53L0X_GetVcselPulsePeriod
VL53L0X_RdWord
VL53L0X_GetSequenceStepEnables
VL53L0X_WrWord
VL53L0X_SetMeasurementTimingBudgetMicroSeconds
VL53L0X_perform_phase_calibration
VL53L0X_WriteMulti
VL53L0X_GetXTalkCompensationEnable
VL53L0X_GetLimitCheckEnable
VL53L0X_GetLimitCheckValue
